ARM GAS  C:\Users\mathi\AppData\Local\Temp\ccw8i1Yt.s 			page 1


   1              		.cpu cortex-m4
   2              		.eabi_attribute 27, 1
   3              		.eabi_attribute 28, 1
   4              		.eabi_attribute 20, 1
   5              		.eabi_attribute 21, 1
   6              		.eabi_attribute 23, 3
   7              		.eabi_attribute 24, 1
   8              		.eabi_attribute 25, 1
   9              		.eabi_attribute 26, 1
  10              		.eabi_attribute 30, 2
  11              		.eabi_attribute 34, 1
  12              		.eabi_attribute 18, 4
  13              		.file	"vl53l0x_api.c"
  14              		.text
  15              	.Ltext0:
  16              		.cfi_sections	.debug_frame
  17              		.section	.text.VL53L0X_GetVersion,"ax",%progbits
  18              		.align	1
  19              		.p2align 4,,15
  20              		.global	VL53L0X_GetVersion
  21              		.syntax unified
  22              		.thumb
  23              		.thumb_func
  24              		.fpu fpv4-sp-d16
  25              		.type	VL53L0X_GetVersion, %function
  26              	VL53L0X_GetVersion:
  27              	.LFB3:
  28              		.file 1 "../../lib/e-puck2_main-processor/src/sensors/VL53L0X/Api/core/src/vl53l0x_api.c"
  29              		.loc 1 54 0
  30              		.cfi_startproc
  31              		@ args = 0, pretend = 0, frame = 8
  32              		@ frame_needed = 0, uses_anonymous_args = 0
  33              	.LVL0:
  34 0000 10B5     		push	{r4, lr}
  35              		.cfi_def_cfa_offset 8
  36              		.cfi_offset 4, -8
  37              		.cfi_offset 14, -4
  38 0002 0A4B     		ldr	r3, .L6
  39 0004 82B0     		sub	sp, sp, #8
  40              		.cfi_def_cfa_offset 16
  41              		.loc 1 54 0
  42 0006 1A68     		ldr	r2, [r3]
  43 0008 0192     		str	r2, [sp, #4]
  44              	.LVL1:
  45              		.loc 1 62 0
  46 000a 41F2D722 		movw	r2, #4823
  47 000e 0260     		str	r2, [r0]
  48              		.loc 1 66 0
  49 0010 019A     		ldr	r2, [sp, #4]
  50 0012 1B68     		ldr	r3, [r3]
  51              		.loc 1 62 0
  52 0014 0124     		movs	r4, #1
  53              		.loc 1 59 0
  54 0016 0221     		movs	r1, #2
  55              		.loc 1 66 0
  56 0018 9A42     		cmp	r2, r3
  57              		.loc 1 62 0
ARM GAS  C:\Users\mathi\AppData\Local\Temp\ccw8i1Yt.s 			page 2


  58 001a 8480     		strh	r4, [r0, #4]	@ movhi
  59              		.loc 1 59 0
  60 001c 8171     		strb	r1, [r0, #6]
  61              		.loc 1 66 0
  62 001e 02D1     		bne	.L5
  63 0020 0020     		movs	r0, #0
  64              	.LVL2:
  65 0022 02B0     		add	sp, sp, #8
  66              		.cfi_remember_state
  67              		.cfi_def_cfa_offset 8
  68              		@ sp needed
  69 0024 10BD     		pop	{r4, pc}
  70              	.LVL3:
  71              	.L5:
  72              		.cfi_restore_state
  73 0026 FFF7FEFF 		bl	__stack_chk_fail
  74              	.LVL4:
  75              	.L7:
  76 002a 00BF     		.align	2
  77              	.L6:
  78 002c 00000000 		.word	__stack_chk_guard
  79              		.cfi_endproc
  80              	.LFE3:
  81              		.size	VL53L0X_GetVersion, .-VL53L0X_GetVersion
  82              		.section	.text.VL53L0X_GetPalSpecVersion,"ax",%progbits
  83              		.align	1
  84              		.p2align 4,,15
  85              		.global	VL53L0X_GetPalSpecVersion
  86              		.syntax unified
  87              		.thumb
  88              		.thumb_func
  89              		.fpu fpv4-sp-d16
  90              		.type	VL53L0X_GetPalSpecVersion, %function
  91              	VL53L0X_GetPalSpecVersion:
  92              	.LFB4:
  93              		.loc 1 69 0
  94              		.cfi_startproc
  95              		@ args = 0, pretend = 0, frame = 8
  96              		@ frame_needed = 0, uses_anonymous_args = 0
  97              	.LVL5:
  98 0000 10B5     		push	{r4, lr}
  99              		.cfi_def_cfa_offset 8
 100              		.cfi_offset 4, -8
 101              		.cfi_offset 14, -4
 102 0002 0A4B     		ldr	r3, .L12
 103 0004 82B0     		sub	sp, sp, #8
 104              		.cfi_def_cfa_offset 16
 105              		.loc 1 69 0
 106 0006 1A68     		ldr	r2, [r3]
 107 0008 0192     		str	r2, [sp, #4]
 108              	.LVL6:
 109              		.loc 1 78 0
 110 000a 4FF4B462 		mov	r2, #1440
 111 000e 0260     		str	r2, [r0]
 112              		.loc 1 82 0
 113 0010 019A     		ldr	r2, [sp, #4]
 114 0012 1B68     		ldr	r3, [r3]
ARM GAS  C:\Users\mathi\AppData\Local\Temp\ccw8i1Yt.s 			page 3


 115              		.loc 1 78 0
 116 0014 40F20124 		movw	r4, #513
 117              		.loc 1 75 0
 118 0018 0721     		movs	r1, #7
 119              		.loc 1 82 0
 120 001a 9A42     		cmp	r2, r3
 121              		.loc 1 78 0
 122 001c 8480     		strh	r4, [r0, #4]	@ movhi
 123              		.loc 1 75 0
 124 001e 8171     		strb	r1, [r0, #6]
 125              		.loc 1 82 0
 126 0020 02D1     		bne	.L11
 127 0022 0020     		movs	r0, #0
 128              	.LVL7:
 129 0024 02B0     		add	sp, sp, #8
 130              		.cfi_remember_state
 131              		.cfi_def_cfa_offset 8
 132              		@ sp needed
 133 0026 10BD     		pop	{r4, pc}
 134              	.LVL8:
 135              	.L11:
 136              		.cfi_restore_state
 137 0028 FFF7FEFF 		bl	__stack_chk_fail
 138              	.LVL9:
 139              	.L13:
 140              		.align	2
 141              	.L12:
 142 002c 00000000 		.word	__stack_chk_guard
 143              		.cfi_endproc
 144              	.LFE4:
 145              		.size	VL53L0X_GetPalSpecVersion, .-VL53L0X_GetPalSpecVersion
 146              		.section	.text.VL53L0X_GetProductRevision,"ax",%progbits
 147              		.align	1
 148              		.p2align 4,,15
 149              		.global	VL53L0X_GetProductRevision
 150              		.syntax unified
 151              		.thumb
 152              		.thumb_func
 153              		.fpu fpv4-sp-d16
 154              		.type	VL53L0X_GetProductRevision, %function
 155              	VL53L0X_GetProductRevision:
 156              	.LFB5:
 157              		.loc 1 86 0
 158              		.cfi_startproc
 159              		@ args = 0, pretend = 0, frame = 8
 160              		@ frame_needed = 0, uses_anonymous_args = 0
 161              	.LVL10:
 162 0000 70B5     		push	{r4, r5, r6, lr}
 163              		.cfi_def_cfa_offset 16
 164              		.cfi_offset 4, -16
 165              		.cfi_offset 5, -12
 166              		.cfi_offset 6, -8
 167              		.cfi_offset 14, -4
 168 0002 0C4C     		ldr	r4, .L18
 169 0004 82B0     		sub	sp, sp, #8
 170              		.cfi_def_cfa_offset 24
 171              		.loc 1 86 0
ARM GAS  C:\Users\mathi\AppData\Local\Temp\ccw8i1Yt.s 			page 4


 172 0006 2368     		ldr	r3, [r4]
 173 0008 0193     		str	r3, [sp, #4]
 174              	.LVL11:
 175 000a 0E46     		mov	r6, r1
 176 000c 1546     		mov	r5, r2
 177              		.loc 1 92 0
 178 000e C221     		movs	r1, #194
 179              	.LVL12:
 180 0010 0DF10302 		add	r2, sp, #3
 181              	.LVL13:
 182 0014 FFF7FEFF 		bl	VL53L0X_RdByte
 183              	.LVL14:
 184              		.loc 1 95 0
 185 0018 9DF80330 		ldrb	r3, [sp, #3]	@ zero_extendqisi2
 186              		.loc 1 100 0
 187 001c 019A     		ldr	r2, [sp, #4]
 188              		.loc 1 95 0
 189 001e 1B09     		lsrs	r3, r3, #4
 190              		.loc 1 94 0
 191 0020 0121     		movs	r1, #1
 192 0022 3170     		strb	r1, [r6]
 193              		.loc 1 95 0
 194 0024 2B70     		strb	r3, [r5]
 195              		.loc 1 100 0
 196 0026 2368     		ldr	r3, [r4]
 197 0028 9A42     		cmp	r2, r3
 198 002a 01D1     		bne	.L17
 199 002c 02B0     		add	sp, sp, #8
 200              		.cfi_remember_state
 201              		.cfi_def_cfa_offset 16
 202              		@ sp needed
 203 002e 70BD     		pop	{r4, r5, r6, pc}
 204              	.LVL15:
 205              	.L17:
 206              		.cfi_restore_state
 207 0030 FFF7FEFF 		bl	__stack_chk_fail
 208              	.LVL16:
 209              	.L19:
 210              		.align	2
 211              	.L18:
 212 0034 00000000 		.word	__stack_chk_guard
 213              		.cfi_endproc
 214              	.LFE5:
 215              		.size	VL53L0X_GetProductRevision, .-VL53L0X_GetProductRevision
 216              		.section	.text.VL53L0X_GetDeviceInfo,"ax",%progbits
 217              		.align	1
 218              		.p2align 4,,15
 219              		.global	VL53L0X_GetDeviceInfo
 220              		.syntax unified
 221              		.thumb
 222              		.thumb_func
 223              		.fpu fpv4-sp-d16
 224              		.type	VL53L0X_GetDeviceInfo, %function
 225              	VL53L0X_GetDeviceInfo:
 226              	.LFB6:
 227              		.loc 1 104 0
 228              		.cfi_startproc
ARM GAS  C:\Users\mathi\AppData\Local\Temp\ccw8i1Yt.s 			page 5


 229              		@ args = 0, pretend = 0, frame = 8
 230              		@ frame_needed = 0, uses_anonymous_args = 0
 231              	.LVL17:
 232 0000 00B5     		push	{lr}
 233              		.cfi_def_cfa_offset 4
 234              		.cfi_offset 14, -4
 235 0002 074B     		ldr	r3, .L25
 236 0004 83B0     		sub	sp, sp, #12
 237              		.cfi_def_cfa_offset 16
 238              		.loc 1 104 0
 239 0006 1A68     		ldr	r2, [r3]
 240 0008 0192     		str	r2, [sp, #4]
 241              	.LVL18:
 242              		.loc 1 108 0
 243 000a 019A     		ldr	r2, [sp, #4]
 244 000c 1B68     		ldr	r3, [r3]
 245 000e 9A42     		cmp	r2, r3
 246 0010 04D1     		bne	.L24
 247              		.loc 1 112 0
 248 0012 03B0     		add	sp, sp, #12
 249              		.cfi_remember_state
 250              		.cfi_def_cfa_offset 4
 251              		@ sp needed
 252 0014 5DF804EB 		ldr	lr, [sp], #4
 253              		.cfi_restore 14
 254              		.cfi_def_cfa_offset 0
 255              		.loc 1 108 0
 256 0018 FFF7FEBF 		b	VL53L0X_get_device_info
 257              	.LVL19:
 258              	.L24:
 259              		.cfi_restore_state
 260 001c FFF7FEFF 		bl	__stack_chk_fail
 261              	.LVL20:
 262              	.L26:
 263              		.align	2
 264              	.L25:
 265 0020 00000000 		.word	__stack_chk_guard
 266              		.cfi_endproc
 267              	.LFE6:
 268              		.size	VL53L0X_GetDeviceInfo, .-VL53L0X_GetDeviceInfo
 269              		.section	.text.VL53L0X_GetDeviceErrorStatus,"ax",%progbits
 270              		.align	1
 271              		.p2align 4,,15
 272              		.global	VL53L0X_GetDeviceErrorStatus
 273              		.syntax unified
 274              		.thumb
 275              		.thumb_func
 276              		.fpu fpv4-sp-d16
 277              		.type	VL53L0X_GetDeviceErrorStatus, %function
 278              	VL53L0X_GetDeviceErrorStatus:
 279              	.LFB7:
 280              		.loc 1 116 0
 281              		.cfi_startproc
 282              		@ args = 0, pretend = 0, frame = 8
 283              		@ frame_needed = 0, uses_anonymous_args = 0
 284              	.LVL21:
 285 0000 30B5     		push	{r4, r5, lr}
ARM GAS  C:\Users\mathi\AppData\Local\Temp\ccw8i1Yt.s 			page 6


 286              		.cfi_def_cfa_offset 12
 287              		.cfi_offset 4, -12
 288              		.cfi_offset 5, -8
 289              		.cfi_offset 14, -4
 290 0002 0B4C     		ldr	r4, .L31
 291 0004 83B0     		sub	sp, sp, #12
 292              		.cfi_def_cfa_offset 24
 293              		.loc 1 116 0
 294 0006 2368     		ldr	r3, [r4]
 295 0008 0193     		str	r3, [sp, #4]
 296              	.LVL22:
 297 000a 0D46     		mov	r5, r1
 298              		.loc 1 122 0
 299 000c 0DF10302 		add	r2, sp, #3
 300 0010 1421     		movs	r1, #20
 301              	.LVL23:
 302 0012 FFF7FEFF 		bl	VL53L0X_RdByte
 303              	.LVL24:
 304              		.loc 1 125 0
 305 0016 9DF80330 		ldrb	r3, [sp, #3]	@ zero_extendqisi2
 306              		.loc 1 129 0
 307 001a 019A     		ldr	r2, [sp, #4]
 308              		.loc 1 125 0
 309 001c C3F3C303 		ubfx	r3, r3, #3, #4
 310 0020 2B70     		strb	r3, [r5]
 311              		.loc 1 129 0
 312 0022 2368     		ldr	r3, [r4]
 313 0024 9A42     		cmp	r2, r3
 314 0026 01D1     		bne	.L30
 315 0028 03B0     		add	sp, sp, #12
 316              		.cfi_remember_state
 317              		.cfi_def_cfa_offset 12
 318              		@ sp needed
 319 002a 30BD     		pop	{r4, r5, pc}
 320              	.LVL25:
 321              	.L30:
 322              		.cfi_restore_state
 323 002c FFF7FEFF 		bl	__stack_chk_fail
 324              	.LVL26:
 325              	.L32:
 326              		.align	2
 327              	.L31:
 328 0030 00000000 		.word	__stack_chk_guard
 329              		.cfi_endproc
 330              	.LFE7:
 331              		.size	VL53L0X_GetDeviceErrorStatus, .-VL53L0X_GetDeviceErrorStatus
 332              		.section	.text.VL53L0X_GetDeviceErrorString,"ax",%progbits
 333              		.align	1
 334              		.p2align 4,,15
 335              		.global	VL53L0X_GetDeviceErrorString
 336              		.syntax unified
 337              		.thumb
 338              		.thumb_func
 339              		.fpu fpv4-sp-d16
 340              		.type	VL53L0X_GetDeviceErrorString, %function
 341              	VL53L0X_GetDeviceErrorString:
 342              	.LFB8:
ARM GAS  C:\Users\mathi\AppData\Local\Temp\ccw8i1Yt.s 			page 7


 343              		.loc 1 134 0
 344              		.cfi_startproc
 345              		@ args = 0, pretend = 0, frame = 8
 346              		@ frame_needed = 0, uses_anonymous_args = 0
 347              	.LVL27:
 348 0000 00B5     		push	{lr}
 349              		.cfi_def_cfa_offset 4
 350              		.cfi_offset 14, -4
 351 0002 074B     		ldr	r3, .L38
 352 0004 83B0     		sub	sp, sp, #12
 353              		.cfi_def_cfa_offset 16
 354              		.loc 1 134 0
 355 0006 1A68     		ldr	r2, [r3]
 356 0008 0192     		str	r2, [sp, #4]
 357              	.LVL28:
 358              		.loc 1 139 0
 359 000a 019A     		ldr	r2, [sp, #4]
 360 000c 1B68     		ldr	r3, [r3]
 361 000e 9A42     		cmp	r2, r3
 362 0010 04D1     		bne	.L37
 363              		.loc 1 143 0
 364 0012 03B0     		add	sp, sp, #12
 365              		.cfi_remember_state
 366              		.cfi_def_cfa_offset 4
 367              		@ sp needed
 368 0014 5DF804EB 		ldr	lr, [sp], #4
 369              		.cfi_restore 14
 370              		.cfi_def_cfa_offset 0
 371              		.loc 1 139 0
 372 0018 FFF7FEBF 		b	VL53L0X_get_device_error_string
 373              	.LVL29:
 374              	.L37:
 375              		.cfi_restore_state
 376 001c FFF7FEFF 		bl	__stack_chk_fail
 377              	.LVL30:
 378              	.L39:
 379              		.align	2
 380              	.L38:
 381 0020 00000000 		.word	__stack_chk_guard
 382              		.cfi_endproc
 383              	.LFE8:
 384              		.size	VL53L0X_GetDeviceErrorString, .-VL53L0X_GetDeviceErrorString
 385              		.section	.text.VL53L0X_GetRangeStatusString,"ax",%progbits
 386              		.align	1
 387              		.p2align 4,,15
 388              		.global	VL53L0X_GetRangeStatusString
 389              		.syntax unified
 390              		.thumb
 391              		.thumb_func
 392              		.fpu fpv4-sp-d16
 393              		.type	VL53L0X_GetRangeStatusString, %function
 394              	VL53L0X_GetRangeStatusString:
 395              	.LFB9:
 396              		.loc 1 147 0
 397              		.cfi_startproc
 398              		@ args = 0, pretend = 0, frame = 8
 399              		@ frame_needed = 0, uses_anonymous_args = 0
ARM GAS  C:\Users\mathi\AppData\Local\Temp\ccw8i1Yt.s 			page 8


 400              	.LVL31:
 401 0000 00B5     		push	{lr}
 402              		.cfi_def_cfa_offset 4
 403              		.cfi_offset 14, -4
 404 0002 074B     		ldr	r3, .L45
 405 0004 83B0     		sub	sp, sp, #12
 406              		.cfi_def_cfa_offset 16
 407              		.loc 1 147 0
 408 0006 1A68     		ldr	r2, [r3]
 409 0008 0192     		str	r2, [sp, #4]
 410              	.LVL32:
 411              		.loc 1 151 0
 412 000a 019A     		ldr	r2, [sp, #4]
 413 000c 1B68     		ldr	r3, [r3]
 414 000e 9A42     		cmp	r2, r3
 415 0010 04D1     		bne	.L44
 416              		.loc 1 156 0
 417 0012 03B0     		add	sp, sp, #12
 418              		.cfi_remember_state
 419              		.cfi_def_cfa_offset 4
 420              		@ sp needed
 421 0014 5DF804EB 		ldr	lr, [sp], #4
 422              		.cfi_restore 14
 423              		.cfi_def_cfa_offset 0
 424              		.loc 1 151 0
 425 0018 FFF7FEBF 		b	VL53L0X_get_range_status_string
 426              	.LVL33:
 427              	.L44:
 428              		.cfi_restore_state
 429 001c FFF7FEFF 		bl	__stack_chk_fail
 430              	.LVL34:
 431              	.L46:
 432              		.align	2
 433              	.L45:
 434 0020 00000000 		.word	__stack_chk_guard
 435              		.cfi_endproc
 436              	.LFE9:
 437              		.size	VL53L0X_GetRangeStatusString, .-VL53L0X_GetRangeStatusString
 438              		.section	.text.VL53L0X_GetPalErrorString,"ax",%progbits
 439              		.align	1
 440              		.p2align 4,,15
 441              		.global	VL53L0X_GetPalErrorString
 442              		.syntax unified
 443              		.thumb
 444              		.thumb_func
 445              		.fpu fpv4-sp-d16
 446              		.type	VL53L0X_GetPalErrorString, %function
 447              	VL53L0X_GetPalErrorString:
 448              	.LFB10:
 449              		.loc 1 160 0
 450              		.cfi_startproc
 451              		@ args = 0, pretend = 0, frame = 8
 452              		@ frame_needed = 0, uses_anonymous_args = 0
 453              	.LVL35:
 454 0000 00B5     		push	{lr}
 455              		.cfi_def_cfa_offset 4
 456              		.cfi_offset 14, -4
ARM GAS  C:\Users\mathi\AppData\Local\Temp\ccw8i1Yt.s 			page 9


 457 0002 074B     		ldr	r3, .L52
 458 0004 83B0     		sub	sp, sp, #12
 459              		.cfi_def_cfa_offset 16
 460              		.loc 1 160 0
 461 0006 1A68     		ldr	r2, [r3]
 462 0008 0192     		str	r2, [sp, #4]
 463              	.LVL36:
 464              		.loc 1 164 0
 465 000a 019A     		ldr	r2, [sp, #4]
 466 000c 1B68     		ldr	r3, [r3]
 467 000e 9A42     		cmp	r2, r3
 468 0010 04D1     		bne	.L51
 469              		.loc 1 168 0
 470 0012 03B0     		add	sp, sp, #12
 471              		.cfi_remember_state
 472              		.cfi_def_cfa_offset 4
 473              		@ sp needed
 474 0014 5DF804EB 		ldr	lr, [sp], #4
 475              		.cfi_restore 14
 476              		.cfi_def_cfa_offset 0
 477              		.loc 1 164 0
 478 0018 FFF7FEBF 		b	VL53L0X_get_pal_error_string
 479              	.LVL37:
 480              	.L51:
 481              		.cfi_restore_state
 482 001c FFF7FEFF 		bl	__stack_chk_fail
 483              	.LVL38:
 484              	.L53:
 485              		.align	2
 486              	.L52:
 487 0020 00000000 		.word	__stack_chk_guard
 488              		.cfi_endproc
 489              	.LFE10:
 490              		.size	VL53L0X_GetPalErrorString, .-VL53L0X_GetPalErrorString
 491              		.section	.text.VL53L0X_GetPalStateString,"ax",%progbits
 492              		.align	1
 493              		.p2align 4,,15
 494              		.global	VL53L0X_GetPalStateString
 495              		.syntax unified
 496              		.thumb
 497              		.thumb_func
 498              		.fpu fpv4-sp-d16
 499              		.type	VL53L0X_GetPalStateString, %function
 500              	VL53L0X_GetPalStateString:
 501              	.LFB11:
 502              		.loc 1 172 0
 503              		.cfi_startproc
 504              		@ args = 0, pretend = 0, frame = 8
 505              		@ frame_needed = 0, uses_anonymous_args = 0
 506              	.LVL39:
 507 0000 00B5     		push	{lr}
 508              		.cfi_def_cfa_offset 4
 509              		.cfi_offset 14, -4
 510 0002 074B     		ldr	r3, .L59
 511 0004 83B0     		sub	sp, sp, #12
 512              		.cfi_def_cfa_offset 16
 513              		.loc 1 172 0
ARM GAS  C:\Users\mathi\AppData\Local\Temp\ccw8i1Yt.s 			page 10


 514 0006 1A68     		ldr	r2, [r3]
 515 0008 0192     		str	r2, [sp, #4]
 516              	.LVL40:
 517              		.loc 1 176 0
 518 000a 019A     		ldr	r2, [sp, #4]
 519 000c 1B68     		ldr	r3, [r3]
 520 000e 9A42     		cmp	r2, r3
 521 0010 04D1     		bne	.L58
 522              		.loc 1 180 0
 523 0012 03B0     		add	sp, sp, #12
 524              		.cfi_remember_state
 525              		.cfi_def_cfa_offset 4
 526              		@ sp needed
 527 0014 5DF804EB 		ldr	lr, [sp], #4
 528              		.cfi_restore 14
 529              		.cfi_def_cfa_offset 0
 530              		.loc 1 176 0
 531 0018 FFF7FEBF 		b	VL53L0X_get_pal_state_string
 532              	.LVL41:
 533              	.L58:
 534              		.cfi_restore_state
 535 001c FFF7FEFF 		bl	__stack_chk_fail
 536              	.LVL42:
 537              	.L60:
 538              		.align	2
 539              	.L59:
 540 0020 00000000 		.word	__stack_chk_guard
 541              		.cfi_endproc
 542              	.LFE11:
 543              		.size	VL53L0X_GetPalStateString, .-VL53L0X_GetPalStateString
 544              		.section	.text.VL53L0X_GetPalState,"ax",%progbits
 545              		.align	1
 546              		.p2align 4,,15
 547              		.global	VL53L0X_GetPalState
 548              		.syntax unified
 549              		.thumb
 550              		.thumb_func
 551              		.fpu fpv4-sp-d16
 552              		.type	VL53L0X_GetPalState, %function
 553              	VL53L0X_GetPalState:
 554              	.LFB12:
 555              		.loc 1 183 0
 556              		.cfi_startproc
 557              		@ args = 0, pretend = 0, frame = 8
 558              		@ frame_needed = 0, uses_anonymous_args = 0
 559              	.LVL43:
 560 0000 00B5     		push	{lr}
 561              		.cfi_def_cfa_offset 4
 562              		.cfi_offset 14, -4
 563 0002 084B     		ldr	r3, .L65
 564              		.loc 1 187 0
 565 0004 90F83221 		ldrb	r2, [r0, #306]	@ zero_extendqisi2
 566              		.loc 1 183 0
 567 0008 1868     		ldr	r0, [r3]
 568              	.LVL44:
 569              		.loc 1 187 0
 570 000a 0A70     		strb	r2, [r1]
ARM GAS  C:\Users\mathi\AppData\Local\Temp\ccw8i1Yt.s 			page 11


 571              		.loc 1 183 0
 572 000c 83B0     		sub	sp, sp, #12
 573              		.cfi_def_cfa_offset 16
 574              		.loc 1 183 0
 575 000e 0190     		str	r0, [sp, #4]
 576              	.LVL45:
 577              		.loc 1 191 0
 578 0010 019A     		ldr	r2, [sp, #4]
 579 0012 1B68     		ldr	r3, [r3]
 580 0014 9A42     		cmp	r2, r3
 581 0016 03D1     		bne	.L64
 582 0018 0020     		movs	r0, #0
 583 001a 03B0     		add	sp, sp, #12
 584              		.cfi_remember_state
 585              		.cfi_def_cfa_offset 4
 586              		@ sp needed
 587 001c 5DF804FB 		ldr	pc, [sp], #4
 588              	.L64:
 589              		.cfi_restore_state
 590 0020 FFF7FEFF 		bl	__stack_chk_fail
 591              	.LVL46:
 592              	.L66:
 593              		.align	2
 594              	.L65:
 595 0024 00000000 		.word	__stack_chk_guard
 596              		.cfi_endproc
 597              	.LFE12:
 598              		.size	VL53L0X_GetPalState, .-VL53L0X_GetPalState
 599              		.section	.text.VL53L0X_GetPowerMode,"ax",%progbits
 600              		.align	1
 601              		.p2align 4,,15
 602              		.global	VL53L0X_GetPowerMode
 603              		.syntax unified
 604              		.thumb
 605              		.thumb_func
 606              		.fpu fpv4-sp-d16
 607              		.type	VL53L0X_GetPowerMode, %function
 608              	VL53L0X_GetPowerMode:
 609              	.LFB14:
 610              		.loc 1 230 0
 611              		.cfi_startproc
 612              		@ args = 0, pretend = 0, frame = 8
 613              		@ frame_needed = 0, uses_anonymous_args = 0
 614              	.LVL47:
 615 0000 30B5     		push	{r4, r5, lr}
 616              		.cfi_def_cfa_offset 12
 617              		.cfi_offset 4, -12
 618              		.cfi_offset 5, -8
 619              		.cfi_offset 14, -4
 620 0002 0E4C     		ldr	r4, .L73
 621 0004 83B0     		sub	sp, sp, #12
 622              		.cfi_def_cfa_offset 24
 623              		.loc 1 230 0
 624 0006 2368     		ldr	r3, [r4]
 625 0008 0193     		str	r3, [sp, #4]
 626              	.LVL48:
 627              		.loc 1 237 0
ARM GAS  C:\Users\mathi\AppData\Local\Temp\ccw8i1Yt.s 			page 12


 628 000a 0DF10302 		add	r2, sp, #3
 629 000e 8021     		movs	r1, #128
 630              	.LVL49:
 631              		.loc 1 230 0
 632 0010 0546     		mov	r5, r0
 633              		.loc 1 237 0
 634 0012 FFF7FEFF 		bl	VL53L0X_RdByte
 635              	.LVL50:
 636              		.loc 1 239 0
 637 0016 40B9     		cbnz	r0, .L68
 638              		.loc 1 240 0
 639 0018 9DF80330 		ldrb	r3, [sp, #3]	@ zero_extendqisi2
 640 001c 012B     		cmp	r3, #1
 641              		.loc 1 241 0
 642 001e 06BF     		itte	eq
 643 0020 0223     		moveq	r3, #2
 644 0022 85F83331 		strbeq	r3, [r5, #307]
 645              		.loc 1 244 0
 646 0026 85F83301 		strbne	r0, [r5, #307]
 647              	.L68:
 648              		.loc 1 251 0
 649 002a 019A     		ldr	r2, [sp, #4]
 650 002c 2368     		ldr	r3, [r4]
 651 002e 9A42     		cmp	r2, r3
 652 0030 01D1     		bne	.L72
 653 0032 03B0     		add	sp, sp, #12
 654              		.cfi_remember_state
 655              		.cfi_def_cfa_offset 12
 656              		@ sp needed
 657 0034 30BD     		pop	{r4, r5, pc}
 658              	.LVL51:
 659              	.L72:
 660              		.cfi_restore_state
 661 0036 FFF7FEFF 		bl	__stack_chk_fail
 662              	.LVL52:
 663              	.L74:
 664 003a 00BF     		.align	2
 665              	.L73:
 666 003c 00000000 		.word	__stack_chk_guard
 667              		.cfi_endproc
 668              	.LFE14:
 669              		.size	VL53L0X_GetPowerMode, .-VL53L0X_GetPowerMode
 670              		.section	.text.VL53L0X_SetOffsetCalibrationDataMicroMeter,"ax",%progbits
 671              		.align	1
 672              		.p2align 4,,15
 673              		.global	VL53L0X_SetOffsetCalibrationDataMicroMeter
 674              		.syntax unified
 675              		.thumb
 676              		.thumb_func
 677              		.fpu fpv4-sp-d16
 678              		.type	VL53L0X_SetOffsetCalibrationDataMicroMeter, %function
 679              	VL53L0X_SetOffsetCalibrationDataMicroMeter:
 680              	.LFB15:
 681              		.loc 1 255 0
 682              		.cfi_startproc
 683              		@ args = 0, pretend = 0, frame = 8
 684              		@ frame_needed = 0, uses_anonymous_args = 0
ARM GAS  C:\Users\mathi\AppData\Local\Temp\ccw8i1Yt.s 			page 13


 685              	.LVL53:
 686 0000 00B5     		push	{lr}
 687              		.cfi_def_cfa_offset 4
 688              		.cfi_offset 14, -4
 689 0002 074B     		ldr	r3, .L80
 690 0004 83B0     		sub	sp, sp, #12
 691              		.cfi_def_cfa_offset 16
 692              		.loc 1 255 0
 693 0006 1A68     		ldr	r2, [r3]
 694 0008 0192     		str	r2, [sp, #4]
 695              	.LVL54:
 696              		.loc 1 259 0
 697 000a 019A     		ldr	r2, [sp, #4]
 698 000c 1B68     		ldr	r3, [r3]
 699 000e 9A42     		cmp	r2, r3
 700 0010 04D1     		bne	.L79
 701              		.loc 1 264 0
 702 0012 03B0     		add	sp, sp, #12
 703              		.cfi_remember_state
 704              		.cfi_def_cfa_offset 4
 705              		@ sp needed
 706 0014 5DF804EB 		ldr	lr, [sp], #4
 707              		.cfi_restore 14
 708              		.cfi_def_cfa_offset 0
 709              		.loc 1 259 0
 710 0018 FFF7FEBF 		b	VL53L0X_set_offset_calibration_data_micro_meter
 711              	.LVL55:
 712              	.L79:
 713              		.cfi_restore_state
 714 001c FFF7FEFF 		bl	__stack_chk_fail
 715              	.LVL56:
 716              	.L81:
 717              		.align	2
 718              	.L80:
 719 0020 00000000 		.word	__stack_chk_guard
 720              		.cfi_endproc
 721              	.LFE15:
 722              		.size	VL53L0X_SetOffsetCalibrationDataMicroMeter, .-VL53L0X_SetOffsetCalibrationDataMicroMeter
 723              		.section	.text.VL53L0X_GetOffsetCalibrationDataMicroMeter,"ax",%progbits
 724              		.align	1
 725              		.p2align 4,,15
 726              		.global	VL53L0X_GetOffsetCalibrationDataMicroMeter
 727              		.syntax unified
 728              		.thumb
 729              		.thumb_func
 730              		.fpu fpv4-sp-d16
 731              		.type	VL53L0X_GetOffsetCalibrationDataMicroMeter, %function
 732              	VL53L0X_GetOffsetCalibrationDataMicroMeter:
 733              	.LFB16:
 734              		.loc 1 268 0
 735              		.cfi_startproc
 736              		@ args = 0, pretend = 0, frame = 8
 737              		@ frame_needed = 0, uses_anonymous_args = 0
 738              	.LVL57:
 739 0000 00B5     		push	{lr}
 740              		.cfi_def_cfa_offset 4
 741              		.cfi_offset 14, -4
ARM GAS  C:\Users\mathi\AppData\Local\Temp\ccw8i1Yt.s 			page 14


 742 0002 074B     		ldr	r3, .L87
 743 0004 83B0     		sub	sp, sp, #12
 744              		.cfi_def_cfa_offset 16
 745              		.loc 1 268 0
 746 0006 1A68     		ldr	r2, [r3]
 747 0008 0192     		str	r2, [sp, #4]
 748              	.LVL58:
 749              		.loc 1 272 0
 750 000a 019A     		ldr	r2, [sp, #4]
 751 000c 1B68     		ldr	r3, [r3]
 752 000e 9A42     		cmp	r2, r3
 753 0010 04D1     		bne	.L86
 754              		.loc 1 277 0
 755 0012 03B0     		add	sp, sp, #12
 756              		.cfi_remember_state
 757              		.cfi_def_cfa_offset 4
 758              		@ sp needed
 759 0014 5DF804EB 		ldr	lr, [sp], #4
 760              		.cfi_restore 14
 761              		.cfi_def_cfa_offset 0
 762              		.loc 1 272 0
 763 0018 FFF7FEBF 		b	VL53L0X_get_offset_calibration_data_micro_meter
 764              	.LVL59:
 765              	.L86:
 766              		.cfi_restore_state
 767 001c FFF7FEFF 		bl	__stack_chk_fail
 768              	.LVL60:
 769              	.L88:
 770              		.align	2
 771              	.L87:
 772 0020 00000000 		.word	__stack_chk_guard
 773              		.cfi_endproc
 774              	.LFE16:
 775              		.size	VL53L0X_GetOffsetCalibrationDataMicroMeter, .-VL53L0X_GetOffsetCalibrationDataMicroMeter
 776              		.section	.text.VL53L0X_SetLinearityCorrectiveGain,"ax",%progbits
 777              		.align	1
 778              		.p2align 4,,15
 779              		.global	VL53L0X_SetLinearityCorrectiveGain
 780              		.syntax unified
 781              		.thumb
 782              		.thumb_func
 783              		.fpu fpv4-sp-d16
 784              		.type	VL53L0X_SetLinearityCorrectiveGain, %function
 785              	VL53L0X_SetLinearityCorrectiveGain:
 786              	.LFB17:
 787              		.loc 1 281 0
 788              		.cfi_startproc
 789              		@ args = 0, pretend = 0, frame = 8
 790              		@ frame_needed = 0, uses_anonymous_args = 0
 791              	.LVL61:
 792 0000 10B5     		push	{r4, lr}
 793              		.cfi_def_cfa_offset 8
 794              		.cfi_offset 4, -8
 795              		.cfi_offset 14, -4
 796 0002 124B     		ldr	r3, .L97
 797 0004 82B0     		sub	sp, sp, #8
 798              		.cfi_def_cfa_offset 16
ARM GAS  C:\Users\mathi\AppData\Local\Temp\ccw8i1Yt.s 			page 15


 799              		.loc 1 281 0
 800 0006 1A68     		ldr	r2, [r3]
 801 0008 0192     		str	r2, [sp, #4]
 802              	.LVL62:
 803              		.loc 1 285 0
 804 000a 8AB2     		uxth	r2, r1
 805 000c B2F57A7F 		cmp	r2, #1000
 806 0010 16D8     		bhi	.L93
 807              		.loc 1 291 0
 808 0012 B1F57A7F 		cmp	r1, #1000
 809              		.loc 1 288 0
 810 0016 A0F85221 		strh	r2, [r0, #338]	@ movhi
 811              		.loc 1 291 0
 812 001a 0AD0     		beq	.L94
 813              		.loc 1 293 0
 814 001c 019A     		ldr	r2, [sp, #4]
 815 001e 1B68     		ldr	r3, [r3]
 816 0020 9A42     		cmp	r2, r3
 817 0022 10D1     		bne	.L96
 818 0024 0022     		movs	r2, #0
 819 0026 2021     		movs	r1, #32
 820              	.LVL63:
 821              		.loc 1 300 0
 822 0028 02B0     		add	sp, sp, #8
 823              		.cfi_remember_state
 824              		.cfi_def_cfa_offset 8
 825              		@ sp needed
 826 002a BDE81040 		pop	{r4, lr}
 827              		.cfi_restore 14
 828              		.cfi_restore 4
 829              		.cfi_def_cfa_offset 0
 830              		.loc 1 293 0
 831 002e FFF7FEBF 		b	VL53L0X_WrWord
 832              	.LVL64:
 833              	.L94:
 834              		.cfi_restore_state
 835              		.loc 1 282 0
 836 0032 0020     		movs	r0, #0
 837              	.LVL65:
 838              	.L90:
 839              		.loc 1 300 0
 840 0034 019A     		ldr	r2, [sp, #4]
 841 0036 1B68     		ldr	r3, [r3]
 842 0038 9A42     		cmp	r2, r3
 843 003a 04D1     		bne	.L96
 844 003c 02B0     		add	sp, sp, #8
 845              		.cfi_remember_state
 846              		.cfi_def_cfa_offset 8
 847              		@ sp needed
 848 003e 10BD     		pop	{r4, pc}
 849              	.LVL66:
 850              	.L93:
 851              		.cfi_restore_state
 852              		.loc 1 286 0
 853 0040 6FF00300 		mvn	r0, #3
 854              	.LVL67:
 855 0044 F6E7     		b	.L90
ARM GAS  C:\Users\mathi\AppData\Local\Temp\ccw8i1Yt.s 			page 16


 856              	.LVL68:
 857              	.L96:
 858              		.loc 1 300 0
 859 0046 FFF7FEFF 		bl	__stack_chk_fail
 860              	.LVL69:
 861              	.L98:
 862 004a 00BF     		.align	2
 863              	.L97:
 864 004c 00000000 		.word	__stack_chk_guard
 865              		.cfi_endproc
 866              	.LFE17:
 867              		.size	VL53L0X_SetLinearityCorrectiveGain, .-VL53L0X_SetLinearityCorrectiveGain
 868              		.section	.text.VL53L0X_GetLinearityCorrectiveGain,"ax",%progbits
 869              		.align	1
 870              		.p2align 4,,15
 871              		.global	VL53L0X_GetLinearityCorrectiveGain
 872              		.syntax unified
 873              		.thumb
 874              		.thumb_func
 875              		.fpu fpv4-sp-d16
 876              		.type	VL53L0X_GetLinearityCorrectiveGain, %function
 877              	VL53L0X_GetLinearityCorrectiveGain:
 878              	.LFB18:
 879              		.loc 1 304 0
 880              		.cfi_startproc
 881              		@ args = 0, pretend = 0, frame = 8
 882              		@ frame_needed = 0, uses_anonymous_args = 0
 883              	.LVL70:
 884 0000 00B5     		push	{lr}
 885              		.cfi_def_cfa_offset 4
 886              		.cfi_offset 14, -4
 887 0002 084B     		ldr	r3, .L103
 888              		.loc 1 308 0
 889 0004 B0F85221 		ldrh	r2, [r0, #338]
 890              		.loc 1 304 0
 891 0008 1868     		ldr	r0, [r3]
 892              	.LVL71:
 893              		.loc 1 308 0
 894 000a 0A80     		strh	r2, [r1]	@ movhi
 895              		.loc 1 304 0
 896 000c 83B0     		sub	sp, sp, #12
 897              		.cfi_def_cfa_offset 16
 898              		.loc 1 304 0
 899 000e 0190     		str	r0, [sp, #4]
 900              	.LVL72:
 901              		.loc 1 312 0
 902 0010 019A     		ldr	r2, [sp, #4]
 903 0012 1B68     		ldr	r3, [r3]
 904 0014 9A42     		cmp	r2, r3
 905 0016 03D1     		bne	.L102
 906 0018 0020     		movs	r0, #0
 907 001a 03B0     		add	sp, sp, #12
 908              		.cfi_remember_state
 909              		.cfi_def_cfa_offset 4
 910              		@ sp needed
 911 001c 5DF804FB 		ldr	pc, [sp], #4
 912              	.L102:
ARM GAS  C:\Users\mathi\AppData\Local\Temp\ccw8i1Yt.s 			page 17


 913              		.cfi_restore_state
 914 0020 FFF7FEFF 		bl	__stack_chk_fail
 915              	.LVL73:
 916              	.L104:
 917              		.align	2
 918              	.L103:
 919 0024 00000000 		.word	__stack_chk_guard
 920              		.cfi_endproc
 921              	.LFE18:
 922              		.size	VL53L0X_GetLinearityCorrectiveGain, .-VL53L0X_GetLinearityCorrectiveGain
 923              		.section	.text.VL53L0X_SetGroupParamHold,"ax",%progbits
 924              		.align	1
 925              		.p2align 4,,15
 926              		.global	VL53L0X_SetGroupParamHold
 927              		.syntax unified
 928              		.thumb
 929              		.thumb_func
 930              		.fpu fpv4-sp-d16
 931              		.type	VL53L0X_SetGroupParamHold, %function
 932              	VL53L0X_SetGroupParamHold:
 933              	.LFB19:
 934              		.loc 1 315 0
 935              		.cfi_startproc
 936              		@ args = 0, pretend = 0, frame = 8
 937              		@ frame_needed = 0, uses_anonymous_args = 0
 938              	.LVL74:
 939 0000 00B5     		push	{lr}
 940              		.cfi_def_cfa_offset 4
 941              		.cfi_offset 14, -4
 942 0002 074B     		ldr	r3, .L109
 943 0004 83B0     		sub	sp, sp, #12
 944              		.cfi_def_cfa_offset 16
 945              		.loc 1 315 0
 946 0006 1A68     		ldr	r2, [r3]
 947 0008 0192     		str	r2, [sp, #4]
 948              	.LVL75:
 949              		.loc 1 325 0
 950 000a 019A     		ldr	r2, [sp, #4]
 951 000c 1B68     		ldr	r3, [r3]
 952 000e 9A42     		cmp	r2, r3
 953 0010 04D1     		bne	.L108
 954 0012 6FF06200 		mvn	r0, #98
 955              	.LVL76:
 956 0016 03B0     		add	sp, sp, #12
 957              		.cfi_remember_state
 958              		.cfi_def_cfa_offset 4
 959              		@ sp needed
 960 0018 5DF804FB 		ldr	pc, [sp], #4
 961              	.LVL77:
 962              	.L108:
 963              		.cfi_restore_state
 964 001c FFF7FEFF 		bl	__stack_chk_fail
 965              	.LVL78:
 966              	.L110:
 967              		.align	2
 968              	.L109:
 969 0020 00000000 		.word	__stack_chk_guard
ARM GAS  C:\Users\mathi\AppData\Local\Temp\ccw8i1Yt.s 			page 18


 970              		.cfi_endproc
 971              	.LFE19:
 972              		.size	VL53L0X_SetGroupParamHold, .-VL53L0X_SetGroupParamHold
 973              		.section	.text.VL53L0X_GetUpperLimitMilliMeter,"ax",%progbits
 974              		.align	1
 975              		.p2align 4,,15
 976              		.global	VL53L0X_GetUpperLimitMilliMeter
 977              		.syntax unified
 978              		.thumb
 979              		.thumb_func
 980              		.fpu fpv4-sp-d16
 981              		.type	VL53L0X_GetUpperLimitMilliMeter, %function
 982              	VL53L0X_GetUpperLimitMilliMeter:
 983              	.LFB20:
 984              		.loc 1 329 0
 985              		.cfi_startproc
 986              		@ args = 0, pretend = 0, frame = 8
 987              		@ frame_needed = 0, uses_anonymous_args = 0
 988              	.LVL79:
 989 0000 00B5     		push	{lr}
 990              		.cfi_def_cfa_offset 4
 991              		.cfi_offset 14, -4
 992 0002 074B     		ldr	r3, .L115
 993 0004 83B0     		sub	sp, sp, #12
 994              		.cfi_def_cfa_offset 16
 995              		.loc 1 329 0
 996 0006 1A68     		ldr	r2, [r3]
 997 0008 0192     		str	r2, [sp, #4]
 998              	.LVL80:
 999              		.loc 1 339 0
 1000 000a 019A     		ldr	r2, [sp, #4]
 1001 000c 1B68     		ldr	r3, [r3]
 1002 000e 9A42     		cmp	r2, r3
 1003 0010 04D1     		bne	.L114
 1004 0012 6FF06200 		mvn	r0, #98
 1005              	.LVL81:
 1006 0016 03B0     		add	sp, sp, #12
 1007              		.cfi_remember_state
 1008              		.cfi_def_cfa_offset 4
 1009              		@ sp needed
 1010 0018 5DF804FB 		ldr	pc, [sp], #4
 1011              	.LVL82:
 1012              	.L114:
 1013              		.cfi_restore_state
 1014 001c FFF7FEFF 		bl	__stack_chk_fail
 1015              	.LVL83:
 1016              	.L116:
 1017              		.align	2
 1018              	.L115:
 1019 0020 00000000 		.word	__stack_chk_guard
 1020              		.cfi_endproc
 1021              	.LFE20:
 1022              		.size	VL53L0X_GetUpperLimitMilliMeter, .-VL53L0X_GetUpperLimitMilliMeter
 1023              		.section	.text.VL53L0X_GetTotalSignalRate,"ax",%progbits
 1024              		.align	1
 1025              		.p2align 4,,15
 1026              		.global	VL53L0X_GetTotalSignalRate
ARM GAS  C:\Users\mathi\AppData\Local\Temp\ccw8i1Yt.s 			page 19


 1027              		.syntax unified
 1028              		.thumb
 1029              		.thumb_func
 1030              		.fpu fpv4-sp-d16
 1031              		.type	VL53L0X_GetTotalSignalRate, %function
 1032              	VL53L0X_GetTotalSignalRate:
 1033              	.LFB21:
 1034              		.loc 1 343 0
 1035              		.cfi_startproc
 1036              		@ args = 0, pretend = 0, frame = 32
 1037              		@ frame_needed = 0, uses_anonymous_args = 0
 1038              	.LVL84:
 1039 0000 F0B5     		push	{r4, r5, r6, r7, lr}
 1040              		.cfi_def_cfa_offset 20
 1041              		.cfi_offset 4, -20
 1042              		.cfi_offset 5, -16
 1043              		.cfi_offset 6, -12
 1044              		.cfi_offset 7, -8
 1045              		.cfi_offset 14, -4
 1046              		.loc 1 349 0
 1047 0002 00F15005 		add	r5, r0, #80
 1048              		.loc 1 343 0
 1049 0006 0646     		mov	r6, r0
 1050 0008 0F46     		mov	r7, r1
 1051              		.loc 1 349 0
 1052 000a 0FCD     		ldmia	r5!, {r0, r1, r2, r3}
 1053              	.LVL85:
 1054              		.loc 1 343 0
 1055 000c 89B0     		sub	sp, sp, #36
 1056              		.cfi_def_cfa_offset 56
 1057              		.loc 1 349 0
 1058 000e 6C46     		mov	r4, sp
 1059 0010 0FC4     		stmia	r4!, {r0, r1, r2, r3}
 1060 0012 95E80700 		ldm	r5, {r0, r1, r2}
 1061              		.loc 1 343 0
 1062 0016 094D     		ldr	r5, .L121
 1063              		.loc 1 349 0
 1064 0018 84E80700 		stm	r4, {r0, r1, r2}
 1065              		.loc 1 343 0
 1066 001c 2B68     		ldr	r3, [r5]
 1067 001e 0793     		str	r3, [sp, #28]
 1068              	.LVL86:
 1069              		.loc 1 351 0
 1070 0020 3A46     		mov	r2, r7
 1071 0022 3046     		mov	r0, r6
 1072 0024 6946     		mov	r1, sp
 1073 0026 FFF7FEFF 		bl	VL53L0X_get_total_signal_rate
 1074              	.LVL87:
 1075              		.loc 1 356 0
 1076 002a 079A     		ldr	r2, [sp, #28]
 1077 002c 2B68     		ldr	r3, [r5]
 1078 002e 9A42     		cmp	r2, r3
 1079 0030 01D1     		bne	.L120
 1080 0032 09B0     		add	sp, sp, #36
 1081              		.cfi_remember_state
 1082              		.cfi_def_cfa_offset 20
 1083              		@ sp needed
ARM GAS  C:\Users\mathi\AppData\Local\Temp\ccw8i1Yt.s 			page 20


 1084 0034 F0BD     		pop	{r4, r5, r6, r7, pc}
 1085              	.LVL88:
 1086              	.L120:
 1087              		.cfi_restore_state
 1088 0036 FFF7FEFF 		bl	__stack_chk_fail
 1089              	.LVL89:
 1090              	.L122:
 1091 003a 00BF     		.align	2
 1092              	.L121:
 1093 003c 00000000 		.word	__stack_chk_guard
 1094              		.cfi_endproc
 1095              	.LFE21:
 1096              		.size	VL53L0X_GetTotalSignalRate, .-VL53L0X_GetTotalSignalRate
 1097              		.section	.text.VL53L0X_SetDeviceAddress,"ax",%progbits
 1098              		.align	1
 1099              		.p2align 4,,15
 1100              		.global	VL53L0X_SetDeviceAddress
 1101              		.syntax unified
 1102              		.thumb
 1103              		.thumb_func
 1104              		.fpu fpv4-sp-d16
 1105              		.type	VL53L0X_SetDeviceAddress, %function
 1106              	VL53L0X_SetDeviceAddress:
 1107              	.LFB22:
 1108              		.loc 1 362 0
 1109              		.cfi_startproc
 1110              		@ args = 0, pretend = 0, frame = 8
 1111              		@ frame_needed = 0, uses_anonymous_args = 0
 1112              	.LVL90:
 1113 0000 10B5     		push	{r4, lr}
 1114              		.cfi_def_cfa_offset 8
 1115              		.cfi_offset 4, -8
 1116              		.cfi_offset 14, -4
 1117 0002 084B     		ldr	r3, .L128
 1118 0004 82B0     		sub	sp, sp, #8
 1119              		.cfi_def_cfa_offset 16
 1120              		.loc 1 362 0
 1121 0006 1A68     		ldr	r2, [r3]
 1122 0008 0192     		str	r2, [sp, #4]
 1123              	.LVL91:
 1124              		.loc 1 366 0
 1125 000a 019C     		ldr	r4, [sp, #4]
 1126 000c 1B68     		ldr	r3, [r3]
 1127 000e 9C42     		cmp	r4, r3
 1128 0010 06D1     		bne	.L127
 1129 0012 4A08     		lsrs	r2, r1, #1
 1130 0014 8A21     		movs	r1, #138
 1131              	.LVL92:
 1132              		.loc 1 371 0
 1133 0016 02B0     		add	sp, sp, #8
 1134              		.cfi_remember_state
 1135              		.cfi_def_cfa_offset 8
 1136              		@ sp needed
 1137 0018 BDE81040 		pop	{r4, lr}
 1138              		.cfi_restore 14
 1139              		.cfi_restore 4
 1140              		.cfi_def_cfa_offset 0
ARM GAS  C:\Users\mathi\AppData\Local\Temp\ccw8i1Yt.s 			page 21


 1141              		.loc 1 366 0
 1142 001c FFF7FEBF 		b	VL53L0X_WrByte
 1143              	.LVL93:
 1144              	.L127:
 1145              		.cfi_restore_state
 1146 0020 FFF7FEFF 		bl	__stack_chk_fail
 1147              	.LVL94:
 1148              	.L129:
 1149              		.align	2
 1150              	.L128:
 1151 0024 00000000 		.word	__stack_chk_guard
 1152              		.cfi_endproc
 1153              	.LFE22:
 1154              		.size	VL53L0X_SetDeviceAddress, .-VL53L0X_SetDeviceAddress
 1155              		.section	.text.VL53L0X_SetTuningSettingBuffer,"ax",%progbits
 1156              		.align	1
 1157              		.p2align 4,,15
 1158              		.global	VL53L0X_SetTuningSettingBuffer
 1159              		.syntax unified
 1160              		.thumb
 1161              		.thumb_func
 1162              		.fpu fpv4-sp-d16
 1163              		.type	VL53L0X_SetTuningSettingBuffer, %function
 1164              	VL53L0X_SetTuningSettingBuffer:
 1165              	.LFB24:
 1166              		.loc 1 516 0
 1167              		.cfi_startproc
 1168              		@ args = 0, pretend = 0, frame = 8
 1169              		@ frame_needed = 0, uses_anonymous_args = 0
 1170              	.LVL95:
 1171 0000 10B5     		push	{r4, lr}
 1172              		.cfi_def_cfa_offset 8
 1173              		.cfi_offset 4, -8
 1174              		.cfi_offset 14, -4
 1175 0002 0E4C     		ldr	r4, .L138
 1176 0004 82B0     		sub	sp, sp, #8
 1177              		.cfi_def_cfa_offset 16
 1178              		.loc 1 516 0
 1179 0006 2368     		ldr	r3, [r4]
 1180 0008 0193     		str	r3, [sp, #4]
 1181              	.LVL96:
 1182              		.loc 1 521 0
 1183 000a 012A     		cmp	r2, #1
 1184 000c 0DD0     		beq	.L136
 1185              		.loc 1 527 0
 1186 000e 0B78     		ldrb	r3, [r1]	@ zero_extendqisi2
 1187 0010 7BB1     		cbz	r3, .L134
 1188              		.loc 1 530 0
 1189 0012 0023     		movs	r3, #0
 1190              		.loc 1 528 0
 1191 0014 C0F84C11 		str	r1, [r0, #332]
 1192              		.loc 1 530 0
 1193 0018 80F85031 		strb	r3, [r0, #336]
 1194              		.loc 1 517 0
 1195 001c 1846     		mov	r0, r3
 1196              	.LVL97:
 1197              	.L132:
ARM GAS  C:\Users\mathi\AppData\Local\Temp\ccw8i1Yt.s 			page 22


 1198              		.loc 1 539 0
 1199 001e 019A     		ldr	r2, [sp, #4]
 1200              	.LVL98:
 1201 0020 2368     		ldr	r3, [r4]
 1202 0022 9A42     		cmp	r2, r3
 1203 0024 08D1     		bne	.L137
 1204 0026 02B0     		add	sp, sp, #8
 1205              		.cfi_remember_state
 1206              		.cfi_def_cfa_offset 8
 1207              		@ sp needed
 1208 0028 10BD     		pop	{r4, pc}
 1209              	.LVL99:
 1210              	.L136:
 1211              		.cfi_restore_state
 1212              		.loc 1 523 0
 1213 002a 80F85021 		strb	r2, [r0, #336]
 1214              		.loc 1 517 0
 1215 002e 0020     		movs	r0, #0
 1216              	.LVL100:
 1217 0030 F5E7     		b	.L132
 1218              	.LVL101:
 1219              	.L134:
 1220              		.loc 1 533 0
 1221 0032 6FF00300 		mvn	r0, #3
 1222              	.LVL102:
 1223 0036 F2E7     		b	.L132
 1224              	.LVL103:
 1225              	.L137:
 1226              		.loc 1 539 0
 1227 0038 FFF7FEFF 		bl	__stack_chk_fail
 1228              	.LVL104:
 1229              	.L139:
 1230              		.align	2
 1231              	.L138:
 1232 003c 00000000 		.word	__stack_chk_guard
 1233              		.cfi_endproc
 1234              	.LFE24:
 1235              		.size	VL53L0X_SetTuningSettingBuffer, .-VL53L0X_SetTuningSettingBuffer
 1236              		.section	.text.VL53L0X_GetTuningSettingBuffer,"ax",%progbits
 1237              		.align	1
 1238              		.p2align 4,,15
 1239              		.global	VL53L0X_GetTuningSettingBuffer
 1240              		.syntax unified
 1241              		.thumb
 1242              		.thumb_func
 1243              		.fpu fpv4-sp-d16
 1244              		.type	VL53L0X_GetTuningSettingBuffer, %function
 1245              	VL53L0X_GetTuningSettingBuffer:
 1246              	.LFB25:
 1247              		.loc 1 543 0
 1248              		.cfi_startproc
 1249              		@ args = 0, pretend = 0, frame = 8
 1250              		@ frame_needed = 0, uses_anonymous_args = 0
 1251              	.LVL105:
 1252 0000 30B5     		push	{r4, r5, lr}
 1253              		.cfi_def_cfa_offset 12
 1254              		.cfi_offset 4, -12
ARM GAS  C:\Users\mathi\AppData\Local\Temp\ccw8i1Yt.s 			page 23


 1255              		.cfi_offset 5, -8
 1256              		.cfi_offset 14, -4
 1257 0002 094B     		ldr	r3, .L144
 1258              		.loc 1 548 0
 1259 0004 D0F84C51 		ldr	r5, [r0, #332]
 1260              		.loc 1 543 0
 1261 0008 1C68     		ldr	r4, [r3]
 1262              		.loc 1 548 0
 1263 000a 0D60     		str	r5, [r1]
 1264              		.loc 1 543 0
 1265 000c 83B0     		sub	sp, sp, #12
 1266              		.cfi_def_cfa_offset 24
 1267              		.loc 1 549 0
 1268 000e 90F85011 		ldrb	r1, [r0, #336]	@ zero_extendqisi2
 1269              	.LVL106:
 1270 0012 1170     		strb	r1, [r2]
 1271              		.loc 1 543 0
 1272 0014 0194     		str	r4, [sp, #4]
 1273              	.LVL107:
 1274              		.loc 1 554 0
 1275 0016 019A     		ldr	r2, [sp, #4]
 1276              	.LVL108:
 1277 0018 1B68     		ldr	r3, [r3]
 1278 001a 9A42     		cmp	r2, r3
 1279 001c 02D1     		bne	.L143
 1280 001e 0020     		movs	r0, #0
 1281              	.LVL109:
 1282 0020 03B0     		add	sp, sp, #12
 1283              		.cfi_remember_state
 1284              		.cfi_def_cfa_offset 12
 1285              		@ sp needed
 1286 0022 30BD     		pop	{r4, r5, pc}
 1287              	.LVL110:
 1288              	.L143:
 1289              		.cfi_restore_state
 1290 0024 FFF7FEFF 		bl	__stack_chk_fail
 1291              	.LVL111:
 1292              	.L145:
 1293              		.align	2
 1294              	.L144:
 1295 0028 00000000 		.word	__stack_chk_guard
 1296              		.cfi_endproc
 1297              	.LFE25:
 1298              		.size	VL53L0X_GetTuningSettingBuffer, .-VL53L0X_GetTuningSettingBuffer
 1299              		.section	.text.VL53L0X_WaitDeviceBooted,"ax",%progbits
 1300              		.align	1
 1301              		.p2align 4,,15
 1302              		.global	VL53L0X_WaitDeviceBooted
 1303              		.syntax unified
 1304              		.thumb
 1305              		.thumb_func
 1306              		.fpu fpv4-sp-d16
 1307              		.type	VL53L0X_WaitDeviceBooted, %function
 1308              	VL53L0X_WaitDeviceBooted:
 1309              	.LFB27:
 1310              		.loc 1 736 0
 1311              		.cfi_startproc
ARM GAS  C:\Users\mathi\AppData\Local\Temp\ccw8i1Yt.s 			page 24


 1312              		@ args = 0, pretend = 0, frame = 8
 1313              		@ frame_needed = 0, uses_anonymous_args = 0
 1314              	.LVL112:
 1315 0000 00B5     		push	{lr}
 1316              		.cfi_def_cfa_offset 4
 1317              		.cfi_offset 14, -4
 1318 0002 074B     		ldr	r3, .L150
 1319 0004 83B0     		sub	sp, sp, #12
 1320              		.cfi_def_cfa_offset 16
 1321              		.loc 1 736 0
 1322 0006 1A68     		ldr	r2, [r3]
 1323 0008 0192     		str	r2, [sp, #4]
 1324              	.LVL113:
 1325              		.loc 1 745 0
 1326 000a 019A     		ldr	r2, [sp, #4]
 1327 000c 1B68     		ldr	r3, [r3]
 1328 000e 9A42     		cmp	r2, r3
 1329 0010 04D1     		bne	.L149
 1330 0012 6FF06200 		mvn	r0, #98
 1331              	.LVL114:
 1332 0016 03B0     		add	sp, sp, #12
 1333              		.cfi_remember_state
 1334              		.cfi_def_cfa_offset 4
 1335              		@ sp needed
 1336 0018 5DF804FB 		ldr	pc, [sp], #4
 1337              	.LVL115:
 1338              	.L149:
 1339              		.cfi_restore_state
 1340 001c FFF7FEFF 		bl	__stack_chk_fail
 1341              	.LVL116:
 1342              	.L151:
 1343              		.align	2
 1344              	.L150:
 1345 0020 00000000 		.word	__stack_chk_guard
 1346              		.cfi_endproc
 1347              	.LFE27:
 1348              		.size	VL53L0X_WaitDeviceBooted, .-VL53L0X_WaitDeviceBooted
 1349              		.section	.text.VL53L0X_ResetDevice,"ax",%progbits
 1350              		.align	1
 1351              		.p2align 4,,15
 1352              		.global	VL53L0X_ResetDevice
 1353              		.syntax unified
 1354              		.thumb
 1355              		.thumb_func
 1356              		.fpu fpv4-sp-d16
 1357              		.type	VL53L0X_ResetDevice, %function
 1358              	VL53L0X_ResetDevice:
 1359              	.LFB28:
 1360              		.loc 1 748 0
 1361              		.cfi_startproc
 1362              		@ args = 0, pretend = 0, frame = 8
 1363              		@ frame_needed = 0, uses_anonymous_args = 0
 1364              	.LVL117:
 1365 0000 F0B5     		push	{r4, r5, r6, r7, lr}
 1366              		.cfi_def_cfa_offset 20
 1367              		.cfi_offset 4, -20
 1368              		.cfi_offset 5, -16
ARM GAS  C:\Users\mathi\AppData\Local\Temp\ccw8i1Yt.s 			page 25


 1369              		.cfi_offset 6, -12
 1370              		.cfi_offset 7, -8
 1371              		.cfi_offset 14, -4
 1372 0002 1F4F     		ldr	r7, .L165
 1373 0004 83B0     		sub	sp, sp, #12
 1374              		.cfi_def_cfa_offset 32
 1375              		.loc 1 748 0
 1376 0006 3B68     		ldr	r3, [r7]
 1377 0008 0193     		str	r3, [sp, #4]
 1378              	.LVL118:
 1379              		.loc 1 754 0
 1380 000a 0022     		movs	r2, #0
 1381 000c BF21     		movs	r1, #191
 1382              		.loc 1 748 0
 1383 000e 0446     		mov	r4, r0
 1384              		.loc 1 754 0
 1385 0010 FFF7FEFF 		bl	VL53L0X_WrByte
 1386              	.LVL119:
 1387              		.loc 1 758 0
 1388 0014 50B9     		cbnz	r0, .L153
 1389 0016 0DF10305 		add	r5, sp, #3
 1390              	.LVL120:
 1391              	.L154:
 1392              		.loc 1 760 0 discriminator 1
 1393 001a 2A46     		mov	r2, r5
 1394 001c C021     		movs	r1, #192
 1395 001e 2046     		mov	r0, r4
 1396 0020 FFF7FEFF 		bl	VL53L0X_RdByte
 1397              	.LVL121:
 1398              		.loc 1 762 0 discriminator 1
 1399 0024 9DF80330 		ldrb	r3, [sp, #3]	@ zero_extendqisi2
 1400 0028 002B     		cmp	r3, #0
 1401 002a F6D1     		bne	.L154
 1402              	.L153:
 1403              		.loc 1 765 0
 1404 002c 2046     		mov	r0, r4
 1405 002e FFF7FEFF 		bl	VL53L0X_PollingDelay
 1406              	.LVL122:
 1407              		.loc 1 768 0
 1408 0032 0122     		movs	r2, #1
 1409 0034 BF21     		movs	r1, #191
 1410 0036 2046     		mov	r0, r4
 1411 0038 FFF7FEFF 		bl	VL53L0X_WrByte
 1412              	.LVL123:
 1413              		.loc 1 772 0
 1414 003c 0646     		mov	r6, r0
 1415 003e C0B9     		cbnz	r0, .L155
 1416 0040 0DF10305 		add	r5, sp, #3
 1417              	.LVL124:
 1418              	.L156:
 1419              		.loc 1 774 0 discriminator 1
 1420 0044 2A46     		mov	r2, r5
 1421 0046 C021     		movs	r1, #192
 1422 0048 2046     		mov	r0, r4
 1423 004a FFF7FEFF 		bl	VL53L0X_RdByte
 1424              	.LVL125:
 1425              		.loc 1 776 0 discriminator 1
ARM GAS  C:\Users\mathi\AppData\Local\Temp\ccw8i1Yt.s 			page 26


 1426 004e 9DF80330 		ldrb	r3, [sp, #3]	@ zero_extendqisi2
 1427              		.loc 1 774 0 discriminator 1
 1428 0052 0646     		mov	r6, r0
 1429              	.LVL126:
 1430              		.loc 1 776 0 discriminator 1
 1431 0054 002B     		cmp	r3, #0
 1432 0056 F5D0     		beq	.L156
 1433              	.LVL127:
 1434              		.loc 1 779 0
 1435 0058 2046     		mov	r0, r4
 1436 005a FFF7FEFF 		bl	VL53L0X_PollingDelay
 1437              	.LVL128:
 1438              		.loc 1 782 0
 1439 005e 0EB9     		cbnz	r6, .L157
 1440              		.loc 1 783 0
 1441 0060 84F83261 		strb	r6, [r4, #306]
 1442              	.L157:
 1443              		.loc 1 788 0
 1444 0064 019A     		ldr	r2, [sp, #4]
 1445 0066 3B68     		ldr	r3, [r7]
 1446 0068 9A42     		cmp	r2, r3
 1447 006a 3046     		mov	r0, r6
 1448 006c 05D1     		bne	.L164
 1449 006e 03B0     		add	sp, sp, #12
 1450              		.cfi_remember_state
 1451              		.cfi_def_cfa_offset 20
 1452              		@ sp needed
 1453 0070 F0BD     		pop	{r4, r5, r6, r7, pc}
 1454              	.LVL129:
 1455              	.L155:
 1456              		.cfi_restore_state
 1457              		.loc 1 779 0
 1458 0072 2046     		mov	r0, r4
 1459 0074 FFF7FEFF 		bl	VL53L0X_PollingDelay
 1460              	.LVL130:
 1461 0078 F4E7     		b	.L157
 1462              	.L164:
 1463              		.loc 1 788 0
 1464 007a FFF7FEFF 		bl	__stack_chk_fail
 1465              	.LVL131:
 1466              	.L166:
 1467 007e 00BF     		.align	2
 1468              	.L165:
 1469 0080 00000000 		.word	__stack_chk_guard
 1470              		.cfi_endproc
 1471              	.LFE28:
 1472              		.size	VL53L0X_ResetDevice, .-VL53L0X_ResetDevice
 1473              		.section	.text.VL53L0X_SetDeviceParameters,"ax",%progbits
 1474              		.align	1
 1475              		.p2align 4,,15
 1476              		.global	VL53L0X_SetDeviceParameters
 1477              		.syntax unified
 1478              		.thumb
 1479              		.thumb_func
 1480              		.fpu fpv4-sp-d16
 1481              		.type	VL53L0X_SetDeviceParameters, %function
 1482              	VL53L0X_SetDeviceParameters:
ARM GAS  C:\Users\mathi\AppData\Local\Temp\ccw8i1Yt.s 			page 27


 1483              	.LFB29:
 1484              		.loc 1 794 0
 1485              		.cfi_startproc
 1486              		@ args = 0, pretend = 0, frame = 16
 1487              		@ frame_needed = 0, uses_anonymous_args = 0
 1488              	.LVL132:
 1489 0000 2DE9F04F 		push	{r4, r5, r6, r7, r8, r9, r10, fp, lr}
 1490              		.cfi_def_cfa_offset 36
 1491              		.cfi_offset 4, -36
 1492              		.cfi_offset 5, -32
 1493              		.cfi_offset 6, -28
 1494              		.cfi_offset 7, -24
 1495              		.cfi_offset 8, -20
 1496              		.cfi_offset 9, -16
 1497              		.cfi_offset 10, -12
 1498              		.cfi_offset 11, -8
 1499              		.cfi_offset 14, -4
 1500 0004 A04A     		ldr	r2, .L234
 1501              		.loc 1 798 0
 1502 0006 0B78     		ldrb	r3, [r1]	@ zero_extendqisi2
 1503              		.loc 1 794 0
 1504 0008 1268     		ldr	r2, [r2]
 1505 000a 85B0     		sub	sp, sp, #20
 1506              		.cfi_def_cfa_offset 56
 1507 000c 152B     		cmp	r3, #21
 1508              		.loc 1 794 0
 1509 000e 0392     		str	r2, [sp, #12]
 1510              	.LVL133:
 1511 0010 05D8     		bhi	.L209
 1512 0012 8B46     		mov	fp, r1
 1513 0014 9D4A     		ldr	r2, .L234+4
 1514 0016 0121     		movs	r1, #1
 1515              	.LVL134:
 1516 0018 9940     		lsls	r1, r1, r3
 1517 001a 0A40     		ands	r2, r2, r1
 1518 001c 52B9     		cbnz	r2, .L229
 1519              	.LVL135:
 1520              	.L209:
 1521              	.LBB78:
 1522              	.LBB79:
 1523              		.loc 1 924 0
 1524 001e 6FF00700 		mvn	r0, #7
 1525              	.LVL136:
 1526              	.L168:
 1527              	.LBE79:
 1528              	.LBE78:
 1529              		.loc 1 841 0
 1530 0022 994B     		ldr	r3, .L234
 1531 0024 039A     		ldr	r2, [sp, #12]
 1532 0026 1B68     		ldr	r3, [r3]
 1533 0028 9A42     		cmp	r2, r3
 1534 002a 40F02181 		bne	.L230
 1535 002e 05B0     		add	sp, sp, #20
 1536              		.cfi_remember_state
 1537              		.cfi_def_cfa_offset 36
 1538              		@ sp needed
 1539 0030 BDE8F08F 		pop	{r4, r5, r6, r7, r8, r9, r10, fp, pc}
ARM GAS  C:\Users\mathi\AppData\Local\Temp\ccw8i1Yt.s 			page 28


 1540              	.LVL137:
 1541              	.L229:
 1542              		.cfi_restore_state
 1543              	.LBB81:
 1544              	.LBB80:
 1545              		.loc 1 920 0
 1546 0034 0374     		strb	r3, [r0, #16]
 1547              	.LVL138:
 1548              	.LBE80:
 1549              	.LBE81:
 1550              	.LBB82:
 1551              	.LBB83:
 1552              		.loc 1 1344 0
 1553 0036 0DF10A02 		add	r2, sp, #10
 1554 003a F821     		movs	r1, #248
 1555 003c 0646     		mov	r6, r0
 1556              	.LBE83:
 1557              	.LBE82:
 1558              		.loc 1 801 0
 1559 003e DBF80840 		ldr	r4, [fp, #8]
 1560              	.LVL139:
 1561              	.LBB87:
 1562              	.LBB84:
 1563              		.loc 1 1344 0
 1564 0042 FFF7FEFF 		bl	VL53L0X_RdWord
 1565              	.LVL140:
 1566              		.loc 1 1347 0
 1567 0046 0028     		cmp	r0, #0
 1568 0048 EBD1     		bne	.L168
 1569              		.loc 1 1348 0
 1570 004a BDF80A20 		ldrh	r2, [sp, #10]
 1571 004e 002A     		cmp	r2, #0
 1572 0050 40F0E680 		bne	.L231
 1573              		.loc 1 1353 0
 1574 0054 2246     		mov	r2, r4
 1575              	.L170:
 1576              	.LVL141:
 1577              		.loc 1 1356 0
 1578 0056 0421     		movs	r1, #4
 1579 0058 3046     		mov	r0, r6
 1580              	.LVL142:
 1581 005a FFF7FEFF 		bl	VL53L0X_WrDWord
 1582              	.LVL143:
 1583              		.loc 1 1361 0
 1584 005e 0028     		cmp	r0, #0
 1585 0060 DFD1     		bne	.L168
 1586              	.LBE84:
 1587              	.LBE87:
 1588              	.LBB88:
 1589              	.LBB89:
 1590              		.loc 1 1467 0
 1591 0062 337F     		ldrb	r3, [r6, #28]	@ zero_extendqisi2
 1592              	.LBE89:
 1593              	.LBE88:
 1594              	.LBB91:
 1595              	.LBB85:
 1596              		.loc 1 1362 0
ARM GAS  C:\Users\mathi\AppData\Local\Temp\ccw8i1Yt.s 			page 29


 1597 0064 B461     		str	r4, [r6, #24]
 1598              	.LVL144:
 1599              	.LBE85:
 1600              	.LBE91:
 1601              		.loc 1 806 0
 1602 0066 DBF81040 		ldr	r4, [fp, #16]
 1603              	.LVL145:
 1604              	.LBB92:
 1605              	.LBB90:
 1606              		.loc 1 1467 0
 1607 006a 6BB1     		cbz	r3, .L228
 1608              		.loc 1 1472 0
 1609 006c B6F85231 		ldrh	r3, [r6, #338]
 1610 0070 B3F57A7F 		cmp	r3, #1000
 1611              		.loc 1 1476 0
 1612 0074 14BF     		ite	ne
 1613 0076 0246     		movne	r2, r0
 1614              		.loc 1 1473 0
 1615 0078 C4F3CF02 		ubfxeq	r2, r4, #3, #16
 1616              	.LVL146:
 1617              		.loc 1 1479 0
 1618 007c 2021     		movs	r1, #32
 1619 007e 3046     		mov	r0, r6
 1620 0080 FFF7FEFF 		bl	VL53L0X_WrWord
 1621              	.LVL147:
 1622              		.loc 1 1482 0
 1623 0084 0028     		cmp	r0, #0
 1624 0086 CCD1     		bne	.L168
 1625              	.LVL148:
 1626              	.L228:
 1627              		.loc 1 1483 0
 1628 0088 3462     		str	r4, [r6, #32]
 1629              	.LVL149:
 1630              	.LBE90:
 1631              	.LBE92:
 1632              	.LBB93:
 1633              	.LBB94:
 1634              		.loc 1 259 0
 1635 008a DBF81410 		ldr	r1, [fp, #20]
 1636 008e 3046     		mov	r0, r6
 1637 0090 FFF7FEFF 		bl	VL53L0X_set_offset_calibration_data_micro_meter
 1638              	.LVL150:
 1639              	.LBE94:
 1640              	.LBE93:
 1641              		.loc 1 816 0
 1642 0094 0028     		cmp	r0, #0
 1643 0096 C4D1     		bne	.L168
 1644              	.LBB95:
 1645              	.LBB96:
 1646              		.loc 1 1659 0
 1647 0098 CDF800B0 		str	fp, [sp]
 1648 009c 8346     		mov	fp, r0
 1649              	.LVL151:
 1650              	.L201:
 1651 009e 009B     		ldr	r3, [sp]
 1652 00a0 0BF1180A 		add	r10, fp, #24
 1653 00a4 9A44     		add	r10, r10, r3
ARM GAS  C:\Users\mathi\AppData\Local\Temp\ccw8i1Yt.s 			page 30


 1654 00a6 4FEA8B08 		lsl	r8, fp, #2
 1655 00aa 5D46     		mov	r5, fp
 1656              	.LBE96:
 1657              	.LBE95:
 1658              		.loc 1 817 0
 1659 00ac 1AF8017B 		ldrb	r7, [r10], #1	@ zero_extendqisi2
 1660              	.LVL152:
 1661 00b0 08F12409 		add	r9, r8, #36
 1662 00b4 ACB2     		uxth	r4, r5
 1663              	.LVL153:
 1664 00b6 9944     		add	r9, r9, r3
 1665 00b8 B044     		add	r8, r8, r6
 1666              	.LBB104:
 1667              	.LBB97:
 1668              		.loc 1 1629 0
 1669 00ba 013C     		subs	r4, r4, #1
 1670              	.LVL154:
 1671              		.loc 1 1616 0
 1672 00bc 67B3     		cbz	r7, .L175
 1673              	.LVL155:
 1674              	.L232:
 1675              		.loc 1 1622 0
 1676 00be D8F83420 		ldr	r2, [r8, #52]
 1677              	.LVL156:
 1678              		.loc 1 1629 0
 1679 00c2 042C     		cmp	r4, #4
 1680 00c4 00F29D80 		bhi	.L176
 1681 00c8 DFE804F0 		tbb	[pc, r4]
 1682              	.L178:
 1683 00cc 94       		.byte	(.L177-.L178)/2
 1684 00cd 6B       		.byte	(.L213-.L178)/2
 1685 00ce 03       		.byte	(.L180-.L178)/2
 1686 00cf 7B       		.byte	(.L214-.L178)/2
 1687 00d0 DB       		.byte	(.L212-.L178)/2
 1688 00d1 00       		.p2align 1
 1689              	.L180:
 1690              		.loc 1 1659 0
 1691 00d2 0123     		movs	r3, #1
 1692 00d4 86F82B30 		strb	r3, [r6, #43]
 1693              	.LVL157:
 1694              	.L189:
 1695 00d8 7319     		adds	r3, r6, r5
 1696 00da 0122     		movs	r2, #1
 1697 00dc 83F82820 		strb	r2, [r3, #40]
 1698              	.LVL158:
 1699 00e0 AF18     		adds	r7, r5, r2
 1700              	.LBE97:
 1701              	.LBE104:
 1702              		.loc 1 823 0
 1703 00e2 D9F80030 		ldr	r3, [r9]
 1704              	.LVL159:
 1705 00e6 BB46     		mov	fp, r7
 1706              	.LVL160:
 1707              	.L188:
 1708              	.LBB105:
 1709              	.LBB106:
 1710              		.loc 1 1742 0
ARM GAS  C:\Users\mathi\AppData\Local\Temp\ccw8i1Yt.s 			page 31


 1711 00e8 042C     		cmp	r4, #4
 1712 00ea 00F29280 		bhi	.L193
 1713 00ee DFE804F0 		tbb	[pc, r4]
 1714              	.L195:
 1715 00f2 47       		.byte	(.L194-.L195)/2
 1716 00f3 1B       		.byte	(.L196-.L195)/2
 1717 00f4 03       		.byte	(.L197-.L195)/2
 1718 00f5 B0       		.byte	(.L198-.L195)/2
 1719 00f6 B0       		.byte	(.L198-.L195)/2
 1720 00f7 00       		.p2align 1
 1721              	.L197:
 1722              	.LBE106:
 1723              	.LBE105:
 1724              		.loc 1 815 0
 1725 00f8 052D     		cmp	r5, #5
 1726              	.LBB116:
 1727              	.LBB107:
 1728              		.loc 1 1772 0
 1729 00fa 3364     		str	r3, [r6, #64]
 1730              		.loc 1 1794 0
 1731 00fc C8F83430 		str	r3, [r8, #52]
 1732              	.LVL161:
 1733              	.LBE107:
 1734              	.LBE116:
 1735              		.loc 1 815 0
 1736 0100 17D0     		beq	.L226
 1737              	.LVL162:
 1738              	.L190:
 1739 0102 3D46     		mov	r5, r7
 1740              		.loc 1 817 0
 1741 0104 1AF8017B 		ldrb	r7, [r10], #1	@ zero_extendqisi2
 1742 0108 ACB2     		uxth	r4, r5
 1743 010a 08F10408 		add	r8, r8, #4
 1744 010e 09F10409 		add	r9, r9, #4
 1745              	.LVL163:
 1746              	.LBB117:
 1747              	.LBB98:
 1748              		.loc 1 1629 0
 1749 0112 013C     		subs	r4, r4, #1
 1750              	.LVL164:
 1751              		.loc 1 1616 0
 1752 0114 002F     		cmp	r7, #0
 1753 0116 D2D1     		bne	.L232
 1754              	.LVL165:
 1755              	.L175:
 1756              		.loc 1 1629 0
 1757 0118 042C     		cmp	r4, #4
 1758 011a 00F28A80 		bhi	.L183
 1759 011e DFE804F0 		tbb	[pc, r4]
 1760              	.L205:
 1761 0122 86       		.byte	(.L216-.L205)/2
 1762 0123 84       		.byte	(.L217-.L205)/2
 1763 0124 90       		.byte	(.L204-.L205)/2
 1764 0125 82       		.byte	(.L218-.L205)/2
 1765 0126 A9       		.byte	(.L215-.L205)/2
 1766              	.LVL166:
 1767 0127 00       		.p2align 1
ARM GAS  C:\Users\mathi\AppData\Local\Temp\ccw8i1Yt.s 			page 32


 1768              	.L196:
 1769              	.LBE98:
 1770              	.LBE117:
 1771              		.loc 1 815 0
 1772 0128 052D     		cmp	r5, #5
 1773              	.LBB118:
 1774              	.LBB108:
 1775              		.loc 1 1763 0
 1776 012a F363     		str	r3, [r6, #60]
 1777              		.loc 1 1794 0
 1778 012c C8F83430 		str	r3, [r8, #52]
 1779              	.LVL167:
 1780              	.LBE108:
 1781              	.LBE118:
 1782              		.loc 1 815 0
 1783 0130 E7D1     		bne	.L190
 1784              	.LVL168:
 1785              	.L226:
 1786 0132 DDF800B0 		ldr	fp, [sp]
 1787              		.loc 1 831 0
 1788 0136 9BF83C40 		ldrb	r4, [fp, #60]	@ zero_extendqisi2
 1789              	.LVL169:
 1790              	.LBB119:
 1791              	.LBB120:
 1792              		.loc 1 1977 0
 1793 013a 0DF10A02 		add	r2, sp, #10
 1794 013e 0121     		movs	r1, #1
 1795 0140 3046     		mov	r0, r6
 1796 0142 FFF7FEFF 		bl	VL53L0X_RdByte
 1797              	.LVL170:
 1798              		.loc 1 1978 0
 1799 0146 002C     		cmp	r4, #0
 1800 0148 40F08C80 		bne	.L233
 1801              		.loc 1 1980 0
 1802 014c 9DF80A30 		ldrb	r3, [sp, #10]	@ zero_extendqisi2
 1803 0150 03F07F03 		and	r3, r3, #127
 1804              	.LVL171:
 1805              	.L202:
 1806              		.loc 1 1988 0
 1807 0154 1A46     		mov	r2, r3
 1808 0156 0121     		movs	r1, #1
 1809 0158 3046     		mov	r0, r6
 1810 015a 8DF80A30 		strb	r3, [sp, #10]
 1811              	.LVL172:
 1812 015e FFF7FEFF 		bl	VL53L0X_WrByte
 1813              	.LVL173:
 1814              		.loc 1 1990 0
 1815 0162 0028     		cmp	r0, #0
 1816 0164 7FF45DAF 		bne	.L168
 1817              		.loc 1 1991 0
 1818 0168 9DF80A30 		ldrb	r3, [sp, #10]	@ zero_extendqisi2
 1819              		.loc 1 1992 0
 1820 016c 86F84C40 		strb	r4, [r6, #76]
 1821              	.LVL174:
 1822              		.loc 1 1991 0
 1823 0170 86F83031 		strb	r3, [r6, #304]
 1824              	.LVL175:
ARM GAS  C:\Users\mathi\AppData\Local\Temp\ccw8i1Yt.s 			page 33


 1825              	.LBE120:
 1826              	.LBE119:
 1827              	.LBB122:
 1828              	.LBB123:
 1829              		.loc 1 1006 0
 1830 0174 DBF80410 		ldr	r1, [fp, #4]
 1831 0178 3046     		mov	r0, r6
 1832 017a FFF7FEFF 		bl	VL53L0X_set_measurement_timing_budget_micro_seconds
 1833              	.LVL176:
 1834 017e 50E7     		b	.L168
 1835              	.LVL177:
 1836              	.L194:
 1837              	.LBE123:
 1838              	.LBE122:
 1839              	.LBB124:
 1840              	.LBB109:
 1841              		.loc 1 1753 0
 1842 0180 C3F34F22 		ubfx	r2, r3, #9, #16
 1843 0184 4421     		movs	r1, #68
 1844 0186 3046     		mov	r0, r6
 1845 0188 0193     		str	r3, [sp, #4]
 1846 018a FFF7FEFF 		bl	VL53L0X_WrWord
 1847              	.LVL178:
 1848 018e 019B     		ldr	r3, [sp, #4]
 1849              	.L200:
 1850              		.loc 1 1793 0
 1851 0190 0028     		cmp	r0, #0
 1852 0192 7FF446AF 		bne	.L168
 1853              		.loc 1 1794 0
 1854 0196 06EB8505 		add	r5, r6, r5, lsl #2
 1855              	.LBE109:
 1856              	.LBE124:
 1857              		.loc 1 815 0
 1858 019a 062F     		cmp	r7, #6
 1859              	.LBB125:
 1860              	.LBB110:
 1861              		.loc 1 1794 0
 1862 019c 6B63     		str	r3, [r5, #52]
 1863              	.LVL179:
 1864              	.LBE110:
 1865              	.LBE125:
 1866              		.loc 1 815 0
 1867 019e C8D0     		beq	.L226
 1868 01a0 7DE7     		b	.L201
 1869              	.LVL180:
 1870              	.L213:
 1871              	.LBB126:
 1872              	.LBB99:
 1873              		.loc 1 1626 0
 1874 01a2 0123     		movs	r3, #1
 1875              	.LVL181:
 1876              	.L179:
 1877              		.loc 1 1650 0
 1878 01a4 86F82A30 		strb	r3, [r6, #42]
 1879              		.loc 1 1692 0
 1880 01a8 002F     		cmp	r7, #0
 1881 01aa 95D1     		bne	.L189
ARM GAS  C:\Users\mathi\AppData\Local\Temp\ccw8i1Yt.s 			page 34


 1882              		.loc 1 1693 0
 1883 01ac 7319     		adds	r3, r6, r5
 1884 01ae 83F82870 		strb	r7, [r3, #40]
 1885              	.LVL182:
 1886              	.L184:
 1887              	.LBE99:
 1888              	.LBE126:
 1889              		.loc 1 823 0
 1890 01b2 D9F80030 		ldr	r3, [r9]
 1891              	.LVL183:
 1892 01b6 6F1C     		adds	r7, r5, #1
 1893              	.L206:
 1894              	.LVL184:
 1895              		.loc 1 815 0
 1896 01b8 062F     		cmp	r7, #6
 1897              	.LBB127:
 1898              	.LBB111:
 1899              		.loc 1 1738 0
 1900 01ba C8F83430 		str	r3, [r8, #52]
 1901              	.LVL185:
 1902              	.LBE111:
 1903              	.LBE127:
 1904              		.loc 1 815 0
 1905 01be A0D1     		bne	.L190
 1906 01c0 B7E7     		b	.L226
 1907              	.LVL186:
 1908              	.L214:
 1909              	.LBB128:
 1910              	.LBB100:
 1911              		.loc 1 1629 0
 1912 01c2 0023     		movs	r3, #0
 1913              	.LVL187:
 1914              	.L181:
 1915              		.loc 1 1668 0
 1916 01c4 FE22     		movs	r2, #254
 1917 01c6 6021     		movs	r1, #96
 1918 01c8 3046     		mov	r0, r6
 1919 01ca FFF7FEFF 		bl	VL53L0X_UpdateByte
 1920              	.LVL188:
 1921              	.L186:
 1922              		.loc 1 1691 0
 1923 01ce 0028     		cmp	r0, #0
 1924 01d0 7FF427AF 		bne	.L168
 1925              		.loc 1 1692 0
 1926 01d4 002F     		cmp	r7, #0
 1927 01d6 06EB0503 		add	r3, r6, r5
 1928 01da 14BF     		ite	ne
 1929 01dc 0122     		movne	r2, #1
 1930 01de 0022     		moveq	r2, #0
 1931 01e0 83F82820 		strb	r2, [r3, #40]
 1932              	.LVL189:
 1933 01e4 05F10107 		add	r7, r5, #1
 1934              	.LBE100:
 1935              	.LBE128:
 1936              		.loc 1 823 0
 1937 01e8 D9F80030 		ldr	r3, [r9]
 1938              	.LVL190:
ARM GAS  C:\Users\mathi\AppData\Local\Temp\ccw8i1Yt.s 			page 35


 1939 01ec BB46     		mov	fp, r7
 1940              	.LBB129:
 1941              	.LBB112:
 1942              		.loc 1 1737 0
 1943 01ee 7FF47BAF 		bne	.L188
 1944 01f2 E1E7     		b	.L206
 1945              	.LVL191:
 1946              	.L177:
 1947 01f4 C2F34F22 		ubfx	r2, r2, #9, #16
 1948              	.LVL192:
 1949              	.L185:
 1950              	.LBE112:
 1951              	.LBE129:
 1952              	.LBB130:
 1953              	.LBB101:
 1954              		.loc 1 1641 0
 1955 01f8 4421     		movs	r1, #68
 1956 01fa 3046     		mov	r0, r6
 1957 01fc FFF7FEFF 		bl	VL53L0X_WrWord
 1958              	.LVL193:
 1959 0200 E5E7     		b	.L186
 1960              	.LVL194:
 1961              	.L176:
 1962 0202 7319     		adds	r3, r6, r5
 1963              		.loc 1 1633 0
 1964 0204 0122     		movs	r2, #1
 1965              	.LVL195:
 1966 0206 86F82820 		strb	r2, [r6, #40]
 1967              	.LVL196:
 1968 020a 83F82820 		strb	r2, [r3, #40]
 1969              	.LVL197:
 1970              	.LBE101:
 1971              	.LBE130:
 1972              		.loc 1 823 0
 1973 020e D9F80030 		ldr	r3, [r9]
 1974              	.LVL198:
 1975              	.L193:
 1976              	.LBB131:
 1977              	.LBB113:
 1978              		.loc 1 1746 0
 1979 0212 7363     		str	r3, [r6, #52]
 1980              	.LBE113:
 1981              	.LBE131:
 1982              		.loc 1 815 0
 1983 0214 052D     		cmp	r5, #5
 1984              	.LBB132:
 1985              	.LBB114:
 1986              		.loc 1 1794 0
 1987 0216 C8F83430 		str	r3, [r8, #52]
 1988              	.LVL199:
 1989              	.LBE114:
 1990              	.LBE132:
 1991              		.loc 1 815 0
 1992 021a 8AD0     		beq	.L226
 1993 021c 6F1C     		adds	r7, r5, #1
 1994 021e 70E7     		b	.L190
 1995              	.LVL200:
ARM GAS  C:\Users\mathi\AppData\Local\Temp\ccw8i1Yt.s 			page 36


 1996              	.L231:
 1997              	.LBB133:
 1998              	.LBB86:
 1999              		.loc 1 1349 0
 2000 0220 04FB02F2 		mul	r2, r4, r2
 2001              	.LVL201:
 2002 0224 17E7     		b	.L170
 2003              	.LVL202:
 2004              	.L218:
 2005              	.LBE86:
 2006              	.LBE133:
 2007              	.LBB134:
 2008              	.LBB102:
 2009              		.loc 1 1629 0
 2010 0226 0223     		movs	r3, #2
 2011 0228 CCE7     		b	.L181
 2012              	.L217:
 2013              		.loc 1 1618 0
 2014 022a 0023     		movs	r3, #0
 2015 022c BAE7     		b	.L179
 2016              	.L216:
 2017              		.loc 1 1629 0
 2018 022e 0022     		movs	r2, #0
 2019 0230 E2E7     		b	.L185
 2020              	.L183:
 2021              		.loc 1 1693 0
 2022 0232 7319     		adds	r3, r6, r5
 2023              		.loc 1 1633 0
 2024 0234 4FF00002 		mov	r2, #0
 2025 0238 86F82820 		strb	r2, [r6, #40]
 2026              		.loc 1 1693 0
 2027 023c 83F82820 		strb	r2, [r3, #40]
 2028              	.LVL203:
 2029 0240 B7E7     		b	.L184
 2030              	.LVL204:
 2031              	.L204:
 2032 0242 7319     		adds	r3, r6, r5
 2033              		.loc 1 1659 0
 2034 0244 4FF00002 		mov	r2, #0
 2035 0248 86F82B20 		strb	r2, [r6, #43]
 2036              		.loc 1 1693 0
 2037 024c 83F82820 		strb	r2, [r3, #40]
 2038              	.LVL205:
 2039 0250 AFE7     		b	.L184
 2040              	.LVL206:
 2041              	.L198:
 2042              	.LBE102:
 2043              	.LBE134:
 2044              	.LBB135:
 2045              	.LBB115:
 2046              		.loc 1 1781 0
 2047 0252 C3F34F22 		ubfx	r2, r3, #9, #16
 2048 0256 6421     		movs	r1, #100
 2049 0258 3046     		mov	r0, r6
 2050 025a 0193     		str	r3, [sp, #4]
 2051 025c FFF7FEFF 		bl	VL53L0X_WrWord
 2052              	.LVL207:
ARM GAS  C:\Users\mathi\AppData\Local\Temp\ccw8i1Yt.s 			page 37


 2053 0260 019B     		ldr	r3, [sp, #4]
 2054              	.LVL208:
 2055 0262 95E7     		b	.L200
 2056              	.LVL209:
 2057              	.L233:
 2058              	.LBE115:
 2059              	.LBE135:
 2060              	.LBB136:
 2061              	.LBB121:
 2062              		.loc 1 1984 0
 2063 0264 9DF80A30 		ldrb	r3, [sp, #10]	@ zero_extendqisi2
 2064              		.loc 1 1985 0
 2065 0268 0124     		movs	r4, #1
 2066              	.LVL210:
 2067              		.loc 1 1984 0
 2068 026a 43F08003 		orr	r3, r3, #128
 2069              	.LVL211:
 2070 026e 71E7     		b	.L202
 2071              	.LVL212:
 2072              	.L230:
 2073              	.LBE121:
 2074              	.LBE136:
 2075              		.loc 1 841 0
 2076 0270 FFF7FEFF 		bl	__stack_chk_fail
 2077              	.LVL213:
 2078              	.L215:
 2079              	.LBB137:
 2080              	.LBB103:
 2081              		.loc 1 1629 0
 2082 0274 1023     		movs	r3, #16
 2083              	.LVL214:
 2084              	.L182:
 2085              		.loc 1 1677 0
 2086 0276 EF22     		movs	r2, #239
 2087 0278 6021     		movs	r1, #96
 2088 027a 3046     		mov	r0, r6
 2089 027c FFF7FEFF 		bl	VL53L0X_UpdateByte
 2090              	.LVL215:
 2091 0280 A5E7     		b	.L186
 2092              	.LVL216:
 2093              	.L212:
 2094              		.loc 1 1629 0
 2095 0282 0023     		movs	r3, #0
 2096 0284 F7E7     		b	.L182
 2097              	.L235:
 2098 0286 00BF     		.align	2
 2099              	.L234:
 2100 0288 00000000 		.word	__stack_chk_guard
 2101 028c 0B003000 		.word	3145739
 2102              	.LBE103:
 2103              	.LBE137:
 2104              		.cfi_endproc
 2105              	.LFE29:
 2106              		.size	VL53L0X_SetDeviceParameters, .-VL53L0X_SetDeviceParameters
 2107              		.section	.text.VL53L0X_GetDeviceParameters,"ax",%progbits
 2108              		.align	1
 2109              		.p2align 4,,15
ARM GAS  C:\Users\mathi\AppData\Local\Temp\ccw8i1Yt.s 			page 38


 2110              		.global	VL53L0X_GetDeviceParameters
 2111              		.syntax unified
 2112              		.thumb
 2113              		.thumb_func
 2114              		.fpu fpv4-sp-d16
 2115              		.type	VL53L0X_GetDeviceParameters, %function
 2116              	VL53L0X_GetDeviceParameters:
 2117              	.LFB30:
 2118              		.loc 1 845 0
 2119              		.cfi_startproc
 2120              		@ args = 0, pretend = 0, frame = 16
 2121              		@ frame_needed = 0, uses_anonymous_args = 0
 2122              	.LVL217:
 2123 0000 2DE9F043 		push	{r4, r5, r6, r7, r8, r9, lr}
 2124              		.cfi_def_cfa_offset 28
 2125              		.cfi_offset 4, -28
 2126              		.cfi_offset 5, -24
 2127              		.cfi_offset 6, -20
 2128              		.cfi_offset 7, -16
 2129              		.cfi_offset 8, -12
 2130              		.cfi_offset 9, -8
 2131              		.cfi_offset 14, -4
 2132 0004 534F     		ldr	r7, .L268
 2133              	.LBB154:
 2134              	.LBB155:
 2135              		.loc 1 937 0
 2136 0006 027C     		ldrb	r2, [r0, #16]	@ zero_extendqisi2
 2137              	.LBE155:
 2138              	.LBE154:
 2139              		.loc 1 845 0
 2140 0008 3B68     		ldr	r3, [r7]
 2141              	.LBB157:
 2142              	.LBB156:
 2143              		.loc 1 937 0
 2144 000a 0A70     		strb	r2, [r1]
 2145              	.LBE156:
 2146              	.LBE157:
 2147              		.loc 1 845 0
 2148 000c 85B0     		sub	sp, sp, #20
 2149              		.cfi_def_cfa_offset 48
 2150              		.loc 1 845 0
 2151 000e 0E46     		mov	r6, r1
 2152              	.LBB158:
 2153              	.LBB159:
 2154              		.loc 1 1380 0
 2155 0010 0DF10602 		add	r2, sp, #6
 2156 0014 F821     		movs	r1, #248
 2157              	.LVL218:
 2158              	.LBE159:
 2159              	.LBE158:
 2160              		.loc 1 845 0
 2161 0016 0546     		mov	r5, r0
 2162 0018 0393     		str	r3, [sp, #12]
 2163              	.LVL219:
 2164              	.LBB163:
 2165              	.LBB160:
 2166              		.loc 1 1380 0
ARM GAS  C:\Users\mathi\AppData\Local\Temp\ccw8i1Yt.s 			page 39


 2167 001a FFF7FEFF 		bl	VL53L0X_RdWord
 2168              	.LVL220:
 2169              		.loc 1 1383 0
 2170 001e 38B1     		cbz	r0, .L264
 2171              	.LVL221:
 2172              	.L254:
 2173              	.LBE160:
 2174              	.LBE163:
 2175              		.loc 1 905 0
 2176 0020 039A     		ldr	r2, [sp, #12]
 2177 0022 3B68     		ldr	r3, [r7]
 2178 0024 9A42     		cmp	r2, r3
 2179 0026 40F09380 		bne	.L265
 2180 002a 05B0     		add	sp, sp, #20
 2181              		.cfi_remember_state
 2182              		.cfi_def_cfa_offset 28
 2183              		@ sp needed
 2184 002c BDE8F083 		pop	{r4, r5, r6, r7, r8, r9, pc}
 2185              	.LVL222:
 2186              	.L264:
 2187              		.cfi_restore_state
 2188              	.LBB164:
 2189              	.LBB161:
 2190              		.loc 1 1384 0
 2191 0030 02AA     		add	r2, sp, #8
 2192 0032 0421     		movs	r1, #4
 2193 0034 2846     		mov	r0, r5
 2194              	.LVL223:
 2195 0036 FFF7FEFF 		bl	VL53L0X_RdDWord
 2196              	.LVL224:
 2197              		.loc 1 1389 0
 2198 003a 0028     		cmp	r0, #0
 2199 003c F0D1     		bne	.L254
 2200              		.loc 1 1390 0
 2201 003e BDF80620 		ldrh	r2, [sp, #6]
 2202 0042 42BB     		cbnz	r2, .L238
 2203 0044 B368     		ldr	r3, [r6, #8]
 2204              	.L239:
 2205              		.loc 1 1394 0
 2206 0046 AB61     		str	r3, [r5, #24]
 2207              	.LVL225:
 2208              	.LBE161:
 2209              	.LBE164:
 2210              		.loc 1 859 0
 2211 0048 0021     		movs	r1, #0
 2212 004a 3173     		strb	r1, [r6, #12]
 2213              	.LVL226:
 2214              	.LBB165:
 2215              	.LBB166:
 2216              		.loc 1 1502 0
 2217 004c 02AA     		add	r2, sp, #8
 2218 004e 2021     		movs	r1, #32
 2219 0050 2846     		mov	r0, r5
 2220 0052 FFF7FEFF 		bl	VL53L0X_RdWord
 2221              	.LVL227:
 2222              		.loc 1 1504 0
 2223 0056 0028     		cmp	r0, #0
ARM GAS  C:\Users\mathi\AppData\Local\Temp\ccw8i1Yt.s 			page 40


 2224 0058 E2D1     		bne	.L254
 2225              		.loc 1 1505 0
 2226 005a BDF80830 		ldrh	r3, [sp, #8]
 2227 005e 002B     		cmp	r3, #0
 2228 0060 59D0     		beq	.L266
 2229              		.loc 1 1513 0
 2230 0062 DB00     		lsls	r3, r3, #3
 2231              	.LVL228:
 2232              		.loc 1 1517 0
 2233 0064 0122     		movs	r2, #1
 2234              		.loc 1 1514 0
 2235 0066 3361     		str	r3, [r6, #16]
 2236              		.loc 1 1515 0
 2237 0068 2B62     		str	r3, [r5, #32]
 2238              		.loc 1 1517 0
 2239 006a 2A77     		strb	r2, [r5, #28]
 2240              	.LVL229:
 2241              	.L242:
 2242              	.LBE166:
 2243              	.LBE165:
 2244              	.LBB168:
 2245              	.LBB169:
 2246              		.loc 1 272 0
 2247 006c 06F11401 		add	r1, r6, #20
 2248              	.LVL230:
 2249 0070 2846     		mov	r0, r5
 2250 0072 FFF7FEFF 		bl	VL53L0X_get_offset_calibration_data_micro_meter
 2251              	.LVL231:
 2252              	.LBE169:
 2253              	.LBE168:
 2254              		.loc 1 871 0
 2255 0076 0028     		cmp	r0, #0
 2256 0078 D2D1     		bne	.L254
 2257              		.loc 1 872 0
 2258 007a 0446     		mov	r4, r0
 2259 007c 06F11809 		add	r9, r6, #24
 2260              	.LBB170:
 2261              	.LBB171:
 2262              		.loc 1 1881 0
 2263 0080 4FF00108 		mov	r8, #1
 2264              	.LVL232:
 2265              	.L255:
 2266              		.loc 1 1813 0
 2267 0084 A3B2     		uxth	r3, r4
 2268 0086 013B     		subs	r3, r3, #1
 2269 0088 042B     		cmp	r3, #4
 2270 008a 42D8     		bhi	.L243
 2271 008c DFE803F0 		tbb	[pc, r3]
 2272              	.L245:
 2273 0090 2B       		.byte	(.L244-.L245)/2
 2274 0091 29       		.byte	(.L246-.L245)/2
 2275 0092 08       		.byte	(.L247-.L245)/2
 2276 0093 47       		.byte	(.L248-.L245)/2
 2277 0094 47       		.byte	(.L248-.L245)/2
 2278              	.LVL233:
 2279 0095 00       		.p2align 1
 2280              	.L238:
ARM GAS  C:\Users\mathi\AppData\Local\Temp\ccw8i1Yt.s 			page 41


 2281              	.LBE171:
 2282              	.LBE170:
 2283              	.LBB175:
 2284              	.LBB162:
 2285              		.loc 1 1392 0
 2286 0096 029B     		ldr	r3, [sp, #8]
 2287 0098 B3FBF2F3 		udiv	r3, r3, r2
 2288              		.loc 1 1391 0
 2289 009c B360     		str	r3, [r6, #8]
 2290 009e D2E7     		b	.L239
 2291              	.LVL234:
 2292              	.L247:
 2293              	.LBE162:
 2294              	.LBE175:
 2295              	.LBB176:
 2296              	.LBB172:
 2297              		.loc 1 1842 0
 2298 00a0 296C     		ldr	r1, [r5, #64]
 2299              	.LVL235:
 2300              	.L249:
 2301              		.loc 1 1885 0
 2302 00a2 06EB8402 		add	r2, r6, r4, lsl #2
 2303 00a6 2B19     		adds	r3, r5, r4
 2304 00a8 5162     		str	r1, [r2, #36]
 2305 00aa 93F82830 		ldrb	r3, [r3, #40]	@ zero_extendqisi2
 2306              	.LVL236:
 2307              	.L253:
 2308              	.LBE172:
 2309              	.LBE176:
 2310              	.LBB177:
 2311              	.LBB178:
 2312              		.loc 1 1719 0
 2313 00ae 09F8013B 		strb	r3, [r9], #1
 2314              	.LVL237:
 2315              	.LBE178:
 2316              	.LBE177:
 2317              		.loc 1 872 0
 2318 00b2 0134     		adds	r4, r4, #1
 2319              	.LVL238:
 2320 00b4 062C     		cmp	r4, #6
 2321 00b6 E5D1     		bne	.L255
 2322              	.LVL239:
 2323              	.LBB179:
 2324              	.LBB180:
 2325              		.loc 1 2008 0
 2326 00b8 02AA     		add	r2, sp, #8
 2327 00ba 0121     		movs	r1, #1
 2328 00bc 2846     		mov	r0, r5
 2329 00be FFF7FEFF 		bl	VL53L0X_RdByte
 2330              	.LVL240:
 2331              		.loc 1 2009 0
 2332 00c2 0028     		cmp	r0, #0
 2333 00c4 ACD1     		bne	.L254
 2334              		.loc 1 2010 0
 2335 00c6 9DF80830 		ldrb	r3, [sp, #8]	@ zero_extendqisi2
 2336 00ca 85F83031 		strb	r3, [r5, #304]
 2337              		.loc 1 2014 0
ARM GAS  C:\Users\mathi\AppData\Local\Temp\ccw8i1Yt.s 			page 42


 2338 00ce DB09     		lsrs	r3, r3, #7
 2339 00d0 86F83C30 		strb	r3, [r6, #60]
 2340              	.LBE180:
 2341              	.LBE179:
 2342              	.LBB182:
 2343              	.LBB183:
 2344              		.loc 1 1020 0
 2345 00d4 311D     		adds	r1, r6, #4
 2346              	.LBE183:
 2347              	.LBE182:
 2348              	.LBB185:
 2349              	.LBB181:
 2350              		.loc 1 2017 0
 2351 00d6 85F84C30 		strb	r3, [r5, #76]
 2352              	.LVL241:
 2353              	.LBE181:
 2354              	.LBE185:
 2355              	.LBB186:
 2356              	.LBB184:
 2357              		.loc 1 1020 0
 2358 00da 2846     		mov	r0, r5
 2359 00dc FFF7FEFF 		bl	VL53L0X_get_measurement_timing_budget_micro_seconds
 2360              	.LVL242:
 2361 00e0 9EE7     		b	.L254
 2362              	.LVL243:
 2363              	.L246:
 2364              	.LBE184:
 2365              	.LBE186:
 2366              	.LBB187:
 2367              	.LBB173:
 2368              		.loc 1 1835 0
 2369 00e2 E96B     		ldr	r1, [r5, #60]
 2370              	.LVL244:
 2371 00e4 DDE7     		b	.L249
 2372              	.LVL245:
 2373              	.L244:
 2374              		.loc 1 1823 0
 2375 00e6 02AA     		add	r2, sp, #8
 2376 00e8 4421     		movs	r1, #68
 2377 00ea 2846     		mov	r0, r5
 2378 00ec FFF7FEFF 		bl	VL53L0X_RdWord
 2379              	.LVL246:
 2380              		.loc 1 1826 0
 2381 00f0 0028     		cmp	r0, #0
 2382 00f2 95D1     		bne	.L254
 2383              		.loc 1 1827 0
 2384 00f4 BDF80830 		ldrh	r3, [sp, #8]
 2385              	.LVL247:
 2386              		.loc 1 1868 0
 2387 00f8 5902     		lsls	r1, r3, #9
 2388              	.LVL248:
 2389 00fa E3B9     		cbnz	r3, .L267
 2390 00fc A300     		lsls	r3, r4, #2
 2391 00fe EA18     		adds	r2, r5, r3
 2392              		.loc 1 1874 0
 2393 0100 E01A     		subs	r0, r4, r3
 2394 0102 1044     		add	r0, r0, r2
ARM GAS  C:\Users\mathi\AppData\Local\Temp\ccw8i1Yt.s 			page 43


 2395              		.loc 1 1873 0
 2396 0104 3344     		add	r3, r3, r6
 2397              		.loc 1 1870 0
 2398 0106 526B     		ldr	r2, [r2, #52]
 2399              	.LVL249:
 2400              		.loc 1 1873 0
 2401 0108 5A62     		str	r2, [r3, #36]
 2402              		.loc 1 1874 0
 2403 010a 0B46     		mov	r3, r1
 2404 010c 80F82810 		strb	r1, [r0, #40]
 2405 0110 CDE7     		b	.L253
 2406              	.LVL250:
 2407              	.L243:
 2408              		.loc 1 1817 0
 2409 0112 696B     		ldr	r1, [r5, #52]
 2410              	.LVL251:
 2411 0114 C5E7     		b	.L249
 2412              	.LVL252:
 2413              	.L266:
 2414              	.LBE173:
 2415              	.LBE187:
 2416              	.LBB188:
 2417              	.LBB167:
 2418              		.loc 1 1507 0
 2419 0116 2A6A     		ldr	r2, [r5, #32]
 2420              	.LVL253:
 2421              		.loc 1 1509 0
 2422 0118 3261     		str	r2, [r6, #16]
 2423              		.loc 1 1510 0
 2424 011a 2B77     		strb	r3, [r5, #28]
 2425 011c A6E7     		b	.L242
 2426              	.LVL254:
 2427              	.L248:
 2428              	.LBE167:
 2429              	.LBE188:
 2430              	.LBB189:
 2431              	.LBB174:
 2432              		.loc 1 1849 0
 2433 011e 02AA     		add	r2, sp, #8
 2434 0120 6421     		movs	r1, #100
 2435 0122 2846     		mov	r0, r5
 2436 0124 FFF7FEFF 		bl	VL53L0X_RdWord
 2437              	.LVL255:
 2438              		.loc 1 1852 0
 2439 0128 0028     		cmp	r0, #0
 2440 012a 7FF479AF 		bne	.L254
 2441              		.loc 1 1853 0
 2442 012e BDF80810 		ldrh	r1, [sp, #8]
 2443 0132 4902     		lsls	r1, r1, #9
 2444              	.LVL256:
 2445 0134 B5E7     		b	.L249
 2446              	.LVL257:
 2447              	.L267:
 2448 0136 A300     		lsls	r3, r4, #2
 2449 0138 E818     		adds	r0, r5, r3
 2450              		.loc 1 1877 0
 2451 013a 06EB030C 		add	ip, r6, r3
ARM GAS  C:\Users\mathi\AppData\Local\Temp\ccw8i1Yt.s 			page 44


 2452              		.loc 1 1881 0
 2453 013e E31A     		subs	r3, r4, r3
 2454 0140 C218     		adds	r2, r0, r3
 2455              		.loc 1 1877 0
 2456 0142 CCF82410 		str	r1, [ip, #36]
 2457              		.loc 1 1881 0
 2458 0146 0123     		movs	r3, #1
 2459              		.loc 1 1878 0
 2460 0148 4163     		str	r1, [r0, #52]
 2461              		.loc 1 1881 0
 2462 014a 82F82880 		strb	r8, [r2, #40]
 2463 014e AEE7     		b	.L253
 2464              	.LVL258:
 2465              	.L265:
 2466              	.LBE174:
 2467              	.LBE189:
 2468              		.loc 1 905 0
 2469 0150 FFF7FEFF 		bl	__stack_chk_fail
 2470              	.LVL259:
 2471              	.L269:
 2472              		.align	2
 2473              	.L268:
 2474 0154 00000000 		.word	__stack_chk_guard
 2475              		.cfi_endproc
 2476              	.LFE30:
 2477              		.size	VL53L0X_GetDeviceParameters, .-VL53L0X_GetDeviceParameters
 2478              		.section	.text.VL53L0X_DataInit,"ax",%progbits
 2479              		.align	1
 2480              		.p2align 4,,15
 2481              		.global	VL53L0X_DataInit
 2482              		.syntax unified
 2483              		.thumb
 2484              		.thumb_func
 2485              		.fpu fpv4-sp-d16
 2486              		.type	VL53L0X_DataInit, %function
 2487              	VL53L0X_DataInit:
 2488              	.LFB23:
 2489              		.loc 1 374 0
 2490              		.cfi_startproc
 2491              		@ args = 0, pretend = 0, frame = 72
 2492              		@ frame_needed = 0, uses_anonymous_args = 0
 2493              	.LVL260:
 2494 0000 2DE9F041 		push	{r4, r5, r6, r7, r8, lr}
 2495              		.cfi_def_cfa_offset 24
 2496              		.cfi_offset 4, -24
 2497              		.cfi_offset 5, -20
 2498              		.cfi_offset 6, -16
 2499              		.cfi_offset 7, -12
 2500              		.cfi_offset 8, -8
 2501              		.cfi_offset 14, -4
 2502 0004 7E4F     		ldr	r7, .L297
 2503 0006 92B0     		sub	sp, sp, #72
 2504              		.cfi_def_cfa_offset 96
 2505              		.loc 1 374 0
 2506 0008 0546     		mov	r5, r0
 2507 000a 3B68     		ldr	r3, [r7]
 2508 000c 1193     		str	r3, [sp, #68]
ARM GAS  C:\Users\mathi\AppData\Local\Temp\ccw8i1Yt.s 			page 45


 2509              	.LVL261:
 2510              		.loc 1 393 0
 2511 000e 0022     		movs	r2, #0
 2512 0010 8821     		movs	r1, #136
 2513 0012 FFF7FEFF 		bl	VL53L0X_WrByte
 2514              	.LVL262:
 2515              		.loc 1 403 0
 2516 0016 7B4B     		ldr	r3, .L297+4
 2517              		.loc 1 407 0
 2518 0018 7B49     		ldr	r1, .L297+8
 2519              		.loc 1 412 0
 2520 001a 7C4A     		ldr	r2, .L297+12
 2521              		.loc 1 403 0
 2522 001c C5F85231 		str	r3, [r5, #338]	@ unaligned
 2523              		.loc 1 395 0
 2524 0020 0023     		movs	r3, #0
 2525              		.loc 1 407 0
 2526 0022 C5F85811 		str	r1, [r5, #344]
 2527              		.loc 1 412 0
 2528 0026 C5F8D420 		str	r2, [r5, #212]
 2529              		.loc 1 395 0
 2530 002a 85F8F030 		strb	r3, [r5, #240]
 2531              		.loc 1 415 0
 2532 002e 2B62     		str	r3, [r5, #32]
 2533              		.loc 1 418 0
 2534 0030 2846     		mov	r0, r5
 2535 0032 01A9     		add	r1, sp, #4
 2536 0034 FFF7FEFF 		bl	VL53L0X_GetDeviceParameters
 2537              	.LVL263:
 2538              		.loc 1 419 0
 2539 0038 0446     		mov	r4, r0
 2540 003a 88B9     		cbnz	r0, .L271
 2541              		.loc 1 421 0
 2542 003c ADF80400 		strh	r0, [sp, #4]	@ movhi
 2543              		.loc 1 423 0
 2544 0040 01AE     		add	r6, sp, #4
 2545 0042 0FCE     		ldmia	r6!, {r0, r1, r2, r3}
 2546              	.LVL264:
 2547 0044 05F1100C 		add	ip, r5, #16
 2548 0048 ACE80F00 		stmia	ip!, {r0, r1, r2, r3}
 2549 004c 0FCE     		ldmia	r6!, {r0, r1, r2, r3}
 2550 004e ACE80F00 		stmia	ip!, {r0, r1, r2, r3}
 2551 0052 0FCE     		ldmia	r6!, {r0, r1, r2, r3}
 2552 0054 ACE80F00 		stmia	ip!, {r0, r1, r2, r3}
 2553 0058 96E80F00 		ldm	r6, {r0, r1, r2, r3}
 2554 005c 8CE80F00 		stm	ip, {r0, r1, r2, r3}
 2555              	.L271:
 2556              		.loc 1 427 0
 2557 0060 6B4B     		ldr	r3, .L297+16
 2558 0062 C5F83431 		str	r3, [r5, #308]
 2559              		.loc 1 433 0
 2560 0066 0126     		movs	r6, #1
 2561              		.loc 1 430 0
 2562 0068 4FF42063 		mov	r3, #2560
 2563              		.loc 1 429 0
 2564 006c 4FF4FA72 		mov	r2, #500
 2565              		.loc 1 430 0
ARM GAS  C:\Users\mathi\AppData\Local\Temp\ccw8i1Yt.s 			page 46


 2566 0070 A5F83C31 		strh	r3, [r5, #316]	@ movhi
 2567              		.loc 1 429 0
 2568 0074 A5F83821 		strh	r2, [r5, #312]	@ movhi
 2569              		.loc 1 435 0
 2570 0078 8021     		movs	r1, #128
 2571 007a 3246     		mov	r2, r6
 2572              		.loc 1 433 0
 2573 007c 85F85061 		strb	r6, [r5, #336]
 2574              		.loc 1 435 0
 2575 0080 2846     		mov	r0, r5
 2576 0082 FFF7FEFF 		bl	VL53L0X_WrByte
 2577              	.LVL265:
 2578              		.loc 1 436 0
 2579 0086 3246     		mov	r2, r6
 2580              		.loc 1 435 0
 2581 0088 8046     		mov	r8, r0
 2582              	.LVL266:
 2583              		.loc 1 436 0
 2584 008a FF21     		movs	r1, #255
 2585 008c 2846     		mov	r0, r5
 2586 008e FFF7FEFF 		bl	VL53L0X_WrByte
 2587              	.LVL267:
 2588              		.loc 1 437 0
 2589 0092 0022     		movs	r2, #0
 2590              		.loc 1 436 0
 2591 0094 48EA0000 		orr	r0, r8, r0
 2592              		.loc 1 437 0
 2593 0098 1146     		mov	r1, r2
 2594              		.loc 1 436 0
 2595 009a 0443     		orrs	r4, r4, r0
 2596              	.LVL268:
 2597              		.loc 1 437 0
 2598 009c 2846     		mov	r0, r5
 2599 009e FFF7FEFF 		bl	VL53L0X_WrByte
 2600              	.LVL269:
 2601              		.loc 1 436 0
 2602 00a2 64B2     		sxtb	r4, r4
 2603              	.LVL270:
 2604              		.loc 1 438 0
 2605 00a4 0DF10302 		add	r2, sp, #3
 2606              		.loc 1 437 0
 2607 00a8 0443     		orrs	r4, r4, r0
 2608              	.LVL271:
 2609              		.loc 1 438 0
 2610 00aa 9121     		movs	r1, #145
 2611 00ac 2846     		mov	r0, r5
 2612 00ae FFF7FEFF 		bl	VL53L0X_RdByte
 2613              	.LVL272:
 2614              		.loc 1 437 0
 2615 00b2 64B2     		sxtb	r4, r4
 2616              	.LVL273:
 2617              		.loc 1 439 0
 2618 00b4 9DF80330 		ldrb	r3, [sp, #3]	@ zero_extendqisi2
 2619 00b8 85F83A31 		strb	r3, [r5, #314]
 2620              		.loc 1 438 0
 2621 00bc 0443     		orrs	r4, r4, r0
 2622              	.LVL274:
ARM GAS  C:\Users\mathi\AppData\Local\Temp\ccw8i1Yt.s 			page 47


 2623              		.loc 1 440 0
 2624 00be 3246     		mov	r2, r6
 2625 00c0 0021     		movs	r1, #0
 2626 00c2 2846     		mov	r0, r5
 2627 00c4 FFF7FEFF 		bl	VL53L0X_WrByte
 2628              	.LVL275:
 2629              		.loc 1 438 0
 2630 00c8 64B2     		sxtb	r4, r4
 2631              	.LVL276:
 2632              		.loc 1 441 0
 2633 00ca 0022     		movs	r2, #0
 2634              		.loc 1 440 0
 2635 00cc 0443     		orrs	r4, r4, r0
 2636              	.LVL277:
 2637              		.loc 1 441 0
 2638 00ce FF21     		movs	r1, #255
 2639 00d0 2846     		mov	r0, r5
 2640 00d2 FFF7FEFF 		bl	VL53L0X_WrByte
 2641              	.LVL278:
 2642              		.loc 1 440 0
 2643 00d6 64B2     		sxtb	r4, r4
 2644              	.LVL279:
 2645              		.loc 1 441 0
 2646 00d8 0443     		orrs	r4, r4, r0
 2647              	.LVL280:
 2648              		.loc 1 442 0
 2649 00da 0022     		movs	r2, #0
 2650 00dc 8021     		movs	r1, #128
 2651 00de 2846     		mov	r0, r5
 2652 00e0 FFF7FEFF 		bl	VL53L0X_WrByte
 2653              	.LVL281:
 2654              		.loc 1 441 0
 2655 00e4 64B2     		sxtb	r4, r4
 2656              	.LVL282:
 2657              		.loc 1 442 0
 2658 00e6 2043     		orrs	r0, r0, r4
 2659 00e8 40B2     		sxtb	r0, r0
 2660              	.LVL283:
 2661              		.loc 1 446 0
 2662 00ea 0028     		cmp	r0, #0
 2663 00ec 54D1     		bne	.L272
 2664              		.loc 1 445 0
 2665 00ee 0446     		mov	r4, r0
 2666              	.LVL284:
 2667              	.L273:
 2668              	.LBB208:
 2669              	.LBB209:
 2670              		.loc 1 1629 0 discriminator 2
 2671 00f0 A3B2     		uxth	r3, r4
 2672 00f2 013B     		subs	r3, r3, #1
 2673 00f4 04F10108 		add	r8, r4, #1
 2674 00f8 042B     		cmp	r3, #4
 2675 00fa 04D8     		bhi	.L274
 2676 00fc DFE803F0 		tbb	[pc, r3]
 2677              	.L276:
 2678 0100 5E       		.byte	(.L275-.L276)/2
 2679 0101 53       		.byte	(.L277-.L276)/2
ARM GAS  C:\Users\mathi\AppData\Local\Temp\ccw8i1Yt.s 			page 48


 2680 0102 0E       		.byte	(.L278-.L276)/2
 2681 0103 70       		.byte	(.L279-.L276)/2
 2682 0104 77       		.byte	(.L280-.L276)/2
 2683 0105 00       		.p2align 1
 2684              	.L274:
 2685              	.LVL285:
 2686              		.loc 1 1696 0
 2687 0106 05EB0803 		add	r3, r5, r8
 2688              	.LBE209:
 2689              	.LBE208:
 2690              		.loc 1 445 0
 2691 010a B8F1060F 		cmp	r8, #6
 2692              	.LBB218:
 2693              	.LBB210:
 2694              		.loc 1 1633 0
 2695 010e 85F82860 		strb	r6, [r5, #40]
 2696              		.loc 1 1696 0
 2697 0112 83F82760 		strb	r6, [r3, #39]
 2698              	.LVL286:
 2699              	.LBE210:
 2700              	.LBE218:
 2701              		.loc 1 445 0
 2702 0116 0AD0     		beq	.L284
 2703              	.L281:
 2704 0118 4446     		mov	r4, r8
 2705 011a E9E7     		b	.L273
 2706              	.LVL287:
 2707              	.L278:
 2708              	.LBB219:
 2709              	.LBB211:
 2710              		.loc 1 1696 0
 2711 011c 05EB0803 		add	r3, r5, r8
 2712              	.LBE211:
 2713              	.LBE219:
 2714              		.loc 1 445 0
 2715 0120 B8F1060F 		cmp	r8, #6
 2716              	.LBB220:
 2717              	.LBB212:
 2718              		.loc 1 1659 0
 2719 0124 85F82B60 		strb	r6, [r5, #43]
 2720              		.loc 1 1696 0
 2721 0128 83F82760 		strb	r6, [r3, #39]
 2722              	.LVL288:
 2723              	.LBE212:
 2724              	.LBE220:
 2725              		.loc 1 445 0
 2726 012c F4D1     		bne	.L281
 2727              	.L284:
 2728              	.LVL289:
 2729              	.LBB221:
 2730              	.LBB222:
 2731              		.loc 1 1650 0
 2732 012e 0023     		movs	r3, #0
 2733 0130 6B85     		strh	r3, [r5, #42]	@ movhi
 2734              	.LVL290:
 2735              	.LBE222:
 2736              	.LBE221:
ARM GAS  C:\Users\mathi\AppData\Local\Temp\ccw8i1Yt.s 			page 49


 2737              	.LBB223:
 2738              	.LBB224:
 2739              		.loc 1 1668 0
 2740 0132 FE22     		movs	r2, #254
 2741 0134 0223     		movs	r3, #2
 2742 0136 6021     		movs	r1, #96
 2743 0138 2846     		mov	r0, r5
 2744 013a FFF7FEFF 		bl	VL53L0X_UpdateByte
 2745              	.LVL291:
 2746              		.loc 1 1691 0
 2747 013e 58BB     		cbnz	r0, .L272
 2748              		.loc 1 1693 0
 2749 0140 85F82C00 		strb	r0, [r5, #44]
 2750              	.LVL292:
 2751              	.LBE224:
 2752              	.LBE223:
 2753              	.LBB225:
 2754              	.LBB226:
 2755              		.loc 1 1677 0
 2756 0144 1023     		movs	r3, #16
 2757 0146 EF22     		movs	r2, #239
 2758 0148 6021     		movs	r1, #96
 2759 014a 2846     		mov	r0, r5
 2760              	.LVL293:
 2761 014c FFF7FEFF 		bl	VL53L0X_UpdateByte
 2762              	.LVL294:
 2763              		.loc 1 1691 0
 2764 0150 10BB     		cbnz	r0, .L272
 2765              	.LBE226:
 2766              	.LBE225:
 2767              	.LBB228:
 2768              	.LBB229:
 2769              		.loc 1 1737 0
 2770 0152 95F82930 		ldrb	r3, [r5, #41]	@ zero_extendqisi2
 2771              	.LBE229:
 2772              	.LBE228:
 2773              	.LBB231:
 2774              	.LBB227:
 2775              		.loc 1 1693 0
 2776 0156 85F82D00 		strb	r0, [r5, #45]
 2777              	.LVL295:
 2778 015a 4FF49012 		mov	r2, #1179648
 2779 015e 6A63     		str	r2, [r5, #52]
 2780              	.LVL296:
 2781              	.LBE227:
 2782              	.LBE231:
 2783              	.LBB232:
 2784              	.LBB230:
 2785              		.loc 1 1737 0
 2786 0160 2BB1     		cbz	r3, .L288
 2787              		.loc 1 1753 0
 2788 0162 2022     		movs	r2, #32
 2789 0164 4421     		movs	r1, #68
 2790 0166 2846     		mov	r0, r5
 2791              	.LVL297:
 2792 0168 FFF7FEFF 		bl	VL53L0X_WrWord
 2793              	.LVL298:
ARM GAS  C:\Users\mathi\AppData\Local\Temp\ccw8i1Yt.s 			page 50


 2794              		.loc 1 1793 0
 2795 016c A0B9     		cbnz	r0, .L272
 2796              	.LVL299:
 2797              	.L288:
 2798 016e 0023     		movs	r3, #0
 2799              		.loc 1 1738 0
 2800 0170 4FF48040 		mov	r0, #16384
 2801 0174 4FF40C11 		mov	r1, #2293760
 2802              	.LBE230:
 2803              	.LBE232:
 2804              		.loc 1 497 0
 2805 0178 FF22     		movs	r2, #255
 2806 017a C5E90E01 		strd	r0, r1, [r5, #56]
 2807              	.LVL300:
 2808 017e 2B64     		str	r3, [r5, #64]
 2809              	.LVL301:
 2810 0180 85F83021 		strb	r2, [r5, #304]
 2811              		.loc 1 498 0
 2812 0184 0121     		movs	r1, #1
 2813 0186 2846     		mov	r0, r5
 2814 0188 FFF7FEFF 		bl	VL53L0X_WrByte
 2815              	.LVL302:
 2816              		.loc 1 503 0
 2817 018c 0123     		movs	r3, #1
 2818 018e 85F83231 		strb	r3, [r5, #306]
 2819              		.loc 1 506 0
 2820 0192 08B9     		cbnz	r0, .L272
 2821              		.loc 1 507 0
 2822 0194 85F81501 		strb	r0, [r5, #277]
 2823              	.LVL303:
 2824              	.L272:
 2825              		.loc 1 512 0
 2826 0198 119A     		ldr	r2, [sp, #68]
 2827 019a 3B68     		ldr	r3, [r7]
 2828 019c 9A42     		cmp	r2, r3
 2829 019e 2DD1     		bne	.L296
 2830 01a0 12B0     		add	sp, sp, #72
 2831              		.cfi_remember_state
 2832              		.cfi_def_cfa_offset 24
 2833              		@ sp needed
 2834 01a2 BDE8F081 		pop	{r4, r5, r6, r7, r8, pc}
 2835              	.LVL304:
 2836              	.L277:
 2837              		.cfi_restore_state
 2838              	.LBB233:
 2839              	.LBB213:
 2840              		.loc 1 1696 0
 2841 01a6 05EB0803 		add	r3, r5, r8
 2842              	.LBE213:
 2843              	.LBE233:
 2844              		.loc 1 445 0
 2845 01aa B8F1060F 		cmp	r8, #6
 2846              	.LBB234:
 2847              	.LBB214:
 2848              		.loc 1 1650 0
 2849 01ae 85F82A60 		strb	r6, [r5, #42]
 2850              		.loc 1 1696 0
ARM GAS  C:\Users\mathi\AppData\Local\Temp\ccw8i1Yt.s 			page 51


 2851 01b2 83F82760 		strb	r6, [r3, #39]
 2852              	.LVL305:
 2853              	.LBE214:
 2854              	.LBE234:
 2855              		.loc 1 445 0
 2856 01b6 BAD0     		beq	.L284
 2857              	.LVL306:
 2858 01b8 4446     		mov	r4, r8
 2859 01ba 99E7     		b	.L273
 2860              	.LVL307:
 2861              	.L275:
 2862              	.LBB235:
 2863              	.LBB215:
 2864              		.loc 1 1622 0
 2865 01bc 05EB8403 		add	r3, r5, r4, lsl #2
 2866              		.loc 1 1641 0
 2867 01c0 4421     		movs	r1, #68
 2868              		.loc 1 1643 0
 2869 01c2 5A6B     		ldr	r2, [r3, #52]
 2870              		.loc 1 1641 0
 2871 01c4 2846     		mov	r0, r5
 2872 01c6 C2F34F22 		ubfx	r2, r2, #9, #16
 2873 01ca FFF7FEFF 		bl	VL53L0X_WrWord
 2874              	.LVL308:
 2875              	.L283:
 2876              		.loc 1 1691 0
 2877 01ce 0028     		cmp	r0, #0
 2878 01d0 E2D1     		bne	.L272
 2879              		.loc 1 1696 0
 2880 01d2 2B19     		adds	r3, r5, r4
 2881 01d4 4446     		mov	r4, r8
 2882              	.LBE215:
 2883              	.LBE235:
 2884              		.loc 1 445 0
 2885 01d6 062C     		cmp	r4, #6
 2886              	.LBB236:
 2887              	.LBB216:
 2888              		.loc 1 1696 0
 2889 01d8 83F82860 		strb	r6, [r3, #40]
 2890              	.LVL309:
 2891              	.LBE216:
 2892              	.LBE236:
 2893              		.loc 1 445 0
 2894 01dc 88D1     		bne	.L273
 2895 01de A6E7     		b	.L284
 2896              	.LVL310:
 2897              	.L279:
 2898              	.LBB237:
 2899              	.LBB217:
 2900              		.loc 1 1668 0
 2901 01e0 0023     		movs	r3, #0
 2902 01e2 FE22     		movs	r2, #254
 2903 01e4 6021     		movs	r1, #96
 2904 01e6 2846     		mov	r0, r5
 2905 01e8 FFF7FEFF 		bl	VL53L0X_UpdateByte
 2906              	.LVL311:
 2907 01ec EFE7     		b	.L283
ARM GAS  C:\Users\mathi\AppData\Local\Temp\ccw8i1Yt.s 			page 52


 2908              	.LVL312:
 2909              	.L280:
 2910              		.loc 1 1677 0
 2911 01ee 0023     		movs	r3, #0
 2912 01f0 EF22     		movs	r2, #239
 2913 01f2 6021     		movs	r1, #96
 2914 01f4 2846     		mov	r0, r5
 2915 01f6 FFF7FEFF 		bl	VL53L0X_UpdateByte
 2916              	.LVL313:
 2917 01fa E8E7     		b	.L283
 2918              	.LVL314:
 2919              	.L296:
 2920              	.LBE217:
 2921              	.LBE237:
 2922              		.loc 1 512 0
 2923 01fc FFF7FEFF 		bl	__stack_chk_fail
 2924              	.LVL315:
 2925              	.L298:
 2926              		.align	2
 2927              	.L297:
 2928 0200 00000000 		.word	__stack_chk_guard
 2929 0204 E8039001 		.word	26215400
 2930 0208 856B0100 		.word	93061
 2931 020c A4700900 		.word	618660
 2932 0210 64008403 		.word	58982500
 2933              		.cfi_endproc
 2934              	.LFE23:
 2935              		.size	VL53L0X_DataInit, .-VL53L0X_DataInit
 2936              		.section	.text.VL53L0X_StaticInit,"ax",%progbits
 2937              		.align	1
 2938              		.p2align 4,,15
 2939              		.global	VL53L0X_StaticInit
 2940              		.syntax unified
 2941              		.thumb
 2942              		.thumb_func
 2943              		.fpu fpv4-sp-d16
 2944              		.type	VL53L0X_StaticInit, %function
 2945              	VL53L0X_StaticInit:
 2946              	.LFB26:
 2947              		.loc 1 557 0
 2948              		.cfi_startproc
 2949              		@ args = 0, pretend = 0, frame = 88
 2950              		@ frame_needed = 0, uses_anonymous_args = 0
 2951              	.LVL316:
 2952 0000 F0B5     		push	{r4, r5, r6, r7, lr}
 2953              		.cfi_def_cfa_offset 20
 2954              		.cfi_offset 4, -20
 2955              		.cfi_offset 5, -16
 2956              		.cfi_offset 6, -12
 2957              		.cfi_offset 7, -8
 2958              		.cfi_offset 14, -4
 2959 0002 A24F     		ldr	r7, .L332
 2960 0004 97B0     		sub	sp, sp, #92
 2961              		.cfi_def_cfa_offset 112
 2962              		.loc 1 557 0
 2963 0006 0546     		mov	r5, r0
 2964 0008 3B68     		ldr	r3, [r7]
ARM GAS  C:\Users\mathi\AppData\Local\Temp\ccw8i1Yt.s 			page 53


 2965 000a 1593     		str	r3, [sp, #84]
 2966              	.LVL317:
 2967              		.loc 1 559 0
 2968 000c 4022     		movs	r2, #64
 2969 000e 0021     		movs	r1, #0
 2970 0010 05A8     		add	r0, sp, #20
 2971              	.LVL318:
 2972 0012 FFF7FEFF 		bl	memset
 2973              	.LVL319:
 2974              		.loc 1 561 0
 2975 0016 0023     		movs	r3, #0
 2976              		.loc 1 573 0
 2977 0018 2846     		mov	r0, r5
 2978 001a 0121     		movs	r1, #1
 2979              		.loc 1 561 0
 2980 001c ADF80A30 		strh	r3, [sp, #10]	@ movhi
 2981              		.loc 1 562 0
 2982 0020 8DF80730 		strb	r3, [sp, #7]
 2983              	.LVL320:
 2984              		.loc 1 565 0
 2985 0024 8DF80830 		strb	r3, [sp, #8]
 2986              		.loc 1 566 0
 2987 0028 0393     		str	r3, [sp, #12]
 2988              	.LVL321:
 2989              		.loc 1 573 0
 2990 002a FFF7FEFF 		bl	VL53L0X_get_info_from_device
 2991              	.LVL322:
 2992              		.loc 1 578 0
 2993 002e 95F81421 		ldrb	r2, [r5, #276]	@ zero_extendqisi2
 2994              	.LVL323:
 2995              		.loc 1 582 0
 2996 0032 012A     		cmp	r2, #1
 2997 0034 04D8     		bhi	.L300
 2998              		.loc 1 576 0 discriminator 1
 2999 0036 95F81311 		ldrb	r1, [r5, #275]	@ zero_extendqisi2
 3000              		.loc 1 582 0 discriminator 1
 3001 003a 50D0     		beq	.L329
 3002              		.loc 1 584 0
 3003 003c 0C29     		cmp	r1, #12
 3004 003e 50D9     		bls	.L302
 3005              	.L300:
 3006              		.loc 1 585 0
 3007 0040 02AA     		add	r2, sp, #8
 3008              	.LVL324:
 3009 0042 03A9     		add	r1, sp, #12
 3010 0044 2846     		mov	r0, r5
 3011 0046 FFF7FEFF 		bl	VL53L0X_perform_ref_spad_management
 3012              	.LVL325:
 3013 004a 0446     		mov	r4, r0
 3014              	.LVL326:
 3015              	.L303:
 3016              		.loc 1 594 0
 3017 004c 002C     		cmp	r4, #0
 3018 004e 3BD1     		bne	.L304
 3019              	.LVL327:
 3020              		.loc 1 598 0
 3021 0050 95F85031 		ldrb	r3, [r5, #336]	@ zero_extendqisi2
ARM GAS  C:\Users\mathi\AppData\Local\Temp\ccw8i1Yt.s 			page 54


 3022 0054 002B     		cmp	r3, #0
 3023 0056 3FD0     		beq	.L330
 3024              		.loc 1 602 0
 3025 0058 8D49     		ldr	r1, .L332+4
 3026              	.LVL328:
 3027              	.L305:
 3028              		.loc 1 607 0
 3029 005a 2846     		mov	r0, r5
 3030 005c FFF7FEFF 		bl	VL53L0X_load_tuning_settings
 3031              	.LVL329:
 3032              		.loc 1 611 0
 3033 0060 0446     		mov	r4, r0
 3034 0062 88BB     		cbnz	r0, .L304
 3035              	.LVL330:
 3036              	.LBB258:
 3037              	.LBB259:
 3038              	.LBB260:
 3039              	.LBB261:
 3040              		.loc 1 2716 0
 3041 0064 0422     		movs	r2, #4
 3042 0066 0A21     		movs	r1, #10
 3043 0068 2846     		mov	r0, r5
 3044              	.LVL331:
 3045 006a FFF7FEFF 		bl	VL53L0X_WrByte
 3046              	.LVL332:
 3047              		.loc 1 2719 0
 3048 006e 0446     		mov	r4, r0
 3049 0070 50BB     		cbnz	r0, .L304
 3050              	.LVL333:
 3051              		.loc 1 2725 0
 3052 0072 0346     		mov	r3, r0
 3053 0074 EF22     		movs	r2, #239
 3054 0076 8421     		movs	r1, #132
 3055 0078 2846     		mov	r0, r5
 3056              	.LVL334:
 3057 007a FFF7FEFF 		bl	VL53L0X_UpdateByte
 3058              	.LVL335:
 3059              		.loc 1 2729 0
 3060 007e 0446     		mov	r4, r0
 3061 0080 10BB     		cbnz	r0, .L304
 3062              		.loc 1 2730 0
 3063 0082 0423     		movs	r3, #4
 3064              	.LBB262:
 3065              	.LBB263:
 3066              		.loc 1 2907 0
 3067 0084 0646     		mov	r6, r0
 3068              	.LBE263:
 3069              	.LBE262:
 3070              		.loc 1 2730 0
 3071 0086 85F8DA30 		strb	r3, [r5, #218]
 3072              	.LVL336:
 3073              	.L308:
 3074              	.LBB267:
 3075              	.LBB264:
 3076              		.loc 1 2909 0
 3077 008a 0122     		movs	r2, #1
 3078 008c 0B21     		movs	r1, #11
ARM GAS  C:\Users\mathi\AppData\Local\Temp\ccw8i1Yt.s 			page 55


 3079 008e 2846     		mov	r0, r5
 3080 0090 FFF7FEFF 		bl	VL53L0X_WrByte
 3081              	.LVL337:
 3082              		.loc 1 2911 0
 3083 0094 0022     		movs	r2, #0
 3084              		.loc 1 2909 0
 3085 0096 0446     		mov	r4, r0
 3086              	.LVL338:
 3087              		.loc 1 2911 0
 3088 0098 0B21     		movs	r1, #11
 3089 009a 2846     		mov	r0, r5
 3090 009c FFF7FEFF 		bl	VL53L0X_WrByte
 3091              	.LVL339:
 3092              		.loc 1 2913 0
 3093 00a0 04AA     		add	r2, sp, #16
 3094              		.loc 1 2911 0
 3095 00a2 0443     		orrs	r4, r4, r0
 3096              	.LVL340:
 3097              		.loc 1 2913 0
 3098 00a4 1321     		movs	r1, #19
 3099 00a6 2846     		mov	r0, r5
 3100 00a8 FFF7FEFF 		bl	VL53L0X_RdByte
 3101              	.LVL341:
 3102              		.loc 1 2918 0
 3103 00ac 9DF81030 		ldrb	r3, [sp, #16]	@ zero_extendqisi2
 3104              		.loc 1 2911 0
 3105 00b0 64B2     		sxtb	r4, r4
 3106              	.LVL342:
 3107              		.loc 1 2913 0
 3108 00b2 0443     		orrs	r4, r4, r0
 3109              	.LVL343:
 3110              		.loc 1 2915 0
 3111 00b4 0136     		adds	r6, r6, #1
 3112              	.LVL344:
 3113              		.loc 1 2918 0
 3114 00b6 5B07     		lsls	r3, r3, #29
 3115              		.loc 1 2913 0
 3116 00b8 64B2     		sxtb	r4, r4
 3117              	.LVL345:
 3118              		.loc 1 2915 0
 3119 00ba F6B2     		uxtb	r6, r6
 3120              	.LVL346:
 3121              		.loc 1 2918 0
 3122 00bc 16D0     		beq	.L306
 3123              		.loc 1 2917 0
 3124 00be 032E     		cmp	r6, #3
 3125 00c0 00F0DF80 		beq	.L307
 3126              		.loc 1 2918 0
 3127 00c4 002C     		cmp	r4, #0
 3128 00c6 E0D0     		beq	.L308
 3129              	.LVL347:
 3130              	.L304:
 3131              	.LBE264:
 3132              	.LBE267:
 3133              	.LBE261:
 3134              	.LBE260:
 3135              	.LBE259:
ARM GAS  C:\Users\mathi\AppData\Local\Temp\ccw8i1Yt.s 			page 56


 3136              	.LBE258:
 3137              		.loc 1 733 0
 3138 00c8 159A     		ldr	r2, [sp, #84]
 3139 00ca 3B68     		ldr	r3, [r7]
 3140 00cc 9A42     		cmp	r2, r3
 3141 00ce 2046     		mov	r0, r4
 3142 00d0 40F0DA80 		bne	.L331
 3143 00d4 17B0     		add	sp, sp, #92
 3144              		.cfi_remember_state
 3145              		.cfi_def_cfa_offset 20
 3146              		@ sp needed
 3147 00d6 F0BD     		pop	{r4, r5, r6, r7, pc}
 3148              	.LVL348:
 3149              	.L330:
 3150              		.cfi_restore_state
 3151              		.loc 1 599 0
 3152 00d8 D5F84C11 		ldr	r1, [r5, #332]
 3153              	.LVL349:
 3154 00dc BDE7     		b	.L305
 3155              	.LVL350:
 3156              	.L329:
 3157              		.loc 1 583 0
 3158 00de 2029     		cmp	r1, #32
 3159 00e0 AED8     		bhi	.L300
 3160              	.L302:
 3161              		.loc 1 588 0
 3162 00e2 2846     		mov	r0, r5
 3163 00e4 FFF7FEFF 		bl	VL53L0X_set_reference_spads
 3164              	.LVL351:
 3165 00e8 0446     		mov	r4, r0
 3166              	.LVL352:
 3167 00ea AFE7     		b	.L303
 3168              	.LVL353:
 3169              	.L306:
 3170              	.LBB276:
 3171              	.LBB274:
 3172              	.LBB272:
 3173              	.LBB270:
 3174              	.LBB268:
 3175              	.LBB265:
 3176              		.loc 1 2921 0
 3177 00ec 032E     		cmp	r6, #3
 3178 00ee 00F0C880 		beq	.L307
 3179              	.LVL354:
 3180              	.LBE265:
 3181              	.LBE268:
 3182              	.LBE270:
 3183              	.LBE272:
 3184              	.LBE274:
 3185              	.LBE276:
 3186              		.loc 1 617 0
 3187 00f2 002C     		cmp	r4, #0
 3188 00f4 E8D1     		bne	.L304
 3189              		.loc 1 618 0
 3190 00f6 0122     		movs	r2, #1
 3191 00f8 FF21     		movs	r1, #255
 3192 00fa 2846     		mov	r0, r5
ARM GAS  C:\Users\mathi\AppData\Local\Temp\ccw8i1Yt.s 			page 57


 3193 00fc FFF7FEFF 		bl	VL53L0X_WrByte
 3194              	.LVL355:
 3195              		.loc 1 619 0
 3196 0100 0DF10A02 		add	r2, sp, #10
 3197              		.loc 1 618 0
 3198 0104 0646     		mov	r6, r0
 3199              	.LVL356:
 3200              		.loc 1 619 0
 3201 0106 8421     		movs	r1, #132
 3202 0108 2846     		mov	r0, r5
 3203 010a FFF7FEFF 		bl	VL53L0X_RdWord
 3204              	.LVL357:
 3205              		.loc 1 620 0
 3206 010e 2246     		mov	r2, r4
 3207 0110 FF21     		movs	r1, #255
 3208              		.loc 1 619 0
 3209 0112 46EA0004 		orr	r4, r6, r0
 3210              		.loc 1 620 0
 3211 0116 2846     		mov	r0, r5
 3212 0118 FFF7FEFF 		bl	VL53L0X_WrByte
 3213              	.LVL358:
 3214              		.loc 1 619 0
 3215 011c 64B2     		sxtb	r4, r4
 3216              	.LVL359:
 3217              		.loc 1 620 0
 3218 011e 0443     		orrs	r4, r4, r0
 3219              	.LVL360:
 3220 0120 64B2     		sxtb	r4, r4
 3221              	.LVL361:
 3222              		.loc 1 623 0
 3223 0122 002C     		cmp	r4, #0
 3224 0124 D0D1     		bne	.L304
 3225              		.loc 1 624 0
 3226 0126 BDF80A30 		ldrh	r3, [sp, #10]
 3227 012a 1B01     		lsls	r3, r3, #4
 3228 012c C5F8D430 		str	r3, [r5, #212]
 3229              		.loc 1 631 0
 3230 0130 05A9     		add	r1, sp, #20
 3231 0132 2846     		mov	r0, r5
 3232 0134 FFF7FEFF 		bl	VL53L0X_GetDeviceParameters
 3233              	.LVL362:
 3234              		.loc 1 634 0
 3235 0138 0446     		mov	r4, r0
 3236 013a 0028     		cmp	r0, #0
 3237 013c C4D1     		bne	.L304
 3238              	.LVL363:
 3239              	.LBB277:
 3240              	.LBB278:
 3241              		.loc 1 963 0
 3242 013e 0DF10702 		add	r2, sp, #7
 3243              	.LVL364:
 3244 0142 0921     		movs	r1, #9
 3245 0144 2846     		mov	r0, r5
 3246              	.LVL365:
 3247 0146 FFF7FEFF 		bl	VL53L0X_RdByte
 3248              	.LVL366:
 3249              		.loc 1 965 0
ARM GAS  C:\Users\mathi\AppData\Local\Temp\ccw8i1Yt.s 			page 58


 3250 014a 0446     		mov	r4, r0
 3251 014c 0028     		cmp	r0, #0
 3252 014e BBD1     		bne	.L304
 3253              	.LBE278:
 3254              	.LBE277:
 3255              		.loc 1 642 0
 3256 0150 05AE     		add	r6, sp, #20
 3257 0152 0FCE     		ldmia	r6!, {r0, r1, r2, r3}
 3258              	.LVL367:
 3259              	.LBB282:
 3260              	.LBB279:
 3261              		.loc 1 966 0
 3262 0154 9DF807C0 		ldrb	ip, [sp, #7]	@ zero_extendqisi2
 3263              	.LBE279:
 3264              	.LBE282:
 3265              		.loc 1 642 0
 3266 0158 05F11004 		add	r4, r5, #16
 3267              	.LBB283:
 3268              	.LBB280:
 3269              		.loc 1 966 0
 3270 015c 0CF0010C 		and	ip, ip, #1
 3271              	.LBE280:
 3272              	.LBE283:
 3273              		.loc 1 637 0
 3274 0160 85F831C1 		strb	ip, [r5, #305]
 3275              		.loc 1 642 0
 3276 0164 0FC4     		stmia	r4!, {r0, r1, r2, r3}
 3277 0166 0FCE     		ldmia	r6!, {r0, r1, r2, r3}
 3278 0168 0FC4     		stmia	r4!, {r0, r1, r2, r3}
 3279 016a 0FCE     		ldmia	r6!, {r0, r1, r2, r3}
 3280 016c 0FC4     		stmia	r4!, {r0, r1, r2, r3}
 3281 016e 96E80F00 		ldm	r6, {r0, r1, r2, r3}
 3282              	.LBB284:
 3283              	.LBB281:
 3284              		.loc 1 966 0
 3285 0172 8DF807C0 		strb	ip, [sp, #7]
 3286              	.LVL368:
 3287              	.LBE281:
 3288              	.LBE284:
 3289              		.loc 1 642 0
 3290 0176 84E80F00 		stm	r4, {r0, r1, r2, r3}
 3291              		.loc 1 647 0
 3292 017a 0DF10702 		add	r2, sp, #7
 3293 017e 0121     		movs	r1, #1
 3294 0180 2846     		mov	r0, r5
 3295 0182 FFF7FEFF 		bl	VL53L0X_RdByte
 3296              	.LVL369:
 3297              		.loc 1 649 0
 3298 0186 0446     		mov	r4, r0
 3299 0188 0028     		cmp	r0, #0
 3300 018a 9DD1     		bne	.L304
 3301              		.loc 1 650 0
 3302 018c 9DF80730 		ldrb	r3, [sp, #7]	@ zero_extendqisi2
 3303 0190 85F83031 		strb	r3, [r5, #304]
 3304              	.LVL370:
 3305              	.LBB285:
 3306              	.LBB286:
ARM GAS  C:\Users\mathi\AppData\Local\Temp\ccw8i1Yt.s 			page 59


 3307              		.loc 1 1062 0
 3308 0194 04AA     		add	r2, sp, #16
 3309 0196 0121     		movs	r1, #1
 3310 0198 2846     		mov	r0, r5
 3311              		.loc 1 1057 0
 3312 019a 8DF81040 		strb	r4, [sp, #16]
 3313              	.LVL371:
 3314              		.loc 1 1062 0
 3315 019e FFF7FEFF 		bl	VL53L0X_RdByte
 3316              	.LVL372:
 3317              		.loc 1 1067 0
 3318 01a2 0446     		mov	r4, r0
 3319 01a4 0028     		cmp	r0, #0
 3320 01a6 8FD1     		bne	.L304
 3321              		.loc 1 1065 0
 3322 01a8 9DF81030 		ldrb	r3, [sp, #16]	@ zero_extendqisi2
 3323              		.loc 1 1096 0
 3324 01ac 03F0EF06 		and	r6, r3, #239
 3325              	.LVL373:
 3326              		.loc 1 1116 0
 3327 01b0 B342     		cmp	r3, r6
 3328 01b2 0DD0     		beq	.L313
 3329              		.loc 1 1119 0
 3330 01b4 3246     		mov	r2, r6
 3331 01b6 0121     		movs	r1, #1
 3332 01b8 2846     		mov	r0, r5
 3333 01ba FFF7FEFF 		bl	VL53L0X_WrByte
 3334              	.LVL374:
 3335              		.loc 1 1122 0
 3336 01be 0446     		mov	r4, r0
 3337 01c0 0028     		cmp	r0, #0
 3338 01c2 81D1     		bne	.L304
 3339              	.LVL375:
 3340              		.loc 1 1123 0
 3341 01c4 85F83061 		strb	r6, [r5, #304]
 3342              	.LVL376:
 3343              	.LBB287:
 3344              	.LBB288:
 3345              		.loc 1 1006 0
 3346 01c8 6969     		ldr	r1, [r5, #20]
 3347 01ca 2846     		mov	r0, r5
 3348 01cc FFF7FEFF 		bl	VL53L0X_set_measurement_timing_budget_micro_seconds
 3349              	.LVL377:
 3350              	.L313:
 3351              	.LBE288:
 3352              	.LBE287:
 3353              	.LBE286:
 3354              	.LBE285:
 3355              	.LBB289:
 3356              	.LBB290:
 3357              		.loc 1 1057 0
 3358 01d0 0023     		movs	r3, #0
 3359              		.loc 1 1062 0
 3360 01d2 04AA     		add	r2, sp, #16
 3361 01d4 0121     		movs	r1, #1
 3362 01d6 2846     		mov	r0, r5
 3363              		.loc 1 1057 0
ARM GAS  C:\Users\mathi\AppData\Local\Temp\ccw8i1Yt.s 			page 60


 3364 01d8 8DF81030 		strb	r3, [sp, #16]
 3365              	.LVL378:
 3366              		.loc 1 1062 0
 3367 01dc FFF7FEFF 		bl	VL53L0X_RdByte
 3368              	.LVL379:
 3369              		.loc 1 1067 0
 3370 01e0 0446     		mov	r4, r0
 3371 01e2 0028     		cmp	r0, #0
 3372 01e4 7FF470AF 		bne	.L304
 3373              		.loc 1 1065 0
 3374 01e8 9DF81030 		ldrb	r3, [sp, #16]	@ zero_extendqisi2
 3375              		.loc 1 1102 0
 3376 01ec 03F0FB06 		and	r6, r3, #251
 3377              	.LVL380:
 3378              		.loc 1 1116 0
 3379 01f0 B342     		cmp	r3, r6
 3380 01f2 0ED0     		beq	.L316
 3381              		.loc 1 1119 0
 3382 01f4 3246     		mov	r2, r6
 3383 01f6 0121     		movs	r1, #1
 3384 01f8 2846     		mov	r0, r5
 3385 01fa FFF7FEFF 		bl	VL53L0X_WrByte
 3386              	.LVL381:
 3387              		.loc 1 1122 0
 3388 01fe 0446     		mov	r4, r0
 3389 0200 0028     		cmp	r0, #0
 3390 0202 7FF461AF 		bne	.L304
 3391              	.LVL382:
 3392              		.loc 1 1123 0
 3393 0206 85F83061 		strb	r6, [r5, #304]
 3394              	.LVL383:
 3395              	.LBB291:
 3396              	.LBB292:
 3397              		.loc 1 1006 0
 3398 020a 6969     		ldr	r1, [r5, #20]
 3399 020c 2846     		mov	r0, r5
 3400 020e FFF7FEFF 		bl	VL53L0X_set_measurement_timing_budget_micro_seconds
 3401              	.LVL384:
 3402              	.L316:
 3403              	.LBE292:
 3404              	.LBE291:
 3405              	.LBE290:
 3406              	.LBE289:
 3407              		.loc 1 667 0
 3408 0212 0326     		movs	r6, #3
 3409 0214 85F83261 		strb	r6, [r5, #306]
 3410              	.LVL385:
 3411              	.LBB293:
 3412              	.LBB294:
 3413              		.loc 1 1046 0
 3414 0218 0DF10902 		add	r2, sp, #9
 3415              	.LVL386:
 3416 021c 0021     		movs	r1, #0
 3417 021e 2846     		mov	r0, r5
 3418 0220 FFF7FEFF 		bl	VL53L0X_get_vcsel_pulse_period
 3419              	.LVL387:
 3420              	.LBE294:
ARM GAS  C:\Users\mathi\AppData\Local\Temp\ccw8i1Yt.s 			page 61


 3421              	.LBE293:
 3422              		.loc 1 679 0
 3423 0224 0446     		mov	r4, r0
 3424 0226 0028     		cmp	r0, #0
 3425 0228 7FF44EAF 		bne	.L304
 3426              		.loc 1 680 0
 3427 022c 9DF80930 		ldrb	r3, [sp, #9]	@ zero_extendqisi2
 3428 0230 85F8E830 		strb	r3, [r5, #232]
 3429              	.LVL388:
 3430              	.LBB295:
 3431              	.LBB296:
 3432              		.loc 1 1046 0
 3433 0234 0DF10902 		add	r2, sp, #9
 3434              	.LVL389:
 3435 0238 0121     		movs	r1, #1
 3436 023a 2846     		mov	r0, r5
 3437              	.LVL390:
 3438 023c FFF7FEFF 		bl	VL53L0X_get_vcsel_pulse_period
 3439              	.LVL391:
 3440              	.LBE296:
 3441              	.LBE295:
 3442              		.loc 1 694 0
 3443 0240 0446     		mov	r4, r0
 3444 0242 0028     		cmp	r0, #0
 3445 0244 7FF440AF 		bne	.L304
 3446              		.loc 1 695 0
 3447 0248 9DF80930 		ldrb	r3, [sp, #9]	@ zero_extendqisi2
 3448 024c 85F8E030 		strb	r3, [r5, #224]
 3449              		.loc 1 703 0
 3450 0250 3146     		mov	r1, r6
 3451 0252 04AA     		add	r2, sp, #16
 3452 0254 2846     		mov	r0, r5
 3453              	.LVL392:
 3454 0256 FFF7FEFF 		bl	get_sequence_step_timeout
 3455              	.LVL393:
 3456              		.loc 1 709 0
 3457 025a 0446     		mov	r4, r0
 3458 025c 0028     		cmp	r0, #0
 3459 025e 7FF433AF 		bne	.L304
 3460              		.loc 1 710 0
 3461 0262 049B     		ldr	r3, [sp, #16]
 3462 0264 C5F8E430 		str	r3, [r5, #228]
 3463              		.loc 1 718 0
 3464 0268 04AA     		add	r2, sp, #16
 3465 026a 0421     		movs	r1, #4
 3466 026c 2846     		mov	r0, r5
 3467              	.LVL394:
 3468 026e FFF7FEFF 		bl	get_sequence_step_timeout
 3469              	.LVL395:
 3470              		.loc 1 724 0
 3471 0272 0446     		mov	r4, r0
 3472 0274 0028     		cmp	r0, #0
 3473 0276 7FF427AF 		bne	.L304
 3474              		.loc 1 725 0
 3475 027a 049B     		ldr	r3, [sp, #16]
 3476 027c C5F8DC30 		str	r3, [r5, #220]
 3477 0280 22E7     		b	.L304
ARM GAS  C:\Users\mathi\AppData\Local\Temp\ccw8i1Yt.s 			page 62


 3478              	.LVL396:
 3479              	.L307:
 3480              	.LBB297:
 3481              	.LBB275:
 3482              	.LBB273:
 3483              	.LBB271:
 3484              	.LBB269:
 3485              	.LBB266:
 3486              		.loc 1 2922 0
 3487 0282 6FF00B04 		mvn	r4, #11
 3488 0286 1FE7     		b	.L304
 3489              	.LVL397:
 3490              	.L331:
 3491              	.LBE266:
 3492              	.LBE269:
 3493              	.LBE271:
 3494              	.LBE273:
 3495              	.LBE275:
 3496              	.LBE297:
 3497              		.loc 1 733 0
 3498 0288 FFF7FEFF 		bl	__stack_chk_fail
 3499              	.LVL398:
 3500              	.L333:
 3501              		.align	2
 3502              	.L332:
 3503 028c 00000000 		.word	__stack_chk_guard
 3504 0290 00000000 		.word	.LANCHOR0
 3505              		.cfi_endproc
 3506              	.LFE26:
 3507              		.size	VL53L0X_StaticInit, .-VL53L0X_StaticInit
 3508              		.section	.text.VL53L0X_SetPowerMode,"ax",%progbits
 3509              		.align	1
 3510              		.p2align 4,,15
 3511              		.global	VL53L0X_SetPowerMode
 3512              		.syntax unified
 3513              		.thumb
 3514              		.thumb_func
 3515              		.fpu fpv4-sp-d16
 3516              		.type	VL53L0X_SetPowerMode, %function
 3517              	VL53L0X_SetPowerMode:
 3518              	.LFB13:
 3519              		.loc 1 194 0
 3520              		.cfi_startproc
 3521              		@ args = 0, pretend = 0, frame = 8
 3522              		@ frame_needed = 0, uses_anonymous_args = 0
 3523              	.LVL399:
 3524 0000 70B5     		push	{r4, r5, r6, lr}
 3525              		.cfi_def_cfa_offset 16
 3526              		.cfi_offset 4, -16
 3527              		.cfi_offset 5, -12
 3528              		.cfi_offset 6, -8
 3529              		.cfi_offset 14, -4
 3530 0002 154D     		ldr	r5, .L345
 3531 0004 82B0     		sub	sp, sp, #8
 3532              		.cfi_def_cfa_offset 24
 3533              		.loc 1 194 0
 3534 0006 2B68     		ldr	r3, [r5]
ARM GAS  C:\Users\mathi\AppData\Local\Temp\ccw8i1Yt.s 			page 63


 3535 0008 0193     		str	r3, [sp, #4]
 3536              	.LVL400:
 3537 000a 0646     		mov	r6, r0
 3538              		.loc 1 200 0
 3539 000c 0C46     		mov	r4, r1
 3540 000e 61B1     		cbz	r1, .L335
 3541              		.loc 1 201 0
 3542 0010 0229     		cmp	r1, #2
 3543 0012 1CD1     		bne	.L342
 3544              		.loc 1 215 0
 3545 0014 0022     		movs	r2, #0
 3546 0016 8021     		movs	r1, #128
 3547              	.LVL401:
 3548 0018 FFF7FEFF 		bl	VL53L0X_WrByte
 3549              	.LVL402:
 3550              		.loc 1 216 0
 3551 001c 78B1     		cbz	r0, .L343
 3552              	.LVL403:
 3553              	.L336:
 3554              		.loc 1 227 0
 3555 001e 019A     		ldr	r2, [sp, #4]
 3556 0020 2B68     		ldr	r3, [r5]
 3557 0022 9A42     		cmp	r2, r3
 3558 0024 16D1     		bne	.L344
 3559 0026 02B0     		add	sp, sp, #8
 3560              		.cfi_remember_state
 3561              		.cfi_def_cfa_offset 16
 3562              		@ sp needed
 3563 0028 70BD     		pop	{r4, r5, r6, pc}
 3564              	.LVL404:
 3565              	.L335:
 3566              		.cfi_restore_state
 3567              		.loc 1 205 0
 3568 002a 0A46     		mov	r2, r1
 3569 002c 8021     		movs	r1, #128
 3570              	.LVL405:
 3571 002e FFF7FEFF 		bl	VL53L0X_WrByte
 3572              	.LVL406:
 3573              		.loc 1 206 0
 3574 0032 0028     		cmp	r0, #0
 3575 0034 F3D1     		bne	.L336
 3576              		.loc 1 208 0
 3577 0036 0223     		movs	r3, #2
 3578 0038 A6F83231 		strh	r3, [r6, #306]	@ movhi
 3579 003c EFE7     		b	.L336
 3580              	.L343:
 3581              		.loc 1 217 0
 3582 003e 3046     		mov	r0, r6
 3583              	.LVL407:
 3584 0040 FFF7FEFF 		bl	VL53L0X_StaticInit
 3585              	.LVL408:
 3586              		.loc 1 219 0
 3587 0044 0028     		cmp	r0, #0
 3588 0046 EAD1     		bne	.L336
 3589              		.loc 1 220 0
 3590 0048 86F83341 		strb	r4, [r6, #307]
 3591 004c E7E7     		b	.L336
ARM GAS  C:\Users\mathi\AppData\Local\Temp\ccw8i1Yt.s 			page 64


 3592              	.LVL409:
 3593              	.L342:
 3594              		.loc 1 202 0
 3595 004e 6FF00700 		mvn	r0, #7
 3596              	.LVL410:
 3597 0052 E4E7     		b	.L336
 3598              	.LVL411:
 3599              	.L344:
 3600              		.loc 1 227 0
 3601 0054 FFF7FEFF 		bl	__stack_chk_fail
 3602              	.LVL412:
 3603              	.L346:
 3604              		.align	2
 3605              	.L345:
 3606 0058 00000000 		.word	__stack_chk_guard
 3607              		.cfi_endproc
 3608              	.LFE13:
 3609              		.size	VL53L0X_SetPowerMode, .-VL53L0X_SetPowerMode
 3610              		.section	.text.VL53L0X_SetDeviceMode,"ax",%progbits
 3611              		.align	1
 3612              		.p2align 4,,15
 3613              		.global	VL53L0X_SetDeviceMode
 3614              		.syntax unified
 3615              		.thumb
 3616              		.thumb_func
 3617              		.fpu fpv4-sp-d16
 3618              		.type	VL53L0X_SetDeviceMode, %function
 3619              	VL53L0X_SetDeviceMode:
 3620              	.LFB31:
 3621              		.loc 1 908 0
 3622              		.cfi_startproc
 3623              		@ args = 0, pretend = 0, frame = 8
 3624              		@ frame_needed = 0, uses_anonymous_args = 0
 3625              	.LVL413:
 3626 0000 10B5     		push	{r4, lr}
 3627              		.cfi_def_cfa_offset 8
 3628              		.cfi_offset 4, -8
 3629              		.cfi_offset 14, -4
 3630 0002 0C4C     		ldr	r4, .L354
 3631 0004 82B0     		sub	sp, sp, #8
 3632              		.cfi_def_cfa_offset 16
 3633              		.loc 1 908 0
 3634 0006 2368     		ldr	r3, [r4]
 3635 0008 0193     		str	r3, [sp, #4]
 3636              	.LVL414:
 3637 000a 1529     		cmp	r1, #21
 3638 000c 0CD8     		bhi	.L351
 3639 000e 0122     		movs	r2, #1
 3640 0010 094B     		ldr	r3, .L354+4
 3641 0012 8A40     		lsls	r2, r2, r1
 3642 0014 1340     		ands	r3, r3, r2
 3643 0016 3BB1     		cbz	r3, .L351
 3644              		.loc 1 920 0
 3645 0018 0174     		strb	r1, [r0, #16]
 3646              		.loc 1 909 0
 3647 001a 0020     		movs	r0, #0
 3648              	.LVL415:
ARM GAS  C:\Users\mathi\AppData\Local\Temp\ccw8i1Yt.s 			page 65


 3649              	.L348:
 3650              		.loc 1 929 0
 3651 001c 019A     		ldr	r2, [sp, #4]
 3652 001e 2368     		ldr	r3, [r4]
 3653 0020 9A42     		cmp	r2, r3
 3654 0022 04D1     		bne	.L353
 3655 0024 02B0     		add	sp, sp, #8
 3656              		.cfi_remember_state
 3657              		.cfi_def_cfa_offset 8
 3658              		@ sp needed
 3659 0026 10BD     		pop	{r4, pc}
 3660              	.LVL416:
 3661              	.L351:
 3662              		.cfi_restore_state
 3663              		.loc 1 924 0
 3664 0028 6FF00700 		mvn	r0, #7
 3665              	.LVL417:
 3666 002c F6E7     		b	.L348
 3667              	.LVL418:
 3668              	.L353:
 3669              		.loc 1 929 0
 3670 002e FFF7FEFF 		bl	__stack_chk_fail
 3671              	.LVL419:
 3672              	.L355:
 3673 0032 00BF     		.align	2
 3674              	.L354:
 3675 0034 00000000 		.word	__stack_chk_guard
 3676 0038 0B003000 		.word	3145739
 3677              		.cfi_endproc
 3678              	.LFE31:
 3679              		.size	VL53L0X_SetDeviceMode, .-VL53L0X_SetDeviceMode
 3680              		.section	.text.VL53L0X_GetDeviceMode,"ax",%progbits
 3681              		.align	1
 3682              		.p2align 4,,15
 3683              		.global	VL53L0X_GetDeviceMode
 3684              		.syntax unified
 3685              		.thumb
 3686              		.thumb_func
 3687              		.fpu fpv4-sp-d16
 3688              		.type	VL53L0X_GetDeviceMode, %function
 3689              	VL53L0X_GetDeviceMode:
 3690              	.LFB32:
 3691              		.loc 1 933 0
 3692              		.cfi_startproc
 3693              		@ args = 0, pretend = 0, frame = 8
 3694              		@ frame_needed = 0, uses_anonymous_args = 0
 3695              	.LVL420:
 3696 0000 00B5     		push	{lr}
 3697              		.cfi_def_cfa_offset 4
 3698              		.cfi_offset 14, -4
 3699 0002 084B     		ldr	r3, .L360
 3700              		.loc 1 937 0
 3701 0004 027C     		ldrb	r2, [r0, #16]	@ zero_extendqisi2
 3702              		.loc 1 933 0
 3703 0006 1868     		ldr	r0, [r3]
 3704              	.LVL421:
 3705              		.loc 1 937 0
ARM GAS  C:\Users\mathi\AppData\Local\Temp\ccw8i1Yt.s 			page 66


 3706 0008 0A70     		strb	r2, [r1]
 3707              		.loc 1 933 0
 3708 000a 83B0     		sub	sp, sp, #12
 3709              		.cfi_def_cfa_offset 16
 3710              		.loc 1 933 0
 3711 000c 0190     		str	r0, [sp, #4]
 3712              	.LVL422:
 3713              		.loc 1 941 0
 3714 000e 019A     		ldr	r2, [sp, #4]
 3715 0010 1B68     		ldr	r3, [r3]
 3716 0012 9A42     		cmp	r2, r3
 3717 0014 03D1     		bne	.L359
 3718 0016 0020     		movs	r0, #0
 3719 0018 03B0     		add	sp, sp, #12
 3720              		.cfi_remember_state
 3721              		.cfi_def_cfa_offset 4
 3722              		@ sp needed
 3723 001a 5DF804FB 		ldr	pc, [sp], #4
 3724              	.L359:
 3725              		.cfi_restore_state
 3726 001e FFF7FEFF 		bl	__stack_chk_fail
 3727              	.LVL423:
 3728              	.L361:
 3729 0022 00BF     		.align	2
 3730              	.L360:
 3731 0024 00000000 		.word	__stack_chk_guard
 3732              		.cfi_endproc
 3733              	.LFE32:
 3734              		.size	VL53L0X_GetDeviceMode, .-VL53L0X_GetDeviceMode
 3735              		.section	.text.VL53L0X_SetRangeFractionEnable,"ax",%progbits
 3736              		.align	1
 3737              		.p2align 4,,15
 3738              		.global	VL53L0X_SetRangeFractionEnable
 3739              		.syntax unified
 3740              		.thumb
 3741              		.thumb_func
 3742              		.fpu fpv4-sp-d16
 3743              		.type	VL53L0X_SetRangeFractionEnable, %function
 3744              	VL53L0X_SetRangeFractionEnable:
 3745              	.LFB33:
 3746              		.loc 1 944 0
 3747              		.cfi_startproc
 3748              		@ args = 0, pretend = 0, frame = 8
 3749              		@ frame_needed = 0, uses_anonymous_args = 0
 3750              	.LVL424:
 3751 0000 70B5     		push	{r4, r5, r6, lr}
 3752              		.cfi_def_cfa_offset 16
 3753              		.cfi_offset 4, -16
 3754              		.cfi_offset 5, -12
 3755              		.cfi_offset 6, -8
 3756              		.cfi_offset 14, -4
 3757 0002 0A4C     		ldr	r4, .L367
 3758 0004 82B0     		sub	sp, sp, #8
 3759              		.cfi_def_cfa_offset 24
 3760              		.loc 1 944 0
 3761 0006 0D46     		mov	r5, r1
 3762 0008 2368     		ldr	r3, [r4]
ARM GAS  C:\Users\mathi\AppData\Local\Temp\ccw8i1Yt.s 			page 67


 3763 000a 0193     		str	r3, [sp, #4]
 3764              	.LVL425:
 3765              		.loc 1 949 0
 3766 000c 0A46     		mov	r2, r1
 3767 000e 0921     		movs	r1, #9
 3768              	.LVL426:
 3769              		.loc 1 944 0
 3770 0010 0646     		mov	r6, r0
 3771              		.loc 1 949 0
 3772 0012 FFF7FEFF 		bl	VL53L0X_WrByte
 3773              	.LVL427:
 3774              		.loc 1 951 0
 3775 0016 08B9     		cbnz	r0, .L363
 3776              		.loc 1 952 0
 3777 0018 86F83151 		strb	r5, [r6, #305]
 3778              	.L363:
 3779              		.loc 1 956 0
 3780 001c 019A     		ldr	r2, [sp, #4]
 3781 001e 2368     		ldr	r3, [r4]
 3782 0020 9A42     		cmp	r2, r3
 3783 0022 01D1     		bne	.L366
 3784 0024 02B0     		add	sp, sp, #8
 3785              		.cfi_remember_state
 3786              		.cfi_def_cfa_offset 16
 3787              		@ sp needed
 3788 0026 70BD     		pop	{r4, r5, r6, pc}
 3789              	.LVL428:
 3790              	.L366:
 3791              		.cfi_restore_state
 3792 0028 FFF7FEFF 		bl	__stack_chk_fail
 3793              	.LVL429:
 3794              	.L368:
 3795              		.align	2
 3796              	.L367:
 3797 002c 00000000 		.word	__stack_chk_guard
 3798              		.cfi_endproc
 3799              	.LFE33:
 3800              		.size	VL53L0X_SetRangeFractionEnable, .-VL53L0X_SetRangeFractionEnable
 3801              		.section	.text.VL53L0X_GetFractionEnable,"ax",%progbits
 3802              		.align	1
 3803              		.p2align 4,,15
 3804              		.global	VL53L0X_GetFractionEnable
 3805              		.syntax unified
 3806              		.thumb
 3807              		.thumb_func
 3808              		.fpu fpv4-sp-d16
 3809              		.type	VL53L0X_GetFractionEnable, %function
 3810              	VL53L0X_GetFractionEnable:
 3811              	.LFB34:
 3812              		.loc 1 959 0
 3813              		.cfi_startproc
 3814              		@ args = 0, pretend = 0, frame = 8
 3815              		@ frame_needed = 0, uses_anonymous_args = 0
 3816              	.LVL430:
 3817 0000 30B5     		push	{r4, r5, lr}
 3818              		.cfi_def_cfa_offset 12
 3819              		.cfi_offset 4, -12
ARM GAS  C:\Users\mathi\AppData\Local\Temp\ccw8i1Yt.s 			page 68


 3820              		.cfi_offset 5, -8
 3821              		.cfi_offset 14, -4
 3822 0002 0B4D     		ldr	r5, .L374
 3823 0004 83B0     		sub	sp, sp, #12
 3824              		.cfi_def_cfa_offset 24
 3825              		.loc 1 959 0
 3826 0006 0C46     		mov	r4, r1
 3827 0008 2B68     		ldr	r3, [r5]
 3828 000a 0193     		str	r3, [sp, #4]
 3829              	.LVL431:
 3830              		.loc 1 963 0
 3831 000c 0A46     		mov	r2, r1
 3832 000e 0921     		movs	r1, #9
 3833              	.LVL432:
 3834 0010 FFF7FEFF 		bl	VL53L0X_RdByte
 3835              	.LVL433:
 3836              		.loc 1 965 0
 3837 0014 18B9     		cbnz	r0, .L370
 3838              		.loc 1 966 0
 3839 0016 2378     		ldrb	r3, [r4]	@ zero_extendqisi2
 3840 0018 03F00103 		and	r3, r3, #1
 3841 001c 2370     		strb	r3, [r4]
 3842              	.L370:
 3843              		.loc 1 970 0
 3844 001e 019A     		ldr	r2, [sp, #4]
 3845 0020 2B68     		ldr	r3, [r5]
 3846 0022 9A42     		cmp	r2, r3
 3847 0024 01D1     		bne	.L373
 3848 0026 03B0     		add	sp, sp, #12
 3849              		.cfi_remember_state
 3850              		.cfi_def_cfa_offset 12
 3851              		@ sp needed
 3852 0028 30BD     		pop	{r4, r5, pc}
 3853              	.LVL434:
 3854              	.L373:
 3855              		.cfi_restore_state
 3856 002a FFF7FEFF 		bl	__stack_chk_fail
 3857              	.LVL435:
 3858              	.L375:
 3859 002e 00BF     		.align	2
 3860              	.L374:
 3861 0030 00000000 		.word	__stack_chk_guard
 3862              		.cfi_endproc
 3863              	.LFE34:
 3864              		.size	VL53L0X_GetFractionEnable, .-VL53L0X_GetFractionEnable
 3865              		.section	.text.VL53L0X_SetHistogramMode,"ax",%progbits
 3866              		.align	1
 3867              		.p2align 4,,15
 3868              		.global	VL53L0X_SetHistogramMode
 3869              		.syntax unified
 3870              		.thumb
 3871              		.thumb_func
 3872              		.fpu fpv4-sp-d16
 3873              		.type	VL53L0X_SetHistogramMode, %function
 3874              	VL53L0X_SetHistogramMode:
 3875              	.LFB105:
 3876              		.cfi_startproc
ARM GAS  C:\Users\mathi\AppData\Local\Temp\ccw8i1Yt.s 			page 69


 3877              		@ args = 0, pretend = 0, frame = 8
 3878              		@ frame_needed = 0, uses_anonymous_args = 0
 3879 0000 00B5     		push	{lr}
 3880              		.cfi_def_cfa_offset 4
 3881              		.cfi_offset 14, -4
 3882 0002 074B     		ldr	r3, .L380
 3883 0004 83B0     		sub	sp, sp, #12
 3884              		.cfi_def_cfa_offset 16
 3885 0006 1A68     		ldr	r2, [r3]
 3886 0008 0192     		str	r2, [sp, #4]
 3887 000a 019A     		ldr	r2, [sp, #4]
 3888 000c 1B68     		ldr	r3, [r3]
 3889 000e 9A42     		cmp	r2, r3
 3890 0010 04D1     		bne	.L379
 3891 0012 6FF06200 		mvn	r0, #98
 3892 0016 03B0     		add	sp, sp, #12
 3893              		.cfi_remember_state
 3894              		.cfi_def_cfa_offset 4
 3895              		@ sp needed
 3896 0018 5DF804FB 		ldr	pc, [sp], #4
 3897              	.L379:
 3898              		.cfi_restore_state
 3899 001c FFF7FEFF 		bl	__stack_chk_fail
 3900              	.L381:
 3901              		.align	2
 3902              	.L380:
 3903 0020 00000000 		.word	__stack_chk_guard
 3904              		.cfi_endproc
 3905              	.LFE105:
 3906              		.size	VL53L0X_SetHistogramMode, .-VL53L0X_SetHistogramMode
 3907              		.section	.text.VL53L0X_GetHistogramMode,"ax",%progbits
 3908              		.align	1
 3909              		.p2align 4,,15
 3910              		.global	VL53L0X_GetHistogramMode
 3911              		.syntax unified
 3912              		.thumb
 3913              		.thumb_func
 3914              		.fpu fpv4-sp-d16
 3915              		.type	VL53L0X_GetHistogramMode, %function
 3916              	VL53L0X_GetHistogramMode:
 3917              	.LFB107:
 3918              		.cfi_startproc
 3919              		@ args = 0, pretend = 0, frame = 8
 3920              		@ frame_needed = 0, uses_anonymous_args = 0
 3921 0000 00B5     		push	{lr}
 3922              		.cfi_def_cfa_offset 4
 3923              		.cfi_offset 14, -4
 3924 0002 074B     		ldr	r3, .L386
 3925 0004 83B0     		sub	sp, sp, #12
 3926              		.cfi_def_cfa_offset 16
 3927 0006 1A68     		ldr	r2, [r3]
 3928 0008 0192     		str	r2, [sp, #4]
 3929 000a 019A     		ldr	r2, [sp, #4]
 3930 000c 1B68     		ldr	r3, [r3]
 3931 000e 9A42     		cmp	r2, r3
 3932 0010 04D1     		bne	.L385
 3933 0012 6FF06200 		mvn	r0, #98
ARM GAS  C:\Users\mathi\AppData\Local\Temp\ccw8i1Yt.s 			page 70


 3934 0016 03B0     		add	sp, sp, #12
 3935              		.cfi_remember_state
 3936              		.cfi_def_cfa_offset 4
 3937              		@ sp needed
 3938 0018 5DF804FB 		ldr	pc, [sp], #4
 3939              	.L385:
 3940              		.cfi_restore_state
 3941 001c FFF7FEFF 		bl	__stack_chk_fail
 3942              	.L387:
 3943              		.align	2
 3944              	.L386:
 3945 0020 00000000 		.word	__stack_chk_guard
 3946              		.cfi_endproc
 3947              	.LFE107:
 3948              		.size	VL53L0X_GetHistogramMode, .-VL53L0X_GetHistogramMode
 3949              		.section	.text.VL53L0X_SetMeasurementTimingBudgetMicroSeconds,"ax",%progbits
 3950              		.align	1
 3951              		.p2align 4,,15
 3952              		.global	VL53L0X_SetMeasurementTimingBudgetMicroSeconds
 3953              		.syntax unified
 3954              		.thumb
 3955              		.thumb_func
 3956              		.fpu fpv4-sp-d16
 3957              		.type	VL53L0X_SetMeasurementTimingBudgetMicroSeconds, %function
 3958              	VL53L0X_SetMeasurementTimingBudgetMicroSeconds:
 3959              	.LFB37:
 3960              		.loc 1 1002 0
 3961              		.cfi_startproc
 3962              		@ args = 0, pretend = 0, frame = 8
 3963              		@ frame_needed = 0, uses_anonymous_args = 0
 3964              	.LVL436:
 3965              		.loc 1 1002 0
 3966 0000 00B5     		push	{lr}
 3967              		.cfi_def_cfa_offset 4
 3968              		.cfi_offset 14, -4
 3969 0002 074B     		ldr	r3, .L393
 3970 0004 83B0     		sub	sp, sp, #12
 3971              		.cfi_def_cfa_offset 16
 3972              		.loc 1 1002 0
 3973 0006 1A68     		ldr	r2, [r3]
 3974 0008 0192     		str	r2, [sp, #4]
 3975              	.LVL437:
 3976              		.loc 1 1006 0
 3977 000a 019A     		ldr	r2, [sp, #4]
 3978 000c 1B68     		ldr	r3, [r3]
 3979 000e 9A42     		cmp	r2, r3
 3980 0010 04D1     		bne	.L392
 3981              		.loc 1 1012 0
 3982 0012 03B0     		add	sp, sp, #12
 3983              		.cfi_remember_state
 3984              		.cfi_def_cfa_offset 4
 3985              		@ sp needed
 3986 0014 5DF804EB 		ldr	lr, [sp], #4
 3987              		.cfi_restore 14
 3988              		.cfi_def_cfa_offset 0
 3989              		.loc 1 1006 0
 3990 0018 FFF7FEBF 		b	VL53L0X_set_measurement_timing_budget_micro_seconds
ARM GAS  C:\Users\mathi\AppData\Local\Temp\ccw8i1Yt.s 			page 71


 3991              	.LVL438:
 3992              	.L392:
 3993              		.cfi_restore_state
 3994 001c FFF7FEFF 		bl	__stack_chk_fail
 3995              	.LVL439:
 3996              	.L394:
 3997              		.align	2
 3998              	.L393:
 3999 0020 00000000 		.word	__stack_chk_guard
 4000              		.cfi_endproc
 4001              	.LFE37:
 4002              		.size	VL53L0X_SetMeasurementTimingBudgetMicroSeconds, .-VL53L0X_SetMeasurementTimingBudgetMicroSec
 4003              		.section	.text.VL53L0X_GetMeasurementTimingBudgetMicroSeconds,"ax",%progbits
 4004              		.align	1
 4005              		.p2align 4,,15
 4006              		.global	VL53L0X_GetMeasurementTimingBudgetMicroSeconds
 4007              		.syntax unified
 4008              		.thumb
 4009              		.thumb_func
 4010              		.fpu fpv4-sp-d16
 4011              		.type	VL53L0X_GetMeasurementTimingBudgetMicroSeconds, %function
 4012              	VL53L0X_GetMeasurementTimingBudgetMicroSeconds:
 4013              	.LFB38:
 4014              		.loc 1 1016 0
 4015              		.cfi_startproc
 4016              		@ args = 0, pretend = 0, frame = 8
 4017              		@ frame_needed = 0, uses_anonymous_args = 0
 4018              	.LVL440:
 4019 0000 00B5     		push	{lr}
 4020              		.cfi_def_cfa_offset 4
 4021              		.cfi_offset 14, -4
 4022 0002 074B     		ldr	r3, .L400
 4023 0004 83B0     		sub	sp, sp, #12
 4024              		.cfi_def_cfa_offset 16
 4025              		.loc 1 1016 0
 4026 0006 1A68     		ldr	r2, [r3]
 4027 0008 0192     		str	r2, [sp, #4]
 4028              	.LVL441:
 4029              		.loc 1 1020 0
 4030 000a 019A     		ldr	r2, [sp, #4]
 4031 000c 1B68     		ldr	r3, [r3]
 4032 000e 9A42     		cmp	r2, r3
 4033 0010 04D1     		bne	.L399
 4034              		.loc 1 1025 0
 4035 0012 03B0     		add	sp, sp, #12
 4036              		.cfi_remember_state
 4037              		.cfi_def_cfa_offset 4
 4038              		@ sp needed
 4039 0014 5DF804EB 		ldr	lr, [sp], #4
 4040              		.cfi_restore 14
 4041              		.cfi_def_cfa_offset 0
 4042              		.loc 1 1020 0
 4043 0018 FFF7FEBF 		b	VL53L0X_get_measurement_timing_budget_micro_seconds
 4044              	.LVL442:
 4045              	.L399:
 4046              		.cfi_restore_state
 4047 001c FFF7FEFF 		bl	__stack_chk_fail
ARM GAS  C:\Users\mathi\AppData\Local\Temp\ccw8i1Yt.s 			page 72


 4048              	.LVL443:
 4049              	.L401:
 4050              		.align	2
 4051              	.L400:
 4052 0020 00000000 		.word	__stack_chk_guard
 4053              		.cfi_endproc
 4054              	.LFE38:
 4055              		.size	VL53L0X_GetMeasurementTimingBudgetMicroSeconds, .-VL53L0X_GetMeasurementTimingBudgetMicroSec
 4056              		.section	.text.VL53L0X_SetVcselPulsePeriod,"ax",%progbits
 4057              		.align	1
 4058              		.p2align 4,,15
 4059              		.global	VL53L0X_SetVcselPulsePeriod
 4060              		.syntax unified
 4061              		.thumb
 4062              		.thumb_func
 4063              		.fpu fpv4-sp-d16
 4064              		.type	VL53L0X_SetVcselPulsePeriod, %function
 4065              	VL53L0X_SetVcselPulsePeriod:
 4066              	.LFB39:
 4067              		.loc 1 1029 0
 4068              		.cfi_startproc
 4069              		@ args = 0, pretend = 0, frame = 8
 4070              		@ frame_needed = 0, uses_anonymous_args = 0
 4071              	.LVL444:
 4072 0000 10B5     		push	{r4, lr}
 4073              		.cfi_def_cfa_offset 8
 4074              		.cfi_offset 4, -8
 4075              		.cfi_offset 14, -4
 4076 0002 074B     		ldr	r3, .L407
 4077 0004 82B0     		sub	sp, sp, #8
 4078              		.cfi_def_cfa_offset 16
 4079              		.loc 1 1029 0
 4080 0006 1C68     		ldr	r4, [r3]
 4081 0008 0194     		str	r4, [sp, #4]
 4082              	.LVL445:
 4083              		.loc 1 1033 0
 4084 000a 019C     		ldr	r4, [sp, #4]
 4085 000c 1B68     		ldr	r3, [r3]
 4086 000e 9C42     		cmp	r4, r3
 4087 0010 04D1     		bne	.L406
 4088              		.loc 1 1038 0
 4089 0012 02B0     		add	sp, sp, #8
 4090              		.cfi_remember_state
 4091              		.cfi_def_cfa_offset 8
 4092              		@ sp needed
 4093 0014 BDE81040 		pop	{r4, lr}
 4094              		.cfi_restore 14
 4095              		.cfi_restore 4
 4096              		.cfi_def_cfa_offset 0
 4097              		.loc 1 1033 0
 4098 0018 FFF7FEBF 		b	VL53L0X_set_vcsel_pulse_period
 4099              	.LVL446:
 4100              	.L406:
 4101              		.cfi_restore_state
 4102 001c FFF7FEFF 		bl	__stack_chk_fail
 4103              	.LVL447:
 4104              	.L408:
ARM GAS  C:\Users\mathi\AppData\Local\Temp\ccw8i1Yt.s 			page 73


 4105              		.align	2
 4106              	.L407:
 4107 0020 00000000 		.word	__stack_chk_guard
 4108              		.cfi_endproc
 4109              	.LFE39:
 4110              		.size	VL53L0X_SetVcselPulsePeriod, .-VL53L0X_SetVcselPulsePeriod
 4111              		.section	.text.VL53L0X_GetVcselPulsePeriod,"ax",%progbits
 4112              		.align	1
 4113              		.p2align 4,,15
 4114              		.global	VL53L0X_GetVcselPulsePeriod
 4115              		.syntax unified
 4116              		.thumb
 4117              		.thumb_func
 4118              		.fpu fpv4-sp-d16
 4119              		.type	VL53L0X_GetVcselPulsePeriod, %function
 4120              	VL53L0X_GetVcselPulsePeriod:
 4121              	.LFB40:
 4122              		.loc 1 1042 0
 4123              		.cfi_startproc
 4124              		@ args = 0, pretend = 0, frame = 8
 4125              		@ frame_needed = 0, uses_anonymous_args = 0
 4126              	.LVL448:
 4127 0000 10B5     		push	{r4, lr}
 4128              		.cfi_def_cfa_offset 8
 4129              		.cfi_offset 4, -8
 4130              		.cfi_offset 14, -4
 4131 0002 074B     		ldr	r3, .L414
 4132 0004 82B0     		sub	sp, sp, #8
 4133              		.cfi_def_cfa_offset 16
 4134              		.loc 1 1042 0
 4135 0006 1C68     		ldr	r4, [r3]
 4136 0008 0194     		str	r4, [sp, #4]
 4137              	.LVL449:
 4138              		.loc 1 1046 0
 4139 000a 019C     		ldr	r4, [sp, #4]
 4140 000c 1B68     		ldr	r3, [r3]
 4141 000e 9C42     		cmp	r4, r3
 4142 0010 04D1     		bne	.L413
 4143              		.loc 1 1051 0
 4144 0012 02B0     		add	sp, sp, #8
 4145              		.cfi_remember_state
 4146              		.cfi_def_cfa_offset 8
 4147              		@ sp needed
 4148 0014 BDE81040 		pop	{r4, lr}
 4149              		.cfi_restore 14
 4150              		.cfi_restore 4
 4151              		.cfi_def_cfa_offset 0
 4152              		.loc 1 1046 0
 4153 0018 FFF7FEBF 		b	VL53L0X_get_vcsel_pulse_period
 4154              	.LVL450:
 4155              	.L413:
 4156              		.cfi_restore_state
 4157 001c FFF7FEFF 		bl	__stack_chk_fail
 4158              	.LVL451:
 4159              	.L415:
 4160              		.align	2
 4161              	.L414:
ARM GAS  C:\Users\mathi\AppData\Local\Temp\ccw8i1Yt.s 			page 74


 4162 0020 00000000 		.word	__stack_chk_guard
 4163              		.cfi_endproc
 4164              	.LFE40:
 4165              		.size	VL53L0X_GetVcselPulsePeriod, .-VL53L0X_GetVcselPulsePeriod
 4166              		.section	.text.VL53L0X_SetSequenceStepEnable,"ax",%progbits
 4167              		.align	1
 4168              		.p2align 4,,15
 4169              		.global	VL53L0X_SetSequenceStepEnable
 4170              		.syntax unified
 4171              		.thumb
 4172              		.thumb_func
 4173              		.fpu fpv4-sp-d16
 4174              		.type	VL53L0X_SetSequenceStepEnable, %function
 4175              	VL53L0X_SetSequenceStepEnable:
 4176              	.LFB41:
 4177              		.loc 1 1055 0
 4178              		.cfi_startproc
 4179              		@ args = 0, pretend = 0, frame = 8
 4180              		@ frame_needed = 0, uses_anonymous_args = 0
 4181              	.LVL452:
 4182 0000 2DE9F041 		push	{r4, r5, r6, r7, r8, lr}
 4183              		.cfi_def_cfa_offset 24
 4184              		.cfi_offset 4, -24
 4185              		.cfi_offset 5, -20
 4186              		.cfi_offset 6, -16
 4187              		.cfi_offset 7, -12
 4188              		.cfi_offset 8, -8
 4189              		.cfi_offset 14, -4
 4190 0004 82B0     		sub	sp, sp, #8
 4191              		.cfi_def_cfa_offset 32
 4192              		.loc 1 1057 0
 4193 0006 02AB     		add	r3, sp, #8
 4194 0008 0024     		movs	r4, #0
 4195              		.loc 1 1055 0
 4196 000a 364D     		ldr	r5, .L438
 4197              		.loc 1 1057 0
 4198 000c 03F8054D 		strb	r4, [r3, #-5]!
 4199              		.loc 1 1055 0
 4200 0010 9046     		mov	r8, r2
 4201 0012 2A68     		ldr	r2, [r5]
 4202              	.LVL453:
 4203 0014 0192     		str	r2, [sp, #4]
 4204              	.LVL454:
 4205 0016 0F46     		mov	r7, r1
 4206              		.loc 1 1062 0
 4207 0018 1A46     		mov	r2, r3
 4208 001a 0121     		movs	r1, #1
 4209              	.LVL455:
 4210              		.loc 1 1055 0
 4211 001c 0646     		mov	r6, r0
 4212              		.loc 1 1062 0
 4213 001e FFF7FEFF 		bl	VL53L0X_RdByte
 4214              	.LVL456:
 4215              		.loc 1 1067 0
 4216 0022 0446     		mov	r4, r0
 4217 0024 E0B9     		cbnz	r0, .L417
 4218              		.loc 1 1068 0
ARM GAS  C:\Users\mathi\AppData\Local\Temp\ccw8i1Yt.s 			page 75


 4219 0026 B8F1010F 		cmp	r8, #1
 4220              		.loc 1 1065 0
 4221 002a 9DF80330 		ldrb	r3, [sp, #3]	@ zero_extendqisi2
 4222              		.loc 1 1068 0
 4223 002e 1FD0     		beq	.L436
 4224              		.loc 1 1094 0
 4225 0030 042F     		cmp	r7, #4
 4226 0032 53D8     		bhi	.L434
 4227 0034 DFE807F0 		tbb	[pc, r7]
 4228              	.L427:
 4229 0038 32       		.byte	(.L426-.L427)/2
 4230 0039 2D       		.byte	(.L428-.L427)/2
 4231 003a 03       		.byte	(.L429-.L427)/2
 4232 003b 28       		.byte	(.L430-.L427)/2
 4233 003c 23       		.byte	(.L431-.L427)/2
 4234 003d 00       		.p2align 1
 4235              	.L429:
 4236              		.loc 1 1102 0
 4237 003e 03F0FB07 		and	r7, r3, #251
 4238              	.LVL457:
 4239              		.loc 1 1116 0
 4240 0042 BB42     		cmp	r3, r7
 4241 0044 0CD0     		beq	.L417
 4242              	.L425:
 4243              		.loc 1 1119 0
 4244 0046 3A46     		mov	r2, r7
 4245 0048 0121     		movs	r1, #1
 4246 004a 3046     		mov	r0, r6
 4247 004c FFF7FEFF 		bl	VL53L0X_WrByte
 4248              	.LVL458:
 4249              		.loc 1 1122 0
 4250 0050 0446     		mov	r4, r0
 4251 0052 28B9     		cbnz	r0, .L417
 4252              		.loc 1 1123 0
 4253 0054 86F83071 		strb	r7, [r6, #304]
 4254              	.LVL459:
 4255              	.LBB298:
 4256              	.LBB299:
 4257              		.loc 1 1006 0
 4258 0058 7169     		ldr	r1, [r6, #20]
 4259 005a 3046     		mov	r0, r6
 4260              	.LVL460:
 4261 005c FFF7FEFF 		bl	VL53L0X_set_measurement_timing_budget_micro_seconds
 4262              	.LVL461:
 4263              	.L417:
 4264              	.LBE299:
 4265              	.LBE298:
 4266              		.loc 1 1140 0
 4267 0060 019A     		ldr	r2, [sp, #4]
 4268 0062 2B68     		ldr	r3, [r5]
 4269 0064 9A42     		cmp	r2, r3
 4270 0066 2046     		mov	r0, r4
 4271 0068 36D1     		bne	.L437
 4272 006a 02B0     		add	sp, sp, #8
 4273              		.cfi_remember_state
 4274              		.cfi_def_cfa_offset 24
 4275              		@ sp needed
ARM GAS  C:\Users\mathi\AppData\Local\Temp\ccw8i1Yt.s 			page 76


 4276 006c BDE8F081 		pop	{r4, r5, r6, r7, r8, pc}
 4277              	.LVL462:
 4278              	.L436:
 4279              		.cfi_restore_state
 4280              		.loc 1 1072 0
 4281 0070 042F     		cmp	r7, #4
 4282 0072 33D8     		bhi	.L434
 4283 0074 DFE807F0 		tbb	[pc, r7]
 4284              	.L420:
 4285 0078 2B       		.byte	(.L419-.L420)/2
 4286 0079 26       		.byte	(.L421-.L420)/2
 4287 007a 21       		.byte	(.L422-.L420)/2
 4288 007b 1C       		.byte	(.L423-.L420)/2
 4289 007c 17       		.byte	(.L424-.L420)/2
 4290 007d 00       		.p2align 1
 4291              	.L431:
 4292              		.loc 1 1108 0
 4293 007e 03F07F07 		and	r7, r3, #127
 4294              	.LVL463:
 4295              		.loc 1 1116 0
 4296 0082 BB42     		cmp	r3, r7
 4297 0084 DFD1     		bne	.L425
 4298 0086 EBE7     		b	.L417
 4299              	.LVL464:
 4300              	.L430:
 4301              		.loc 1 1105 0
 4302 0088 03F0BF07 		and	r7, r3, #191
 4303              	.LVL465:
 4304              		.loc 1 1116 0
 4305 008c BB42     		cmp	r3, r7
 4306 008e DAD1     		bne	.L425
 4307 0090 E6E7     		b	.L417
 4308              	.LVL466:
 4309              	.L428:
 4310              		.loc 1 1099 0
 4311 0092 03F0D707 		and	r7, r3, #215
 4312              	.LVL467:
 4313              		.loc 1 1116 0
 4314 0096 BB42     		cmp	r3, r7
 4315 0098 D5D1     		bne	.L425
 4316 009a E1E7     		b	.L417
 4317              	.LVL468:
 4318              	.L426:
 4319              		.loc 1 1096 0
 4320 009c 03F0EF07 		and	r7, r3, #239
 4321              	.LVL469:
 4322              		.loc 1 1116 0
 4323 00a0 BB42     		cmp	r3, r7
 4324 00a2 D0D1     		bne	.L425
 4325 00a4 DCE7     		b	.L417
 4326              	.LVL470:
 4327              	.L424:
 4328              		.loc 1 1086 0
 4329 00a6 43F08007 		orr	r7, r3, #128
 4330              	.LVL471:
 4331              		.loc 1 1116 0
 4332 00aa BB42     		cmp	r3, r7
ARM GAS  C:\Users\mathi\AppData\Local\Temp\ccw8i1Yt.s 			page 77


 4333 00ac CBD1     		bne	.L425
 4334 00ae D7E7     		b	.L417
 4335              	.LVL472:
 4336              	.L423:
 4337              		.loc 1 1083 0
 4338 00b0 43F04007 		orr	r7, r3, #64
 4339              	.LVL473:
 4340              		.loc 1 1116 0
 4341 00b4 BB42     		cmp	r3, r7
 4342 00b6 C6D1     		bne	.L425
 4343 00b8 D2E7     		b	.L417
 4344              	.LVL474:
 4345              	.L422:
 4346              		.loc 1 1080 0
 4347 00ba 43F00407 		orr	r7, r3, #4
 4348              	.LVL475:
 4349              		.loc 1 1116 0
 4350 00be BB42     		cmp	r3, r7
 4351 00c0 C1D1     		bne	.L425
 4352 00c2 CDE7     		b	.L417
 4353              	.LVL476:
 4354              	.L421:
 4355              		.loc 1 1077 0
 4356 00c4 43F02807 		orr	r7, r3, #40
 4357              	.LVL477:
 4358              		.loc 1 1116 0
 4359 00c8 BB42     		cmp	r3, r7
 4360 00ca BCD1     		bne	.L425
 4361 00cc C8E7     		b	.L417
 4362              	.LVL478:
 4363              	.L419:
 4364              		.loc 1 1074 0
 4365 00ce 43F01007 		orr	r7, r3, #16
 4366              	.LVL479:
 4367              		.loc 1 1116 0
 4368 00d2 BB42     		cmp	r3, r7
 4369 00d4 B7D1     		bne	.L425
 4370 00d6 C3E7     		b	.L417
 4371              	.LVL480:
 4372              	.L437:
 4373              		.loc 1 1140 0
 4374 00d8 FFF7FEFF 		bl	__stack_chk_fail
 4375              	.LVL481:
 4376              	.L434:
 4377              		.loc 1 1089 0
 4378 00dc 6FF00304 		mvn	r4, #3
 4379 00e0 BEE7     		b	.L417
 4380              	.L439:
 4381 00e2 00BF     		.align	2
 4382              	.L438:
 4383 00e4 00000000 		.word	__stack_chk_guard
 4384              		.cfi_endproc
 4385              	.LFE41:
 4386              		.size	VL53L0X_SetSequenceStepEnable, .-VL53L0X_SetSequenceStepEnable
 4387              		.section	.text.sequence_step_enabled,"ax",%progbits
 4388              		.align	1
 4389              		.p2align 4,,15
ARM GAS  C:\Users\mathi\AppData\Local\Temp\ccw8i1Yt.s 			page 78


 4390              		.global	sequence_step_enabled
 4391              		.syntax unified
 4392              		.thumb
 4393              		.thumb_func
 4394              		.fpu fpv4-sp-d16
 4395              		.type	sequence_step_enabled, %function
 4396              	sequence_step_enabled:
 4397              	.LFB42:
 4398              		.loc 1 1145 0
 4399              		.cfi_startproc
 4400              		@ args = 0, pretend = 0, frame = 8
 4401              		@ frame_needed = 0, uses_anonymous_args = 0
 4402              	.LVL482:
 4403 0000 10B5     		push	{r4, lr}
 4404              		.cfi_def_cfa_offset 8
 4405              		.cfi_offset 4, -8
 4406              		.cfi_offset 14, -4
 4407 0002 174C     		ldr	r4, .L452
 4408 0004 82B0     		sub	sp, sp, #8
 4409              		.cfi_def_cfa_offset 16
 4410              		.loc 1 1145 0
 4411 0006 2068     		ldr	r0, [r4]
 4412              	.LVL483:
 4413 0008 0190     		str	r0, [sp, #4]
 4414              	.LVL484:
 4415              		.loc 1 1151 0
 4416 000a 0429     		cmp	r1, #4
 4417 000c 21D8     		bhi	.L441
 4418 000e DFE801F0 		tbb	[pc, r1]
 4419              	.L443:
 4420 0012 0C       		.byte	(.L442-.L443)/2
 4421 0013 11       		.byte	(.L444-.L443)/2
 4422 0014 16       		.byte	(.L445-.L443)/2
 4423 0015 1B       		.byte	(.L446-.L443)/2
 4424 0016 03       		.byte	(.L447-.L443)/2
 4425 0017 00       		.p2align 1
 4426              	.L447:
 4427              		.loc 1 1165 0
 4428 0018 D209     		lsrs	r2, r2, #7
 4429              	.LVL485:
 4430 001a 1A70     		strb	r2, [r3]
 4431              		.loc 1 1147 0
 4432 001c 0020     		movs	r0, #0
 4433              	.L448:
 4434              	.LVL486:
 4435              		.loc 1 1173 0
 4436 001e 019A     		ldr	r2, [sp, #4]
 4437 0020 2368     		ldr	r3, [r4]
 4438              	.LVL487:
 4439 0022 9A42     		cmp	r2, r3
 4440 0024 1AD1     		bne	.L451
 4441 0026 02B0     		add	sp, sp, #8
 4442              		.cfi_remember_state
 4443              		.cfi_def_cfa_offset 8
 4444              		@ sp needed
 4445 0028 10BD     		pop	{r4, pc}
 4446              	.LVL488:
ARM GAS  C:\Users\mathi\AppData\Local\Temp\ccw8i1Yt.s 			page 79


 4447              	.L442:
 4448              		.cfi_restore_state
 4449              		.loc 1 1153 0
 4450 002a C2F30012 		ubfx	r2, r2, #4, #1
 4451              	.LVL489:
 4452 002e 1A70     		strb	r2, [r3]
 4453              		.loc 1 1147 0
 4454 0030 0020     		movs	r0, #0
 4455              		.loc 1 1154 0
 4456 0032 F4E7     		b	.L448
 4457              	.LVL490:
 4458              	.L444:
 4459              		.loc 1 1156 0
 4460 0034 C2F3C002 		ubfx	r2, r2, #3, #1
 4461              	.LVL491:
 4462 0038 1A70     		strb	r2, [r3]
 4463              		.loc 1 1147 0
 4464 003a 0020     		movs	r0, #0
 4465              		.loc 1 1157 0
 4466 003c EFE7     		b	.L448
 4467              	.LVL492:
 4468              	.L445:
 4469              		.loc 1 1159 0
 4470 003e C2F38002 		ubfx	r2, r2, #2, #1
 4471              	.LVL493:
 4472 0042 1A70     		strb	r2, [r3]
 4473              		.loc 1 1147 0
 4474 0044 0020     		movs	r0, #0
 4475              		.loc 1 1160 0
 4476 0046 EAE7     		b	.L448
 4477              	.LVL494:
 4478              	.L446:
 4479              		.loc 1 1162 0
 4480 0048 C2F38012 		ubfx	r2, r2, #6, #1
 4481              	.LVL495:
 4482 004c 1A70     		strb	r2, [r3]
 4483              		.loc 1 1147 0
 4484 004e 0020     		movs	r0, #0
 4485              		.loc 1 1163 0
 4486 0050 E5E7     		b	.L448
 4487              	.LVL496:
 4488              	.L441:
 4489              		.loc 1 1148 0
 4490 0052 0022     		movs	r2, #0
 4491              	.LVL497:
 4492 0054 1A70     		strb	r2, [r3]
 4493              		.loc 1 1168 0
 4494 0056 6FF00300 		mvn	r0, #3
 4495 005a E0E7     		b	.L448
 4496              	.LVL498:
 4497              	.L451:
 4498              		.loc 1 1173 0
 4499 005c FFF7FEFF 		bl	__stack_chk_fail
 4500              	.LVL499:
 4501              	.L453:
 4502              		.align	2
 4503              	.L452:
ARM GAS  C:\Users\mathi\AppData\Local\Temp\ccw8i1Yt.s 			page 80


 4504 0060 00000000 		.word	__stack_chk_guard
 4505              		.cfi_endproc
 4506              	.LFE42:
 4507              		.size	sequence_step_enabled, .-sequence_step_enabled
 4508              		.section	.text.VL53L0X_GetSequenceStepEnable,"ax",%progbits
 4509              		.align	1
 4510              		.p2align 4,,15
 4511              		.global	VL53L0X_GetSequenceStepEnable
 4512              		.syntax unified
 4513              		.thumb
 4514              		.thumb_func
 4515              		.fpu fpv4-sp-d16
 4516              		.type	VL53L0X_GetSequenceStepEnable, %function
 4517              	VL53L0X_GetSequenceStepEnable:
 4518              	.LFB43:
 4519              		.loc 1 1177 0
 4520              		.cfi_startproc
 4521              		@ args = 0, pretend = 0, frame = 8
 4522              		@ frame_needed = 0, uses_anonymous_args = 0
 4523              	.LVL500:
 4524 0000 70B5     		push	{r4, r5, r6, lr}
 4525              		.cfi_def_cfa_offset 16
 4526              		.cfi_offset 4, -16
 4527              		.cfi_offset 5, -12
 4528              		.cfi_offset 6, -8
 4529              		.cfi_offset 14, -4
 4530 0002 82B0     		sub	sp, sp, #8
 4531              		.cfi_def_cfa_offset 24
 4532              		.loc 1 1179 0
 4533 0004 02AB     		add	r3, sp, #8
 4534 0006 0024     		movs	r4, #0
 4535 0008 03F8054D 		strb	r4, [r3, #-5]!
 4536              		.loc 1 1177 0
 4537 000c 1B4C     		ldr	r4, .L467
 4538 000e 1646     		mov	r6, r2
 4539 0010 2268     		ldr	r2, [r4]
 4540              	.LVL501:
 4541 0012 0192     		str	r2, [sp, #4]
 4542              	.LVL502:
 4543 0014 0D46     		mov	r5, r1
 4544              		.loc 1 1182 0
 4545 0016 1A46     		mov	r2, r3
 4546 0018 0121     		movs	r1, #1
 4547              	.LVL503:
 4548 001a FFF7FEFF 		bl	VL53L0X_RdByte
 4549              	.LVL504:
 4550              		.loc 1 1185 0
 4551 001e 28B1     		cbz	r0, .L465
 4552              	.LVL505:
 4553              	.L455:
 4554              		.loc 1 1192 0
 4555 0020 019A     		ldr	r2, [sp, #4]
 4556 0022 2368     		ldr	r3, [r4]
 4557 0024 9A42     		cmp	r2, r3
 4558 0026 27D1     		bne	.L466
 4559 0028 02B0     		add	sp, sp, #8
 4560              		.cfi_remember_state
ARM GAS  C:\Users\mathi\AppData\Local\Temp\ccw8i1Yt.s 			page 81


 4561              		.cfi_def_cfa_offset 16
 4562              		@ sp needed
 4563 002a 70BD     		pop	{r4, r5, r6, pc}
 4564              	.LVL506:
 4565              	.L465:
 4566              		.cfi_restore_state
 4567              		.loc 1 1186 0
 4568 002c 9DF80330 		ldrb	r3, [sp, #3]	@ zero_extendqisi2
 4569              	.LVL507:
 4570              	.LBB302:
 4571              	.LBB303:
 4572              		.loc 1 1151 0
 4573 0030 042D     		cmp	r5, #4
 4574 0032 1CD8     		bhi	.L456
 4575 0034 DFE805F0 		tbb	[pc, r5]
 4576              	.L458:
 4577 0038 16       		.byte	(.L457-.L458)/2
 4578 0039 11       		.byte	(.L459-.L458)/2
 4579 003a 0C       		.byte	(.L460-.L458)/2
 4580 003b 07       		.byte	(.L461-.L458)/2
 4581 003c 03       		.byte	(.L462-.L458)/2
 4582 003d 00       		.p2align 1
 4583              	.L462:
 4584              		.loc 1 1165 0
 4585 003e DB09     		lsrs	r3, r3, #7
 4586              	.LVL508:
 4587 0040 3370     		strb	r3, [r6]
 4588              		.loc 1 1147 0
 4589 0042 0020     		movs	r0, #0
 4590              	.LVL509:
 4591 0044 ECE7     		b	.L455
 4592              	.LVL510:
 4593              	.L461:
 4594              		.loc 1 1162 0
 4595 0046 C3F38013 		ubfx	r3, r3, #6, #1
 4596              	.LVL511:
 4597 004a 3370     		strb	r3, [r6]
 4598              		.loc 1 1147 0
 4599 004c 0020     		movs	r0, #0
 4600              	.LVL512:
 4601 004e E7E7     		b	.L455
 4602              	.LVL513:
 4603              	.L460:
 4604              		.loc 1 1159 0
 4605 0050 C3F38003 		ubfx	r3, r3, #2, #1
 4606              	.LVL514:
 4607 0054 3370     		strb	r3, [r6]
 4608              		.loc 1 1147 0
 4609 0056 0020     		movs	r0, #0
 4610              	.LVL515:
 4611 0058 E2E7     		b	.L455
 4612              	.LVL516:
 4613              	.L459:
 4614              		.loc 1 1156 0
 4615 005a C3F3C003 		ubfx	r3, r3, #3, #1
 4616              	.LVL517:
 4617 005e 3370     		strb	r3, [r6]
ARM GAS  C:\Users\mathi\AppData\Local\Temp\ccw8i1Yt.s 			page 82


 4618              		.loc 1 1147 0
 4619 0060 0020     		movs	r0, #0
 4620              	.LVL518:
 4621 0062 DDE7     		b	.L455
 4622              	.LVL519:
 4623              	.L457:
 4624              		.loc 1 1153 0
 4625 0064 C3F30013 		ubfx	r3, r3, #4, #1
 4626              	.LVL520:
 4627 0068 3370     		strb	r3, [r6]
 4628              		.loc 1 1147 0
 4629 006a 0020     		movs	r0, #0
 4630              	.LVL521:
 4631 006c D8E7     		b	.L455
 4632              	.LVL522:
 4633              	.L456:
 4634              		.loc 1 1148 0
 4635 006e 0023     		movs	r3, #0
 4636              	.LVL523:
 4637 0070 3370     		strb	r3, [r6]
 4638              		.loc 1 1168 0
 4639 0072 6FF00300 		mvn	r0, #3
 4640              	.LVL524:
 4641 0076 D3E7     		b	.L455
 4642              	.LVL525:
 4643              	.L466:
 4644              	.LBE303:
 4645              	.LBE302:
 4646              		.loc 1 1192 0
 4647 0078 FFF7FEFF 		bl	__stack_chk_fail
 4648              	.LVL526:
 4649              	.L468:
 4650              		.align	2
 4651              	.L467:
 4652 007c 00000000 		.word	__stack_chk_guard
 4653              		.cfi_endproc
 4654              	.LFE43:
 4655              		.size	VL53L0X_GetSequenceStepEnable, .-VL53L0X_GetSequenceStepEnable
 4656              		.section	.text.VL53L0X_GetSequenceStepEnables,"ax",%progbits
 4657              		.align	1
 4658              		.p2align 4,,15
 4659              		.global	VL53L0X_GetSequenceStepEnables
 4660              		.syntax unified
 4661              		.thumb
 4662              		.thumb_func
 4663              		.fpu fpv4-sp-d16
 4664              		.type	VL53L0X_GetSequenceStepEnables, %function
 4665              	VL53L0X_GetSequenceStepEnables:
 4666              	.LFB44:
 4667              		.loc 1 1196 0
 4668              		.cfi_startproc
 4669              		@ args = 0, pretend = 0, frame = 8
 4670              		@ frame_needed = 0, uses_anonymous_args = 0
 4671              	.LVL527:
 4672 0000 30B5     		push	{r4, r5, lr}
 4673              		.cfi_def_cfa_offset 12
 4674              		.cfi_offset 4, -12
ARM GAS  C:\Users\mathi\AppData\Local\Temp\ccw8i1Yt.s 			page 83


 4675              		.cfi_offset 5, -8
 4676              		.cfi_offset 14, -4
 4677 0002 83B0     		sub	sp, sp, #12
 4678              		.cfi_def_cfa_offset 24
 4679              		.loc 1 1198 0
 4680 0004 02AA     		add	r2, sp, #8
 4681              		.loc 1 1196 0
 4682 0006 144C     		ldr	r4, .L474
 4683              		.loc 1 1198 0
 4684 0008 0023     		movs	r3, #0
 4685 000a 02F8053D 		strb	r3, [r2, #-5]!
 4686              		.loc 1 1196 0
 4687 000e 0D46     		mov	r5, r1
 4688 0010 2368     		ldr	r3, [r4]
 4689 0012 0193     		str	r3, [sp, #4]
 4690              	.LVL528:
 4691              		.loc 1 1201 0
 4692 0014 0121     		movs	r1, #1
 4693              	.LVL529:
 4694 0016 FFF7FEFF 		bl	VL53L0X_RdByte
 4695              	.LVL530:
 4696              		.loc 1 1204 0
 4697 001a A8B9     		cbnz	r0, .L470
 4698              		.loc 1 1205 0
 4699 001c 9DF80330 		ldrb	r3, [sp, #3]	@ zero_extendqisi2
 4700              	.LVL531:
 4701              	.LBB304:
 4702              	.LBB305:
 4703              		.loc 1 1153 0
 4704 0020 0246     		mov	r2, r0
 4705 0022 C3F30011 		ubfx	r1, r3, #4, #1
 4706 0026 61F30702 		bfi	r2, r1, #0, #8
 4707              	.LBE305:
 4708              	.LBE304:
 4709              	.LBB310:
 4710              	.LBB311:
 4711              		.loc 1 1159 0
 4712 002a C3F38001 		ubfx	r1, r3, #2, #1
 4713              	.LBE311:
 4714              	.LBE310:
 4715              	.LBB312:
 4716              	.LBB306:
 4717              		.loc 1 1153 0
 4718 002e 61F30F22 		bfi	r2, r1, #8, #8
 4719              	.LBE306:
 4720              	.LBE312:
 4721              	.LBB313:
 4722              	.LBB314:
 4723              		.loc 1 1156 0
 4724 0032 C3F3C001 		ubfx	r1, r3, #3, #1
 4725              	.LBE314:
 4726              	.LBE313:
 4727              	.LBB315:
 4728              	.LBB307:
 4729              		.loc 1 1153 0
 4730 0036 61F31742 		bfi	r2, r1, #16, #8
 4731              	.LBE307:
ARM GAS  C:\Users\mathi\AppData\Local\Temp\ccw8i1Yt.s 			page 84


 4732              	.LBE315:
 4733              	.LBB316:
 4734              	.LBB317:
 4735              		.loc 1 1162 0
 4736 003a C3F38011 		ubfx	r1, r3, #6, #1
 4737              	.LBE317:
 4738              	.LBE316:
 4739              	.LBB318:
 4740              	.LBB308:
 4741              		.loc 1 1153 0
 4742 003e 61F31F62 		bfi	r2, r1, #24, #8
 4743              	.LBE308:
 4744              	.LBE318:
 4745              	.LBB319:
 4746              	.LBB320:
 4747              		.loc 1 1165 0
 4748 0042 DB09     		lsrs	r3, r3, #7
 4749              	.LVL532:
 4750              	.LBE320:
 4751              	.LBE319:
 4752              	.LBB322:
 4753              	.LBB309:
 4754              		.loc 1 1153 0
 4755 0044 2A60     		str	r2, [r5]	@ unaligned
 4756              	.LVL533:
 4757              	.LBE309:
 4758              	.LBE322:
 4759              	.LBB323:
 4760              	.LBB321:
 4761              		.loc 1 1165 0
 4762 0046 2B71     		strb	r3, [r5, #4]
 4763              	.LVL534:
 4764              	.L470:
 4765              	.LBE321:
 4766              	.LBE323:
 4767              		.loc 1 1232 0
 4768 0048 019A     		ldr	r2, [sp, #4]
 4769 004a 2368     		ldr	r3, [r4]
 4770 004c 9A42     		cmp	r2, r3
 4771 004e 01D1     		bne	.L473
 4772 0050 03B0     		add	sp, sp, #12
 4773              		.cfi_remember_state
 4774              		.cfi_def_cfa_offset 12
 4775              		@ sp needed
 4776 0052 30BD     		pop	{r4, r5, pc}
 4777              	.LVL535:
 4778              	.L473:
 4779              		.cfi_restore_state
 4780 0054 FFF7FEFF 		bl	__stack_chk_fail
 4781              	.LVL536:
 4782              	.L475:
 4783              		.align	2
 4784              	.L474:
 4785 0058 00000000 		.word	__stack_chk_guard
 4786              		.cfi_endproc
 4787              	.LFE44:
 4788              		.size	VL53L0X_GetSequenceStepEnables, .-VL53L0X_GetSequenceStepEnables
ARM GAS  C:\Users\mathi\AppData\Local\Temp\ccw8i1Yt.s 			page 85


 4789              		.section	.text.VL53L0X_GetNumberOfSequenceSteps,"ax",%progbits
 4790              		.align	1
 4791              		.p2align 4,,15
 4792              		.global	VL53L0X_GetNumberOfSequenceSteps
 4793              		.syntax unified
 4794              		.thumb
 4795              		.thumb_func
 4796              		.fpu fpv4-sp-d16
 4797              		.type	VL53L0X_GetNumberOfSequenceSteps, %function
 4798              	VL53L0X_GetNumberOfSequenceSteps:
 4799              	.LFB45:
 4800              		.loc 1 1236 0
 4801              		.cfi_startproc
 4802              		@ args = 0, pretend = 0, frame = 8
 4803              		@ frame_needed = 0, uses_anonymous_args = 0
 4804              	.LVL537:
 4805 0000 00B5     		push	{lr}
 4806              		.cfi_def_cfa_offset 4
 4807              		.cfi_offset 14, -4
 4808 0002 084B     		ldr	r3, .L480
 4809 0004 83B0     		sub	sp, sp, #12
 4810              		.cfi_def_cfa_offset 16
 4811              		.loc 1 1236 0
 4812 0006 1868     		ldr	r0, [r3]
 4813              	.LVL538:
 4814 0008 0190     		str	r0, [sp, #4]
 4815              	.LVL539:
 4816              		.loc 1 1241 0
 4817 000a 0522     		movs	r2, #5
 4818 000c 0A70     		strb	r2, [r1]
 4819              		.loc 1 1245 0
 4820 000e 019A     		ldr	r2, [sp, #4]
 4821 0010 1B68     		ldr	r3, [r3]
 4822 0012 9A42     		cmp	r2, r3
 4823 0014 03D1     		bne	.L479
 4824 0016 0020     		movs	r0, #0
 4825 0018 03B0     		add	sp, sp, #12
 4826              		.cfi_remember_state
 4827              		.cfi_def_cfa_offset 4
 4828              		@ sp needed
 4829 001a 5DF804FB 		ldr	pc, [sp], #4
 4830              	.L479:
 4831              		.cfi_restore_state
 4832 001e FFF7FEFF 		bl	__stack_chk_fail
 4833              	.LVL540:
 4834              	.L481:
 4835 0022 00BF     		.align	2
 4836              	.L480:
 4837 0024 00000000 		.word	__stack_chk_guard
 4838              		.cfi_endproc
 4839              	.LFE45:
 4840              		.size	VL53L0X_GetNumberOfSequenceSteps, .-VL53L0X_GetNumberOfSequenceSteps
 4841              		.section	.text.VL53L0X_GetSequenceStepsInfo,"ax",%progbits
 4842              		.align	1
 4843              		.p2align 4,,15
 4844              		.global	VL53L0X_GetSequenceStepsInfo
 4845              		.syntax unified
ARM GAS  C:\Users\mathi\AppData\Local\Temp\ccw8i1Yt.s 			page 86


 4846              		.thumb
 4847              		.thumb_func
 4848              		.fpu fpv4-sp-d16
 4849              		.type	VL53L0X_GetSequenceStepsInfo, %function
 4850              	VL53L0X_GetSequenceStepsInfo:
 4851              	.LFB46:
 4852              		.loc 1 1249 0
 4853              		.cfi_startproc
 4854              		@ args = 0, pretend = 0, frame = 8
 4855              		@ frame_needed = 0, uses_anonymous_args = 0
 4856              	.LVL541:
 4857 0000 00B5     		push	{lr}
 4858              		.cfi_def_cfa_offset 4
 4859              		.cfi_offset 14, -4
 4860 0002 074B     		ldr	r3, .L487
 4861 0004 83B0     		sub	sp, sp, #12
 4862              		.cfi_def_cfa_offset 16
 4863              		.loc 1 1249 0
 4864 0006 1A68     		ldr	r2, [r3]
 4865 0008 0192     		str	r2, [sp, #4]
 4866              	.LVL542:
 4867              		.loc 1 1253 0
 4868 000a 019A     		ldr	r2, [sp, #4]
 4869 000c 1B68     		ldr	r3, [r3]
 4870 000e 9A42     		cmp	r2, r3
 4871 0010 04D1     		bne	.L486
 4872              		.loc 1 1260 0
 4873 0012 03B0     		add	sp, sp, #12
 4874              		.cfi_remember_state
 4875              		.cfi_def_cfa_offset 4
 4876              		@ sp needed
 4877 0014 5DF804EB 		ldr	lr, [sp], #4
 4878              		.cfi_restore 14
 4879              		.cfi_def_cfa_offset 0
 4880              		.loc 1 1253 0
 4881 0018 FFF7FEBF 		b	VL53L0X_get_sequence_steps_info
 4882              	.LVL543:
 4883              	.L486:
 4884              		.cfi_restore_state
 4885 001c FFF7FEFF 		bl	__stack_chk_fail
 4886              	.LVL544:
 4887              	.L488:
 4888              		.align	2
 4889              	.L487:
 4890 0020 00000000 		.word	__stack_chk_guard
 4891              		.cfi_endproc
 4892              	.LFE46:
 4893              		.size	VL53L0X_GetSequenceStepsInfo, .-VL53L0X_GetSequenceStepsInfo
 4894              		.section	.text.VL53L0X_SetSequenceStepTimeout,"ax",%progbits
 4895              		.align	1
 4896              		.p2align 4,,15
 4897              		.global	VL53L0X_SetSequenceStepTimeout
 4898              		.syntax unified
 4899              		.thumb
 4900              		.thumb_func
 4901              		.fpu fpv4-sp-d16
 4902              		.type	VL53L0X_SetSequenceStepTimeout, %function
ARM GAS  C:\Users\mathi\AppData\Local\Temp\ccw8i1Yt.s 			page 87


 4903              	VL53L0X_SetSequenceStepTimeout:
 4904              	.LFB47:
 4905              		.loc 1 1264 0
 4906              		.cfi_startproc
 4907              		@ args = 0, pretend = 0, frame = 8
 4908              		@ frame_needed = 0, uses_anonymous_args = 0
 4909              	.LVL545:
 4910 0000 F0B5     		push	{r4, r5, r6, r7, lr}
 4911              		.cfi_def_cfa_offset 20
 4912              		.cfi_offset 4, -20
 4913              		.cfi_offset 5, -16
 4914              		.cfi_offset 6, -12
 4915              		.cfi_offset 7, -8
 4916              		.cfi_offset 14, -4
 4917 0002 194C     		ldr	r4, .L498
 4918 0004 83B0     		sub	sp, sp, #12
 4919              		.cfi_def_cfa_offset 32
 4920              		.loc 1 1264 0
 4921 0006 1746     		mov	r7, r2
 4922 0008 2368     		ldr	r3, [r4]
 4923 000a 0193     		str	r3, [sp, #4]
 4924              	.LVL546:
 4925              		.loc 1 1276 0
 4926 000c 6A46     		mov	r2, sp
 4927              	.LVL547:
 4928              		.loc 1 1264 0
 4929 000e 0546     		mov	r5, r0
 4930 0010 0E46     		mov	r6, r1
 4931              		.loc 1 1276 0
 4932 0012 FFF7FEFF 		bl	get_sequence_step_timeout
 4933              	.LVL548:
 4934              		.loc 1 1279 0
 4935 0016 28B1     		cbz	r0, .L496
 4936              	.LVL549:
 4937              	.L490:
 4938              		.loc 1 1314 0
 4939 0018 019A     		ldr	r2, [sp, #4]
 4940 001a 2368     		ldr	r3, [r4]
 4941 001c 9A42     		cmp	r2, r3
 4942 001e 21D1     		bne	.L497
 4943 0020 03B0     		add	sp, sp, #12
 4944              		.cfi_remember_state
 4945              		.cfi_def_cfa_offset 20
 4946              		@ sp needed
 4947 0022 F0BD     		pop	{r4, r5, r6, r7, pc}
 4948              	.LVL550:
 4949              	.L496:
 4950              		.cfi_restore_state
 4951              		.loc 1 1267 0
 4952 0024 4FF47A72 		mov	r2, #1000
 4953 0028 02FB07F2 		mul	r2, r2, r7
 4954 002c 02F50042 		add	r2, r2, #32768
 4955              		.loc 1 1280 0
 4956 0030 120C     		lsrs	r2, r2, #16
 4957 0032 3146     		mov	r1, r6
 4958 0034 2846     		mov	r0, r5
 4959              	.LVL551:
ARM GAS  C:\Users\mathi\AppData\Local\Temp\ccw8i1Yt.s 			page 88


 4960 0036 FFF7FEFF 		bl	set_sequence_step_timeout
 4961              	.LVL552:
 4962              		.loc 1 1284 0
 4963 003a 0028     		cmp	r0, #0
 4964 003c ECD1     		bne	.L490
 4965              		.loc 1 1285 0
 4966 003e 6F69     		ldr	r7, [r5, #20]
 4967              	.LVL553:
 4968              	.LBB324:
 4969              	.LBB325:
 4970              		.loc 1 1006 0
 4971 0040 2846     		mov	r0, r5
 4972              	.LVL554:
 4973 0042 3946     		mov	r1, r7
 4974 0044 FFF7FEFF 		bl	VL53L0X_set_measurement_timing_budget_micro_seconds
 4975              	.LVL555:
 4976              	.LBE325:
 4977              	.LBE324:
 4978              		.loc 1 1296 0
 4979 0048 0028     		cmp	r0, #0
 4980 004a E5D0     		beq	.L490
 4981              		.loc 1 1297 0
 4982 004c 3146     		mov	r1, r6
 4983 004e 009A     		ldr	r2, [sp]
 4984 0050 2846     		mov	r0, r5
 4985 0052 FFF7FEFF 		bl	set_sequence_step_timeout
 4986              	.LVL556:
 4987              		.loc 1 1300 0
 4988 0056 0028     		cmp	r0, #0
 4989 0058 DED1     		bne	.L490
 4990              	.LVL557:
 4991              	.LBB326:
 4992              	.LBB327:
 4993              		.loc 1 1006 0
 4994 005a 3946     		mov	r1, r7
 4995 005c 2846     		mov	r0, r5
 4996              	.LVL558:
 4997 005e FFF7FEFF 		bl	VL53L0X_set_measurement_timing_budget_micro_seconds
 4998              	.LVL559:
 4999 0062 D9E7     		b	.L490
 5000              	.LVL560:
 5001              	.L497:
 5002              	.LBE327:
 5003              	.LBE326:
 5004              		.loc 1 1314 0
 5005 0064 FFF7FEFF 		bl	__stack_chk_fail
 5006              	.LVL561:
 5007              	.L499:
 5008              		.align	2
 5009              	.L498:
 5010 0068 00000000 		.word	__stack_chk_guard
 5011              		.cfi_endproc
 5012              	.LFE47:
 5013              		.size	VL53L0X_SetSequenceStepTimeout, .-VL53L0X_SetSequenceStepTimeout
 5014              		.section	.text.VL53L0X_GetSequenceStepTimeout,"ax",%progbits
 5015              		.align	1
 5016              		.p2align 4,,15
ARM GAS  C:\Users\mathi\AppData\Local\Temp\ccw8i1Yt.s 			page 89


 5017              		.global	VL53L0X_GetSequenceStepTimeout
 5018              		.syntax unified
 5019              		.thumb
 5020              		.thumb_func
 5021              		.fpu fpv4-sp-d16
 5022              		.type	VL53L0X_GetSequenceStepTimeout, %function
 5023              	VL53L0X_GetSequenceStepTimeout:
 5024              	.LFB48:
 5025              		.loc 1 1318 0
 5026              		.cfi_startproc
 5027              		@ args = 0, pretend = 0, frame = 8
 5028              		@ frame_needed = 0, uses_anonymous_args = 0
 5029              	.LVL562:
 5030 0000 30B5     		push	{r4, r5, lr}
 5031              		.cfi_def_cfa_offset 12
 5032              		.cfi_offset 4, -12
 5033              		.cfi_offset 5, -8
 5034              		.cfi_offset 14, -4
 5035 0002 0D4D     		ldr	r5, .L505
 5036 0004 83B0     		sub	sp, sp, #12
 5037              		.cfi_def_cfa_offset 24
 5038              		.loc 1 1318 0
 5039 0006 1446     		mov	r4, r2
 5040 0008 2B68     		ldr	r3, [r5]
 5041 000a 0193     		str	r3, [sp, #4]
 5042              	.LVL563:
 5043              		.loc 1 1323 0
 5044 000c 6A46     		mov	r2, sp
 5045              	.LVL564:
 5046 000e FFF7FEFF 		bl	get_sequence_step_timeout
 5047              	.LVL565:
 5048              		.loc 1 1325 0
 5049 0012 48B9     		cbnz	r0, .L501
 5050              		.loc 1 1326 0
 5051 0014 009B     		ldr	r3, [sp]
 5052              		.loc 1 1327 0
 5053 0016 094A     		ldr	r2, .L505+4
 5054              		.loc 1 1326 0
 5055 0018 1B02     		lsls	r3, r3, #8
 5056              		.loc 1 1327 0
 5057 001a 03F5FA73 		add	r3, r3, #500
 5058 001e A2FB0323 		umull	r2, r3, r2, r3
 5059 0022 9B09     		lsrs	r3, r3, #6
 5060              		.loc 1 1328 0
 5061 0024 1B02     		lsls	r3, r3, #8
 5062 0026 2360     		str	r3, [r4]
 5063              	.L501:
 5064              		.loc 1 1333 0
 5065 0028 019A     		ldr	r2, [sp, #4]
 5066 002a 2B68     		ldr	r3, [r5]
 5067 002c 9A42     		cmp	r2, r3
 5068 002e 01D1     		bne	.L504
 5069 0030 03B0     		add	sp, sp, #12
 5070              		.cfi_remember_state
 5071              		.cfi_def_cfa_offset 12
 5072              		@ sp needed
 5073 0032 30BD     		pop	{r4, r5, pc}
ARM GAS  C:\Users\mathi\AppData\Local\Temp\ccw8i1Yt.s 			page 90


 5074              	.LVL566:
 5075              	.L504:
 5076              		.cfi_restore_state
 5077 0034 FFF7FEFF 		bl	__stack_chk_fail
 5078              	.LVL567:
 5079              	.L506:
 5080              		.align	2
 5081              	.L505:
 5082 0038 00000000 		.word	__stack_chk_guard
 5083 003c D34D6210 		.word	274877907
 5084              		.cfi_endproc
 5085              	.LFE48:
 5086              		.size	VL53L0X_GetSequenceStepTimeout, .-VL53L0X_GetSequenceStepTimeout
 5087              		.section	.text.VL53L0X_SetInterMeasurementPeriodMilliSeconds,"ax",%progbits
 5088              		.align	1
 5089              		.p2align 4,,15
 5090              		.global	VL53L0X_SetInterMeasurementPeriodMilliSeconds
 5091              		.syntax unified
 5092              		.thumb
 5093              		.thumb_func
 5094              		.fpu fpv4-sp-d16
 5095              		.type	VL53L0X_SetInterMeasurementPeriodMilliSeconds, %function
 5096              	VL53L0X_SetInterMeasurementPeriodMilliSeconds:
 5097              	.LFB49:
 5098              		.loc 1 1337 0
 5099              		.cfi_startproc
 5100              		@ args = 0, pretend = 0, frame = 8
 5101              		@ frame_needed = 0, uses_anonymous_args = 0
 5102              	.LVL568:
 5103 0000 70B5     		push	{r4, r5, r6, lr}
 5104              		.cfi_def_cfa_offset 16
 5105              		.cfi_offset 4, -16
 5106              		.cfi_offset 5, -12
 5107              		.cfi_offset 6, -8
 5108              		.cfi_offset 14, -4
 5109 0002 104C     		ldr	r4, .L515
 5110 0004 82B0     		sub	sp, sp, #8
 5111              		.cfi_def_cfa_offset 24
 5112              		.loc 1 1337 0
 5113 0006 0E46     		mov	r6, r1
 5114 0008 2368     		ldr	r3, [r4]
 5115 000a 0193     		str	r3, [sp, #4]
 5116              	.LVL569:
 5117              		.loc 1 1344 0
 5118 000c 0DF10202 		add	r2, sp, #2
 5119 0010 F821     		movs	r1, #248
 5120              	.LVL570:
 5121              		.loc 1 1337 0
 5122 0012 0546     		mov	r5, r0
 5123              		.loc 1 1344 0
 5124 0014 FFF7FEFF 		bl	VL53L0X_RdWord
 5125              	.LVL571:
 5126              		.loc 1 1347 0
 5127 0018 48B9     		cbnz	r0, .L508
 5128              		.loc 1 1348 0
 5129 001a BDF80220 		ldrh	r2, [sp, #2]
 5130 001e 62B9     		cbnz	r2, .L513
ARM GAS  C:\Users\mathi\AppData\Local\Temp\ccw8i1Yt.s 			page 91


 5131              		.loc 1 1353 0
 5132 0020 3246     		mov	r2, r6
 5133              	.L509:
 5134              	.LVL572:
 5135              		.loc 1 1356 0
 5136 0022 0421     		movs	r1, #4
 5137 0024 2846     		mov	r0, r5
 5138              	.LVL573:
 5139 0026 FFF7FEFF 		bl	VL53L0X_WrDWord
 5140              	.LVL574:
 5141              		.loc 1 1361 0
 5142 002a 00B9     		cbnz	r0, .L508
 5143              		.loc 1 1362 0
 5144 002c AE61     		str	r6, [r5, #24]
 5145              	.L508:
 5146              		.loc 1 1369 0
 5147 002e 019A     		ldr	r2, [sp, #4]
 5148 0030 2368     		ldr	r3, [r4]
 5149 0032 9A42     		cmp	r2, r3
 5150 0034 04D1     		bne	.L514
 5151 0036 02B0     		add	sp, sp, #8
 5152              		.cfi_remember_state
 5153              		.cfi_def_cfa_offset 16
 5154              		@ sp needed
 5155 0038 70BD     		pop	{r4, r5, r6, pc}
 5156              	.LVL575:
 5157              	.L513:
 5158              		.cfi_restore_state
 5159              		.loc 1 1349 0
 5160 003a 06FB02F2 		mul	r2, r6, r2
 5161              	.LVL576:
 5162 003e F0E7     		b	.L509
 5163              	.LVL577:
 5164              	.L514:
 5165              		.loc 1 1369 0
 5166 0040 FFF7FEFF 		bl	__stack_chk_fail
 5167              	.LVL578:
 5168              	.L516:
 5169              		.align	2
 5170              	.L515:
 5171 0044 00000000 		.word	__stack_chk_guard
 5172              		.cfi_endproc
 5173              	.LFE49:
 5174              		.size	VL53L0X_SetInterMeasurementPeriodMilliSeconds, .-VL53L0X_SetInterMeasurementPeriodMilliSecon
 5175              		.section	.text.VL53L0X_GetInterMeasurementPeriodMilliSeconds,"ax",%progbits
 5176              		.align	1
 5177              		.p2align 4,,15
 5178              		.global	VL53L0X_GetInterMeasurementPeriodMilliSeconds
 5179              		.syntax unified
 5180              		.thumb
 5181              		.thumb_func
 5182              		.fpu fpv4-sp-d16
 5183              		.type	VL53L0X_GetInterMeasurementPeriodMilliSeconds, %function
 5184              	VL53L0X_GetInterMeasurementPeriodMilliSeconds:
 5185              	.LFB50:
 5186              		.loc 1 1373 0
 5187              		.cfi_startproc
ARM GAS  C:\Users\mathi\AppData\Local\Temp\ccw8i1Yt.s 			page 92


 5188              		@ args = 0, pretend = 0, frame = 16
 5189              		@ frame_needed = 0, uses_anonymous_args = 0
 5190              	.LVL579:
 5191 0000 70B5     		push	{r4, r5, r6, lr}
 5192              		.cfi_def_cfa_offset 16
 5193              		.cfi_offset 4, -16
 5194              		.cfi_offset 5, -12
 5195              		.cfi_offset 6, -8
 5196              		.cfi_offset 14, -4
 5197 0002 134C     		ldr	r4, .L525
 5198 0004 84B0     		sub	sp, sp, #16
 5199              		.cfi_def_cfa_offset 32
 5200              		.loc 1 1373 0
 5201 0006 0E46     		mov	r6, r1
 5202 0008 2368     		ldr	r3, [r4]
 5203 000a 0393     		str	r3, [sp, #12]
 5204              	.LVL580:
 5205              		.loc 1 1380 0
 5206 000c 0DF10602 		add	r2, sp, #6
 5207 0010 F821     		movs	r1, #248
 5208              	.LVL581:
 5209              		.loc 1 1373 0
 5210 0012 0546     		mov	r5, r0
 5211              		.loc 1 1380 0
 5212 0014 FFF7FEFF 		bl	VL53L0X_RdWord
 5213              	.LVL582:
 5214              		.loc 1 1383 0
 5215 0018 28B1     		cbz	r0, .L523
 5216              	.L518:
 5217              		.loc 1 1401 0
 5218 001a 039A     		ldr	r2, [sp, #12]
 5219 001c 2368     		ldr	r3, [r4]
 5220 001e 9A42     		cmp	r2, r3
 5221 0020 13D1     		bne	.L524
 5222 0022 04B0     		add	sp, sp, #16
 5223              		.cfi_remember_state
 5224              		.cfi_def_cfa_offset 16
 5225              		@ sp needed
 5226 0024 70BD     		pop	{r4, r5, r6, pc}
 5227              	.LVL583:
 5228              	.L523:
 5229              		.cfi_restore_state
 5230              		.loc 1 1384 0
 5231 0026 02AA     		add	r2, sp, #8
 5232 0028 0421     		movs	r1, #4
 5233 002a 2846     		mov	r0, r5
 5234              	.LVL584:
 5235 002c FFF7FEFF 		bl	VL53L0X_RdDWord
 5236              	.LVL585:
 5237              		.loc 1 1389 0
 5238 0030 0028     		cmp	r0, #0
 5239 0032 F2D1     		bne	.L518
 5240              		.loc 1 1390 0
 5241 0034 BDF80620 		ldrh	r2, [sp, #6]
 5242 0038 12B9     		cbnz	r2, .L519
 5243 003a 3368     		ldr	r3, [r6]
 5244              	.L520:
ARM GAS  C:\Users\mathi\AppData\Local\Temp\ccw8i1Yt.s 			page 93


 5245              		.loc 1 1394 0
 5246 003c AB61     		str	r3, [r5, #24]
 5247 003e ECE7     		b	.L518
 5248              	.L519:
 5249              		.loc 1 1392 0
 5250 0040 029B     		ldr	r3, [sp, #8]
 5251 0042 B3FBF2F3 		udiv	r3, r3, r2
 5252              		.loc 1 1391 0
 5253 0046 3360     		str	r3, [r6]
 5254 0048 F8E7     		b	.L520
 5255              	.L524:
 5256              		.loc 1 1401 0
 5257 004a FFF7FEFF 		bl	__stack_chk_fail
 5258              	.LVL586:
 5259              	.L526:
 5260 004e 00BF     		.align	2
 5261              	.L525:
 5262 0050 00000000 		.word	__stack_chk_guard
 5263              		.cfi_endproc
 5264              	.LFE50:
 5265              		.size	VL53L0X_GetInterMeasurementPeriodMilliSeconds, .-VL53L0X_GetInterMeasurementPeriodMilliSecon
 5266              		.section	.text.VL53L0X_SetXTalkCompensationEnable,"ax",%progbits
 5267              		.align	1
 5268              		.p2align 4,,15
 5269              		.global	VL53L0X_SetXTalkCompensationEnable
 5270              		.syntax unified
 5271              		.thumb
 5272              		.thumb_func
 5273              		.fpu fpv4-sp-d16
 5274              		.type	VL53L0X_SetXTalkCompensationEnable, %function
 5275              	VL53L0X_SetXTalkCompensationEnable:
 5276              	.LFB51:
 5277              		.loc 1 1405 0
 5278              		.cfi_startproc
 5279              		@ args = 0, pretend = 0, frame = 8
 5280              		@ frame_needed = 0, uses_anonymous_args = 0
 5281              	.LVL587:
 5282 0000 30B5     		push	{r4, r5, lr}
 5283              		.cfi_def_cfa_offset 12
 5284              		.cfi_offset 4, -12
 5285              		.cfi_offset 5, -8
 5286              		.cfi_offset 14, -4
 5287 0002 164C     		ldr	r4, .L544
 5288 0004 83B0     		sub	sp, sp, #12
 5289              		.cfi_def_cfa_offset 24
 5290              		.loc 1 1405 0
 5291 0006 2368     		ldr	r3, [r4]
 5292 0008 0193     		str	r3, [sp, #4]
 5293              	.LVL588:
 5294 000a 0546     		mov	r5, r0
 5295              	.LVL589:
 5296              		.loc 1 1414 0
 5297 000c 91B1     		cbz	r1, .L528
 5298              		.loc 1 1415 0
 5299 000e B0F85231 		ldrh	r3, [r0, #338]
 5300 0012 B3F57A7F 		cmp	r3, #1000
 5301 0016 15D0     		beq	.L542
ARM GAS  C:\Users\mathi\AppData\Local\Temp\ccw8i1Yt.s 			page 94


 5302              	.LVL590:
 5303              		.loc 1 1423 0
 5304 0018 0022     		movs	r2, #0
 5305 001a 2021     		movs	r1, #32
 5306              	.LVL591:
 5307 001c FFF7FEFF 		bl	VL53L0X_WrWord
 5308              	.LVL592:
 5309              		.loc 1 1427 0
 5310 0020 10B9     		cbnz	r0, .L531
 5311              	.LVL593:
 5312              	.L530:
 5313              		.loc 1 1432 0
 5314 0022 0123     		movs	r3, #1
 5315 0024 2B77     		strb	r3, [r5, #28]
 5316 0026 0020     		movs	r0, #0
 5317              	.LVL594:
 5318              	.L531:
 5319              		.loc 1 1439 0
 5320 0028 019A     		ldr	r2, [sp, #4]
 5321 002a 2368     		ldr	r3, [r4]
 5322 002c 9A42     		cmp	r2, r3
 5323 002e 12D1     		bne	.L543
 5324 0030 03B0     		add	sp, sp, #12
 5325              		.cfi_remember_state
 5326              		.cfi_def_cfa_offset 12
 5327              		@ sp needed
 5328 0032 30BD     		pop	{r4, r5, pc}
 5329              	.LVL595:
 5330              	.L528:
 5331              		.cfi_restore_state
 5332              		.loc 1 1423 0
 5333 0034 0A46     		mov	r2, r1
 5334 0036 2021     		movs	r1, #32
 5335              	.LVL596:
 5336 0038 FFF7FEFF 		bl	VL53L0X_WrWord
 5337              	.LVL597:
 5338              		.loc 1 1427 0
 5339 003c 0028     		cmp	r0, #0
 5340 003e F3D1     		bne	.L531
 5341              		.loc 1 1429 0
 5342 0040 2877     		strb	r0, [r5, #28]
 5343 0042 F1E7     		b	.L531
 5344              	.LVL598:
 5345              	.L542:
 5346              		.loc 1 1425 0
 5347 0044 026A     		ldr	r2, [r0, #32]
 5348              		.loc 1 1423 0
 5349 0046 2021     		movs	r1, #32
 5350              	.LVL599:
 5351 0048 C2F3CF02 		ubfx	r2, r2, #3, #16
 5352 004c FFF7FEFF 		bl	VL53L0X_WrWord
 5353              	.LVL600:
 5354              		.loc 1 1427 0
 5355 0050 0028     		cmp	r0, #0
 5356 0052 E6D0     		beq	.L530
 5357 0054 E8E7     		b	.L531
 5358              	.LVL601:
ARM GAS  C:\Users\mathi\AppData\Local\Temp\ccw8i1Yt.s 			page 95


 5359              	.L543:
 5360              		.loc 1 1439 0
 5361 0056 FFF7FEFF 		bl	__stack_chk_fail
 5362              	.LVL602:
 5363              	.L545:
 5364 005a 00BF     		.align	2
 5365              	.L544:
 5366 005c 00000000 		.word	__stack_chk_guard
 5367              		.cfi_endproc
 5368              	.LFE51:
 5369              		.size	VL53L0X_SetXTalkCompensationEnable, .-VL53L0X_SetXTalkCompensationEnable
 5370              		.section	.text.VL53L0X_GetXTalkCompensationEnable,"ax",%progbits
 5371              		.align	1
 5372              		.p2align 4,,15
 5373              		.global	VL53L0X_GetXTalkCompensationEnable
 5374              		.syntax unified
 5375              		.thumb
 5376              		.thumb_func
 5377              		.fpu fpv4-sp-d16
 5378              		.type	VL53L0X_GetXTalkCompensationEnable, %function
 5379              	VL53L0X_GetXTalkCompensationEnable:
 5380              	.LFB52:
 5381              		.loc 1 1443 0
 5382              		.cfi_startproc
 5383              		@ args = 0, pretend = 0, frame = 8
 5384              		@ frame_needed = 0, uses_anonymous_args = 0
 5385              	.LVL603:
 5386 0000 00B5     		push	{lr}
 5387              		.cfi_def_cfa_offset 4
 5388              		.cfi_offset 14, -4
 5389 0002 084B     		ldr	r3, .L550
 5390              		.loc 1 1448 0
 5391 0004 027F     		ldrb	r2, [r0, #28]	@ zero_extendqisi2
 5392              		.loc 1 1443 0
 5393 0006 1868     		ldr	r0, [r3]
 5394              	.LVL604:
 5395              		.loc 1 1449 0
 5396 0008 0A70     		strb	r2, [r1]
 5397              		.loc 1 1443 0
 5398 000a 83B0     		sub	sp, sp, #12
 5399              		.cfi_def_cfa_offset 16
 5400              		.loc 1 1443 0
 5401 000c 0190     		str	r0, [sp, #4]
 5402              	.LVL605:
 5403              		.loc 1 1453 0
 5404 000e 019A     		ldr	r2, [sp, #4]
 5405              	.LVL606:
 5406 0010 1B68     		ldr	r3, [r3]
 5407 0012 9A42     		cmp	r2, r3
 5408 0014 03D1     		bne	.L549
 5409 0016 0020     		movs	r0, #0
 5410 0018 03B0     		add	sp, sp, #12
 5411              		.cfi_remember_state
 5412              		.cfi_def_cfa_offset 4
 5413              		@ sp needed
 5414 001a 5DF804FB 		ldr	pc, [sp], #4
 5415              	.L549:
ARM GAS  C:\Users\mathi\AppData\Local\Temp\ccw8i1Yt.s 			page 96


 5416              		.cfi_restore_state
 5417 001e FFF7FEFF 		bl	__stack_chk_fail
 5418              	.LVL607:
 5419              	.L551:
 5420 0022 00BF     		.align	2
 5421              	.L550:
 5422 0024 00000000 		.word	__stack_chk_guard
 5423              		.cfi_endproc
 5424              	.LFE52:
 5425              		.size	VL53L0X_GetXTalkCompensationEnable, .-VL53L0X_GetXTalkCompensationEnable
 5426              		.section	.text.VL53L0X_SetXTalkCompensationRateMegaCps,"ax",%progbits
 5427              		.align	1
 5428              		.p2align 4,,15
 5429              		.global	VL53L0X_SetXTalkCompensationRateMegaCps
 5430              		.syntax unified
 5431              		.thumb
 5432              		.thumb_func
 5433              		.fpu fpv4-sp-d16
 5434              		.type	VL53L0X_SetXTalkCompensationRateMegaCps, %function
 5435              	VL53L0X_SetXTalkCompensationRateMegaCps:
 5436              	.LFB53:
 5437              		.loc 1 1457 0
 5438              		.cfi_startproc
 5439              		@ args = 0, pretend = 0, frame = 8
 5440              		@ frame_needed = 0, uses_anonymous_args = 0
 5441              	.LVL608:
 5442 0000 70B5     		push	{r4, r5, r6, lr}
 5443              		.cfi_def_cfa_offset 16
 5444              		.cfi_offset 4, -16
 5445              		.cfi_offset 5, -12
 5446              		.cfi_offset 6, -8
 5447              		.cfi_offset 14, -4
 5448 0002 0F4D     		ldr	r5, .L561
 5449 0004 82B0     		sub	sp, sp, #8
 5450              		.cfi_def_cfa_offset 24
 5451              		.loc 1 1457 0
 5452 0006 0446     		mov	r4, r0
 5453              		.loc 1 1467 0
 5454 0008 007F     		ldrb	r0, [r0, #28]	@ zero_extendqisi2
 5455              	.LVL609:
 5456              		.loc 1 1457 0
 5457 000a 2B68     		ldr	r3, [r5]
 5458 000c 0193     		str	r3, [sp, #4]
 5459              	.LVL610:
 5460 000e 0E46     		mov	r6, r1
 5461              		.loc 1 1467 0
 5462 0010 60B1     		cbz	r0, .L559
 5463              		.loc 1 1472 0
 5464 0012 B4F85231 		ldrh	r3, [r4, #338]
 5465 0016 B3F57A7F 		cmp	r3, #1000
 5466              		.loc 1 1473 0
 5467 001a 0CBF     		ite	eq
 5468 001c C1F3CF02 		ubfxeq	r2, r1, #3, #16
 5469              	.LVL611:
 5470              		.loc 1 1476 0
 5471 0020 0022     		movne	r2, #0
 5472              	.LVL612:
ARM GAS  C:\Users\mathi\AppData\Local\Temp\ccw8i1Yt.s 			page 97


 5473              		.loc 1 1479 0
 5474 0022 2021     		movs	r1, #32
 5475              	.LVL613:
 5476 0024 2046     		mov	r0, r4
 5477 0026 FFF7FEFF 		bl	VL53L0X_WrWord
 5478              	.LVL614:
 5479              		.loc 1 1482 0
 5480 002a 00B9     		cbnz	r0, .L554
 5481              	.LVL615:
 5482              	.L559:
 5483              		.loc 1 1483 0
 5484 002c 2662     		str	r6, [r4, #32]
 5485              	.L554:
 5486              	.LVL616:
 5487              		.loc 1 1491 0
 5488 002e 019A     		ldr	r2, [sp, #4]
 5489 0030 2B68     		ldr	r3, [r5]
 5490 0032 9A42     		cmp	r2, r3
 5491 0034 01D1     		bne	.L560
 5492 0036 02B0     		add	sp, sp, #8
 5493              		.cfi_remember_state
 5494              		.cfi_def_cfa_offset 16
 5495              		@ sp needed
 5496 0038 70BD     		pop	{r4, r5, r6, pc}
 5497              	.LVL617:
 5498              	.L560:
 5499              		.cfi_restore_state
 5500 003a FFF7FEFF 		bl	__stack_chk_fail
 5501              	.LVL618:
 5502              	.L562:
 5503 003e 00BF     		.align	2
 5504              	.L561:
 5505 0040 00000000 		.word	__stack_chk_guard
 5506              		.cfi_endproc
 5507              	.LFE53:
 5508              		.size	VL53L0X_SetXTalkCompensationRateMegaCps, .-VL53L0X_SetXTalkCompensationRateMegaCps
 5509              		.section	.text.VL53L0X_GetXTalkCompensationRateMegaCps,"ax",%progbits
 5510              		.align	1
 5511              		.p2align 4,,15
 5512              		.global	VL53L0X_GetXTalkCompensationRateMegaCps
 5513              		.syntax unified
 5514              		.thumb
 5515              		.thumb_func
 5516              		.fpu fpv4-sp-d16
 5517              		.type	VL53L0X_GetXTalkCompensationRateMegaCps, %function
 5518              	VL53L0X_GetXTalkCompensationRateMegaCps:
 5519              	.LFB54:
 5520              		.loc 1 1495 0
 5521              		.cfi_startproc
 5522              		@ args = 0, pretend = 0, frame = 8
 5523              		@ frame_needed = 0, uses_anonymous_args = 0
 5524              	.LVL619:
 5525 0000 70B5     		push	{r4, r5, r6, lr}
 5526              		.cfi_def_cfa_offset 16
 5527              		.cfi_offset 4, -16
 5528              		.cfi_offset 5, -12
 5529              		.cfi_offset 6, -8
ARM GAS  C:\Users\mathi\AppData\Local\Temp\ccw8i1Yt.s 			page 98


 5530              		.cfi_offset 14, -4
 5531 0002 104C     		ldr	r4, .L570
 5532 0004 82B0     		sub	sp, sp, #8
 5533              		.cfi_def_cfa_offset 24
 5534              		.loc 1 1495 0
 5535 0006 0E46     		mov	r6, r1
 5536 0008 2368     		ldr	r3, [r4]
 5537 000a 0193     		str	r3, [sp, #4]
 5538              	.LVL620:
 5539              		.loc 1 1502 0
 5540 000c 0DF10202 		add	r2, sp, #2
 5541 0010 2021     		movs	r1, #32
 5542              	.LVL621:
 5543              		.loc 1 1495 0
 5544 0012 0546     		mov	r5, r0
 5545              		.loc 1 1502 0
 5546 0014 FFF7FEFF 		bl	VL53L0X_RdWord
 5547              	.LVL622:
 5548              		.loc 1 1504 0
 5549 0018 38B9     		cbnz	r0, .L564
 5550              		.loc 1 1505 0
 5551 001a BDF80230 		ldrh	r3, [sp, #2]
 5552 001e 53B1     		cbz	r3, .L568
 5553              		.loc 1 1513 0
 5554 0020 DB00     		lsls	r3, r3, #3
 5555              	.LVL623:
 5556              		.loc 1 1517 0
 5557 0022 0122     		movs	r2, #1
 5558              		.loc 1 1514 0
 5559 0024 3360     		str	r3, [r6]
 5560              		.loc 1 1515 0
 5561 0026 2B62     		str	r3, [r5, #32]
 5562              		.loc 1 1517 0
 5563 0028 2A77     		strb	r2, [r5, #28]
 5564              	.LVL624:
 5565              	.L564:
 5566              		.loc 1 1524 0
 5567 002a 019A     		ldr	r2, [sp, #4]
 5568 002c 2368     		ldr	r3, [r4]
 5569 002e 9A42     		cmp	r2, r3
 5570 0030 05D1     		bne	.L569
 5571 0032 02B0     		add	sp, sp, #8
 5572              		.cfi_remember_state
 5573              		.cfi_def_cfa_offset 16
 5574              		@ sp needed
 5575 0034 70BD     		pop	{r4, r5, r6, pc}
 5576              	.LVL625:
 5577              	.L568:
 5578              		.cfi_restore_state
 5579              		.loc 1 1507 0
 5580 0036 2B6A     		ldr	r3, [r5, #32]
 5581              	.LVL626:
 5582              		.loc 1 1509 0
 5583 0038 3360     		str	r3, [r6]
 5584              		.loc 1 1510 0
 5585 003a 2877     		strb	r0, [r5, #28]
 5586 003c F5E7     		b	.L564
ARM GAS  C:\Users\mathi\AppData\Local\Temp\ccw8i1Yt.s 			page 99


 5587              	.LVL627:
 5588              	.L569:
 5589              		.loc 1 1524 0
 5590 003e FFF7FEFF 		bl	__stack_chk_fail
 5591              	.LVL628:
 5592              	.L571:
 5593 0042 00BF     		.align	2
 5594              	.L570:
 5595 0044 00000000 		.word	__stack_chk_guard
 5596              		.cfi_endproc
 5597              	.LFE54:
 5598              		.size	VL53L0X_GetXTalkCompensationRateMegaCps, .-VL53L0X_GetXTalkCompensationRateMegaCps
 5599              		.section	.text.VL53L0X_SetRefCalibration,"ax",%progbits
 5600              		.align	1
 5601              		.p2align 4,,15
 5602              		.global	VL53L0X_SetRefCalibration
 5603              		.syntax unified
 5604              		.thumb
 5605              		.thumb_func
 5606              		.fpu fpv4-sp-d16
 5607              		.type	VL53L0X_SetRefCalibration, %function
 5608              	VL53L0X_SetRefCalibration:
 5609              	.LFB55:
 5610              		.loc 1 1528 0
 5611              		.cfi_startproc
 5612              		@ args = 0, pretend = 0, frame = 8
 5613              		@ frame_needed = 0, uses_anonymous_args = 0
 5614              	.LVL629:
 5615 0000 10B5     		push	{r4, lr}
 5616              		.cfi_def_cfa_offset 8
 5617              		.cfi_offset 4, -8
 5618              		.cfi_offset 14, -4
 5619 0002 074B     		ldr	r3, .L577
 5620 0004 82B0     		sub	sp, sp, #8
 5621              		.cfi_def_cfa_offset 16
 5622              		.loc 1 1528 0
 5623 0006 1C68     		ldr	r4, [r3]
 5624 0008 0194     		str	r4, [sp, #4]
 5625              	.LVL630:
 5626              		.loc 1 1532 0
 5627 000a 019C     		ldr	r4, [sp, #4]
 5628 000c 1B68     		ldr	r3, [r3]
 5629 000e 9C42     		cmp	r4, r3
 5630 0010 04D1     		bne	.L576
 5631              		.loc 1 1536 0
 5632 0012 02B0     		add	sp, sp, #8
 5633              		.cfi_remember_state
 5634              		.cfi_def_cfa_offset 8
 5635              		@ sp needed
 5636 0014 BDE81040 		pop	{r4, lr}
 5637              		.cfi_restore 14
 5638              		.cfi_restore 4
 5639              		.cfi_def_cfa_offset 0
 5640              		.loc 1 1532 0
 5641 0018 FFF7FEBF 		b	VL53L0X_set_ref_calibration
 5642              	.LVL631:
 5643              	.L576:
ARM GAS  C:\Users\mathi\AppData\Local\Temp\ccw8i1Yt.s 			page 100


 5644              		.cfi_restore_state
 5645 001c FFF7FEFF 		bl	__stack_chk_fail
 5646              	.LVL632:
 5647              	.L578:
 5648              		.align	2
 5649              	.L577:
 5650 0020 00000000 		.word	__stack_chk_guard
 5651              		.cfi_endproc
 5652              	.LFE55:
 5653              		.size	VL53L0X_SetRefCalibration, .-VL53L0X_SetRefCalibration
 5654              		.section	.text.VL53L0X_GetRefCalibration,"ax",%progbits
 5655              		.align	1
 5656              		.p2align 4,,15
 5657              		.global	VL53L0X_GetRefCalibration
 5658              		.syntax unified
 5659              		.thumb
 5660              		.thumb_func
 5661              		.fpu fpv4-sp-d16
 5662              		.type	VL53L0X_GetRefCalibration, %function
 5663              	VL53L0X_GetRefCalibration:
 5664              	.LFB56:
 5665              		.loc 1 1540 0
 5666              		.cfi_startproc
 5667              		@ args = 0, pretend = 0, frame = 8
 5668              		@ frame_needed = 0, uses_anonymous_args = 0
 5669              	.LVL633:
 5670 0000 10B5     		push	{r4, lr}
 5671              		.cfi_def_cfa_offset 8
 5672              		.cfi_offset 4, -8
 5673              		.cfi_offset 14, -4
 5674 0002 074B     		ldr	r3, .L584
 5675 0004 82B0     		sub	sp, sp, #8
 5676              		.cfi_def_cfa_offset 16
 5677              		.loc 1 1540 0
 5678 0006 1C68     		ldr	r4, [r3]
 5679 0008 0194     		str	r4, [sp, #4]
 5680              	.LVL634:
 5681              		.loc 1 1544 0
 5682 000a 019C     		ldr	r4, [sp, #4]
 5683 000c 1B68     		ldr	r3, [r3]
 5684 000e 9C42     		cmp	r4, r3
 5685 0010 04D1     		bne	.L583
 5686              		.loc 1 1548 0
 5687 0012 02B0     		add	sp, sp, #8
 5688              		.cfi_remember_state
 5689              		.cfi_def_cfa_offset 8
 5690              		@ sp needed
 5691 0014 BDE81040 		pop	{r4, lr}
 5692              		.cfi_restore 14
 5693              		.cfi_restore 4
 5694              		.cfi_def_cfa_offset 0
 5695              		.loc 1 1544 0
 5696 0018 FFF7FEBF 		b	VL53L0X_get_ref_calibration
 5697              	.LVL635:
 5698              	.L583:
 5699              		.cfi_restore_state
 5700 001c FFF7FEFF 		bl	__stack_chk_fail
ARM GAS  C:\Users\mathi\AppData\Local\Temp\ccw8i1Yt.s 			page 101


 5701              	.LVL636:
 5702              	.L585:
 5703              		.align	2
 5704              	.L584:
 5705 0020 00000000 		.word	__stack_chk_guard
 5706              		.cfi_endproc
 5707              	.LFE56:
 5708              		.size	VL53L0X_GetRefCalibration, .-VL53L0X_GetRefCalibration
 5709              		.section	.text.VL53L0X_GetNumberOfLimitCheck,"ax",%progbits
 5710              		.align	1
 5711              		.p2align 4,,15
 5712              		.global	VL53L0X_GetNumberOfLimitCheck
 5713              		.syntax unified
 5714              		.thumb
 5715              		.thumb_func
 5716              		.fpu fpv4-sp-d16
 5717              		.type	VL53L0X_GetNumberOfLimitCheck, %function
 5718              	VL53L0X_GetNumberOfLimitCheck:
 5719              	.LFB57:
 5720              		.loc 1 1555 0
 5721              		.cfi_startproc
 5722              		@ args = 0, pretend = 0, frame = 8
 5723              		@ frame_needed = 0, uses_anonymous_args = 0
 5724              	.LVL637:
 5725 0000 00B5     		push	{lr}
 5726              		.cfi_def_cfa_offset 4
 5727              		.cfi_offset 14, -4
 5728 0002 084B     		ldr	r3, .L590
 5729 0004 83B0     		sub	sp, sp, #12
 5730              		.cfi_def_cfa_offset 16
 5731              		.loc 1 1555 0
 5732 0006 1968     		ldr	r1, [r3]
 5733 0008 0191     		str	r1, [sp, #4]
 5734              	.LVL638:
 5735              		.loc 1 1559 0
 5736 000a 0622     		movs	r2, #6
 5737 000c 0280     		strh	r2, [r0]	@ movhi
 5738              		.loc 1 1563 0
 5739 000e 019A     		ldr	r2, [sp, #4]
 5740 0010 1B68     		ldr	r3, [r3]
 5741 0012 9A42     		cmp	r2, r3
 5742 0014 03D1     		bne	.L589
 5743 0016 0020     		movs	r0, #0
 5744              	.LVL639:
 5745 0018 03B0     		add	sp, sp, #12
 5746              		.cfi_remember_state
 5747              		.cfi_def_cfa_offset 4
 5748              		@ sp needed
 5749 001a 5DF804FB 		ldr	pc, [sp], #4
 5750              	.LVL640:
 5751              	.L589:
 5752              		.cfi_restore_state
 5753 001e FFF7FEFF 		bl	__stack_chk_fail
 5754              	.LVL641:
 5755              	.L591:
 5756 0022 00BF     		.align	2
 5757              	.L590:
ARM GAS  C:\Users\mathi\AppData\Local\Temp\ccw8i1Yt.s 			page 102


 5758 0024 00000000 		.word	__stack_chk_guard
 5759              		.cfi_endproc
 5760              	.LFE57:
 5761              		.size	VL53L0X_GetNumberOfLimitCheck, .-VL53L0X_GetNumberOfLimitCheck
 5762              		.section	.text.VL53L0X_GetLimitCheckInfo,"ax",%progbits
 5763              		.align	1
 5764              		.p2align 4,,15
 5765              		.global	VL53L0X_GetLimitCheckInfo
 5766              		.syntax unified
 5767              		.thumb
 5768              		.thumb_func
 5769              		.fpu fpv4-sp-d16
 5770              		.type	VL53L0X_GetLimitCheckInfo, %function
 5771              	VL53L0X_GetLimitCheckInfo:
 5772              	.LFB58:
 5773              		.loc 1 1567 0
 5774              		.cfi_startproc
 5775              		@ args = 0, pretend = 0, frame = 8
 5776              		@ frame_needed = 0, uses_anonymous_args = 0
 5777              	.LVL642:
 5778 0000 10B5     		push	{r4, lr}
 5779              		.cfi_def_cfa_offset 8
 5780              		.cfi_offset 4, -8
 5781              		.cfi_offset 14, -4
 5782 0002 074B     		ldr	r3, .L597
 5783 0004 82B0     		sub	sp, sp, #8
 5784              		.cfi_def_cfa_offset 16
 5785              		.loc 1 1567 0
 5786 0006 1C68     		ldr	r4, [r3]
 5787 0008 0194     		str	r4, [sp, #4]
 5788              	.LVL643:
 5789              		.loc 1 1572 0
 5790 000a 019C     		ldr	r4, [sp, #4]
 5791 000c 1B68     		ldr	r3, [r3]
 5792 000e 9C42     		cmp	r4, r3
 5793 0010 04D1     		bne	.L596
 5794              		.loc 1 1577 0
 5795 0012 02B0     		add	sp, sp, #8
 5796              		.cfi_remember_state
 5797              		.cfi_def_cfa_offset 8
 5798              		@ sp needed
 5799 0014 BDE81040 		pop	{r4, lr}
 5800              		.cfi_restore 14
 5801              		.cfi_restore 4
 5802              		.cfi_def_cfa_offset 0
 5803              		.loc 1 1572 0
 5804 0018 FFF7FEBF 		b	VL53L0X_get_limit_check_info
 5805              	.LVL644:
 5806              	.L596:
 5807              		.cfi_restore_state
 5808 001c FFF7FEFF 		bl	__stack_chk_fail
 5809              	.LVL645:
 5810              	.L598:
 5811              		.align	2
 5812              	.L597:
 5813 0020 00000000 		.word	__stack_chk_guard
 5814              		.cfi_endproc
ARM GAS  C:\Users\mathi\AppData\Local\Temp\ccw8i1Yt.s 			page 103


 5815              	.LFE58:
 5816              		.size	VL53L0X_GetLimitCheckInfo, .-VL53L0X_GetLimitCheckInfo
 5817              		.section	.text.VL53L0X_GetLimitCheckStatus,"ax",%progbits
 5818              		.align	1
 5819              		.p2align 4,,15
 5820              		.global	VL53L0X_GetLimitCheckStatus
 5821              		.syntax unified
 5822              		.thumb
 5823              		.thumb_func
 5824              		.fpu fpv4-sp-d16
 5825              		.type	VL53L0X_GetLimitCheckStatus, %function
 5826              	VL53L0X_GetLimitCheckStatus:
 5827              	.LFB59:
 5828              		.loc 1 1581 0
 5829              		.cfi_startproc
 5830              		@ args = 0, pretend = 0, frame = 8
 5831              		@ frame_needed = 0, uses_anonymous_args = 0
 5832              	.LVL646:
 5833 0000 10B5     		push	{r4, lr}
 5834              		.cfi_def_cfa_offset 8
 5835              		.cfi_offset 4, -8
 5836              		.cfi_offset 14, -4
 5837 0002 0B4B     		ldr	r3, .L605
 5838 0004 82B0     		sub	sp, sp, #8
 5839              		.cfi_def_cfa_offset 16
 5840              		.loc 1 1581 0
 5841 0006 1C68     		ldr	r4, [r3]
 5842 0008 0194     		str	r4, [sp, #4]
 5843              	.LVL647:
 5844              		.loc 1 1587 0
 5845 000a 0529     		cmp	r1, #5
 5846 000c 0AD8     		bhi	.L602
 5847              		.loc 1 1591 0
 5848 000e 0144     		add	r1, r1, r0
 5849              	.LVL648:
 5850              		.loc 1 1582 0
 5851 0010 0020     		movs	r0, #0
 5852              	.LVL649:
 5853              		.loc 1 1591 0
 5854 0012 91F82E10 		ldrb	r1, [r1, #46]	@ zero_extendqisi2
 5855              	.LVL650:
 5856              		.loc 1 1594 0
 5857 0016 1170     		strb	r1, [r2]
 5858              	.LVL651:
 5859              	.L600:
 5860              		.loc 1 1600 0
 5861 0018 019A     		ldr	r2, [sp, #4]
 5862              	.LVL652:
 5863 001a 1B68     		ldr	r3, [r3]
 5864 001c 9A42     		cmp	r2, r3
 5865 001e 04D1     		bne	.L604
 5866 0020 02B0     		add	sp, sp, #8
 5867              		.cfi_remember_state
 5868              		.cfi_def_cfa_offset 8
 5869              		@ sp needed
 5870 0022 10BD     		pop	{r4, pc}
 5871              	.LVL653:
ARM GAS  C:\Users\mathi\AppData\Local\Temp\ccw8i1Yt.s 			page 104


 5872              	.L602:
 5873              		.cfi_restore_state
 5874              		.loc 1 1588 0
 5875 0024 6FF00300 		mvn	r0, #3
 5876              	.LVL654:
 5877 0028 F6E7     		b	.L600
 5878              	.LVL655:
 5879              	.L604:
 5880              		.loc 1 1600 0
 5881 002a FFF7FEFF 		bl	__stack_chk_fail
 5882              	.LVL656:
 5883              	.L606:
 5884 002e 00BF     		.align	2
 5885              	.L605:
 5886 0030 00000000 		.word	__stack_chk_guard
 5887              		.cfi_endproc
 5888              	.LFE59:
 5889              		.size	VL53L0X_GetLimitCheckStatus, .-VL53L0X_GetLimitCheckStatus
 5890              		.section	.text.VL53L0X_SetLimitCheckEnable,"ax",%progbits
 5891              		.align	1
 5892              		.p2align 4,,15
 5893              		.global	VL53L0X_SetLimitCheckEnable
 5894              		.syntax unified
 5895              		.thumb
 5896              		.thumb_func
 5897              		.fpu fpv4-sp-d16
 5898              		.type	VL53L0X_SetLimitCheckEnable, %function
 5899              	VL53L0X_SetLimitCheckEnable:
 5900              	.LFB60:
 5901              		.loc 1 1604 0
 5902              		.cfi_startproc
 5903              		@ args = 0, pretend = 0, frame = 8
 5904              		@ frame_needed = 0, uses_anonymous_args = 0
 5905              	.LVL657:
 5906 0000 F0B5     		push	{r4, r5, r6, r7, lr}
 5907              		.cfi_def_cfa_offset 20
 5908              		.cfi_offset 4, -20
 5909              		.cfi_offset 5, -16
 5910              		.cfi_offset 6, -12
 5911              		.cfi_offset 7, -8
 5912              		.cfi_offset 14, -4
 5913 0002 2A4F     		ldr	r7, .L627
 5914 0004 83B0     		sub	sp, sp, #12
 5915              		.cfi_def_cfa_offset 32
 5916              		.loc 1 1604 0
 5917 0006 3B68     		ldr	r3, [r7]
 5918 0008 0193     		str	r3, [sp, #4]
 5919              	.LVL658:
 5920              		.loc 1 1613 0
 5921 000a 0529     		cmp	r1, #5
 5922 000c 49D8     		bhi	.L621
 5923 000e 0E46     		mov	r6, r1
 5924 0010 0446     		mov	r4, r0
 5925 0012 1546     		mov	r5, r2
 5926              		.loc 1 1616 0
 5927 0014 6AB1     		cbz	r2, .L622
 5928              		.loc 1 1622 0
ARM GAS  C:\Users\mathi\AppData\Local\Temp\ccw8i1Yt.s 			page 105


 5929 0016 00EB8102 		add	r2, r0, r1, lsl #2
 5930              	.LVL659:
 5931 001a 0023     		movs	r3, #0
 5932 001c 526B     		ldr	r2, [r2, #52]
 5933              	.LVL660:
 5934 001e 9C46     		mov	ip, r3
 5935              		.loc 1 1626 0
 5936 0020 0120     		movs	r0, #1
 5937              	.LVL661:
 5938              	.L609:
 5939              		.loc 1 1629 0
 5940 0022 711E     		subs	r1, r6, #1
 5941              	.LVL662:
 5942 0024 0429     		cmp	r1, #4
 5943 0026 30D8     		bhi	.L610
 5944 0028 DFE801F0 		tbb	[pc, r1]
 5945              	.L612:
 5946 002c 26       		.byte	(.L611-.L612)/2
 5947 002d 23       		.byte	(.L613-.L612)/2
 5948 002e 14       		.byte	(.L614-.L612)/2
 5949 002f 08       		.byte	(.L615-.L612)/2
 5950 0030 32       		.byte	(.L616-.L612)/2
 5951              	.LVL663:
 5952 0031 00       		.p2align 1
 5953              	.L622:
 5954              		.loc 1 1618 0
 5955 0032 1046     		mov	r0, r2
 5956              	.LVL664:
 5957 0034 0223     		movs	r3, #2
 5958 0036 4FF0100C 		mov	ip, #16
 5959 003a F2E7     		b	.L609
 5960              	.LVL665:
 5961              	.L615:
 5962              		.loc 1 1668 0
 5963 003c FE22     		movs	r2, #254
 5964              	.LVL666:
 5965 003e 6021     		movs	r1, #96
 5966 0040 2046     		mov	r0, r4
 5967              	.LVL667:
 5968 0042 FFF7FEFF 		bl	VL53L0X_UpdateByte
 5969              	.LVL668:
 5970              		.loc 1 1691 0
 5971 0046 70B9     		cbnz	r0, .L608
 5972              	.L626:
 5973              		.loc 1 1693 0
 5974 0048 3444     		add	r4, r4, r6
 5975              	.LVL669:
 5976              		.loc 1 1692 0
 5977 004a 45B9     		cbnz	r5, .L619
 5978              	.LVL670:
 5979              	.L624:
 5980 004c 2846     		mov	r0, r5
 5981              		.loc 1 1693 0
 5982 004e 84F82850 		strb	r5, [r4, #40]
 5983 0052 08E0     		b	.L608
 5984              	.LVL671:
 5985              	.L614:
ARM GAS  C:\Users\mathi\AppData\Local\Temp\ccw8i1Yt.s 			page 106


 5986              		.loc 1 1659 0
 5987 0054 84F82B00 		strb	r0, [r4, #43]
 5988              	.L617:
 5989              		.loc 1 1693 0
 5990 0058 3444     		add	r4, r4, r6
 5991              	.LVL672:
 5992              		.loc 1 1692 0
 5993 005a 002D     		cmp	r5, #0
 5994 005c F6D0     		beq	.L624
 5995              	.LVL673:
 5996              	.L619:
 5997              		.loc 1 1696 0
 5998 005e 0123     		movs	r3, #1
 5999 0060 84F82830 		strb	r3, [r4, #40]
 6000 0064 0020     		movs	r0, #0
 6001              	.L608:
 6002              		.loc 1 1703 0
 6003 0066 019A     		ldr	r2, [sp, #4]
 6004 0068 3B68     		ldr	r3, [r7]
 6005 006a 9A42     		cmp	r2, r3
 6006 006c 1CD1     		bne	.L625
 6007 006e 03B0     		add	sp, sp, #12
 6008              		.cfi_remember_state
 6009              		.cfi_def_cfa_offset 20
 6010              		@ sp needed
 6011 0070 F0BD     		pop	{r4, r5, r6, r7, pc}
 6012              	.LVL674:
 6013              	.L613:
 6014              		.cfi_restore_state
 6015              		.loc 1 1650 0
 6016 0072 84F82A00 		strb	r0, [r4, #42]
 6017 0076 EFE7     		b	.L617
 6018              	.L611:
 6019              		.loc 1 1641 0
 6020 0078 C2F34F22 		ubfx	r2, r2, #9, #16
 6021              	.LVL675:
 6022 007c 4421     		movs	r1, #68
 6023 007e 2046     		mov	r0, r4
 6024              	.LVL676:
 6025 0080 FFF7FEFF 		bl	VL53L0X_WrWord
 6026              	.LVL677:
 6027              		.loc 1 1691 0
 6028 0084 0028     		cmp	r0, #0
 6029 0086 DFD0     		beq	.L626
 6030 0088 EDE7     		b	.L608
 6031              	.LVL678:
 6032              	.L610:
 6033              		.loc 1 1633 0
 6034 008a 84F82800 		strb	r0, [r4, #40]
 6035 008e E3E7     		b	.L617
 6036              	.L616:
 6037              		.loc 1 1677 0
 6038 0090 6346     		mov	r3, ip
 6039 0092 EF22     		movs	r2, #239
 6040              	.LVL679:
 6041 0094 6021     		movs	r1, #96
 6042 0096 2046     		mov	r0, r4
ARM GAS  C:\Users\mathi\AppData\Local\Temp\ccw8i1Yt.s 			page 107


 6043              	.LVL680:
 6044 0098 FFF7FEFF 		bl	VL53L0X_UpdateByte
 6045              	.LVL681:
 6046              		.loc 1 1691 0
 6047 009c 0028     		cmp	r0, #0
 6048 009e D3D0     		beq	.L626
 6049 00a0 E1E7     		b	.L608
 6050              	.LVL682:
 6051              	.L621:
 6052              		.loc 1 1614 0
 6053 00a2 6FF00300 		mvn	r0, #3
 6054              	.LVL683:
 6055 00a6 DEE7     		b	.L608
 6056              	.LVL684:
 6057              	.L625:
 6058              		.loc 1 1703 0
 6059 00a8 FFF7FEFF 		bl	__stack_chk_fail
 6060              	.LVL685:
 6061              	.L628:
 6062              		.align	2
 6063              	.L627:
 6064 00ac 00000000 		.word	__stack_chk_guard
 6065              		.cfi_endproc
 6066              	.LFE60:
 6067              		.size	VL53L0X_SetLimitCheckEnable, .-VL53L0X_SetLimitCheckEnable
 6068              		.section	.text.VL53L0X_GetLimitCheckEnable,"ax",%progbits
 6069              		.align	1
 6070              		.p2align 4,,15
 6071              		.global	VL53L0X_GetLimitCheckEnable
 6072              		.syntax unified
 6073              		.thumb
 6074              		.thumb_func
 6075              		.fpu fpv4-sp-d16
 6076              		.type	VL53L0X_GetLimitCheckEnable, %function
 6077              	VL53L0X_GetLimitCheckEnable:
 6078              	.LFB61:
 6079              		.loc 1 1707 0
 6080              		.cfi_startproc
 6081              		@ args = 0, pretend = 0, frame = 8
 6082              		@ frame_needed = 0, uses_anonymous_args = 0
 6083              	.LVL686:
 6084 0000 10B5     		push	{r4, lr}
 6085              		.cfi_def_cfa_offset 8
 6086              		.cfi_offset 4, -8
 6087              		.cfi_offset 14, -4
 6088 0002 0B4B     		ldr	r3, .L635
 6089 0004 82B0     		sub	sp, sp, #8
 6090              		.cfi_def_cfa_offset 16
 6091              		.loc 1 1707 0
 6092 0006 1C68     		ldr	r4, [r3]
 6093 0008 0194     		str	r4, [sp, #4]
 6094              	.LVL687:
 6095              		.loc 1 1713 0
 6096 000a 0529     		cmp	r1, #5
 6097 000c 0AD8     		bhi	.L632
 6098              		.loc 1 1717 0
 6099 000e 0144     		add	r1, r1, r0
ARM GAS  C:\Users\mathi\AppData\Local\Temp\ccw8i1Yt.s 			page 108


 6100              	.LVL688:
 6101              		.loc 1 1708 0
 6102 0010 0020     		movs	r0, #0
 6103              	.LVL689:
 6104              		.loc 1 1717 0
 6105 0012 91F82810 		ldrb	r1, [r1, #40]	@ zero_extendqisi2
 6106              	.LVL690:
 6107              	.L630:
 6108 0016 1170     		strb	r1, [r2]
 6109              	.LVL691:
 6110              		.loc 1 1724 0
 6111 0018 019A     		ldr	r2, [sp, #4]
 6112              	.LVL692:
 6113 001a 1B68     		ldr	r3, [r3]
 6114 001c 9A42     		cmp	r2, r3
 6115 001e 05D1     		bne	.L634
 6116 0020 02B0     		add	sp, sp, #8
 6117              		.cfi_remember_state
 6118              		.cfi_def_cfa_offset 8
 6119              		@ sp needed
 6120 0022 10BD     		pop	{r4, pc}
 6121              	.LVL693:
 6122              	.L632:
 6123              		.cfi_restore_state
 6124              		.loc 1 1715 0
 6125 0024 0021     		movs	r1, #0
 6126              	.LVL694:
 6127              		.loc 1 1714 0
 6128 0026 6FF00300 		mvn	r0, #3
 6129              	.LVL695:
 6130 002a F4E7     		b	.L630
 6131              	.LVL696:
 6132              	.L634:
 6133              		.loc 1 1724 0
 6134 002c FFF7FEFF 		bl	__stack_chk_fail
 6135              	.LVL697:
 6136              	.L636:
 6137              		.align	2
 6138              	.L635:
 6139 0030 00000000 		.word	__stack_chk_guard
 6140              		.cfi_endproc
 6141              	.LFE61:
 6142              		.size	VL53L0X_GetLimitCheckEnable, .-VL53L0X_GetLimitCheckEnable
 6143              		.section	.text.VL53L0X_SetLimitCheckValue,"ax",%progbits
 6144              		.align	1
 6145              		.p2align 4,,15
 6146              		.global	VL53L0X_SetLimitCheckValue
 6147              		.syntax unified
 6148              		.thumb
 6149              		.thumb_func
 6150              		.fpu fpv4-sp-d16
 6151              		.type	VL53L0X_SetLimitCheckValue, %function
 6152              	VL53L0X_SetLimitCheckValue:
 6153              	.LFB62:
 6154              		.loc 1 1728 0
 6155              		.cfi_startproc
 6156              		@ args = 0, pretend = 0, frame = 8
ARM GAS  C:\Users\mathi\AppData\Local\Temp\ccw8i1Yt.s 			page 109


 6157              		@ frame_needed = 0, uses_anonymous_args = 0
 6158              	.LVL698:
 6159 0000 F0B5     		push	{r4, r5, r6, r7, lr}
 6160              		.cfi_def_cfa_offset 20
 6161              		.cfi_offset 4, -20
 6162              		.cfi_offset 5, -16
 6163              		.cfi_offset 6, -12
 6164              		.cfi_offset 7, -8
 6165              		.cfi_offset 14, -4
 6166              		.loc 1 1734 0
 6167 0002 4318     		adds	r3, r0, r1
 6168              		.loc 1 1728 0
 6169 0004 1C4E     		ldr	r6, .L653
 6170 0006 83B0     		sub	sp, sp, #12
 6171              		.cfi_def_cfa_offset 32
 6172              		.loc 1 1728 0
 6173 0008 0446     		mov	r4, r0
 6174              		.loc 1 1737 0
 6175 000a 93F82800 		ldrb	r0, [r3, #40]	@ zero_extendqisi2
 6176              	.LVL699:
 6177              		.loc 1 1728 0
 6178 000e 3368     		ldr	r3, [r6]
 6179 0010 0193     		str	r3, [sp, #4]
 6180              	.LVL700:
 6181 0012 0D46     		mov	r5, r1
 6182 0014 1746     		mov	r7, r2
 6183              		.loc 1 1737 0
 6184 0016 30B1     		cbz	r0, .L651
 6185              		.loc 1 1742 0
 6186 0018 0529     		cmp	r1, #5
 6187 001a 2AD8     		bhi	.L649
 6188 001c DFE801F0 		tbb	[pc, r1]
 6189              	.L641:
 6190 0020 14       		.byte	(.L640-.L641)/2
 6191 0021 1E       		.byte	(.L642-.L641)/2
 6192 0022 1A       		.byte	(.L643-.L641)/2
 6193 0023 1C       		.byte	(.L644-.L641)/2
 6194 0024 0C       		.byte	(.L645-.L641)/2
 6195 0025 0C       		.byte	(.L645-.L641)/2
 6196              		.p2align 1
 6197              	.L651:
 6198              		.loc 1 1738 0
 6199 0026 04EB8104 		add	r4, r4, r1, lsl #2
 6200              	.LVL701:
 6201 002a 6263     		str	r2, [r4, #52]
 6202              	.LVL702:
 6203              	.L639:
 6204              		.loc 1 1801 0
 6205 002c 019A     		ldr	r2, [sp, #4]
 6206 002e 3368     		ldr	r3, [r6]
 6207 0030 9A42     		cmp	r2, r3
 6208 0032 1CD1     		bne	.L652
 6209 0034 03B0     		add	sp, sp, #12
 6210              		.cfi_remember_state
 6211              		.cfi_def_cfa_offset 20
 6212              		@ sp needed
 6213 0036 F0BD     		pop	{r4, r5, r6, r7, pc}
ARM GAS  C:\Users\mathi\AppData\Local\Temp\ccw8i1Yt.s 			page 110


 6214              	.LVL703:
 6215              	.L645:
 6216              		.cfi_restore_state
 6217              		.loc 1 1781 0
 6218 0038 C2F34F22 		ubfx	r2, r2, #9, #16
 6219              	.LVL704:
 6220 003c 6421     		movs	r1, #100
 6221              	.LVL705:
 6222 003e 2046     		mov	r0, r4
 6223 0040 FFF7FEFF 		bl	VL53L0X_WrWord
 6224              	.LVL706:
 6225              		.loc 1 1793 0
 6226 0044 08B1     		cbz	r0, .L646
 6227 0046 F1E7     		b	.L639
 6228              	.LVL707:
 6229              	.L640:
 6230              		.loc 1 1746 0
 6231 0048 6263     		str	r2, [r4, #52]
 6232              	.LVL708:
 6233              	.L646:
 6234              		.loc 1 1794 0
 6235 004a 04EB8504 		add	r4, r4, r5, lsl #2
 6236              	.LVL709:
 6237 004e 0020     		movs	r0, #0
 6238 0050 6763     		str	r7, [r4, #52]
 6239 0052 EBE7     		b	.L639
 6240              	.LVL710:
 6241              	.L643:
 6242              		.loc 1 1763 0
 6243 0054 E263     		str	r2, [r4, #60]
 6244              	.LVL711:
 6245 0056 F8E7     		b	.L646
 6246              	.LVL712:
 6247              	.L644:
 6248              		.loc 1 1772 0
 6249 0058 2264     		str	r2, [r4, #64]
 6250              	.LVL713:
 6251 005a F6E7     		b	.L646
 6252              	.LVL714:
 6253              	.L642:
 6254              		.loc 1 1753 0
 6255 005c C2F34F22 		ubfx	r2, r2, #9, #16
 6256              	.LVL715:
 6257 0060 4421     		movs	r1, #68
 6258              	.LVL716:
 6259 0062 2046     		mov	r0, r4
 6260 0064 FFF7FEFF 		bl	VL53L0X_WrWord
 6261              	.LVL717:
 6262              		.loc 1 1793 0
 6263 0068 0028     		cmp	r0, #0
 6264 006a EED0     		beq	.L646
 6265 006c DEE7     		b	.L639
 6266              	.LVL718:
 6267              	.L652:
 6268              		.loc 1 1801 0
 6269 006e FFF7FEFF 		bl	__stack_chk_fail
 6270              	.LVL719:
ARM GAS  C:\Users\mathi\AppData\Local\Temp\ccw8i1Yt.s 			page 111


 6271              	.L649:
 6272              		.loc 1 1789 0
 6273 0072 6FF00300 		mvn	r0, #3
 6274 0076 D9E7     		b	.L639
 6275              	.L654:
 6276              		.align	2
 6277              	.L653:
 6278 0078 00000000 		.word	__stack_chk_guard
 6279              		.cfi_endproc
 6280              	.LFE62:
 6281              		.size	VL53L0X_SetLimitCheckValue, .-VL53L0X_SetLimitCheckValue
 6282              		.section	.text.VL53L0X_GetLimitCheckValue,"ax",%progbits
 6283              		.align	1
 6284              		.p2align 4,,15
 6285              		.global	VL53L0X_GetLimitCheckValue
 6286              		.syntax unified
 6287              		.thumb
 6288              		.thumb_func
 6289              		.fpu fpv4-sp-d16
 6290              		.type	VL53L0X_GetLimitCheckValue, %function
 6291              	VL53L0X_GetLimitCheckValue:
 6292              	.LFB63:
 6293              		.loc 1 1805 0
 6294              		.cfi_startproc
 6295              		@ args = 0, pretend = 0, frame = 8
 6296              		@ frame_needed = 0, uses_anonymous_args = 0
 6297              	.LVL720:
 6298 0000 70B5     		push	{r4, r5, r6, lr}
 6299              		.cfi_def_cfa_offset 16
 6300              		.cfi_offset 4, -16
 6301              		.cfi_offset 5, -12
 6302              		.cfi_offset 6, -8
 6303              		.cfi_offset 14, -4
 6304 0002 204C     		ldr	r4, .L672
 6305 0004 82B0     		sub	sp, sp, #8
 6306              		.cfi_def_cfa_offset 24
 6307              		.loc 1 1805 0
 6308 0006 2368     		ldr	r3, [r4]
 6309 0008 0193     		str	r3, [sp, #4]
 6310              	.LVL721:
 6311 000a 0546     		mov	r5, r0
 6312 000c 1646     		mov	r6, r2
 6313              		.loc 1 1813 0
 6314 000e 0529     		cmp	r1, #5
 6315 0010 34D8     		bhi	.L667
 6316 0012 DFE801F0 		tbb	[pc, r1]
 6317              	.L658:
 6318 0016 03       		.byte	(.L657-.L658)/2
 6319 0017 0E       		.byte	(.L659-.L658)/2
 6320 0018 0C       		.byte	(.L660-.L658)/2
 6321 0019 1E       		.byte	(.L661-.L658)/2
 6322 001a 20       		.byte	(.L662-.L658)/2
 6323 001b 20       		.byte	(.L662-.L658)/2
 6324              		.p2align 1
 6325              	.L657:
 6326              		.loc 1 1817 0
 6327 001c 436B     		ldr	r3, [r0, #52]
ARM GAS  C:\Users\mathi\AppData\Local\Temp\ccw8i1Yt.s 			page 112


 6328              	.LVL722:
 6329              	.L663:
 6330              		.loc 1 1885 0
 6331 001e 3360     		str	r3, [r6]
 6332 0020 0020     		movs	r0, #0
 6333              	.LVL723:
 6334              	.L656:
 6335              		.loc 1 1892 0
 6336 0022 019A     		ldr	r2, [sp, #4]
 6337 0024 2368     		ldr	r3, [r4]
 6338 0026 9A42     		cmp	r2, r3
 6339 0028 26D1     		bne	.L670
 6340 002a 02B0     		add	sp, sp, #8
 6341              		.cfi_remember_state
 6342              		.cfi_def_cfa_offset 16
 6343              		@ sp needed
 6344 002c 70BD     		pop	{r4, r5, r6, pc}
 6345              	.LVL724:
 6346              	.L660:
 6347              		.cfi_restore_state
 6348              		.loc 1 1835 0
 6349 002e C36B     		ldr	r3, [r0, #60]
 6350              	.LVL725:
 6351 0030 F5E7     		b	.L663
 6352              	.LVL726:
 6353              	.L659:
 6354              		.loc 1 1823 0
 6355 0032 0DF10202 		add	r2, sp, #2
 6356              	.LVL727:
 6357 0036 4421     		movs	r1, #68
 6358              	.LVL728:
 6359 0038 FFF7FEFF 		bl	VL53L0X_RdWord
 6360              	.LVL729:
 6361              		.loc 1 1826 0
 6362 003c 0028     		cmp	r0, #0
 6363 003e F0D1     		bne	.L656
 6364              		.loc 1 1827 0
 6365 0040 BDF80230 		ldrh	r3, [sp, #2]
 6366              	.LVL730:
 6367              		.loc 1 1868 0
 6368 0044 5A02     		lsls	r2, r3, #9
 6369              	.LVL731:
 6370 0046 8BB9     		cbnz	r3, .L671
 6371              		.loc 1 1870 0
 6372 0048 AB6B     		ldr	r3, [r5, #56]
 6373              	.LVL732:
 6374              		.loc 1 1873 0
 6375 004a 3360     		str	r3, [r6]
 6376              		.loc 1 1874 0
 6377 004c 85F82900 		strb	r0, [r5, #41]
 6378 0050 E7E7     		b	.L656
 6379              	.LVL733:
 6380              	.L661:
 6381              		.loc 1 1842 0
 6382 0052 036C     		ldr	r3, [r0, #64]
 6383              	.LVL734:
 6384 0054 E3E7     		b	.L663
ARM GAS  C:\Users\mathi\AppData\Local\Temp\ccw8i1Yt.s 			page 113


 6385              	.LVL735:
 6386              	.L662:
 6387              		.loc 1 1849 0
 6388 0056 0DF10202 		add	r2, sp, #2
 6389              	.LVL736:
 6390 005a 6421     		movs	r1, #100
 6391              	.LVL737:
 6392 005c FFF7FEFF 		bl	VL53L0X_RdWord
 6393              	.LVL738:
 6394              		.loc 1 1852 0
 6395 0060 0028     		cmp	r0, #0
 6396 0062 DED1     		bne	.L656
 6397              		.loc 1 1853 0
 6398 0064 BDF80230 		ldrh	r3, [sp, #2]
 6399 0068 5B02     		lsls	r3, r3, #9
 6400              	.LVL739:
 6401 006a D8E7     		b	.L663
 6402              	.LVL740:
 6403              	.L671:
 6404              		.loc 1 1881 0
 6405 006c 0123     		movs	r3, #1
 6406              		.loc 1 1877 0
 6407 006e 3260     		str	r2, [r6]
 6408              		.loc 1 1878 0
 6409 0070 AA63     		str	r2, [r5, #56]
 6410              		.loc 1 1881 0
 6411 0072 85F82930 		strb	r3, [r5, #41]
 6412 0076 D4E7     		b	.L656
 6413              	.LVL741:
 6414              	.L670:
 6415              		.loc 1 1892 0
 6416 0078 FFF7FEFF 		bl	__stack_chk_fail
 6417              	.LVL742:
 6418              	.L667:
 6419              		.loc 1 1813 0
 6420 007c 6FF00300 		mvn	r0, #3
 6421              	.LVL743:
 6422 0080 CFE7     		b	.L656
 6423              	.L673:
 6424 0082 00BF     		.align	2
 6425              	.L672:
 6426 0084 00000000 		.word	__stack_chk_guard
 6427              		.cfi_endproc
 6428              	.LFE63:
 6429              		.size	VL53L0X_GetLimitCheckValue, .-VL53L0X_GetLimitCheckValue
 6430              		.section	.text.VL53L0X_GetLimitCheckCurrent,"ax",%progbits
 6431              		.align	1
 6432              		.p2align 4,,15
 6433              		.global	VL53L0X_GetLimitCheckCurrent
 6434              		.syntax unified
 6435              		.thumb
 6436              		.thumb_func
 6437              		.fpu fpv4-sp-d16
 6438              		.type	VL53L0X_GetLimitCheckCurrent, %function
 6439              	VL53L0X_GetLimitCheckCurrent:
 6440              	.LFB64:
 6441              		.loc 1 1896 0
ARM GAS  C:\Users\mathi\AppData\Local\Temp\ccw8i1Yt.s 			page 114


 6442              		.cfi_startproc
 6443              		@ args = 0, pretend = 0, frame = 8
 6444              		@ frame_needed = 0, uses_anonymous_args = 0
 6445              	.LVL744:
 6446 0000 10B5     		push	{r4, lr}
 6447              		.cfi_def_cfa_offset 8
 6448              		.cfi_offset 4, -8
 6449              		.cfi_offset 14, -4
 6450 0002 134B     		ldr	r3, .L684
 6451 0004 82B0     		sub	sp, sp, #8
 6452              		.cfi_def_cfa_offset 16
 6453              		.loc 1 1896 0
 6454 0006 1C68     		ldr	r4, [r3]
 6455 0008 0194     		str	r4, [sp, #4]
 6456              	.LVL745:
 6457              		.loc 1 1902 0
 6458 000a 0529     		cmp	r1, #5
 6459 000c 1AD8     		bhi	.L681
 6460              		.loc 1 1905 0
 6461 000e 0139     		subs	r1, r1, #1
 6462              	.LVL746:
 6463 0010 0429     		cmp	r1, #4
 6464 0012 0DD8     		bhi	.L676
 6465 0014 DFE801F0 		tbb	[pc, r1]
 6466              	.L678:
 6467 0018 03       		.byte	(.L677-.L678)/2
 6468 0019 11       		.byte	(.L679-.L678)/2
 6469 001a 03       		.byte	(.L677-.L678)/2
 6470 001b 03       		.byte	(.L677-.L678)/2
 6471 001c 03       		.byte	(.L677-.L678)/2
 6472 001d 00       		.p2align 1
 6473              	.L677:
 6474              		.loc 1 1914 0
 6475 001e C16D     		ldr	r1, [r0, #92]
 6476              	.LVL747:
 6477              		.loc 1 1916 0
 6478 0020 1160     		str	r1, [r2]
 6479              		.loc 1 1897 0
 6480 0022 0020     		movs	r0, #0
 6481              	.LVL748:
 6482              	.L675:
 6483              		.loc 1 1963 0
 6484 0024 019A     		ldr	r2, [sp, #4]
 6485              	.LVL749:
 6486 0026 1B68     		ldr	r3, [r3]
 6487 0028 9A42     		cmp	r2, r3
 6488 002a 0ED1     		bne	.L683
 6489 002c 02B0     		add	sp, sp, #8
 6490              		.cfi_remember_state
 6491              		.cfi_def_cfa_offset 8
 6492              		@ sp needed
 6493 002e 10BD     		pop	{r4, pc}
 6494              	.LVL750:
 6495              	.L676:
 6496              		.loc 1 1908 0
 6497 0030 D0F84011 		ldr	r1, [r0, #320]
 6498 0034 1160     		str	r1, [r2]
ARM GAS  C:\Users\mathi\AppData\Local\Temp\ccw8i1Yt.s 			page 115


 6499              		.loc 1 1897 0
 6500 0036 0020     		movs	r0, #0
 6501              	.LVL751:
 6502              		.loc 1 1910 0
 6503 0038 F4E7     		b	.L675
 6504              	.LVL752:
 6505              	.L679:
 6506              		.cfi_restore_state
 6507              		.loc 1 1923 0
 6508 003a D0F84811 		ldr	r1, [r0, #328]
 6509 003e 1160     		str	r1, [r2]
 6510              		.loc 1 1897 0
 6511 0040 0020     		movs	r0, #0
 6512              	.LVL753:
 6513              		.loc 1 1926 0
 6514 0042 EFE7     		b	.L675
 6515              	.LVL754:
 6516              	.L681:
 6517              		.loc 1 1903 0
 6518 0044 6FF00300 		mvn	r0, #3
 6519              	.LVL755:
 6520 0048 ECE7     		b	.L675
 6521              	.LVL756:
 6522              	.L683:
 6523              		.loc 1 1963 0
 6524 004a FFF7FEFF 		bl	__stack_chk_fail
 6525              	.LVL757:
 6526              	.L685:
 6527 004e 00BF     		.align	2
 6528              	.L684:
 6529 0050 00000000 		.word	__stack_chk_guard
 6530              		.cfi_endproc
 6531              	.LFE64:
 6532              		.size	VL53L0X_GetLimitCheckCurrent, .-VL53L0X_GetLimitCheckCurrent
 6533              		.section	.text.VL53L0X_SetWrapAroundCheckEnable,"ax",%progbits
 6534              		.align	1
 6535              		.p2align 4,,15
 6536              		.global	VL53L0X_SetWrapAroundCheckEnable
 6537              		.syntax unified
 6538              		.thumb
 6539              		.thumb_func
 6540              		.fpu fpv4-sp-d16
 6541              		.type	VL53L0X_SetWrapAroundCheckEnable, %function
 6542              	VL53L0X_SetWrapAroundCheckEnable:
 6543              	.LFB65:
 6544              		.loc 1 1970 0
 6545              		.cfi_startproc
 6546              		@ args = 0, pretend = 0, frame = 8
 6547              		@ frame_needed = 0, uses_anonymous_args = 0
 6548              	.LVL758:
 6549 0000 70B5     		push	{r4, r5, r6, lr}
 6550              		.cfi_def_cfa_offset 16
 6551              		.cfi_offset 4, -16
 6552              		.cfi_offset 5, -12
 6553              		.cfi_offset 6, -8
 6554              		.cfi_offset 14, -4
 6555 0002 154E     		ldr	r6, .L693
ARM GAS  C:\Users\mathi\AppData\Local\Temp\ccw8i1Yt.s 			page 116


 6556 0004 82B0     		sub	sp, sp, #8
 6557              		.cfi_def_cfa_offset 24
 6558              		.loc 1 1970 0
 6559 0006 3368     		ldr	r3, [r6]
 6560 0008 0193     		str	r3, [sp, #4]
 6561              	.LVL759:
 6562 000a 0D46     		mov	r5, r1
 6563              		.loc 1 1977 0
 6564 000c 0DF10302 		add	r2, sp, #3
 6565 0010 0121     		movs	r1, #1
 6566              	.LVL760:
 6567              		.loc 1 1970 0
 6568 0012 0446     		mov	r4, r0
 6569              		.loc 1 1977 0
 6570 0014 FFF7FEFF 		bl	VL53L0X_RdByte
 6571              	.LVL761:
 6572              		.loc 1 1980 0
 6573 0018 9DF80330 		ldrb	r3, [sp, #3]	@ zero_extendqisi2
 6574              		.loc 1 1978 0
 6575 001c ADB9     		cbnz	r5, .L687
 6576              		.loc 1 1980 0
 6577 001e 03F07F03 		and	r3, r3, #127
 6578              	.LVL762:
 6579              	.L688:
 6580              		.loc 1 1988 0
 6581 0022 1A46     		mov	r2, r3
 6582 0024 0121     		movs	r1, #1
 6583 0026 2046     		mov	r0, r4
 6584 0028 8DF80330 		strb	r3, [sp, #3]
 6585              	.LVL763:
 6586 002c FFF7FEFF 		bl	VL53L0X_WrByte
 6587              	.LVL764:
 6588              		.loc 1 1990 0
 6589 0030 28B9     		cbnz	r0, .L689
 6590              		.loc 1 1991 0
 6591 0032 9DF80330 		ldrb	r3, [sp, #3]	@ zero_extendqisi2
 6592              		.loc 1 1992 0
 6593 0036 84F84C50 		strb	r5, [r4, #76]
 6594              		.loc 1 1991 0
 6595 003a 84F83031 		strb	r3, [r4, #304]
 6596              	.L689:
 6597              		.loc 1 1998 0
 6598 003e 019A     		ldr	r2, [sp, #4]
 6599 0040 3368     		ldr	r3, [r6]
 6600 0042 9A42     		cmp	r2, r3
 6601 0044 05D1     		bne	.L692
 6602 0046 02B0     		add	sp, sp, #8
 6603              		.cfi_remember_state
 6604              		.cfi_def_cfa_offset 16
 6605              		@ sp needed
 6606 0048 70BD     		pop	{r4, r5, r6, pc}
 6607              	.LVL765:
 6608              	.L687:
 6609              		.cfi_restore_state
 6610              		.loc 1 1985 0
 6611 004a 0125     		movs	r5, #1
 6612              		.loc 1 1984 0
ARM GAS  C:\Users\mathi\AppData\Local\Temp\ccw8i1Yt.s 			page 117


 6613 004c 43F08003 		orr	r3, r3, #128
 6614              	.LVL766:
 6615 0050 E7E7     		b	.L688
 6616              	.LVL767:
 6617              	.L692:
 6618              		.loc 1 1998 0
 6619 0052 FFF7FEFF 		bl	__stack_chk_fail
 6620              	.LVL768:
 6621              	.L694:
 6622 0056 00BF     		.align	2
 6623              	.L693:
 6624 0058 00000000 		.word	__stack_chk_guard
 6625              		.cfi_endproc
 6626              	.LFE65:
