ARM GAS  C:\Users\mathi\AppData\Local\Temp\ccVwcWGw.s 			page 1


   1              		.cpu cortex-m4
   2              		.eabi_attribute 27, 1
   3              		.eabi_attribute 28, 1
   4              		.eabi_attribute 20, 1
   5              		.eabi_attribute 21, 1
   6              		.eabi_attribute 23, 3
   7              		.eabi_attribute 24, 1
   8              		.eabi_attribute 25, 1
   9              		.eabi_attribute 26, 1
  10              		.eabi_attribute 30, 2
  11              		.eabi_attribute 34, 1
  12              		.eabi_attribute 18, 4
  13              		.file	"vl53l0x_api_calibration.c"
  14              		.text
  15              	.Ltext0:
  16              		.cfi_sections	.debug_frame
  17              		.section	.text.enable_ref_spads.constprop.1,"ax",%progbits
  18              		.align	1
  19              		.p2align 4,,15
  20              		.syntax unified
  21              		.thumb
  22              		.thumb_func
  23              		.fpu fpv4-sp-d16
  24              		.type	enable_ref_spads.constprop.1, %function
  25              	enable_ref_spads.constprop.1:
  26              	.LFB27:
  27              		.file 1 "../../lib/e-puck2_main-processor/src/sensors/VL53L0X/Api/core/src/vl53l0x_api_calibration
  28              		.loc 1 556 0
  29              		.cfi_startproc
  30              		@ args = 12, pretend = 0, frame = 32
  31              		@ frame_needed = 0, uses_anonymous_args = 0
  32              	.LVL0:
  33 0000 2DE9F04F 		push	{r4, r5, r6, r7, r8, r9, r10, fp, lr}
  34              		.cfi_def_cfa_offset 36
  35              		.cfi_offset 4, -36
  36              		.cfi_offset 5, -32
  37              		.cfi_offset 6, -28
  38              		.cfi_offset 7, -24
  39              		.cfi_offset 8, -20
  40              		.cfi_offset 9, -16
  41              		.cfi_offset 10, -12
  42              		.cfi_offset 11, -8
  43              		.cfi_offset 14, -4
  44 0004 89B0     		sub	sp, sp, #36
  45              		.cfi_def_cfa_offset 72
  46              		.loc 1 556 0
  47 0006 644C     		ldr	r4, .L59
  48 0008 DDF84CB0 		ldr	fp, [sp, #76]
  49 000c 2468     		ldr	r4, [r4]
  50 000e 0794     		str	r4, [sp, #28]
  51              	.LVL1:
  52 0010 9846     		mov	r8, r3
  53 0012 149B     		ldr	r3, [sp, #80]
  54              	.LVL2:
  55 0014 0390     		str	r0, [sp, #12]
  56 0016 8E46     		mov	lr, r1
  57 0018 0092     		str	r2, [sp]
ARM GAS  C:\Users\mathi\AppData\Local\Temp\ccVwcWGw.s 			page 2


  58 001a 1299     		ldr	r1, [sp, #72]
  59              	.LVL3:
  60 001c 0293     		str	r3, [sp, #8]
  61              		.loc 1 584 0
  62 001e BBF1000F 		cmp	fp, #0
  63 0022 7FD0     		beq	.L2
  64              	.LVL4:
  65              	.LBB42:
  66              	.LBB43:
  67              		.loc 1 419 0
  68 0024 CF08     		lsrs	r7, r1, #3
  69              	.LVL5:
  70              		.loc 1 422 0
  71 0026 052F     		cmp	r7, #5
  72              		.loc 1 420 0
  73 0028 01F0070A 		and	r10, r1, #7
  74              	.LVL6:
  75              		.loc 1 422 0
  76 002c 69D8     		bhi	.L4
  77              	.LBE43:
  78              	.LBE42:
  79              	.LBB47:
  80              	.LBB48:
  81              		.loc 1 456 0
  82 002e DFF86CC1 		ldr	ip, .L59+4
  83              	.LBE48:
  84              	.LBE47:
  85              		.loc 1 584 0
  86 0032 4FF00009 		mov	r9, #0
  87              	.LVL7:
  88              	.L3:
  89 0036 009B     		ldr	r3, [sp]
  90 0038 7D1E     		subs	r5, r7, #1
  91 003a 1D44     		add	r5, r5, r3
  92              	.LBB50:
  93              	.LBB44:
  94              		.loc 1 441 0
  95 003c 3C46     		mov	r4, r7
  96              	.LVL8:
  97 003e 0AF10103 		add	r3, r10, #1
  98              		.loc 1 427 0
  99 0042 BC42     		cmp	r4, r7
 100              		.loc 1 441 0
 101 0044 0193     		str	r3, [sp, #4]
 102              		.loc 1 425 0
 103 0046 15F8013F 		ldrb	r3, [r5, #1]!	@ zero_extendqisi2
 104              	.LVL9:
 105              		.loc 1 427 0
 106 004a 2AD0     		beq	.L6
 107              	.LVL10:
 108              	.L56:
 109              		.loc 1 435 0
 110 004c 13F00100 		ands	r0, r3, #1
 111 0050 62D1     		bne	.L55
 112              		.loc 1 440 0
 113 0052 5E08     		lsrs	r6, r3, #1
 114              	.LVL11:
ARM GAS  C:\Users\mathi\AppData\Local\Temp\ccVwcWGw.s 			page 3


 115              		.loc 1 441 0
 116 0054 0122     		movs	r2, #1
 117              	.LVL12:
 118              	.L20:
 119              		.loc 1 435 0
 120 0056 F607     		lsls	r6, r6, #31
 121              	.LVL13:
 122 0058 30D4     		bmi	.L7
 123              	.LVL14:
 124              		.loc 1 441 0
 125 005a 821C     		adds	r2, r0, #2
 126              	.LVL15:
 127              		.loc 1 434 0
 128 005c 082A     		cmp	r2, #8
 129 005e 19D0     		beq	.L47
 130              		.loc 1 435 0
 131 0060 5E07     		lsls	r6, r3, #29
 132 0062 2BD4     		bmi	.L7
 133              	.LVL16:
 134              		.loc 1 441 0
 135 0064 C21C     		adds	r2, r0, #3
 136              	.LVL17:
 137              		.loc 1 434 0
 138 0066 082A     		cmp	r2, #8
 139 0068 14D0     		beq	.L47
 140              		.loc 1 435 0
 141 006a 1E07     		lsls	r6, r3, #28
 142 006c 26D4     		bmi	.L7
 143              	.LVL18:
 144              		.loc 1 441 0
 145 006e 021D     		adds	r2, r0, #4
 146              	.LVL19:
 147              		.loc 1 434 0
 148 0070 082A     		cmp	r2, #8
 149 0072 0FD0     		beq	.L47
 150              		.loc 1 435 0
 151 0074 DE06     		lsls	r6, r3, #27
 152 0076 21D4     		bmi	.L7
 153              	.LVL20:
 154              		.loc 1 441 0
 155 0078 421D     		adds	r2, r0, #5
 156              	.LVL21:
 157              		.loc 1 434 0
 158 007a 082A     		cmp	r2, #8
 159 007c 0AD0     		beq	.L47
 160              		.loc 1 435 0
 161 007e 9E06     		lsls	r6, r3, #26
 162 0080 1CD4     		bmi	.L7
 163              	.LVL22:
 164              		.loc 1 441 0
 165 0082 821D     		adds	r2, r0, #6
 166              	.LVL23:
 167              		.loc 1 434 0
 168 0084 082A     		cmp	r2, #8
 169 0086 05D0     		beq	.L47
 170              		.loc 1 435 0
 171 0088 5E06     		lsls	r6, r3, #25
ARM GAS  C:\Users\mathi\AppData\Local\Temp\ccVwcWGw.s 			page 4


 172 008a 17D4     		bmi	.L7
 173              		.loc 1 440 0
 174 008c DB09     		lsrs	r3, r3, #7
 175              	.LVL24:
 176              		.loc 1 434 0
 177 008e 08B9     		cbnz	r0, .L47
 178              		.loc 1 435 0
 179 0090 002B     		cmp	r3, #0
 180 0092 43D1     		bne	.L27
 181              	.LVL25:
 182              	.L47:
 183              		.loc 1 422 0
 184 0094 052C     		cmp	r4, #5
 185 0096 33D0     		beq	.L45
 186              	.LVL26:
 187 0098 0134     		adds	r4, r4, #1
 188              	.LVL27:
 189              		.loc 1 427 0
 190 009a BC42     		cmp	r4, r7
 191              		.loc 1 425 0
 192 009c 15F8013F 		ldrb	r3, [r5, #1]!	@ zero_extendqisi2
 193              	.LVL28:
 194              		.loc 1 427 0
 195 00a0 D4D1     		bne	.L56
 196              	.LVL29:
 197              	.L6:
 198              		.loc 1 430 0
 199 00a2 43FA0AF3 		asr	r3, r3, r10
 200              	.LVL30:
 201 00a6 DBB2     		uxtb	r3, r3
 202              	.LVL31:
 203              		.loc 1 435 0
 204 00a8 DA07     		lsls	r2, r3, #31
 205 00aa 06D4     		bmi	.L26
 206              	.LVL32:
 207              		.loc 1 434 0
 208 00ac 019A     		ldr	r2, [sp, #4]
 209 00ae 082A     		cmp	r2, #8
 210 00b0 F0D0     		beq	.L47
 211              		.loc 1 440 0
 212 00b2 5E08     		lsrs	r6, r3, #1
 213 00b4 5046     		mov	r0, r10
 214 00b6 019A     		ldr	r2, [sp, #4]
 215 00b8 CDE7     		b	.L20
 216              	.LVL33:
 217              	.L26:
 218              		.loc 1 435 0
 219 00ba 5246     		mov	r2, r10
 220              	.LVL34:
 221              	.L7:
 222              		.loc 1 437 0
 223 00bc 02EBC402 		add	r2, r2, r4, lsl #3
 224              	.LVL35:
 225              	.LBE44:
 226              	.LBE50:
 227              		.loc 1 594 0
 228 00c0 02F1B403 		add	r3, r2, #180
ARM GAS  C:\Users\mathi\AppData\Local\Temp\ccVwcWGw.s 			page 5


 229              	.LBB51:
 230              	.LBB49:
 231              		.loc 1 455 0
 232 00c4 9B09     		lsrs	r3, r3, #6
 233              		.loc 1 456 0
 234 00c6 5CF82330 		ldr	r3, [ip, r3, lsl #2]
 235              	.LBE49:
 236              	.LBE51:
 237              		.loc 1 594 0
 238 00ca 0033     		adds	r3, r3, #0
 239 00cc 18BF     		it	ne
 240 00ce 0123     		movne	r3, #1
 241 00d0 7345     		cmp	r3, lr
 242 00d2 15D1     		bne	.L45
 243              	.LVL36:
 244              	.LBB52:
 245              	.LBB53:
 246              		.loc 1 471 0
 247 00d4 D108     		lsrs	r1, r2, #3
 248              	.LVL37:
 249              		.loc 1 476 0
 250 00d6 0124     		movs	r4, #1
 251 00d8 18F80100 		ldrb	r0, [r8, r1]	@ zero_extendqisi2
 252              		.loc 1 472 0
 253 00dc 02F00703 		and	r3, r2, #7
 254              	.LVL38:
 255              		.loc 1 476 0
 256 00e0 04FA03F3 		lsl	r3, r4, r3
 257              	.LVL39:
 258              	.LBE53:
 259              	.LBE52:
 260              		.loc 1 584 0
 261 00e4 A144     		add	r9, r9, r4
 262              	.LVL40:
 263              	.LBB56:
 264              	.LBB54:
 265              		.loc 1 476 0
 266 00e6 0343     		orrs	r3, r3, r0
 267              	.LBE54:
 268              	.LBE56:
 269              		.loc 1 584 0
 270 00e8 D945     		cmp	r9, fp
 271              	.LBB57:
 272              	.LBB55:
 273              		.loc 1 476 0
 274 00ea 08F80130 		strb	r3, [r8, r1]
 275              	.LVL41:
 276              	.LBE55:
 277              	.LBE57:
 278              		.loc 1 603 0
 279 00ee 02EB0401 		add	r1, r2, r4
 280              	.LVL42:
 281              		.loc 1 584 0
 282 00f2 15D0     		beq	.L57
 283              	.LVL43:
 284              	.LBB58:
 285              	.LBB45:
ARM GAS  C:\Users\mathi\AppData\Local\Temp\ccVwcWGw.s 			page 6


 286              		.loc 1 419 0
 287 00f4 CF08     		lsrs	r7, r1, #3
 288              	.LVL44:
 289              		.loc 1 422 0
 290 00f6 062F     		cmp	r7, #6
 291              		.loc 1 420 0
 292 00f8 01F0070A 		and	r10, r1, #7
 293              	.LVL45:
 294              		.loc 1 422 0
 295 00fc 9BD1     		bne	.L3
 296 00fe 3021     		movs	r1, #48
 297              	.LVL46:
 298              	.L45:
 299 0100 029B     		ldr	r3, [sp, #8]
 300              	.LVL47:
 301              	.L4:
 302              	.LBE45:
 303              	.LBE58:
 304              		.loc 1 605 0
 305 0102 1960     		str	r1, [r3]
 306 0104 6FF03100 		mvn	r0, #49
 307              	.LVL48:
 308              	.L19:
 309              		.loc 1 626 0
 310 0108 234B     		ldr	r3, .L59
 311 010a 079A     		ldr	r2, [sp, #28]
 312 010c 1B68     		ldr	r3, [r3]
 313 010e 9A42     		cmp	r2, r3
 314 0110 40D1     		bne	.L58
 315 0112 09B0     		add	sp, sp, #36
 316              		.cfi_remember_state
 317              		.cfi_def_cfa_offset 36
 318              	.LVL49:
 319              		@ sp needed
 320 0114 BDE8F08F 		pop	{r4, r5, r6, r7, r8, r9, r10, fp, pc}
 321              	.LVL50:
 322              	.L55:
 323              		.cfi_restore_state
 324              	.LBB59:
 325              	.LBB46:
 326              		.loc 1 424 0
 327 0118 0022     		movs	r2, #0
 328 011a CFE7     		b	.L7
 329              	.LVL51:
 330              	.L27:
 331              		.loc 1 435 0
 332 011c 0722     		movs	r2, #7
 333 011e CDE7     		b	.L7
 334              	.LVL52:
 335              	.L57:
 336 0120 DDE90230 		ldrd	r3, r0, [sp, #8]
 337              	.LVL53:
 338              	.L2:
 339              	.LBE46:
 340              	.LBE59:
 341              		.loc 1 605 0
 342 0124 1960     		str	r1, [r3]
ARM GAS  C:\Users\mathi\AppData\Local\Temp\ccVwcWGw.s 			page 7


 343              	.LVL54:
 344              	.LBB60:
 345              	.LBB61:
 346              		.loc 1 541 0
 347 0126 4246     		mov	r2, r8
 348 0128 0623     		movs	r3, #6
 349 012a B021     		movs	r1, #176
 350              	.LVL55:
 351 012c FFF7FEFF 		bl	VL53L0X_WriteMulti
 352              	.LVL56:
 353              	.LBE61:
 354              	.LBE60:
 355              		.loc 1 611 0
 356 0130 0028     		cmp	r0, #0
 357 0132 E9D1     		bne	.L19
 358              	.LVL57:
 359              	.LBB62:
 360              	.LBB63:
 361              		.loc 1 549 0
 362 0134 0623     		movs	r3, #6
 363 0136 05AA     		add	r2, sp, #20
 364              	.LVL58:
 365 0138 0398     		ldr	r0, [sp, #12]
 366              	.LVL59:
 367 013a B021     		movs	r1, #176
 368 013c FFF7FEFF 		bl	VL53L0X_ReadMulti
 369              	.LVL60:
 370              	.LBE63:
 371              	.LBE62:
 372              		.loc 1 618 0
 373 0140 9DF81420 		ldrb	r2, [sp, #20]	@ zero_extendqisi2
 374 0144 98F80030 		ldrb	r3, [r8]	@ zero_extendqisi2
 375 0148 9A42     		cmp	r2, r3
 376 014a 20D1     		bne	.L32
 377              	.LVL61:
 378 014c 9DF81520 		ldrb	r2, [sp, #21]	@ zero_extendqisi2
 379 0150 98F80130 		ldrb	r3, [r8, #1]	@ zero_extendqisi2
 380 0154 9A42     		cmp	r2, r3
 381 0156 1AD1     		bne	.L32
 382              	.LVL62:
 383 0158 9DF81620 		ldrb	r2, [sp, #22]	@ zero_extendqisi2
 384 015c 98F80230 		ldrb	r3, [r8, #2]	@ zero_extendqisi2
 385 0160 9A42     		cmp	r2, r3
 386 0162 14D1     		bne	.L32
 387              	.LVL63:
 388 0164 9DF81720 		ldrb	r2, [sp, #23]	@ zero_extendqisi2
 389 0168 98F80330 		ldrb	r3, [r8, #3]	@ zero_extendqisi2
 390 016c 9A42     		cmp	r2, r3
 391 016e 0ED1     		bne	.L32
 392              	.LVL64:
 393 0170 9DF81820 		ldrb	r2, [sp, #24]	@ zero_extendqisi2
 394 0174 98F80430 		ldrb	r3, [r8, #4]	@ zero_extendqisi2
 395 0178 9A42     		cmp	r2, r3
 396 017a 08D1     		bne	.L32
 397              	.LVL65:
 398 017c 98F80520 		ldrb	r2, [r8, #5]	@ zero_extendqisi2
 399 0180 9DF81930 		ldrb	r3, [sp, #25]	@ zero_extendqisi2
ARM GAS  C:\Users\mathi\AppData\Local\Temp\ccVwcWGw.s 			page 8


 400              		.loc 1 619 0
 401 0184 9A42     		cmp	r2, r3
 402 0186 18BF     		it	ne
 403 0188 6FF03100 		mvnne	r0, #49
 404 018c BCE7     		b	.L19
 405              	.LVL66:
 406              	.L32:
 407 018e 6FF03100 		mvn	r0, #49
 408 0192 B9E7     		b	.L19
 409              	.LVL67:
 410              	.L58:
 411              		.loc 1 626 0
 412 0194 FFF7FEFF 		bl	__stack_chk_fail
 413              	.LVL68:
 414              	.L60:
 415              		.align	2
 416              	.L59:
 417 0198 00000000 		.word	__stack_chk_guard
 418 019c 00000000 		.word	.LANCHOR0
 419              		.cfi_endproc
 420              	.LFE27:
 421              		.size	enable_ref_spads.constprop.1, .-enable_ref_spads.constprop.1
 422              		.section	.text.VL53L0X_perform_xtalk_calibration,"ax",%progbits
 423              		.align	1
 424              		.p2align 4,,15
 425              		.global	VL53L0X_perform_xtalk_calibration
 426              		.syntax unified
 427              		.thumb
 428              		.thumb_func
 429              		.fpu fpv4-sp-d16
 430              		.type	VL53L0X_perform_xtalk_calibration, %function
 431              	VL53L0X_perform_xtalk_calibration:
 432              	.LFB3:
 433              		.loc 1 54 0
 434              		.cfi_startproc
 435              		@ args = 0, pretend = 0, frame = 40
 436              		@ frame_needed = 0, uses_anonymous_args = 0
 437              	.LVL69:
 438 0000 2DE9F04F 		push	{r4, r5, r6, r7, r8, r9, r10, fp, lr}
 439              		.cfi_def_cfa_offset 36
 440              		.cfi_offset 4, -36
 441              		.cfi_offset 5, -32
 442              		.cfi_offset 6, -28
 443              		.cfi_offset 7, -24
 444              		.cfi_offset 8, -20
 445              		.cfi_offset 9, -16
 446              		.cfi_offset 10, -12
 447              		.cfi_offset 11, -8
 448              		.cfi_offset 14, -4
 449 0004 DFF8EC90 		ldr	r9, .L86
 450 0008 8BB0     		sub	sp, sp, #44
 451              		.cfi_def_cfa_offset 80
 452              		.loc 1 54 0
 453 000a D9F80030 		ldr	r3, [r9]
 454 000e 0993     		str	r3, [sp, #36]
 455              	.LVL70:
 456 0010 0192     		str	r2, [sp, #4]
ARM GAS  C:\Users\mathi\AppData\Local\Temp\ccVwcWGw.s 			page 9


 457              		.loc 1 70 0
 458 0012 49B9     		cbnz	r1, .L81
 459              		.loc 1 71 0
 460 0014 6FF00300 		mvn	r0, #3
 461              	.LVL71:
 462              	.L62:
 463              		.loc 1 188 0
 464 0018 099A     		ldr	r2, [sp, #36]
 465 001a D9F80030 		ldr	r3, [r9]
 466 001e 9A42     		cmp	r2, r3
 467 0020 66D1     		bne	.L82
 468 0022 0BB0     		add	sp, sp, #44
 469              		.cfi_remember_state
 470              		.cfi_def_cfa_offset 36
 471              		@ sp needed
 472 0024 BDE8F08F 		pop	{r4, r5, r6, r7, r8, r9, r10, fp, pc}
 473              	.LVL72:
 474              	.L81:
 475              		.cfi_restore_state
 476 0028 8A46     		mov	r10, r1
 477              		.loc 1 75 0
 478 002a 0021     		movs	r1, #0
 479              	.LVL73:
 480 002c 0646     		mov	r6, r0
 481 002e FFF7FEFF 		bl	VL53L0X_SetXTalkCompensationEnable
 482              	.LVL74:
 483              		.loc 1 78 0
 484 0032 0028     		cmp	r0, #0
 485 0034 F0D1     		bne	.L62
 486              		.loc 1 79 0
 487 0036 0246     		mov	r2, r0
 488 0038 0321     		movs	r1, #3
 489 003a 3046     		mov	r0, r6
 490              	.LVL75:
 491 003c FFF7FEFF 		bl	VL53L0X_SetLimitCheckEnable
 492              	.LVL76:
 493              		.loc 1 84 0
 494 0040 0028     		cmp	r0, #0
 495 0042 E9D1     		bne	.L62
 496              		.loc 1 88 0
 497 0044 0546     		mov	r5, r0
 498              		.loc 1 87 0
 499 0046 8046     		mov	r8, r0
 500              		.loc 1 86 0
 501 0048 0446     		mov	r4, r0
 502              		.loc 1 85 0
 503 004a 0746     		mov	r7, r0
 504 004c 4FF0320B 		mov	fp, #50
 505 0050 13E0     		b	.L65
 506              	.LVL77:
 507              	.L84:
 508              		.loc 1 97 0
 509 0052 9DF82020 		ldrb	r2, [sp, #32]	@ zero_extendqisi2
 510 0056 5AB9     		cbnz	r2, .L64
 511              		.loc 1 98 0
 512 0058 BDF81000 		ldrh	r0, [sp, #16]
 513              	.LVL78:
ARM GAS  C:\Users\mathi\AppData\Local\Temp\ccVwcWGw.s 			page 10


 514              		.loc 1 102 0
 515 005c BDF81C20 		ldrh	r2, [sp, #28]
 516              		.loc 1 100 0
 517 0060 0599     		ldr	r1, [sp, #20]
 518              		.loc 1 98 0
 519 0062 0744     		add	r7, r7, r0
 520              	.LVL79:
 521              		.loc 1 102 0
 522 0064 04EB1224 		add	r4, r4, r2, lsr #8
 523              	.LVL80:
 524              		.loc 1 105 0
 525 0068 0135     		adds	r5, r5, #1
 526              	.LVL81:
 527              		.loc 1 98 0
 528 006a BFB2     		uxth	r7, r7
 529              	.LVL82:
 530              		.loc 1 102 0
 531 006c A4B2     		uxth	r4, r4
 532              		.loc 1 100 0
 533 006e 8844     		add	r8, r8, r1
 534              	.LVL83:
 535              	.L64:
 536 0070 0BF1FF31 		add	r1, fp, #-1
 537              		.loc 1 89 0 discriminator 2
 538 0074 11F0FF0B 		ands	fp, r1, #255
 539 0078 0AD0     		beq	.L83
 540              	.LVL84:
 541              	.L65:
 542              		.loc 1 90 0
 543 007a 02A9     		add	r1, sp, #8
 544 007c 3046     		mov	r0, r6
 545 007e FFF7FEFF 		bl	VL53L0X_PerformSingleRangingMeasurement
 546              	.LVL85:
 547              		.loc 1 93 0
 548 0082 0028     		cmp	r0, #0
 549 0084 E5D0     		beq	.L84
 550              		.loc 1 111 0
 551 0086 002D     		cmp	r5, #0
 552 0088 08BF     		it	eq
 553 008a 6FF00500 		mvneq	r0, #5
 554              	.LVL86:
 555 008e C3E7     		b	.L62
 556              	.LVL87:
 557              	.L83:
 558              		.loc 1 110 0
 559 0090 15B9     		cbnz	r5, .L85
 560              		.loc 1 111 0
 561 0092 6FF00500 		mvn	r0, #5
 562 0096 BFE7     		b	.L62
 563              	.L85:
 564              	.LVL88:
 565              		.loc 1 122 0
 566 0098 2404     		lsls	r4, r4, #16
 567              	.LVL89:
 568              		.loc 1 121 0
 569 009a B4FBF5F4 		udiv	r4, r4, r5
 570              		.loc 1 135 0
ARM GAS  C:\Users\mathi\AppData\Local\Temp\ccVwcWGw.s 			page 11


 571 009e 04F50044 		add	r4, r4, #32768
 572              	.LVL90:
 573              		.loc 1 143 0
 574 00a2 240C     		lsrs	r4, r4, #16
 575              	.LVL91:
 576 00a4 22D0     		beq	.L74
 577              		.loc 1 141 0 discriminator 1
 578 00a6 0AF50042 		add	r2, r10, #32768
 579              	.LVL92:
 580              		.loc 1 143 0 discriminator 1
 581 00aa 120C     		lsrs	r2, r2, #16
 582              	.LVL93:
 583 00ac 1ED0     		beq	.L74
 584              		.loc 1 120 0
 585 00ae 3F04     		lsls	r7, r7, #16
 586              	.LVL94:
 587              		.loc 1 119 0
 588 00b0 B7FBF5F7 		udiv	r7, r7, r5
 589              		.loc 1 144 0
 590 00b4 BA45     		cmp	r10, r7
 591 00b6 19D9     		bls	.L74
 592              		.loc 1 167 0
 593 00b8 B7FBF2F2 		udiv	r2, r7, r2
 594              		.loc 1 118 0
 595 00bc B8FBF5F3 		udiv	r3, r8, r5
 596              	.LVL95:
 597              		.loc 1 166 0
 598 00c0 C2F58032 		rsb	r2, r2, #65536
 599              		.loc 1 158 0
 600 00c4 B3FBF4F3 		udiv	r3, r3, r4
 601              	.LVL96:
 602              		.loc 1 166 0
 603 00c8 03FB02F3 		mul	r3, r3, r2
 604              	.LVL97:
 605              		.loc 1 171 0
 606 00cc 03F50043 		add	r3, r3, #32768
 607              		.loc 1 170 0
 608 00d0 1C0C     		lsrs	r4, r3, #16
 609              	.LVL98:
 610              	.L67:
 611              		.loc 1 174 0
 612 00d2 019B     		ldr	r3, [sp, #4]
 613              		.loc 1 178 0
 614 00d4 0121     		movs	r1, #1
 615              		.loc 1 174 0
 616 00d6 1C60     		str	r4, [r3]
 617              		.loc 1 178 0
 618 00d8 3046     		mov	r0, r6
 619 00da FFF7FEFF 		bl	VL53L0X_SetXTalkCompensationEnable
 620              	.LVL99:
 621              		.loc 1 181 0
 622 00de 0028     		cmp	r0, #0
 623 00e0 9AD1     		bne	.L62
 624              		.loc 1 182 0
 625 00e2 2146     		mov	r1, r4
 626 00e4 3046     		mov	r0, r6
 627              	.LVL100:
ARM GAS  C:\Users\mathi\AppData\Local\Temp\ccVwcWGw.s 			page 12


 628 00e6 FFF7FEFF 		bl	VL53L0X_SetXTalkCompensationRateMegaCps
 629              	.LVL101:
 630 00ea 95E7     		b	.L62
 631              	.LVL102:
 632              	.L74:
 633              		.loc 1 146 0
 634 00ec 5C46     		mov	r4, fp
 635              	.LVL103:
 636 00ee F0E7     		b	.L67
 637              	.LVL104:
 638              	.L82:
 639              		.loc 1 188 0
 640 00f0 FFF7FEFF 		bl	__stack_chk_fail
 641              	.LVL105:
 642              	.L87:
 643              		.align	2
 644              	.L86:
 645 00f4 00000000 		.word	__stack_chk_guard
 646              		.cfi_endproc
 647              	.LFE3:
 648              		.size	VL53L0X_perform_xtalk_calibration, .-VL53L0X_perform_xtalk_calibration
 649              		.section	.text.VL53L0X_perform_offset_calibration,"ax",%progbits
 650              		.align	1
 651              		.p2align 4,,15
 652              		.global	VL53L0X_perform_offset_calibration
 653              		.syntax unified
 654              		.thumb
 655              		.thumb_func
 656              		.fpu fpv4-sp-d16
 657              		.type	VL53L0X_perform_offset_calibration, %function
 658              	VL53L0X_perform_offset_calibration:
 659              	.LFB4:
 660              		.loc 1 193 0
 661              		.cfi_startproc
 662              		@ args = 0, pretend = 0, frame = 40
 663              		@ frame_needed = 0, uses_anonymous_args = 0
 664              	.LVL106:
 665 0000 2DE9F047 		push	{r4, r5, r6, r7, r8, r9, r10, lr}
 666              		.cfi_def_cfa_offset 32
 667              		.cfi_offset 4, -32
 668              		.cfi_offset 5, -28
 669              		.cfi_offset 6, -24
 670              		.cfi_offset 7, -20
 671              		.cfi_offset 8, -16
 672              		.cfi_offset 9, -12
 673              		.cfi_offset 10, -8
 674              		.cfi_offset 14, -4
 675 0004 374F     		ldr	r7, .L111
 676 0006 8AB0     		sub	sp, sp, #40
 677              		.cfi_def_cfa_offset 72
 678              		.loc 1 193 0
 679 0008 3B68     		ldr	r3, [r7]
 680 000a 0993     		str	r3, [sp, #36]
 681              	.LVL107:
 682              		.loc 1 204 0
 683 000c 41B9     		cbnz	r1, .L106
 684              		.loc 1 205 0
ARM GAS  C:\Users\mathi\AppData\Local\Temp\ccVwcWGw.s 			page 13


 685 000e 6FF00300 		mvn	r0, #3
 686              	.LVL108:
 687              	.L89:
 688              		.loc 1 286 0
 689 0012 099A     		ldr	r2, [sp, #36]
 690 0014 3B68     		ldr	r3, [r7]
 691 0016 9A42     		cmp	r2, r3
 692 0018 61D1     		bne	.L107
 693 001a 0AB0     		add	sp, sp, #40
 694              		.cfi_remember_state
 695              		.cfi_def_cfa_offset 32
 696              		@ sp needed
 697 001c BDE8F087 		pop	{r4, r5, r6, r7, r8, r9, r10, pc}
 698              	.LVL109:
 699              	.L106:
 700              		.cfi_restore_state
 701 0020 8846     		mov	r8, r1
 702              		.loc 1 208 0
 703 0022 0021     		movs	r1, #0
 704              	.LVL110:
 705 0024 9146     		mov	r9, r2
 706 0026 0546     		mov	r5, r0
 707 0028 FFF7FEFF 		bl	VL53L0X_SetOffsetCalibrationDataMicroMeter
 708              	.LVL111:
 709              		.loc 1 212 0
 710 002c 0028     		cmp	r0, #0
 711 002e F0D1     		bne	.L89
 712              		.loc 1 213 0
 713 0030 0146     		mov	r1, r0
 714 0032 0DF10702 		add	r2, sp, #7
 715 0036 2846     		mov	r0, r5
 716              	.LVL112:
 717 0038 FFF7FEFF 		bl	VL53L0X_GetSequenceStepEnable
 718              	.LVL113:
 719              		.loc 1 218 0
 720 003c 0028     		cmp	r0, #0
 721 003e E8D1     		bne	.L89
 722              		.loc 1 219 0
 723 0040 0246     		mov	r2, r0
 724 0042 0146     		mov	r1, r0
 725 0044 2846     		mov	r0, r5
 726              	.LVL114:
 727 0046 FFF7FEFF 		bl	VL53L0X_SetSequenceStepEnable
 728              	.LVL115:
 729              		.loc 1 224 0
 730 004a 0028     		cmp	r0, #0
 731 004c E1D1     		bne	.L89
 732              		.loc 1 225 0
 733 004e 0246     		mov	r2, r0
 734 0050 0321     		movs	r1, #3
 735 0052 2846     		mov	r0, r5
 736              	.LVL116:
 737 0054 FFF7FEFF 		bl	VL53L0X_SetLimitCheckEnable
 738              	.LVL117:
 739              		.loc 1 229 0
 740 0058 0028     		cmp	r0, #0
 741 005a DAD1     		bne	.L89
ARM GAS  C:\Users\mathi\AppData\Local\Temp\ccVwcWGw.s 			page 14


 742              		.loc 1 231 0
 743 005c 0646     		mov	r6, r0
 744              		.loc 1 230 0
 745 005e 8246     		mov	r10, r0
 746 0060 3224     		movs	r4, #50
 747 0062 0AE0     		b	.L92
 748              	.LVL118:
 749              	.L109:
 750              		.loc 1 240 0
 751 0064 9DF82030 		ldrb	r3, [sp, #32]	@ zero_extendqisi2
 752 0068 2BB9     		cbnz	r3, .L91
 753              		.loc 1 241 0
 754 006a BDF81030 		ldrh	r3, [sp, #16]
 755 006e 5344     		add	r3, r3, r10
 756              		.loc 1 243 0
 757 0070 0136     		adds	r6, r6, #1
 758              	.LVL119:
 759              		.loc 1 241 0
 760 0072 1FFA83FA 		uxth	r10, r3
 761              	.LVL120:
 762              	.L91:
 763              		.loc 1 232 0 discriminator 2
 764 0076 013C     		subs	r4, r4, #1
 765 0078 0AD0     		beq	.L108
 766              	.LVL121:
 767              	.L92:
 768              		.loc 1 233 0
 769 007a 02A9     		add	r1, sp, #8
 770 007c 2846     		mov	r0, r5
 771 007e FFF7FEFF 		bl	VL53L0X_PerformSingleRangingMeasurement
 772              	.LVL122:
 773              		.loc 1 236 0
 774 0082 0028     		cmp	r0, #0
 775 0084 EED0     		beq	.L109
 776              		.loc 1 249 0
 777 0086 002E     		cmp	r6, #0
 778 0088 08BF     		it	eq
 779 008a 6FF00500 		mvneq	r0, #5
 780              	.LVL123:
 781 008e C0E7     		b	.L89
 782              	.LVL124:
 783              	.L108:
 784              		.loc 1 248 0
 785 0090 16B3     		cbz	r6, .L110
 786              	.LVL125:
 787              		.loc 1 255 0
 788 0092 4FEA0A43 		lsl	r3, r10, #16
 789 0096 B3FBF6F3 		udiv	r3, r3, r6
 790              		.loc 1 258 0
 791 009a 03F50043 		add	r3, r3, #32768
 792 009e 1B0C     		lsrs	r3, r3, #16
 793              		.loc 1 263 0
 794 00a0 08F50048 		add	r8, r8, #32768
 795              	.LVL126:
 796              		.loc 1 265 0
 797 00a4 C3EB1848 		rsb	r8, r3, r8, lsr #16
 798              	.LVL127:
ARM GAS  C:\Users\mathi\AppData\Local\Temp\ccVwcWGw.s 			page 15


 799              		.loc 1 266 0
 800 00a8 4FF47A73 		mov	r3, #1000
 801 00ac 03FB08F3 		mul	r3, r3, r8
 802              		.loc 1 265 0
 803 00b0 C9F80030 		str	r3, [r9]
 804              		.loc 1 270 0
 805 00b4 6B62     		str	r3, [r5, #36]
 806              		.loc 1 272 0
 807 00b6 D9F80010 		ldr	r1, [r9]
 808 00ba 2846     		mov	r0, r5
 809 00bc FFF7FEFF 		bl	VL53L0X_SetOffsetCalibrationDataMicroMeter
 810              	.LVL128:
 811              		.loc 1 279 0
 812 00c0 0028     		cmp	r0, #0
 813 00c2 A6D1     		bne	.L89
 814              		.loc 1 280 0
 815 00c4 9DF80730 		ldrb	r3, [sp, #7]	@ zero_extendqisi2
 816 00c8 002B     		cmp	r3, #0
 817 00ca A2D0     		beq	.L89
 818              		.loc 1 281 0
 819 00cc 2146     		mov	r1, r4
 820 00ce 2846     		mov	r0, r5
 821              	.LVL129:
 822 00d0 0122     		movs	r2, #1
 823 00d2 FFF7FEFF 		bl	VL53L0X_SetSequenceStepEnable
 824              	.LVL130:
 825 00d6 9CE7     		b	.L89
 826              	.LVL131:
 827              	.L110:
 828              		.loc 1 249 0
 829 00d8 6FF00500 		mvn	r0, #5
 830 00dc 99E7     		b	.L89
 831              	.LVL132:
 832              	.L107:
 833              		.loc 1 286 0
 834 00de FFF7FEFF 		bl	__stack_chk_fail
 835              	.LVL133:
 836              	.L112:
 837 00e2 00BF     		.align	2
 838              	.L111:
 839 00e4 00000000 		.word	__stack_chk_guard
 840              		.cfi_endproc
 841              	.LFE4:
 842              		.size	VL53L0X_perform_offset_calibration, .-VL53L0X_perform_offset_calibration
 843              		.section	.text.VL53L0X_set_offset_calibration_data_micro_meter,"ax",%progbits
 844              		.align	1
 845              		.p2align 4,,15
 846              		.global	VL53L0X_set_offset_calibration_data_micro_meter
 847              		.syntax unified
 848              		.thumb
 849              		.thumb_func
 850              		.fpu fpv4-sp-d16
 851              		.type	VL53L0X_set_offset_calibration_data_micro_meter, %function
 852              	VL53L0X_set_offset_calibration_data_micro_meter:
 853              	.LFB5:
 854              		.loc 1 291 0
 855              		.cfi_startproc
ARM GAS  C:\Users\mathi\AppData\Local\Temp\ccVwcWGw.s 			page 16


 856              		@ args = 0, pretend = 0, frame = 8
 857              		@ frame_needed = 0, uses_anonymous_args = 0
 858              	.LVL134:
 859 0000 10B5     		push	{r4, lr}
 860              		.cfi_def_cfa_offset 8
 861              		.cfi_offset 4, -8
 862              		.cfi_offset 14, -4
 863 0002 134B     		ldr	r3, .L124
 864              		.loc 1 300 0
 865 0004 134A     		ldr	r2, .L124+4
 866              		.loc 1 291 0
 867 0006 1C68     		ldr	r4, [r3]
 868 0008 82B0     		sub	sp, sp, #8
 869              		.cfi_def_cfa_offset 16
 870              		.loc 1 300 0
 871 000a 9142     		cmp	r1, r2
 872              		.loc 1 291 0
 873 000c 0194     		str	r4, [sp, #4]
 874              	.LVL135:
 875              		.loc 1 300 0
 876 000e 1ADC     		bgt	.L120
 877              		.loc 1 302 0
 878 0010 11F5FA2F 		cmn	r1, #512000
 879 0014 14DB     		blt	.L121
 880 0016 104C     		ldr	r4, .L124+8
 881 0018 CA17     		asrs	r2, r1, #31
 882 001a 84FB01C4 		smull	ip, r4, r4, r1
 883 001e C2EB2412 		rsb	r2, r2, r4, asr #4
 884              		.loc 1 309 0
 885 0022 0029     		cmp	r1, #0
 886 0024 B8BF     		it	lt
 887 0026 02F58052 		addlt	r2, r2, #4096
 888 002a 92B2     		uxth	r2, r2
 889              	.L117:
 890              		.loc 1 318 0
 891 002c 0199     		ldr	r1, [sp, #4]
 892              	.LVL136:
 893 002e 1B68     		ldr	r3, [r3]
 894 0030 9942     		cmp	r1, r3
 895 0032 0BD1     		bne	.L123
 896 0034 2821     		movs	r1, #40
 897              		.loc 1 324 0
 898 0036 02B0     		add	sp, sp, #8
 899              		.cfi_remember_state
 900              		.cfi_def_cfa_offset 8
 901              		@ sp needed
 902 0038 BDE81040 		pop	{r4, lr}
 903              		.cfi_restore 14
 904              		.cfi_restore 4
 905              		.cfi_def_cfa_offset 0
 906              		.loc 1 318 0
 907 003c FFF7FEBF 		b	VL53L0X_WrWord
 908              	.LVL137:
 909              	.L121:
 910              		.cfi_restore_state
 911 0040 4FF40062 		mov	r2, #2048
 912              	.LVL138:
ARM GAS  C:\Users\mathi\AppData\Local\Temp\ccVwcWGw.s 			page 17


 913 0044 F2E7     		b	.L117
 914              	.L120:
 915 0046 40F2FC72 		movw	r2, #2044
 916 004a EFE7     		b	.L117
 917              	.LVL139:
 918              	.L123:
 919 004c FFF7FEFF 		bl	__stack_chk_fail
 920              	.LVL140:
 921              	.L125:
 922              		.align	2
 923              	.L124:
 924 0050 00000000 		.word	__stack_chk_guard
 925 0054 18CC0700 		.word	511000
 926 0058 D34D6210 		.word	274877907
 927              		.cfi_endproc
 928              	.LFE5:
 929              		.size	VL53L0X_set_offset_calibration_data_micro_meter, .-VL53L0X_set_offset_calibration_data_micro
 930              		.section	.text.VL53L0X_get_offset_calibration_data_micro_meter,"ax",%progbits
 931              		.align	1
 932              		.p2align 4,,15
 933              		.global	VL53L0X_get_offset_calibration_data_micro_meter
 934              		.syntax unified
 935              		.thumb
 936              		.thumb_func
 937              		.fpu fpv4-sp-d16
 938              		.type	VL53L0X_get_offset_calibration_data_micro_meter, %function
 939              	VL53L0X_get_offset_calibration_data_micro_meter:
 940              	.LFB6:
 941              		.loc 1 328 0
 942              		.cfi_startproc
 943              		@ args = 0, pretend = 0, frame = 8
 944              		@ frame_needed = 0, uses_anonymous_args = 0
 945              	.LVL141:
 946 0000 30B5     		push	{r4, r5, lr}
 947              		.cfi_def_cfa_offset 12
 948              		.cfi_offset 4, -12
 949              		.cfi_offset 5, -8
 950              		.cfi_offset 14, -4
 951 0002 134C     		ldr	r4, .L133
 952 0004 83B0     		sub	sp, sp, #12
 953              		.cfi_def_cfa_offset 24
 954              		.loc 1 328 0
 955 0006 0D46     		mov	r5, r1
 956 0008 2368     		ldr	r3, [r4]
 957 000a 0193     		str	r3, [sp, #4]
 958              	.LVL142:
 959              		.loc 1 336 0
 960 000c 0DF10202 		add	r2, sp, #2
 961 0010 2821     		movs	r1, #40
 962              	.LVL143:
 963 0012 FFF7FEFF 		bl	VL53L0X_RdWord
 964              	.LVL144:
 965              		.loc 1 340 0
 966 0016 50B9     		cbnz	r0, .L127
 967              		.loc 1 341 0
 968 0018 BDF80230 		ldrh	r3, [sp, #2]
 969 001c C3F30B03 		ubfx	r3, r3, #0, #12
ARM GAS  C:\Users\mathi\AppData\Local\Temp\ccVwcWGw.s 			page 18


 970              	.LVL145:
 971              		.loc 1 344 0
 972 0020 B3F5006F 		cmp	r3, #2048
 973 0024 09D2     		bcs	.L131
 974              		.loc 1 350 0
 975 0026 FA22     		movs	r2, #250
 976 0028 02FB03F3 		mul	r3, r2, r3
 977              	.LVL146:
 978              		.loc 1 349 0
 979 002c 2B60     		str	r3, [r5]
 980              	.LVL147:
 981              	.L127:
 982              		.loc 1 355 0
 983 002e 019A     		ldr	r2, [sp, #4]
 984 0030 2368     		ldr	r3, [r4]
 985 0032 9A42     		cmp	r2, r3
 986 0034 0AD1     		bne	.L132
 987 0036 03B0     		add	sp, sp, #12
 988              		.cfi_remember_state
 989              		.cfi_def_cfa_offset 12
 990              		@ sp needed
 991 0038 30BD     		pop	{r4, r5, pc}
 992              	.LVL148:
 993              	.L131:
 994              		.cfi_restore_state
 995              		.loc 1 346 0
 996 003a A3F58053 		sub	r3, r3, #4096
 997              	.LVL149:
 998              		.loc 1 347 0
 999 003e C3EB4312 		rsb	r2, r3, r3, lsl #5
 1000 0042 03EB8203 		add	r3, r3, r2, lsl #2
 1001              	.LVL150:
 1002 0046 5B00     		lsls	r3, r3, #1
 1003              		.loc 1 345 0
 1004 0048 2B60     		str	r3, [r5]
 1005 004a F0E7     		b	.L127
 1006              	.LVL151:
 1007              	.L132:
 1008              		.loc 1 355 0
 1009 004c FFF7FEFF 		bl	__stack_chk_fail
 1010              	.LVL152:
 1011              	.L134:
 1012              		.align	2
 1013              	.L133:
 1014 0050 00000000 		.word	__stack_chk_guard
 1015              		.cfi_endproc
 1016              	.LFE6:
 1017              		.size	VL53L0X_get_offset_calibration_data_micro_meter, .-VL53L0X_get_offset_calibration_data_micro
 1018              		.section	.text.VL53L0X_apply_offset_adjustment,"ax",%progbits
 1019              		.align	1
 1020              		.p2align 4,,15
 1021              		.global	VL53L0X_apply_offset_adjustment
 1022              		.syntax unified
 1023              		.thumb
 1024              		.thumb_func
 1025              		.fpu fpv4-sp-d16
 1026              		.type	VL53L0X_apply_offset_adjustment, %function
ARM GAS  C:\Users\mathi\AppData\Local\Temp\ccVwcWGw.s 			page 19


 1027              	VL53L0X_apply_offset_adjustment:
 1028              	.LFB7:
 1029              		.loc 1 359 0
 1030              		.cfi_startproc
 1031              		@ args = 0, pretend = 0, frame = 8
 1032              		@ frame_needed = 0, uses_anonymous_args = 0
 1033              	.LVL153:
 1034 0000 70B5     		push	{r4, r5, r6, lr}
 1035              		.cfi_def_cfa_offset 16
 1036              		.cfi_offset 4, -16
 1037              		.cfi_offset 5, -12
 1038              		.cfi_offset 6, -8
 1039              		.cfi_offset 14, -4
 1040 0002 114C     		ldr	r4, .L141
 1041 0004 82B0     		sub	sp, sp, #8
 1042              		.cfi_def_cfa_offset 24
 1043              		.loc 1 359 0
 1044 0006 2368     		ldr	r3, [r4]
 1045 0008 0193     		str	r3, [sp, #4]
 1046              	.LVL154:
 1047              		.loc 1 366 0
 1048 000a 0721     		movs	r1, #7
 1049              		.loc 1 359 0
 1050 000c 0546     		mov	r5, r0
 1051              		.loc 1 366 0
 1052 000e FFF7FEFF 		bl	VL53L0X_get_info_from_device
 1053              	.LVL155:
 1054              		.loc 1 369 0
 1055 0012 28B1     		cbz	r0, .L139
 1056              	.L136:
 1057              		.loc 1 396 0
 1058 0014 019A     		ldr	r2, [sp, #4]
 1059 0016 2368     		ldr	r3, [r4]
 1060 0018 9A42     		cmp	r2, r3
 1061 001a 13D1     		bne	.L140
 1062 001c 02B0     		add	sp, sp, #8
 1063              		.cfi_remember_state
 1064              		.cfi_def_cfa_offset 16
 1065              		@ sp needed
 1066 001e 70BD     		pop	{r4, r5, r6, pc}
 1067              	.LVL156:
 1068              	.L139:
 1069              		.cfi_restore_state
 1070              		.loc 1 370 0
 1071 0020 6946     		mov	r1, sp
 1072 0022 2846     		mov	r0, r5
 1073              	.LVL157:
 1074 0024 FFF7FEFF 		bl	VL53L0X_GetOffsetCalibrationDataMicroMeter
 1075              	.LVL158:
 1076              		.loc 1 375 0
 1077 0028 0028     		cmp	r0, #0
 1078 002a F3D1     		bne	.L136
 1079              		.loc 1 378 0
 1080 002c 009B     		ldr	r3, [sp]
 1081              		.loc 1 381 0
 1082 002e EE68     		ldr	r6, [r5, #12]
 1083              		.loc 1 378 0
ARM GAS  C:\Users\mathi\AppData\Local\Temp\ccVwcWGw.s 			page 20


 1084 0030 AB60     		str	r3, [r5, #8]
 1085              		.loc 1 381 0
 1086 0032 1E44     		add	r6, r6, r3
 1087              	.LVL159:
 1088              		.loc 1 385 0
 1089 0034 3146     		mov	r1, r6
 1090 0036 2846     		mov	r0, r5
 1091              	.LVL160:
 1092 0038 FFF7FEFF 		bl	VL53L0X_SetOffsetCalibrationDataMicroMeter
 1093              	.LVL161:
 1094              		.loc 1 389 0
 1095 003c 0028     		cmp	r0, #0
 1096 003e E9D1     		bne	.L136
 1097              		.loc 1 390 0
 1098 0040 6E62     		str	r6, [r5, #36]
 1099 0042 E7E7     		b	.L136
 1100              	.LVL162:
 1101              	.L140:
 1102              		.loc 1 396 0
 1103 0044 FFF7FEFF 		bl	__stack_chk_fail
 1104              	.LVL163:
 1105              	.L142:
 1106              		.align	2
 1107              	.L141:
 1108 0048 00000000 		.word	__stack_chk_guard
 1109              		.cfi_endproc
 1110              	.LFE7:
 1111              		.size	VL53L0X_apply_offset_adjustment, .-VL53L0X_apply_offset_adjustment
 1112              		.section	.text.get_next_good_spad,"ax",%progbits
 1113              		.align	1
 1114              		.p2align 4,,15
 1115              		.global	get_next_good_spad
 1116              		.syntax unified
 1117              		.thumb
 1118              		.thumb_func
 1119              		.fpu fpv4-sp-d16
 1120              		.type	get_next_good_spad, %function
 1121              	get_next_good_spad:
 1122              	.LFB8:
 1123              		.loc 1 400 0
 1124              		.cfi_startproc
 1125              		@ args = 0, pretend = 0, frame = 16
 1126              		@ frame_needed = 0, uses_anonymous_args = 0
 1127              	.LVL164:
 1128 0000 2DE9F04F 		push	{r4, r5, r6, r7, r8, r9, r10, fp, lr}
 1129              		.cfi_def_cfa_offset 36
 1130              		.cfi_offset 4, -36
 1131              		.cfi_offset 5, -32
 1132              		.cfi_offset 6, -28
 1133              		.cfi_offset 7, -24
 1134              		.cfi_offset 8, -20
 1135              		.cfi_offset 9, -16
 1136              		.cfi_offset 10, -12
 1137              		.cfi_offset 11, -8
 1138              		.cfi_offset 14, -4
 1139 0004 DFF818E1 		ldr	lr, .L185
 1140 0008 85B0     		sub	sp, sp, #20
ARM GAS  C:\Users\mathi\AppData\Local\Temp\ccVwcWGw.s 			page 21


 1141              		.cfi_def_cfa_offset 56
 1142              		.loc 1 400 0
 1143 000a DEF80040 		ldr	r4, [lr]
 1144 000e 0394     		str	r4, [sp, #12]
 1145              	.LVL165:
 1146              		.loc 1 419 0
 1147 0010 4FEAD20C 		lsr	ip, r2, #3
 1148              	.LVL166:
 1149              		.loc 1 417 0
 1150 0014 4FF0FF34 		mov	r4, #-1
 1151              		.loc 1 422 0
 1152 0018 8C45     		cmp	ip, r1
 1153              		.loc 1 417 0
 1154 001a 1C60     		str	r4, [r3]
 1155              	.LVL167:
 1156              		.loc 1 422 0
 1157 001c 31D2     		bcs	.L143
 1158 001e 02F00702 		and	r2, r2, #7
 1159              	.LVL168:
 1160 0022 6444     		add	r4, ip, r4
 1161 0024 2044     		add	r0, r0, r4
 1162              	.LVL169:
 1163              		.loc 1 441 0
 1164 0026 941C     		adds	r4, r2, #2
 1165 0028 02F10109 		add	r9, r2, #1
 1166 002c 0194     		str	r4, [sp, #4]
 1167 002e 6646     		mov	r6, ip
 1168 0030 02F1030B 		add	fp, r2, #3
 1169 0034 02F1040A 		add	r10, r2, #4
 1170              		.loc 1 423 0
 1171 0038 0CF10108 		add	r8, ip, #1
 1172              	.LVL170:
 1173              	.L145:
 1174              		.loc 1 427 0
 1175 003c B445     		cmp	ip, r6
 1176              		.loc 1 425 0
 1177 003e 10F8014F 		ldrb	r4, [r0, #1]!	@ zero_extendqisi2
 1178              	.LVL171:
 1179              		.loc 1 427 0
 1180 0042 44D0     		beq	.L146
 1181              		.loc 1 435 0
 1182 0044 E707     		lsls	r7, r4, #31
 1183 0046 29D4     		bmi	.L183
 1184              	.LVL172:
 1185 0048 A707     		lsls	r7, r4, #30
 1186 004a 2CD4     		bmi	.L164
 1187              	.LVL173:
 1188 004c 6507     		lsls	r5, r4, #29
 1189 004e 2FD4     		bmi	.L165
 1190              	.LVL174:
 1191 0050 14F00807 		ands	r7, r4, #8
 1192 0054 31D1     		bne	.L166
 1193              		.loc 1 441 0
 1194 0056 0425     		movs	r5, #4
 1195              	.LVL175:
 1196              	.L153:
 1197              		.loc 1 435 0
ARM GAS  C:\Users\mathi\AppData\Local\Temp\ccVwcWGw.s 			page 22


 1198 0058 14F0100F 		tst	r4, #16
 1199 005c 1AD1     		bne	.L147
 1200              	.LVL176:
 1201              		.loc 1 441 0
 1202 005e 7D1D     		adds	r5, r7, #5
 1203              	.LVL177:
 1204              		.loc 1 434 0
 1205 0060 082D     		cmp	r5, #8
 1206 0062 0BD0     		beq	.L178
 1207              		.loc 1 435 0
 1208 0064 14F0200F 		tst	r4, #32
 1209 0068 14D1     		bne	.L147
 1210              	.LVL178:
 1211              		.loc 1 441 0
 1212 006a BD1D     		adds	r5, r7, #6
 1213              	.LVL179:
 1214              		.loc 1 434 0
 1215 006c 082D     		cmp	r5, #8
 1216 006e 05D0     		beq	.L178
 1217              		.loc 1 435 0
 1218 0070 14F0400F 		tst	r4, #64
 1219 0074 0ED1     		bne	.L147
 1220              		.loc 1 440 0
 1221 0076 E409     		lsrs	r4, r4, #7
 1222              	.LVL180:
 1223              		.loc 1 434 0
 1224 0078 07B9     		cbnz	r7, .L178
 1225              		.loc 1 435 0
 1226 007a 1CBB     		cbnz	r4, .L163
 1227              	.LVL181:
 1228              	.L178:
 1229              		.loc 1 423 0
 1230 007c 0136     		adds	r6, r6, #1
 1231              		.loc 1 422 0
 1232 007e B142     		cmp	r1, r6
 1233 0080 DCD8     		bhi	.L145
 1234              	.LVL182:
 1235              	.L143:
 1236              		.loc 1 444 0
 1237 0082 039A     		ldr	r2, [sp, #12]
 1238 0084 DEF80030 		ldr	r3, [lr]
 1239              	.LVL183:
 1240 0088 9A42     		cmp	r2, r3
 1241 008a 2ED1     		bne	.L184
 1242 008c 05B0     		add	sp, sp, #20
 1243              		.cfi_remember_state
 1244              		.cfi_def_cfa_offset 36
 1245              		@ sp needed
 1246 008e BDE8F08F 		pop	{r4, r5, r6, r7, r8, r9, r10, fp, pc}
 1247              	.LVL184:
 1248              	.L160:
 1249              		.cfi_restore_state
 1250              		.loc 1 435 0
 1251 0092 4D46     		mov	r5, r9
 1252              	.LVL185:
 1253              	.L147:
 1254              		.loc 1 437 0
ARM GAS  C:\Users\mathi\AppData\Local\Temp\ccVwcWGw.s 			page 23


 1255 0094 05EBC605 		add	r5, r5, r6, lsl #3
 1256 0098 1D60     		str	r5, [r3]
 1257              	.LVL186:
 1258              		.loc 1 444 0
 1259 009a F2E7     		b	.L143
 1260              	.LVL187:
 1261              	.L183:
 1262              		.loc 1 424 0
 1263 009c 0025     		movs	r5, #0
 1264              	.LVL188:
 1265              		.loc 1 437 0
 1266 009e 05EBC605 		add	r5, r5, r6, lsl #3
 1267 00a2 1D60     		str	r5, [r3]
 1268              	.LVL189:
 1269 00a4 EDE7     		b	.L143
 1270              	.LVL190:
 1271              	.L164:
 1272              		.loc 1 441 0
 1273 00a6 0125     		movs	r5, #1
 1274              	.LVL191:
 1275              		.loc 1 437 0
 1276 00a8 05EBC605 		add	r5, r5, r6, lsl #3
 1277 00ac 1D60     		str	r5, [r3]
 1278              	.LVL192:
 1279 00ae E8E7     		b	.L143
 1280              	.LVL193:
 1281              	.L165:
 1282              		.loc 1 441 0
 1283 00b0 0225     		movs	r5, #2
 1284              	.LVL194:
 1285              		.loc 1 437 0
 1286 00b2 05EBC605 		add	r5, r5, r6, lsl #3
 1287 00b6 1D60     		str	r5, [r3]
 1288              	.LVL195:
 1289 00b8 E3E7     		b	.L143
 1290              	.LVL196:
 1291              	.L166:
 1292              		.loc 1 441 0
 1293 00ba 0325     		movs	r5, #3
 1294              	.LVL197:
 1295              		.loc 1 437 0
 1296 00bc 05EBC605 		add	r5, r5, r6, lsl #3
 1297 00c0 1D60     		str	r5, [r3]
 1298              	.LVL198:
 1299 00c2 DEE7     		b	.L143
 1300              	.LVL199:
 1301              	.L163:
 1302              		.loc 1 435 0
 1303 00c4 0725     		movs	r5, #7
 1304              	.LVL200:
 1305              		.loc 1 437 0
 1306 00c6 05EBC605 		add	r5, r5, r6, lsl #3
 1307 00ca 1D60     		str	r5, [r3]
 1308              	.LVL201:
 1309 00cc D9E7     		b	.L143
 1310              	.LVL202:
 1311              	.L146:
ARM GAS  C:\Users\mathi\AppData\Local\Temp\ccVwcWGw.s 			page 24


 1312              		.loc 1 430 0
 1313 00ce 1441     		asrs	r4, r4, r2
 1314              	.LVL203:
 1315 00d0 E4B2     		uxtb	r4, r4
 1316              	.LVL204:
 1317              		.loc 1 435 0
 1318 00d2 E507     		lsls	r5, r4, #31
 1319 00d4 07D4     		bmi	.L159
 1320              	.LVL205:
 1321              		.loc 1 434 0
 1322 00d6 B9F1080F 		cmp	r9, #8
 1323 00da 08D1     		bne	.L149
 1324              	.LVL206:
 1325              	.L181:
 1326              		.loc 1 422 0
 1327 00dc 4145     		cmp	r1, r8
 1328 00de D0D9     		bls	.L143
 1329 00e0 0CF10106 		add	r6, ip, #1
 1330 00e4 AAE7     		b	.L145
 1331              	.LVL207:
 1332              	.L159:
 1333              		.loc 1 420 0
 1334 00e6 1546     		mov	r5, r2
 1335 00e8 D4E7     		b	.L147
 1336              	.LVL208:
 1337              	.L184:
 1338              		.loc 1 444 0
 1339 00ea FFF7FEFF 		bl	__stack_chk_fail
 1340              	.LVL209:
 1341              	.L149:
 1342              		.loc 1 435 0
 1343 00ee A707     		lsls	r7, r4, #30
 1344 00f0 CFD4     		bmi	.L160
 1345              	.LVL210:
 1346              		.loc 1 434 0
 1347 00f2 019D     		ldr	r5, [sp, #4]
 1348 00f4 082D     		cmp	r5, #8
 1349 00f6 F1D0     		beq	.L181
 1350              		.loc 1 435 0
 1351 00f8 6507     		lsls	r5, r4, #29
 1352 00fa 0FD4     		bmi	.L161
 1353              	.LVL211:
 1354              		.loc 1 434 0
 1355 00fc BBF1080F 		cmp	fp, #8
 1356              		.loc 1 441 0
 1357 0100 5D46     		mov	r5, fp
 1358              	.LVL212:
 1359              		.loc 1 434 0
 1360 0102 EBD0     		beq	.L181
 1361              	.LVL213:
 1362              		.loc 1 435 0
 1363 0104 2707     		lsls	r7, r4, #28
 1364 0106 C5D4     		bmi	.L147
 1365              	.LVL214:
 1366              		.loc 1 434 0
 1367 0108 BAF1080F 		cmp	r10, #8
 1368              		.loc 1 441 0
ARM GAS  C:\Users\mathi\AppData\Local\Temp\ccVwcWGw.s 			page 25


 1369 010c 5546     		mov	r5, r10
 1370              	.LVL215:
 1371              		.loc 1 434 0
 1372 010e 03D1     		bne	.L162
 1373              	.LVL216:
 1374              		.loc 1 422 0
 1375 0110 4145     		cmp	r1, r8
 1376 0112 B6D9     		bls	.L143
 1377 0114 0136     		adds	r6, r6, #1
 1378 0116 91E7     		b	.L145
 1379              	.LVL217:
 1380              	.L162:
 1381              		.loc 1 434 0
 1382 0118 1746     		mov	r7, r2
 1383 011a 9DE7     		b	.L153
 1384              	.LVL218:
 1385              	.L161:
 1386              		.loc 1 441 0
 1387 011c 019D     		ldr	r5, [sp, #4]
 1388 011e B9E7     		b	.L147
 1389              	.L186:
 1390              		.align	2
 1391              	.L185:
 1392 0120 00000000 		.word	__stack_chk_guard
 1393              		.cfi_endproc
 1394              	.LFE8:
 1395              		.size	get_next_good_spad, .-get_next_good_spad
 1396              		.section	.text.is_aperture,"ax",%progbits
 1397              		.align	1
 1398              		.p2align 4,,15
 1399              		.global	is_aperture
 1400              		.syntax unified
 1401              		.thumb
 1402              		.thumb_func
 1403              		.fpu fpv4-sp-d16
 1404              		.type	is_aperture, %function
 1405              	is_aperture:
 1406              	.LFB9:
 1407              		.loc 1 448 0
 1408              		.cfi_startproc
 1409              		@ args = 0, pretend = 0, frame = 8
 1410              		@ frame_needed = 0, uses_anonymous_args = 0
 1411              	.LVL219:
 1412 0000 00B5     		push	{lr}
 1413              		.cfi_def_cfa_offset 4
 1414              		.cfi_offset 14, -4
 1415 0002 0A4B     		ldr	r3, .L191
 1416              		.loc 1 456 0
 1417 0004 0A49     		ldr	r1, .L191+4
 1418              		.loc 1 448 0
 1419 0006 1A68     		ldr	r2, [r3]
 1420 0008 83B0     		sub	sp, sp, #12
 1421              		.cfi_def_cfa_offset 16
 1422              		.loc 1 455 0
 1423 000a 8009     		lsrs	r0, r0, #6
 1424              	.LVL220:
 1425              		.loc 1 448 0
ARM GAS  C:\Users\mathi\AppData\Local\Temp\ccVwcWGw.s 			page 26


 1426 000c 0192     		str	r2, [sp, #4]
 1427              	.LVL221:
 1428              		.loc 1 456 0
 1429 000e 51F82000 		ldr	r0, [r1, r0, lsl #2]
 1430              		.loc 1 460 0
 1431 0012 019A     		ldr	r2, [sp, #4]
 1432 0014 1B68     		ldr	r3, [r3]
 1433 0016 0030     		adds	r0, r0, #0
 1434 0018 18BF     		it	ne
 1435 001a 0120     		movne	r0, #1
 1436 001c 9A42     		cmp	r2, r3
 1437 001e 02D1     		bne	.L190
 1438 0020 03B0     		add	sp, sp, #12
 1439              		.cfi_remember_state
 1440              		.cfi_def_cfa_offset 4
 1441              		@ sp needed
 1442 0022 5DF804FB 		ldr	pc, [sp], #4
 1443              	.L190:
 1444              		.cfi_restore_state
 1445 0026 FFF7FEFF 		bl	__stack_chk_fail
 1446              	.LVL222:
 1447              	.L192:
 1448 002a 00BF     		.align	2
 1449              	.L191:
 1450 002c 00000000 		.word	__stack_chk_guard
 1451 0030 00000000 		.word	.LANCHOR0
 1452              		.cfi_endproc
 1453              	.LFE9:
 1454              		.size	is_aperture, .-is_aperture
 1455              		.section	.text.enable_spad_bit,"ax",%progbits
 1456              		.align	1
 1457              		.p2align 4,,15
 1458              		.global	enable_spad_bit
 1459              		.syntax unified
 1460              		.thumb
 1461              		.thumb_func
 1462              		.fpu fpv4-sp-d16
 1463              		.type	enable_spad_bit, %function
 1464              	enable_spad_bit:
 1465              	.LFB10:
 1466              		.loc 1 465 0
 1467              		.cfi_startproc
 1468              		@ args = 0, pretend = 0, frame = 8
 1469              		@ frame_needed = 0, uses_anonymous_args = 0
 1470              	.LVL223:
 1471 0000 30B5     		push	{r4, r5, lr}
 1472              		.cfi_def_cfa_offset 12
 1473              		.cfi_offset 4, -12
 1474              		.cfi_offset 5, -8
 1475              		.cfi_offset 14, -4
 1476 0002 0D4D     		ldr	r5, .L199
 1477 0004 83B0     		sub	sp, sp, #12
 1478              		.cfi_def_cfa_offset 24
 1479              		.loc 1 465 0
 1480 0006 2B68     		ldr	r3, [r5]
 1481 0008 0193     		str	r3, [sp, #4]
 1482              	.LVL224:
ARM GAS  C:\Users\mathi\AppData\Local\Temp\ccVwcWGw.s 			page 27


 1483              		.loc 1 471 0
 1484 000a D308     		lsrs	r3, r2, #3
 1485              	.LVL225:
 1486              		.loc 1 473 0
 1487 000c 8B42     		cmp	r3, r1
 1488 000e 0ED2     		bcs	.L196
 1489              		.loc 1 476 0
 1490 0010 C15C     		ldrb	r1, [r0, r3]	@ zero_extendqisi2
 1491              	.LVL226:
 1492 0012 02F00702 		and	r2, r2, #7
 1493              	.LVL227:
 1494 0016 0124     		movs	r4, #1
 1495 0018 04FA02F2 		lsl	r2, r4, r2
 1496              	.LVL228:
 1497 001c 0A43     		orrs	r2, r2, r1
 1498 001e C254     		strb	r2, [r0, r3]
 1499              		.loc 1 466 0
 1500 0020 0020     		movs	r0, #0
 1501              	.LVL229:
 1502              	.L194:
 1503              		.loc 1 479 0
 1504 0022 019A     		ldr	r2, [sp, #4]
 1505 0024 2B68     		ldr	r3, [r5]
 1506              	.LVL230:
 1507 0026 9A42     		cmp	r2, r3
 1508 0028 04D1     		bne	.L198
 1509 002a 03B0     		add	sp, sp, #12
 1510              		.cfi_remember_state
 1511              		.cfi_def_cfa_offset 12
 1512              		@ sp needed
 1513 002c 30BD     		pop	{r4, r5, pc}
 1514              	.LVL231:
 1515              	.L196:
 1516              		.cfi_restore_state
 1517              		.loc 1 474 0
 1518 002e 6FF03100 		mvn	r0, #49
 1519              	.LVL232:
 1520 0032 F6E7     		b	.L194
 1521              	.LVL233:
 1522              	.L198:
 1523              		.loc 1 479 0
 1524 0034 FFF7FEFF 		bl	__stack_chk_fail
 1525              	.LVL234:
 1526              	.L200:
 1527              		.align	2
 1528              	.L199:
 1529 0038 00000000 		.word	__stack_chk_guard
 1530              		.cfi_endproc
 1531              	.LFE10:
 1532              		.size	enable_spad_bit, .-enable_spad_bit
 1533              		.section	.text.count_enabled_spads,"ax",%progbits
 1534              		.align	1
 1535              		.p2align 4,,15
 1536              		.global	count_enabled_spads
 1537              		.syntax unified
 1538              		.thumb
 1539              		.thumb_func
ARM GAS  C:\Users\mathi\AppData\Local\Temp\ccVwcWGw.s 			page 28


 1540              		.fpu fpv4-sp-d16
 1541              		.type	count_enabled_spads, %function
 1542              	count_enabled_spads:
 1543              	.LFB11:
 1544              		.loc 1 484 0
 1545              		.cfi_startproc
 1546              		@ args = 4, pretend = 0, frame = 32
 1547              		@ frame_needed = 0, uses_anonymous_args = 0
 1548              	.LVL235:
 1549 0000 2DE9F04F 		push	{r4, r5, r6, r7, r8, r9, r10, fp, lr}
 1550              		.cfi_def_cfa_offset 36
 1551              		.cfi_offset 4, -36
 1552              		.cfi_offset 5, -32
 1553              		.cfi_offset 6, -28
 1554              		.cfi_offset 7, -24
 1555              		.cfi_offset 8, -20
 1556              		.cfi_offset 9, -16
 1557              		.cfi_offset 10, -12
 1558              		.cfi_offset 11, -8
 1559              		.cfi_offset 14, -4
 1560 0004 A54C     		ldr	r4, .L347
 1561 0006 89B0     		sub	sp, sp, #36
 1562              		.cfi_def_cfa_offset 72
 1563              		.loc 1 498 0
 1564 0008 D508     		lsrs	r5, r2, #3
 1565              		.loc 1 484 0
 1566 000a 2468     		ldr	r4, [r4]
 1567 000c 0794     		str	r4, [sp, #28]
 1568              	.LVL236:
 1569              		.loc 1 499 0
 1570 000e 02F00702 		and	r2, r2, #7
 1571              	.LVL237:
 1572              		.loc 1 505 0
 1573 0012 0024     		movs	r4, #0
 1574              		.loc 1 485 0
 1575 0014 8D42     		cmp	r5, r1
 1576              		.loc 1 499 0
 1577 0016 0592     		str	r2, [sp, #20]
 1578              		.loc 1 485 0
 1579 0018 2CBF     		ite	cs
 1580 001a 6FF03102 		mvncs	r2, #49
 1581 001e 2246     		movcc	r2, r4
 1582 0020 0392     		str	r2, [sp, #12]
 1583              		.loc 1 484 0
 1584 0022 DDF848C0 		ldr	ip, [sp, #72]
 1585              		.loc 1 498 0
 1586 0026 0295     		str	r5, [sp, #8]
 1587              	.LVL238:
 1588              		.loc 1 508 0
 1589 0028 6A1E     		subs	r2, r5, #1
 1590 002a 0192     		str	r2, [sp, #4]
 1591              		.loc 1 484 0
 1592 002c 0490     		str	r0, [sp, #16]
 1593              		.loc 1 505 0
 1594 002e 1C60     		str	r4, [r3]
 1595              		.loc 1 508 0
 1596 0030 2246     		mov	r2, r4
ARM GAS  C:\Users\mathi\AppData\Local\Temp\ccVwcWGw.s 			page 29


 1597 0032 00F1FF3E 		add	lr, r0, #-1
 1598              		.loc 1 513 0
 1599 0036 4FF0010B 		mov	fp, #1
 1600 003a 2746     		mov	r7, r4
 1601              	.LVL239:
 1602              	.L239:
 1603              		.loc 1 509 0
 1604 003c 1EF8019F 		ldrb	r9, [lr, #1]!	@ zero_extendqisi2
 1605              	.LVL240:
 1606 0040 09F01001 		and	r1, r9, #16
 1607              		.loc 1 512 0
 1608 0044 19F0010F 		tst	r9, #1
 1609 0048 0091     		str	r1, [sp]
 1610 004a 09F00205 		and	r5, r9, #2
 1611 004e 09F00408 		and	r8, r9, #4
 1612 0052 09F00804 		and	r4, r9, #8
 1613 0056 09F0200A 		and	r10, r9, #32
 1614 005a 09F04006 		and	r6, r9, #64
 1615 005e 4FEAD911 		lsr	r1, r9, #7
 1616 0062 40D0     		beq	.L203
 1617              		.loc 1 513 0
 1618 0064 D3F80090 		ldr	r9, [r3]
 1619 0068 09F10100 		add	r0, r9, #1
 1620 006c 1860     		str	r0, [r3]
 1621              	.LVL241:
 1622              		.loc 1 515 0
 1623 006e 002F     		cmp	r7, #0
 1624 0070 77D1     		bne	.L204
 1625              		.loc 1 517 0
 1626 0072 012A     		cmp	r2, #1
 1627              		.loc 1 516 0
 1628 0074 8CF800B0 		strb	fp, [ip]
 1629              		.loc 1 518 0
 1630 0078 98BF     		it	ls
 1631 007a 8CF80070 		strbls	r7, [ip]
 1632              	.LVL242:
 1633              		.loc 1 512 0
 1634 007e 15B1     		cbz	r5, .L207
 1635              		.loc 1 513 0
 1636 0080 1D68     		ldr	r5, [r3]
 1637 0082 0135     		adds	r5, r5, #1
 1638 0084 1D60     		str	r5, [r3]
 1639              	.LVL243:
 1640              	.L207:
 1641              		.loc 1 512 0
 1642 0086 B8F1000F 		cmp	r8, #0
 1643 008a 3BD1     		bne	.L246
 1644              	.LVL244:
 1645 008c 002C     		cmp	r4, #0
 1646 008e 00F0AE80 		beq	.L217
 1647              	.L248:
 1648              		.loc 1 513 0
 1649 0092 1C68     		ldr	r4, [r3]
 1650 0094 0134     		adds	r4, r4, #1
 1651 0096 1C60     		str	r4, [r3]
 1652              	.LVL245:
 1653              	.L216:
ARM GAS  C:\Users\mathi\AppData\Local\Temp\ccVwcWGw.s 			page 30


 1654              		.loc 1 512 0
 1655 0098 0098     		ldr	r0, [sp]
 1656 009a 0028     		cmp	r0, #0
 1657 009c 39D1     		bne	.L259
 1658              	.LVL246:
 1659 009e BAF1000F 		cmp	r10, #0
 1660 00a2 47D0     		beq	.L227
 1661              	.L228:
 1662              		.loc 1 513 0
 1663 00a4 1868     		ldr	r0, [r3]
 1664              	.L327:
 1665 00a6 0130     		adds	r0, r0, #1
 1666 00a8 1860     		str	r0, [r3]
 1667              	.LVL247:
 1668              	.L226:
 1669              		.loc 1 512 0
 1670 00aa 002E     		cmp	r6, #0
 1671 00ac 38D1     		bne	.L234
 1672              	.LVL248:
 1673              	.L232:
 1674 00ae 0029     		cmp	r1, #0
 1675 00b0 3BD1     		bne	.L256
 1676              	.LVL249:
 1677              	.L271:
 1678 00b2 0127     		movs	r7, #1
 1679              	.L235:
 1680              	.LVL250:
 1681              		.loc 1 508 0
 1682 00b4 0199     		ldr	r1, [sp, #4]
 1683 00b6 0132     		adds	r2, r2, #1
 1684              	.LVL251:
 1685 00b8 8A42     		cmp	r2, r1
 1686 00ba BFD9     		bls	.L239
 1687              	.LVL252:
 1688 00bc 049A     		ldr	r2, [sp, #16]
 1689              	.LVL253:
 1690 00be 0299     		ldr	r1, [sp, #8]
 1691 00c0 525C     		ldrb	r2, [r2, r1]	@ zero_extendqisi2
 1692 00c2 12F00102 		ands	r2, r2, #1
 1693 00c6 7DD1     		bne	.L240
 1694              		.loc 1 531 0
 1695 00c8 1346     		mov	r3, r2
 1696              	.LVL254:
 1697 00ca 059A     		ldr	r2, [sp, #20]
 1698              	.LVL255:
 1699              	.L241:
 1700 00cc 0133     		adds	r3, r3, #1
 1701              	.LVL256:
 1702 00ce 9A42     		cmp	r2, r3
 1703 00d0 FCD2     		bcs	.L241
 1704              	.LVL257:
 1705              	.L242:
 1706              		.loc 1 537 0
 1707 00d2 724B     		ldr	r3, .L347
 1708 00d4 079A     		ldr	r2, [sp, #28]
 1709 00d6 1B68     		ldr	r3, [r3]
 1710 00d8 0398     		ldr	r0, [sp, #12]
ARM GAS  C:\Users\mathi\AppData\Local\Temp\ccVwcWGw.s 			page 31


 1711 00da 9A42     		cmp	r2, r3
 1712 00dc 40F0DC80 		bne	.L342
 1713 00e0 09B0     		add	sp, sp, #36
 1714              		.cfi_remember_state
 1715              		.cfi_def_cfa_offset 36
 1716              		@ sp needed
 1717 00e2 BDE8F08F 		pop	{r4, r5, r6, r7, r8, r9, r10, fp, pc}
 1718              	.LVL258:
 1719              	.L203:
 1720              		.cfi_restore_state
 1721              		.loc 1 512 0
 1722 00e6 002D     		cmp	r5, #0
 1723 00e8 2CD0     		beq	.L208
 1724              		.loc 1 513 0
 1725 00ea 1D68     		ldr	r5, [r3]
 1726 00ec 0135     		adds	r5, r5, #1
 1727 00ee 1D60     		str	r5, [r3]
 1728              	.LVL259:
 1729              		.loc 1 515 0
 1730 00f0 002F     		cmp	r7, #0
 1731 00f2 C8D1     		bne	.L207
 1732              		.loc 1 517 0
 1733 00f4 012A     		cmp	r2, #1
 1734              		.loc 1 516 0
 1735 00f6 8CF800B0 		strb	fp, [ip]
 1736              		.loc 1 517 0
 1737 00fa 40F28880 		bls	.L343
 1738              	.LVL260:
 1739              		.loc 1 512 0
 1740 00fe B8F1000F 		cmp	r8, #0
 1741 0102 02D0     		beq	.L211
 1742              	.L246:
 1743              		.loc 1 513 0
 1744 0104 1D68     		ldr	r5, [r3]
 1745 0106 0135     		adds	r5, r5, #1
 1746 0108 1D60     		str	r5, [r3]
 1747              	.LVL261:
 1748              	.L211:
 1749              		.loc 1 512 0
 1750 010a 002C     		cmp	r4, #0
 1751 010c C1D1     		bne	.L248
 1752              	.LVL262:
 1753              	.L317:
 1754 010e 0098     		ldr	r0, [sp]
 1755 0110 10B1     		cbz	r0, .L222
 1756              	.L259:
 1757              		.loc 1 513 0
 1758 0112 1868     		ldr	r0, [r3]
 1759 0114 0130     		adds	r0, r0, #1
 1760 0116 1860     		str	r0, [r3]
 1761              	.LVL263:
 1762              	.L222:
 1763              		.loc 1 512 0
 1764 0118 BAF1000F 		cmp	r10, #0
 1765 011c C2D1     		bne	.L228
 1766              	.L323:
 1767              	.LVL264:
ARM GAS  C:\Users\mathi\AppData\Local\Temp\ccVwcWGw.s 			page 32


 1768 011e 5EB1     		cbz	r6, .L229
 1769              	.L234:
 1770              		.loc 1 513 0
 1771 0120 1868     		ldr	r0, [r3]
 1772              	.L329:
 1773 0122 0130     		adds	r0, r0, #1
 1774 0124 1860     		str	r0, [r3]
 1775              	.LVL265:
 1776              		.loc 1 512 0
 1777 0126 0029     		cmp	r1, #0
 1778 0128 C3D0     		beq	.L271
 1779              	.L256:
 1780              		.loc 1 513 0
 1781 012a 1968     		ldr	r1, [r3]
 1782 012c 0131     		adds	r1, r1, #1
 1783 012e 1960     		str	r1, [r3]
 1784 0130 0127     		movs	r7, #1
 1785 0132 BFE7     		b	.L235
 1786              	.LVL266:
 1787              	.L227:
 1788              		.loc 1 512 0
 1789 0134 002E     		cmp	r6, #0
 1790 0136 F3D1     		bne	.L234
 1791              	.L229:
 1792              	.LVL267:
 1793 0138 0029     		cmp	r1, #0
 1794 013a BAD0     		beq	.L271
 1795              		.loc 1 513 0
 1796 013c 1968     		ldr	r1, [r3]
 1797 013e 0131     		adds	r1, r1, #1
 1798 0140 1960     		str	r1, [r3]
 1799 0142 B6E7     		b	.L271
 1800              	.LVL268:
 1801              	.L208:
 1802              		.loc 1 512 0
 1803 0144 B8F1000F 		cmp	r8, #0
 1804 0148 10D0     		beq	.L213
 1805              		.loc 1 513 0
 1806 014a 1D68     		ldr	r5, [r3]
 1807 014c 0135     		adds	r5, r5, #1
 1808 014e 1D60     		str	r5, [r3]
 1809              	.LVL269:
 1810              		.loc 1 515 0
 1811 0150 002F     		cmp	r7, #0
 1812 0152 DAD1     		bne	.L211
 1813              		.loc 1 517 0
 1814 0154 012A     		cmp	r2, #1
 1815              		.loc 1 516 0
 1816 0156 8CF800B0 		strb	fp, [ip]
 1817              		.loc 1 517 0
 1818 015a 52D9     		bls	.L344
 1819              	.LVL270:
 1820              		.loc 1 512 0
 1821 015c 002C     		cmp	r4, #0
 1822 015e 9BD0     		beq	.L216
 1823 0160 97E7     		b	.L248
 1824              	.LVL271:
ARM GAS  C:\Users\mathi\AppData\Local\Temp\ccVwcWGw.s 			page 33


 1825              	.L204:
 1826 0162 B5B1     		cbz	r5, .L345
 1827              		.loc 1 513 0
 1828 0164 09F10205 		add	r5, r9, #2
 1829 0168 1D60     		str	r5, [r3]
 1830 016a 8CE7     		b	.L207
 1831              	.LVL272:
 1832              	.L213:
 1833              		.loc 1 512 0
 1834 016c C4B1     		cbz	r4, .L218
 1835              		.loc 1 513 0
 1836 016e 1C68     		ldr	r4, [r3]
 1837 0170 0134     		adds	r4, r4, #1
 1838 0172 1C60     		str	r4, [r3]
 1839              	.LVL273:
 1840              		.loc 1 515 0
 1841 0174 002F     		cmp	r7, #0
 1842 0176 8FD1     		bne	.L216
 1843              		.loc 1 517 0
 1844 0178 012A     		cmp	r2, #1
 1845              		.loc 1 516 0
 1846 017a 8CF800B0 		strb	fp, [ip]
 1847              		.loc 1 517 0
 1848 017e C6D8     		bhi	.L317
 1849              		.loc 1 512 0
 1850 0180 0098     		ldr	r0, [sp]
 1851              		.loc 1 518 0
 1852 0182 8CF80070 		strb	r7, [ip]
 1853              	.LVL274:
 1854              		.loc 1 512 0
 1855 0186 0028     		cmp	r0, #0
 1856 0188 C3D1     		bne	.L259
 1857              	.LVL275:
 1858 018a BAF1000F 		cmp	r10, #0
 1859 018e C6D0     		beq	.L323
 1860 0190 88E7     		b	.L228
 1861              	.LVL276:
 1862              	.L345:
 1863 0192 B8F1000F 		cmp	r8, #0
 1864 0196 1FD0     		beq	.L212
 1865              		.loc 1 513 0
 1866 0198 09F10205 		add	r5, r9, #2
 1867 019c 1D60     		str	r5, [r3]
 1868 019e B4E7     		b	.L211
 1869              	.LVL277:
 1870              	.L218:
 1871              		.loc 1 512 0
 1872 01a0 0098     		ldr	r0, [sp]
 1873 01a2 0028     		cmp	r0, #0
 1874 01a4 3DD0     		beq	.L224
 1875              		.loc 1 513 0
 1876 01a6 1868     		ldr	r0, [r3]
 1877 01a8 0130     		adds	r0, r0, #1
 1878 01aa 1860     		str	r0, [r3]
 1879              	.LVL278:
 1880              		.loc 1 515 0
 1881 01ac 002F     		cmp	r7, #0
ARM GAS  C:\Users\mathi\AppData\Local\Temp\ccVwcWGw.s 			page 34


 1882 01ae B3D1     		bne	.L222
 1883              		.loc 1 516 0
 1884 01b0 8CF800B0 		strb	fp, [ip]
 1885              	.LVL279:
 1886              		.loc 1 512 0
 1887 01b4 BAF1000F 		cmp	r10, #0
 1888 01b8 7FF474AF 		bne	.L228
 1889              	.LVL280:
 1890 01bc 002E     		cmp	r6, #0
 1891 01be 3FF476AF 		beq	.L232
 1892 01c2 ADE7     		b	.L234
 1893              	.LVL281:
 1894              	.L240:
 1895 01c4 1968     		ldr	r1, [r3]
 1896              	.LVL282:
 1897 01c6 059C     		ldr	r4, [sp, #20]
 1898              		.loc 1 531 0
 1899 01c8 0022     		movs	r2, #0
 1900 01ca 0131     		adds	r1, r1, #1
 1901              	.LVL283:
 1902              	.L243:
 1903 01cc 8818     		adds	r0, r1, r2
 1904 01ce 0132     		adds	r2, r2, #1
 1905              	.LVL284:
 1906 01d0 9442     		cmp	r4, r2
 1907 01d2 FBD2     		bcs	.L243
 1908 01d4 1860     		str	r0, [r3]
 1909              	.LVL285:
 1910 01d6 7CE7     		b	.L242
 1911              	.LVL286:
 1912              	.L212:
 1913              		.loc 1 512 0
 1914 01d8 002C     		cmp	r4, #0
 1915 01da 61D1     		bne	.L346
 1916              	.LVL287:
 1917 01dc 009C     		ldr	r4, [sp]
 1918 01de 7CB3     		cbz	r4, .L223
 1919              		.loc 1 513 0
 1920 01e0 09F10200 		add	r0, r9, #2
 1921 01e4 1860     		str	r0, [r3]
 1922              	.LVL288:
 1923              		.loc 1 512 0
 1924 01e6 BAF1000F 		cmp	r10, #0
 1925 01ea 98D0     		beq	.L323
 1926 01ec 5AE7     		b	.L228
 1927              	.LVL289:
 1928              	.L217:
 1929 01ee 0098     		ldr	r0, [sp]
 1930 01f0 0028     		cmp	r0, #0
 1931 01f2 8ED1     		bne	.L259
 1932              	.LVL290:
 1933 01f4 BAF1000F 		cmp	r10, #0
 1934 01f8 7FF454AF 		bne	.L228
 1935              	.LVL291:
 1936 01fc 002E     		cmp	r6, #0
 1937 01fe 8FD1     		bne	.L234
 1938 0200 9AE7     		b	.L229
ARM GAS  C:\Users\mathi\AppData\Local\Temp\ccVwcWGw.s 			page 35


 1939              	.LVL292:
 1940              	.L344:
 1941              		.loc 1 518 0
 1942 0202 8CF80070 		strb	r7, [ip]
 1943              	.LVL293:
 1944              		.loc 1 512 0
 1945 0206 002C     		cmp	r4, #0
 1946 0208 3FF446AF 		beq	.L216
 1947 020c 41E7     		b	.L248
 1948              	.LVL294:
 1949              	.L343:
 1950              		.loc 1 518 0
 1951 020e 8CF80070 		strb	r7, [ip]
 1952              	.LVL295:
 1953              		.loc 1 512 0
 1954 0212 B8F1000F 		cmp	r8, #0
 1955 0216 3FF478AF 		beq	.L211
 1956              		.loc 1 513 0
 1957 021a 1D68     		ldr	r5, [r3]
 1958 021c 0135     		adds	r5, r5, #1
 1959 021e 1D60     		str	r5, [r3]
 1960 0220 73E7     		b	.L211
 1961              	.LVL296:
 1962              	.L224:
 1963              		.loc 1 512 0
 1964 0222 BAF1000F 		cmp	r10, #0
 1965 0226 19D0     		beq	.L231
 1966              		.loc 1 513 0
 1967 0228 1868     		ldr	r0, [r3]
 1968 022a 0130     		adds	r0, r0, #1
 1969 022c 1860     		str	r0, [r3]
 1970              	.LVL297:
 1971              		.loc 1 515 0
 1972 022e 002F     		cmp	r7, #0
 1973 0230 7FF43BAF 		bne	.L226
 1974              		.loc 1 516 0
 1975 0234 8CF800B0 		strb	fp, [ip]
 1976              	.LVL298:
 1977              		.loc 1 512 0
 1978 0238 002E     		cmp	r6, #0
 1979 023a 3FF438AF 		beq	.L232
 1980 023e 6FE7     		b	.L234
 1981              	.LVL299:
 1982              	.L223:
 1983 0240 BAF1000F 		cmp	r10, #0
 1984 0244 7FF42FAF 		bne	.L327
 1985              	.LVL300:
 1986 0248 002E     		cmp	r6, #0
 1987 024a 7FF46AAF 		bne	.L329
 1988              	.LVL301:
 1989 024e 0029     		cmp	r1, #0
 1990 0250 3FF430AF 		beq	.L235
 1991              		.loc 1 513 0
 1992 0254 0146     		mov	r1, r0
 1993 0256 0131     		adds	r1, r1, #1
 1994 0258 1960     		str	r1, [r3]
 1995 025a 2AE7     		b	.L271
ARM GAS  C:\Users\mathi\AppData\Local\Temp\ccVwcWGw.s 			page 36


 1996              	.LVL302:
 1997              	.L231:
 1998              		.loc 1 512 0
 1999 025c 7EB1     		cbz	r6, .L237
 2000              		.loc 1 513 0
 2001 025e 1868     		ldr	r0, [r3]
 2002 0260 0130     		adds	r0, r0, #1
 2003 0262 1860     		str	r0, [r3]
 2004              	.LVL303:
 2005              		.loc 1 515 0
 2006 0264 002F     		cmp	r7, #0
 2007 0266 7FF422AF 		bne	.L232
 2008              		.loc 1 516 0
 2009 026a 8CF800B0 		strb	fp, [ip]
 2010              	.LVL304:
 2011              		.loc 1 512 0
 2012 026e 0029     		cmp	r1, #0
 2013 0270 3FF41FAF 		beq	.L271
 2014              		.loc 1 513 0
 2015 0274 1968     		ldr	r1, [r3]
 2016 0276 0131     		adds	r1, r1, #1
 2017 0278 1960     		str	r1, [r3]
 2018 027a 0127     		movs	r7, #1
 2019 027c 1AE7     		b	.L235
 2020              	.LVL305:
 2021              	.L237:
 2022              		.loc 1 512 0
 2023 027e 0029     		cmp	r1, #0
 2024 0280 3FF418AF 		beq	.L235
 2025              		.loc 1 513 0
 2026 0284 1968     		ldr	r1, [r3]
 2027 0286 0131     		adds	r1, r1, #1
 2028 0288 1960     		str	r1, [r3]
 2029              	.LVL306:
 2030              		.loc 1 515 0
 2031 028a 002F     		cmp	r7, #0
 2032 028c 7FF411AF 		bne	.L271
 2033              		.loc 1 516 0
 2034 0290 8CF800B0 		strb	fp, [ip]
 2035              		.loc 1 519 0
 2036 0294 0127     		movs	r7, #1
 2037              	.LVL307:
 2038 0296 0DE7     		b	.L235
 2039              	.LVL308:
 2040              	.L342:
 2041              		.loc 1 537 0
 2042 0298 FFF7FEFF 		bl	__stack_chk_fail
 2043              	.LVL309:
 2044              	.L348:
 2045              		.align	2
 2046              	.L347:
 2047 029c 00000000 		.word	__stack_chk_guard
 2048              	.LVL310:
 2049              	.L346:
 2050              		.loc 1 513 0
 2051 02a0 09F10204 		add	r4, r9, #2
 2052 02a4 1C60     		str	r4, [r3]
ARM GAS  C:\Users\mathi\AppData\Local\Temp\ccVwcWGw.s 			page 37


 2053 02a6 F7E6     		b	.L216
 2054              		.cfi_endproc
 2055              	.LFE11:
 2056              		.size	count_enabled_spads, .-count_enabled_spads
 2057              		.section	.text.set_ref_spad_map,"ax",%progbits
 2058              		.align	1
 2059              		.p2align 4,,15
 2060              		.global	set_ref_spad_map
 2061              		.syntax unified
 2062              		.thumb
 2063              		.thumb_func
 2064              		.fpu fpv4-sp-d16
 2065              		.type	set_ref_spad_map, %function
 2066              	set_ref_spad_map:
 2067              	.LFB12:
 2068              		.loc 1 540 0
 2069              		.cfi_startproc
 2070              		@ args = 0, pretend = 0, frame = 8
 2071              		@ frame_needed = 0, uses_anonymous_args = 0
 2072              	.LVL311:
 2073 0000 10B5     		push	{r4, lr}
 2074              		.cfi_def_cfa_offset 8
 2075              		.cfi_offset 4, -8
 2076              		.cfi_offset 14, -4
 2077 0002 094B     		ldr	r3, .L354
 2078 0004 82B0     		sub	sp, sp, #8
 2079              		.cfi_def_cfa_offset 16
 2080              		.loc 1 540 0
 2081 0006 1A68     		ldr	r2, [r3]
 2082 0008 0192     		str	r2, [sp, #4]
 2083              		.loc 1 541 0
 2084 000a 019C     		ldr	r4, [sp, #4]
 2085 000c 1B68     		ldr	r3, [r3]
 2086 000e 9C42     		cmp	r4, r3
 2087 0010 07D1     		bne	.L353
 2088 0012 0A46     		mov	r2, r1
 2089 0014 0623     		movs	r3, #6
 2090 0016 B021     		movs	r1, #176
 2091              	.LVL312:
 2092              		.loc 1 545 0
 2093 0018 02B0     		add	sp, sp, #8
 2094              		.cfi_remember_state
 2095              		.cfi_def_cfa_offset 8
 2096              		@ sp needed
 2097 001a BDE81040 		pop	{r4, lr}
 2098              		.cfi_restore 14
 2099              		.cfi_restore 4
 2100              		.cfi_def_cfa_offset 0
 2101              		.loc 1 541 0
 2102 001e FFF7FEBF 		b	VL53L0X_WriteMulti
 2103              	.LVL313:
 2104              	.L353:
 2105              		.cfi_restore_state
 2106 0022 FFF7FEFF 		bl	__stack_chk_fail
 2107              	.LVL314:
 2108              	.L355:
 2109 0026 00BF     		.align	2
ARM GAS  C:\Users\mathi\AppData\Local\Temp\ccVwcWGw.s 			page 38


 2110              	.L354:
 2111 0028 00000000 		.word	__stack_chk_guard
 2112              		.cfi_endproc
 2113              	.LFE12:
 2114              		.size	set_ref_spad_map, .-set_ref_spad_map
 2115              		.section	.text.get_ref_spad_map,"ax",%progbits
 2116              		.align	1
 2117              		.p2align 4,,15
 2118              		.global	get_ref_spad_map
 2119              		.syntax unified
 2120              		.thumb
 2121              		.thumb_func
 2122              		.fpu fpv4-sp-d16
 2123              		.type	get_ref_spad_map, %function
 2124              	get_ref_spad_map:
 2125              	.LFB13:
 2126              		.loc 1 548 0
 2127              		.cfi_startproc
 2128              		@ args = 0, pretend = 0, frame = 8
 2129              		@ frame_needed = 0, uses_anonymous_args = 0
 2130              	.LVL315:
 2131 0000 10B5     		push	{r4, lr}
 2132              		.cfi_def_cfa_offset 8
 2133              		.cfi_offset 4, -8
 2134              		.cfi_offset 14, -4
 2135 0002 094B     		ldr	r3, .L361
 2136 0004 82B0     		sub	sp, sp, #8
 2137              		.cfi_def_cfa_offset 16
 2138              		.loc 1 548 0
 2139 0006 1A68     		ldr	r2, [r3]
 2140 0008 0192     		str	r2, [sp, #4]
 2141              		.loc 1 549 0
 2142 000a 019C     		ldr	r4, [sp, #4]
 2143 000c 1B68     		ldr	r3, [r3]
 2144 000e 9C42     		cmp	r4, r3
 2145 0010 07D1     		bne	.L360
 2146 0012 0A46     		mov	r2, r1
 2147 0014 0623     		movs	r3, #6
 2148 0016 B021     		movs	r1, #176
 2149              	.LVL316:
 2150              		.loc 1 554 0
 2151 0018 02B0     		add	sp, sp, #8
 2152              		.cfi_remember_state
 2153              		.cfi_def_cfa_offset 8
 2154              		@ sp needed
 2155 001a BDE81040 		pop	{r4, lr}
 2156              		.cfi_restore 14
 2157              		.cfi_restore 4
 2158              		.cfi_def_cfa_offset 0
 2159              		.loc 1 549 0
 2160 001e FFF7FEBF 		b	VL53L0X_ReadMulti
 2161              	.LVL317:
 2162              	.L360:
 2163              		.cfi_restore_state
 2164 0022 FFF7FEFF 		bl	__stack_chk_fail
 2165              	.LVL318:
 2166              	.L362:
ARM GAS  C:\Users\mathi\AppData\Local\Temp\ccVwcWGw.s 			page 39


 2167 0026 00BF     		.align	2
 2168              	.L361:
 2169 0028 00000000 		.word	__stack_chk_guard
 2170              		.cfi_endproc
 2171              	.LFE13:
 2172              		.size	get_ref_spad_map, .-get_ref_spad_map
 2173              		.section	.text.enable_ref_spads,"ax",%progbits
 2174              		.align	1
 2175              		.p2align 4,,15
 2176              		.global	enable_ref_spads
 2177              		.syntax unified
 2178              		.thumb
 2179              		.thumb_func
 2180              		.fpu fpv4-sp-d16
 2181              		.type	enable_ref_spads, %function
 2182              	enable_ref_spads:
 2183              	.LFB14:
 2184              		.loc 1 565 0
 2185              		.cfi_startproc
 2186              		@ args = 20, pretend = 0, frame = 48
 2187              		@ frame_needed = 0, uses_anonymous_args = 0
 2188              	.LVL319:
 2189 0000 2DE9F04F 		push	{r4, r5, r6, r7, r8, r9, r10, fp, lr}
 2190              		.cfi_def_cfa_offset 36
 2191              		.cfi_offset 4, -36
 2192              		.cfi_offset 5, -32
 2193              		.cfi_offset 6, -28
 2194              		.cfi_offset 7, -24
 2195              		.cfi_offset 8, -20
 2196              		.cfi_offset 9, -16
 2197              		.cfi_offset 10, -12
 2198              		.cfi_offset 11, -8
 2199              		.cfi_offset 14, -4
 2200 0004 8DB0     		sub	sp, sp, #52
 2201              		.cfi_def_cfa_offset 88
 2202              		.loc 1 565 0
 2203 0006 7D4C     		ldr	r4, .L445
 2204 0008 DDF86490 		ldr	r9, [sp, #100]
 2205 000c 2468     		ldr	r4, [r4]
 2206 000e 0B94     		str	r4, [sp, #44]
 2207              	.LVL320:
 2208 0010 9846     		mov	r8, r3
 2209 0012 1A9B     		ldr	r3, [sp, #104]
 2210              	.LVL321:
 2211 0014 0790     		str	r0, [sp, #28]
 2212 0016 0192     		str	r2, [sp, #4]
 2213 0018 DDE9166B 		ldrd	r6, fp, [sp, #88]
 2214 001c DDF860C0 		ldr	ip, [sp, #96]
 2215              	.LVL322:
 2216 0020 0693     		str	r3, [sp, #24]
 2217              		.loc 1 584 0
 2218 0022 B9F1000F 		cmp	r9, #0
 2219 0026 00F08880 		beq	.L364
 2220              	.LVL323:
 2221              	.LBB74:
 2222              	.LBB75:
 2223              		.loc 1 419 0
ARM GAS  C:\Users\mathi\AppData\Local\Temp\ccVwcWGw.s 			page 40


 2224 002a 4FEADC05 		lsr	r5, ip, #3
 2225              	.LVL324:
 2226              		.loc 1 422 0
 2227 002e AE42     		cmp	r6, r5
 2228              		.loc 1 420 0
 2229 0030 0CF00707 		and	r7, ip, #7
 2230              	.LVL325:
 2231              		.loc 1 422 0
 2232 0034 33D9     		bls	.L430
 2233 0036 8A46     		mov	r10, r1
 2234              	.LBE75:
 2235              	.LBE74:
 2236              		.loc 1 584 0
 2237 0038 4FF0000E 		mov	lr, #0
 2238              	.LVL326:
 2239              	.L365:
 2240 003c 019B     		ldr	r3, [sp, #4]
 2241 003e 6C1E     		subs	r4, r5, #1
 2242 0040 1C44     		add	r4, r4, r3
 2243              	.LBB81:
 2244              	.LBB76:
 2245              		.loc 1 441 0
 2246 0042 7B1C     		adds	r3, r7, #1
 2247 0044 0293     		str	r3, [sp, #8]
 2248 0046 BB1C     		adds	r3, r7, #2
 2249 0048 0393     		str	r3, [sp, #12]
 2250 004a FB1C     		adds	r3, r7, #3
 2251 004c 0493     		str	r3, [sp, #16]
 2252 004e 3B1D     		adds	r3, r7, #4
 2253 0050 2A46     		mov	r2, r5
 2254 0052 0593     		str	r3, [sp, #20]
 2255              	.LVL327:
 2256              	.L367:
 2257              		.loc 1 427 0
 2258 0054 AA42     		cmp	r2, r5
 2259              		.loc 1 425 0
 2260 0056 14F8013F 		ldrb	r3, [r4, #1]!	@ zero_extendqisi2
 2261              	.LVL328:
 2262              		.loc 1 427 0
 2263 005a 61D0     		beq	.L368
 2264              		.loc 1 435 0
 2265 005c D807     		lsls	r0, r3, #31
 2266 005e 55D4     		bmi	.L441
 2267              	.LVL329:
 2268 0060 9807     		lsls	r0, r3, #30
 2269 0062 55D4     		bmi	.L442
 2270              	.LVL330:
 2271 0064 5907     		lsls	r1, r3, #29
 2272 0066 55D4     		bmi	.L399
 2273              	.LVL331:
 2274 0068 13F00800 		ands	r0, r3, #8
 2275 006c 54D1     		bne	.L400
 2276              		.loc 1 441 0
 2277 006e 0421     		movs	r1, #4
 2278              	.LVL332:
 2279              	.L375:
 2280              		.loc 1 435 0
ARM GAS  C:\Users\mathi\AppData\Local\Temp\ccVwcWGw.s 			page 41


 2281 0070 13F0100F 		tst	r3, #16
 2282 0074 21D1     		bne	.L369
 2283              	.LVL333:
 2284              		.loc 1 441 0
 2285 0076 411D     		adds	r1, r0, #5
 2286              	.LVL334:
 2287              		.loc 1 434 0
 2288 0078 0829     		cmp	r1, #8
 2289 007a 0CD0     		beq	.L434
 2290              		.loc 1 435 0
 2291 007c 13F0200F 		tst	r3, #32
 2292 0080 1BD1     		bne	.L369
 2293              	.LVL335:
 2294              		.loc 1 441 0
 2295 0082 811D     		adds	r1, r0, #6
 2296              	.LVL336:
 2297              		.loc 1 434 0
 2298 0084 0829     		cmp	r1, #8
 2299 0086 06D0     		beq	.L434
 2300              		.loc 1 435 0
 2301 0088 13F0400F 		tst	r3, #64
 2302 008c 15D1     		bne	.L369
 2303              		.loc 1 440 0
 2304 008e DB09     		lsrs	r3, r3, #7
 2305              	.LVL337:
 2306              		.loc 1 434 0
 2307 0090 08B9     		cbnz	r0, .L434
 2308              		.loc 1 435 0
 2309 0092 002B     		cmp	r3, #0
 2310 0094 42D1     		bne	.L392
 2311              	.LVL338:
 2312              	.L434:
 2313              		.loc 1 423 0
 2314 0096 0132     		adds	r2, r2, #1
 2315              		.loc 1 422 0
 2316 0098 9642     		cmp	r6, r2
 2317 009a DBD8     		bhi	.L367
 2318              	.LVL339:
 2319              	.L379:
 2320              	.LBE76:
 2321              	.LBE81:
 2322              		.loc 1 605 0
 2323 009c 069B     		ldr	r3, [sp, #24]
 2324              	.LVL340:
 2325              	.L430:
 2326 009e C3F800C0 		str	ip, [r3]
 2327 00a2 6FF03100 		mvn	r0, #49
 2328              	.LVL341:
 2329              	.L382:
 2330              		.loc 1 626 0
 2331 00a6 554B     		ldr	r3, .L445
 2332 00a8 0B9A     		ldr	r2, [sp, #44]
 2333 00aa 1B68     		ldr	r3, [r3]
 2334 00ac 9A42     		cmp	r2, r3
 2335 00ae 40F0A180 		bne	.L443
 2336 00b2 0DB0     		add	sp, sp, #52
 2337              		.cfi_remember_state
ARM GAS  C:\Users\mathi\AppData\Local\Temp\ccVwcWGw.s 			page 42


 2338              		.cfi_def_cfa_offset 36
 2339              		@ sp needed
 2340 00b4 BDE8F08F 		pop	{r4, r5, r6, r7, r8, r9, r10, fp, pc}
 2341              	.LVL342:
 2342              	.L389:
 2343              		.cfi_restore_state
 2344              	.LBB82:
 2345              	.LBB77:
 2346              		.loc 1 435 0
 2347 00b8 0299     		ldr	r1, [sp, #8]
 2348              	.LVL343:
 2349              	.L369:
 2350              		.loc 1 437 0
 2351 00ba 01EBC202 		add	r2, r1, r2, lsl #3
 2352              	.LVL344:
 2353              	.LBE77:
 2354              	.LBE82:
 2355              		.loc 1 588 0
 2356 00be 541C     		adds	r4, r2, #1
 2357 00c0 ECD0     		beq	.L379
 2358              		.loc 1 594 0
 2359 00c2 0BEB0203 		add	r3, fp, r2
 2360              	.LBB83:
 2361              	.LBB84:
 2362              		.loc 1 455 0
 2363 00c6 9B09     		lsrs	r3, r3, #6
 2364              		.loc 1 456 0
 2365 00c8 4D49     		ldr	r1, .L445+4
 2366 00ca 51F82330 		ldr	r3, [r1, r3, lsl #2]
 2367              	.LBE84:
 2368              	.LBE83:
 2369              		.loc 1 594 0
 2370 00ce 0033     		adds	r3, r3, #0
 2371 00d0 18BF     		it	ne
 2372 00d2 0123     		movne	r3, #1
 2373 00d4 5345     		cmp	r3, r10
 2374 00d6 E1D1     		bne	.L379
 2375              	.LVL345:
 2376              	.LBB85:
 2377              	.LBB86:
 2378              		.loc 1 471 0 discriminator 2
 2379 00d8 D308     		lsrs	r3, r2, #3
 2380              	.LVL346:
 2381              		.loc 1 473 0 discriminator 2
 2382 00da 9E42     		cmp	r6, r3
 2383 00dc 09D9     		bls	.L380
 2384              		.loc 1 476 0
 2385 00de 18F80300 		ldrb	r0, [r8, r3]	@ zero_extendqisi2
 2386              		.loc 1 472 0
 2387 00e2 02F00701 		and	r1, r2, #7
 2388              	.LVL347:
 2389              		.loc 1 476 0
 2390 00e6 0124     		movs	r4, #1
 2391 00e8 04FA01F1 		lsl	r1, r4, r1
 2392              	.LVL348:
 2393 00ec 0143     		orrs	r1, r1, r0
 2394 00ee 08F80310 		strb	r1, [r8, r3]
ARM GAS  C:\Users\mathi\AppData\Local\Temp\ccVwcWGw.s 			page 43


 2395              	.L380:
 2396              	.LVL349:
 2397              	.LBE86:
 2398              	.LBE85:
 2399              		.loc 1 584 0
 2400 00f2 0EF1010E 		add	lr, lr, #1
 2401              	.LVL350:
 2402 00f6 F145     		cmp	r9, lr
 2403              		.loc 1 603 0
 2404 00f8 02F1010C 		add	ip, r2, #1
 2405              	.LVL351:
 2406              		.loc 1 584 0
 2407 00fc 1BD0     		beq	.L444
 2408              	.LVL352:
 2409              	.LBB87:
 2410              	.LBB78:
 2411              		.loc 1 419 0
 2412 00fe 4FEADC05 		lsr	r5, ip, #3
 2413              	.LVL353:
 2414              		.loc 1 422 0
 2415 0102 AE42     		cmp	r6, r5
 2416              		.loc 1 420 0
 2417 0104 0CF00707 		and	r7, ip, #7
 2418              	.LVL354:
 2419              		.loc 1 422 0
 2420 0108 98D8     		bhi	.L365
 2421 010a C7E7     		b	.L379
 2422              	.LVL355:
 2423              	.L441:
 2424              		.loc 1 424 0
 2425 010c 0021     		movs	r1, #0
 2426 010e D4E7     		b	.L369
 2427              	.LVL356:
 2428              	.L442:
 2429              		.loc 1 441 0
 2430 0110 0121     		movs	r1, #1
 2431 0112 D2E7     		b	.L369
 2432              	.LVL357:
 2433              	.L399:
 2434 0114 0221     		movs	r1, #2
 2435 0116 D0E7     		b	.L369
 2436              	.LVL358:
 2437              	.L400:
 2438 0118 0321     		movs	r1, #3
 2439 011a CEE7     		b	.L369
 2440              	.LVL359:
 2441              	.L392:
 2442              		.loc 1 435 0
 2443 011c 0721     		movs	r1, #7
 2444 011e CCE7     		b	.L369
 2445              	.LVL360:
 2446              	.L368:
 2447              		.loc 1 430 0
 2448 0120 3B41     		asrs	r3, r3, r7
 2449              	.LVL361:
 2450 0122 DBB2     		uxtb	r3, r3
 2451              	.LVL362:
ARM GAS  C:\Users\mathi\AppData\Local\Temp\ccVwcWGw.s 			page 44


 2452              		.loc 1 435 0
 2453 0124 D907     		lsls	r1, r3, #31
 2454 0126 4ED4     		bmi	.L388
 2455              	.LVL363:
 2456              		.loc 1 434 0
 2457 0128 0299     		ldr	r1, [sp, #8]
 2458 012a 0829     		cmp	r1, #8
 2459 012c 4DD1     		bne	.L371
 2460              	.LVL364:
 2461              	.L437:
 2462              		.loc 1 423 0
 2463 012e 6A1C     		adds	r2, r5, #1
 2464              		.loc 1 422 0
 2465 0130 9642     		cmp	r6, r2
 2466 0132 8FD8     		bhi	.L367
 2467 0134 B2E7     		b	.L379
 2468              	.LVL365:
 2469              	.L444:
 2470 0136 DDE90630 		ldrd	r3, r0, [sp, #24]
 2471              	.LVL366:
 2472              	.L364:
 2473              	.LBE78:
 2474              	.LBE87:
 2475              		.loc 1 605 0
 2476 013a C3F800C0 		str	ip, [r3]
 2477              	.LVL367:
 2478              	.LBB88:
 2479              	.LBB89:
 2480              		.loc 1 541 0
 2481 013e 4246     		mov	r2, r8
 2482 0140 0623     		movs	r3, #6
 2483 0142 B021     		movs	r1, #176
 2484 0144 FFF7FEFF 		bl	VL53L0X_WriteMulti
 2485              	.LVL368:
 2486              	.LBE89:
 2487              	.LBE88:
 2488              		.loc 1 611 0
 2489 0148 0028     		cmp	r0, #0
 2490 014a ACD1     		bne	.L382
 2491              	.LVL369:
 2492              	.LBB90:
 2493              	.LBB91:
 2494              		.loc 1 549 0
 2495 014c 0798     		ldr	r0, [sp, #28]
 2496              	.LVL370:
 2497 014e 0623     		movs	r3, #6
 2498 0150 09AA     		add	r2, sp, #36
 2499              	.LVL371:
 2500 0152 B021     		movs	r1, #176
 2501 0154 FFF7FEFF 		bl	VL53L0X_ReadMulti
 2502              	.LVL372:
 2503              	.LBE91:
 2504              	.LBE90:
 2505              		.loc 1 617 0
 2506 0158 002E     		cmp	r6, #0
 2507 015a A4D0     		beq	.L382
 2508              		.loc 1 618 0
ARM GAS  C:\Users\mathi\AppData\Local\Temp\ccVwcWGw.s 			page 45


 2509 015c 98F80020 		ldrb	r2, [r8]	@ zero_extendqisi2
 2510 0160 9DF82430 		ldrb	r3, [sp, #36]	@ zero_extendqisi2
 2511 0164 9A42     		cmp	r2, r3
 2512 0166 2BD1     		bne	.L397
 2513              	.LVL373:
 2514              		.loc 1 617 0
 2515 0168 012E     		cmp	r6, #1
 2516 016a 9CD9     		bls	.L382
 2517              		.loc 1 618 0
 2518 016c 98F80120 		ldrb	r2, [r8, #1]	@ zero_extendqisi2
 2519 0170 9DF82530 		ldrb	r3, [sp, #37]	@ zero_extendqisi2
 2520 0174 9A42     		cmp	r2, r3
 2521 0176 23D1     		bne	.L397
 2522              	.LVL374:
 2523              		.loc 1 617 0
 2524 0178 022E     		cmp	r6, #2
 2525 017a 94D0     		beq	.L382
 2526              		.loc 1 618 0
 2527 017c 9DF82620 		ldrb	r2, [sp, #38]	@ zero_extendqisi2
 2528 0180 98F80230 		ldrb	r3, [r8, #2]	@ zero_extendqisi2
 2529 0184 9A42     		cmp	r2, r3
 2530 0186 1BD1     		bne	.L397
 2531              	.LVL375:
 2532              		.loc 1 617 0
 2533 0188 032E     		cmp	r6, #3
 2534 018a 8CD0     		beq	.L382
 2535              		.loc 1 618 0
 2536 018c 9DF82720 		ldrb	r2, [sp, #39]	@ zero_extendqisi2
 2537 0190 98F80330 		ldrb	r3, [r8, #3]	@ zero_extendqisi2
 2538 0194 9A42     		cmp	r2, r3
 2539 0196 13D1     		bne	.L397
 2540              	.LVL376:
 2541              		.loc 1 617 0
 2542 0198 042E     		cmp	r6, #4
 2543 019a 84D0     		beq	.L382
 2544              		.loc 1 618 0
 2545 019c 9DF82820 		ldrb	r2, [sp, #40]	@ zero_extendqisi2
 2546 01a0 98F80430 		ldrb	r3, [r8, #4]	@ zero_extendqisi2
 2547 01a4 9A42     		cmp	r2, r3
 2548 01a6 0BD1     		bne	.L397
 2549              	.LVL377:
 2550              		.loc 1 617 0
 2551 01a8 052E     		cmp	r6, #5
 2552 01aa 3FF47CAF 		beq	.L382
 2553              		.loc 1 618 0
 2554 01ae 98F80530 		ldrb	r3, [r8, #5]	@ zero_extendqisi2
 2555 01b2 9DF82920 		ldrb	r2, [sp, #41]	@ zero_extendqisi2
 2556              		.loc 1 619 0
 2557 01b6 9A42     		cmp	r2, r3
 2558 01b8 18BF     		it	ne
 2559 01ba 6FF03100 		mvnne	r0, #49
 2560 01be 72E7     		b	.L382
 2561              	.LVL378:
 2562              	.L397:
 2563 01c0 6FF03100 		mvn	r0, #49
 2564 01c4 6FE7     		b	.L382
 2565              	.LVL379:
ARM GAS  C:\Users\mathi\AppData\Local\Temp\ccVwcWGw.s 			page 46


 2566              	.L388:
 2567              	.LBB92:
 2568              	.LBB79:
 2569              		.loc 1 435 0
 2570 01c6 3946     		mov	r1, r7
 2571 01c8 77E7     		b	.L369
 2572              	.LVL380:
 2573              	.L371:
 2574 01ca 9807     		lsls	r0, r3, #30
 2575 01cc 3FF574AF 		bmi	.L389
 2576              	.LVL381:
 2577              		.loc 1 434 0
 2578 01d0 0399     		ldr	r1, [sp, #12]
 2579 01d2 0829     		cmp	r1, #8
 2580 01d4 ABD0     		beq	.L437
 2581              		.loc 1 435 0
 2582 01d6 5907     		lsls	r1, r3, #29
 2583 01d8 0ED4     		bmi	.L390
 2584              	.LVL382:
 2585              		.loc 1 441 0
 2586 01da 0498     		ldr	r0, [sp, #16]
 2587              		.loc 1 434 0
 2588 01dc 0828     		cmp	r0, #8
 2589              		.loc 1 441 0
 2590 01de 0146     		mov	r1, r0
 2591              	.LVL383:
 2592              		.loc 1 434 0
 2593 01e0 A5D0     		beq	.L437
 2594              	.LVL384:
 2595              		.loc 1 435 0
 2596 01e2 1807     		lsls	r0, r3, #28
 2597 01e4 3FF569AF 		bmi	.L369
 2598              	.LVL385:
 2599              		.loc 1 441 0
 2600 01e8 0598     		ldr	r0, [sp, #20]
 2601              		.loc 1 434 0
 2602 01ea 0828     		cmp	r0, #8
 2603              		.loc 1 441 0
 2604 01ec 0146     		mov	r1, r0
 2605              	.LVL386:
 2606              		.loc 1 434 0
 2607 01ee 9ED0     		beq	.L437
 2608 01f0 3846     		mov	r0, r7
 2609              	.LVL387:
 2610 01f2 3DE7     		b	.L375
 2611              	.LVL388:
 2612              	.L443:
 2613              	.LBE79:
 2614              	.LBE92:
 2615              		.loc 1 626 0
 2616 01f4 FFF7FEFF 		bl	__stack_chk_fail
 2617              	.LVL389:
 2618              	.L390:
 2619              	.LBB93:
 2620              	.LBB80:
 2621              		.loc 1 441 0
 2622 01f8 0399     		ldr	r1, [sp, #12]
ARM GAS  C:\Users\mathi\AppData\Local\Temp\ccVwcWGw.s 			page 47


 2623 01fa 5EE7     		b	.L369
 2624              	.L446:
 2625              		.align	2
 2626              	.L445:
 2627 01fc 00000000 		.word	__stack_chk_guard
 2628 0200 00000000 		.word	.LANCHOR0
 2629              	.LBE80:
 2630              	.LBE93:
 2631              		.cfi_endproc
 2632              	.LFE14:
 2633              		.size	enable_ref_spads, .-enable_ref_spads
 2634              		.section	.text.perform_ref_signal_measurement,"ax",%progbits
 2635              		.align	1
 2636              		.p2align 4,,15
 2637              		.global	perform_ref_signal_measurement
 2638              		.syntax unified
 2639              		.thumb
 2640              		.thumb_func
 2641              		.fpu fpv4-sp-d16
 2642              		.type	perform_ref_signal_measurement, %function
 2643              	perform_ref_signal_measurement:
 2644              	.LFB15:
 2645              		.loc 1 631 0
 2646              		.cfi_startproc
 2647              		@ args = 0, pretend = 0, frame = 32
 2648              		@ frame_needed = 0, uses_anonymous_args = 0
 2649              	.LVL390:
 2650 0000 F0B5     		push	{r4, r5, r6, r7, lr}
 2651              		.cfi_def_cfa_offset 20
 2652              		.cfi_offset 4, -20
 2653              		.cfi_offset 5, -16
 2654              		.cfi_offset 6, -12
 2655              		.cfi_offset 7, -8
 2656              		.cfi_offset 14, -4
 2657 0002 1D4D     		ldr	r5, .L453
 2658              		.loc 1 641 0
 2659 0004 90F83061 		ldrb	r6, [r0, #304]	@ zero_extendqisi2
 2660              		.loc 1 631 0
 2661 0008 2B68     		ldr	r3, [r5]
 2662 000a 89B0     		sub	sp, sp, #36
 2663              		.cfi_def_cfa_offset 56
 2664              		.loc 1 631 0
 2665 000c 0F46     		mov	r7, r1
 2666              		.loc 1 647 0
 2667 000e C022     		movs	r2, #192
 2668 0010 0121     		movs	r1, #1
 2669              	.LVL391:
 2670              		.loc 1 631 0
 2671 0012 0446     		mov	r4, r0
 2672 0014 0793     		str	r3, [sp, #28]
 2673              	.LVL392:
 2674              		.loc 1 647 0
 2675 0016 FFF7FEFF 		bl	VL53L0X_WrByte
 2676              	.LVL393:
 2677              		.loc 1 650 0
 2678 001a 28B1     		cbz	r0, .L451
 2679              	.L448:
ARM GAS  C:\Users\mathi\AppData\Local\Temp\ccVwcWGw.s 			page 48


 2680              		.loc 1 674 0
 2681 001c 079A     		ldr	r2, [sp, #28]
 2682 001e 2B68     		ldr	r3, [r5]
 2683 0020 9A42     		cmp	r2, r3
 2684 0022 26D1     		bne	.L452
 2685 0024 09B0     		add	sp, sp, #36
 2686              		.cfi_remember_state
 2687              		.cfi_def_cfa_offset 20
 2688              		@ sp needed
 2689 0026 F0BD     		pop	{r4, r5, r6, r7, pc}
 2690              	.LVL394:
 2691              	.L451:
 2692              		.cfi_restore_state
 2693              		.loc 1 651 0
 2694 0028 6946     		mov	r1, sp
 2695 002a 2046     		mov	r0, r4
 2696              	.LVL395:
 2697 002c FFF7FEFF 		bl	VL53L0X_PerformSingleRangingMeasurement
 2698              	.LVL396:
 2699              		.loc 1 654 0
 2700 0030 0028     		cmp	r0, #0
 2701 0032 F3D1     		bne	.L448
 2702              		.loc 1 655 0
 2703 0034 0122     		movs	r2, #1
 2704 0036 FF21     		movs	r1, #255
 2705 0038 2046     		mov	r0, r4
 2706              	.LVL397:
 2707 003a FFF7FEFF 		bl	VL53L0X_WrByte
 2708              	.LVL398:
 2709              		.loc 1 657 0
 2710 003e 0028     		cmp	r0, #0
 2711 0040 ECD1     		bne	.L448
 2712              		.loc 1 658 0
 2713 0042 3A46     		mov	r2, r7
 2714 0044 B621     		movs	r1, #182
 2715 0046 2046     		mov	r0, r4
 2716              	.LVL399:
 2717 0048 FFF7FEFF 		bl	VL53L0X_RdWord
 2718              	.LVL400:
 2719              		.loc 1 662 0
 2720 004c 0028     		cmp	r0, #0
 2721 004e E5D1     		bne	.L448
 2722              		.loc 1 663 0
 2723 0050 0246     		mov	r2, r0
 2724 0052 FF21     		movs	r1, #255
 2725 0054 2046     		mov	r0, r4
 2726              	.LVL401:
 2727 0056 FFF7FEFF 		bl	VL53L0X_WrByte
 2728              	.LVL402:
 2729              		.loc 1 665 0
 2730 005a 0028     		cmp	r0, #0
 2731 005c DED1     		bne	.L448
 2732              		.loc 1 667 0
 2733 005e 3246     		mov	r2, r6
 2734 0060 0121     		movs	r1, #1
 2735 0062 2046     		mov	r0, r4
 2736              	.LVL403:
ARM GAS  C:\Users\mathi\AppData\Local\Temp\ccVwcWGw.s 			page 49


 2737 0064 FFF7FEFF 		bl	VL53L0X_WrByte
 2738              	.LVL404:
 2739              		.loc 1 669 0
 2740 0068 0028     		cmp	r0, #0
 2741 006a D7D1     		bne	.L448
 2742              		.loc 1 670 0
 2743 006c 84F83061 		strb	r6, [r4, #304]
 2744 0070 D4E7     		b	.L448
 2745              	.L452:
 2746              		.loc 1 674 0
 2747 0072 FFF7FEFF 		bl	__stack_chk_fail
 2748              	.LVL405:
 2749              	.L454:
 2750 0076 00BF     		.align	2
 2751              	.L453:
 2752 0078 00000000 		.word	__stack_chk_guard
 2753              		.cfi_endproc
 2754              	.LFE15:
 2755              		.size	perform_ref_signal_measurement, .-perform_ref_signal_measurement
 2756              		.section	.text.VL53L0X_set_reference_spads,"ax",%progbits
 2757              		.align	1
 2758              		.p2align 4,,15
 2759              		.global	VL53L0X_set_reference_spads
 2760              		.syntax unified
 2761              		.thumb
 2762              		.thumb_func
 2763              		.fpu fpv4-sp-d16
 2764              		.type	VL53L0X_set_reference_spads, %function
 2765              	VL53L0X_set_reference_spads:
 2766              	.LFB17:
 2767              		.loc 1 945 0
 2768              		.cfi_startproc
 2769              		@ args = 0, pretend = 0, frame = 8
 2770              		@ frame_needed = 0, uses_anonymous_args = 0
 2771              	.LVL406:
 2772 0000 F0B5     		push	{r4, r5, r6, r7, lr}
 2773              		.cfi_def_cfa_offset 20
 2774              		.cfi_offset 4, -20
 2775              		.cfi_offset 5, -16
 2776              		.cfi_offset 6, -12
 2777              		.cfi_offset 7, -8
 2778              		.cfi_offset 14, -4
 2779 0002 2D4E     		ldr	r6, .L473
 2780 0004 87B0     		sub	sp, sp, #28
 2781              		.cfi_def_cfa_offset 48
 2782              		.loc 1 945 0
 2783 0006 0F46     		mov	r7, r1
 2784 0008 1546     		mov	r5, r2
 2785 000a 3368     		ldr	r3, [r6]
 2786 000c 0593     		str	r3, [sp, #20]
 2787              	.LVL407:
 2788              		.loc 1 961 0
 2789 000e 0122     		movs	r2, #1
 2790              	.LVL408:
 2791 0010 FF21     		movs	r1, #255
 2792              	.LVL409:
 2793              		.loc 1 945 0
ARM GAS  C:\Users\mathi\AppData\Local\Temp\ccVwcWGw.s 			page 50


 2794 0012 0446     		mov	r4, r0
 2795              		.loc 1 961 0
 2796 0014 FFF7FEFF 		bl	VL53L0X_WrByte
 2797              	.LVL410:
 2798              		.loc 1 963 0
 2799 0018 88B3     		cbz	r0, .L471
 2800              	.LVL411:
 2801              	.L457:
 2802              		.loc 1 980 0 discriminator 1
 2803 001a 0021     		movs	r1, #0
 2804 001c C4F82411 		str	r1, [r4, #292]
 2805 0020 A4F82811 		strh	r1, [r4, #296]	@ movhi
 2806              	.LVL412:
 2807              		.loc 1 982 0 discriminator 1
 2808 0024 4DB3     		cbz	r5, .L464
 2809              	.LVL413:
 2810              	.LBB94:
 2811              	.LBB95:
 2812              		.loc 1 456 0
 2813 0026 2548     		ldr	r0, .L473+4
 2814 0028 8368     		ldr	r3, [r0, #8]
 2815              	.LBE95:
 2816              	.LBE94:
 2817              		.loc 1 986 0
 2818 002a 0122     		movs	r2, #1
 2819              	.LBB99:
 2820              	.LBB96:
 2821              		.loc 1 456 0
 2822 002c E3B1     		cbz	r3, .L460
 2823              	.LVL414:
 2824              	.L459:
 2825              	.LBE96:
 2826              	.LBE99:
 2827              		.loc 1 989 0
 2828 002e 04AB     		add	r3, sp, #16
 2829 0030 CDE90017 		strd	r1, r7, [sp]
 2830 0034 0293     		str	r3, [sp, #8]
 2831 0036 04F59572 		add	r2, r4, #298
 2832 003a 04F59273 		add	r3, r4, #292
 2833 003e 2946     		mov	r1, r5
 2834              	.LVL415:
 2835 0040 2046     		mov	r0, r4
 2836 0042 FFF7FEFF 		bl	enable_ref_spads.constprop.1
 2837              	.LVL416:
 2838              		.loc 1 999 0
 2839 0046 30B9     		cbnz	r0, .L462
 2840              		.loc 1 1000 0
 2841 0048 0123     		movs	r3, #1
 2842              		.loc 1 1001 0
 2843 004a 84F81371 		strb	r7, [r4, #275]
 2844              		.loc 1 1003 0
 2845 004e 84F81451 		strb	r5, [r4, #276]
 2846              		.loc 1 1000 0
 2847 0052 84F81531 		strb	r3, [r4, #277]
 2848              	.L462:
 2849              		.loc 1 1008 0
 2850 0056 059A     		ldr	r2, [sp, #20]
ARM GAS  C:\Users\mathi\AppData\Local\Temp\ccVwcWGw.s 			page 51


 2851 0058 3368     		ldr	r3, [r6]
 2852 005a 9A42     		cmp	r2, r3
 2853 005c 2AD1     		bne	.L472
 2854 005e 07B0     		add	sp, sp, #28
 2855              		.cfi_remember_state
 2856              		.cfi_def_cfa_offset 20
 2857              		@ sp needed
 2858 0060 F0BD     		pop	{r4, r5, r6, r7, pc}
 2859              	.LVL417:
 2860              	.L461:
 2861              		.cfi_restore_state
 2862              		.loc 1 984 0
 2863 0062 2C29     		cmp	r1, #44
 2864 0064 0A46     		mov	r2, r1
 2865 0066 E2D0     		beq	.L459
 2866              	.LVL418:
 2867              	.L460:
 2868              	.LBB100:
 2869              	.LBB97:
 2870              		.loc 1 455 0
 2871 0068 02F1B503 		add	r3, r2, #181
 2872 006c 9B09     		lsrs	r3, r3, #6
 2873              	.LBE97:
 2874              	.LBE100:
 2875              		.loc 1 986 0
 2876 006e 511C     		adds	r1, r2, #1
 2877              	.LVL419:
 2878              	.LBB101:
 2879              	.LBB98:
 2880              		.loc 1 456 0
 2881 0070 50F82330 		ldr	r3, [r0, r3, lsl #2]
 2882 0074 002B     		cmp	r3, #0
 2883 0076 F4D0     		beq	.L461
 2884 0078 D9E7     		b	.L459
 2885              	.LVL420:
 2886              	.L464:
 2887              	.LBE98:
 2888              	.LBE101:
 2889              		.loc 1 947 0
 2890 007a 2946     		mov	r1, r5
 2891 007c D7E7     		b	.L459
 2892              	.LVL421:
 2893              	.L471:
 2894              		.loc 1 964 0
 2895 007e 0246     		mov	r2, r0
 2896 0080 4F21     		movs	r1, #79
 2897 0082 2046     		mov	r0, r4
 2898              	.LVL422:
 2899 0084 FFF7FEFF 		bl	VL53L0X_WrByte
 2900              	.LVL423:
 2901              		.loc 1 967 0
 2902 0088 0028     		cmp	r0, #0
 2903 008a C6D1     		bne	.L457
 2904              		.loc 1 968 0
 2905 008c 2C22     		movs	r2, #44
 2906 008e 4E21     		movs	r1, #78
 2907 0090 2046     		mov	r0, r4
ARM GAS  C:\Users\mathi\AppData\Local\Temp\ccVwcWGw.s 			page 52


 2908              	.LVL424:
 2909 0092 FFF7FEFF 		bl	VL53L0X_WrByte
 2910              	.LVL425:
 2911              		.loc 1 971 0
 2912 0096 0246     		mov	r2, r0
 2913 0098 0028     		cmp	r0, #0
 2914 009a BED1     		bne	.L457
 2915              		.loc 1 972 0
 2916 009c FF21     		movs	r1, #255
 2917 009e 2046     		mov	r0, r4
 2918              	.LVL426:
 2919 00a0 FFF7FEFF 		bl	VL53L0X_WrByte
 2920              	.LVL427:
 2921              		.loc 1 974 0
 2922 00a4 0028     		cmp	r0, #0
 2923 00a6 B8D1     		bne	.L457
 2924              		.loc 1 975 0
 2925 00a8 B422     		movs	r2, #180
 2926 00aa B621     		movs	r1, #182
 2927 00ac 2046     		mov	r0, r4
 2928              	.LVL428:
 2929 00ae FFF7FEFF 		bl	VL53L0X_WrByte
 2930              	.LVL429:
 2931 00b2 B2E7     		b	.L457
 2932              	.LVL430:
 2933              	.L472:
 2934              		.loc 1 1008 0
 2935 00b4 FFF7FEFF 		bl	__stack_chk_fail
 2936              	.LVL431:
 2937              	.L474:
 2938              		.align	2
 2939              	.L473:
 2940 00b8 00000000 		.word	__stack_chk_guard
 2941 00bc 00000000 		.word	.LANCHOR0
 2942              		.cfi_endproc
 2943              	.LFE17:
 2944              		.size	VL53L0X_set_reference_spads, .-VL53L0X_set_reference_spads
 2945              		.section	.text.VL53L0X_get_reference_spads,"ax",%progbits
 2946              		.align	1
 2947              		.p2align 4,,15
 2948              		.global	VL53L0X_get_reference_spads
 2949              		.syntax unified
 2950              		.thumb
 2951              		.thumb_func
 2952              		.fpu fpv4-sp-d16
 2953              		.type	VL53L0X_get_reference_spads, %function
 2954              	VL53L0X_get_reference_spads:
 2955              	.LFB18:
 2956              		.loc 1 1012 0
 2957              		.cfi_startproc
 2958              		@ args = 0, pretend = 0, frame = 32
 2959              		@ frame_needed = 0, uses_anonymous_args = 0
 2960              	.LVL432:
 2961 0000 2DE9F04F 		push	{r4, r5, r6, r7, r8, r9, r10, fp, lr}
 2962              		.cfi_def_cfa_offset 36
 2963              		.cfi_offset 4, -36
 2964              		.cfi_offset 5, -32
ARM GAS  C:\Users\mathi\AppData\Local\Temp\ccVwcWGw.s 			page 53


 2965              		.cfi_offset 6, -28
 2966              		.cfi_offset 7, -24
 2967              		.cfi_offset 8, -20
 2968              		.cfi_offset 9, -16
 2969              		.cfi_offset 10, -12
 2970              		.cfi_offset 11, -8
 2971              		.cfi_offset 14, -4
 2972 0004 DFF890B2 		ldr	fp, .L594
 2973              		.loc 1 1024 0
 2974 0008 90F81531 		ldrb	r3, [r0, #277]	@ zero_extendqisi2
 2975              		.loc 1 1012 0
 2976 000c DBF80050 		ldr	r5, [fp]
 2977 0010 89B0     		sub	sp, sp, #36
 2978              		.cfi_def_cfa_offset 72
 2979              		.loc 1 1024 0
 2980 0012 012B     		cmp	r3, #1
 2981              		.loc 1 1012 0
 2982 0014 0446     		mov	r4, r0
 2983 0016 0795     		str	r5, [sp, #28]
 2984              	.LVL433:
 2985 0018 CDE90012 		strd	r1, r2, [sp]
 2986              		.loc 1 1024 0
 2987 001c 0ED0     		beq	.L583
 2988              	.LVL434:
 2989              	.LBB106:
 2990              	.LBB107:
 2991              		.loc 1 549 0
 2992 001e 05AA     		add	r2, sp, #20
 2993              	.LVL435:
 2994 0020 0623     		movs	r3, #6
 2995 0022 B021     		movs	r1, #176
 2996              	.LVL436:
 2997 0024 FFF7FEFF 		bl	VL53L0X_ReadMulti
 2998              	.LVL437:
 2999              	.LBE107:
 3000              	.LBE106:
 3001              		.loc 1 1035 0
 3002 0028 80B1     		cbz	r0, .L584
 3003              	.LVL438:
 3004              	.L477:
 3005              		.loc 1 1062 0
 3006 002a 079A     		ldr	r2, [sp, #28]
 3007 002c DBF80030 		ldr	r3, [fp]
 3008 0030 9A42     		cmp	r2, r3
 3009 0032 40F02E81 		bne	.L585
 3010 0036 09B0     		add	sp, sp, #36
 3011              		.cfi_remember_state
 3012              		.cfi_def_cfa_offset 36
 3013              	.LVL439:
 3014              		@ sp needed
 3015 0038 BDE8F08F 		pop	{r4, r5, r6, r7, r8, r9, r10, fp, pc}
 3016              	.LVL440:
 3017              	.L583:
 3018              		.cfi_restore_state
 3019              		.loc 1 1026 0
 3020 003c 90F81331 		ldrb	r3, [r0, #275]	@ zero_extendqisi2
 3021 0040 0B60     		str	r3, [r1]
ARM GAS  C:\Users\mathi\AppData\Local\Temp\ccVwcWGw.s 			page 54


 3022              	.LVL441:
 3023              		.loc 1 1028 0
 3024 0042 90F81431 		ldrb	r3, [r0, #276]	@ zero_extendqisi2
 3025 0046 1370     		strb	r3, [r2]
 3026              		.loc 1 1013 0
 3027 0048 0020     		movs	r0, #0
 3028              	.LVL442:
 3029 004a EEE7     		b	.L477
 3030              	.LVL443:
 3031              	.L584:
 3032              	.LBB108:
 3033              	.LBB109:
 3034              		.loc 1 508 0
 3035 004c CDE90204 		strd	r0, r4, [sp, #8]
 3036 0050 0DF11409 		add	r9, sp, #20
 3037              		.loc 1 505 0
 3038 0054 0246     		mov	r2, r0
 3039              		.loc 1 492 0
 3040 0056 0546     		mov	r5, r0
 3041              		.loc 1 508 0
 3042 0058 0146     		mov	r1, r0
 3043 005a 8246     		mov	r10, r0
 3044              	.LVL444:
 3045              	.L507:
 3046              		.loc 1 509 0
 3047 005c 19F8013B 		ldrb	r3, [r9], #1	@ zero_extendqisi2
 3048              	.LVL445:
 3049 0060 03F00207 		and	r7, r3, #2
 3050 0064 03F00406 		and	r6, r3, #4
 3051 0068 03F0080E 		and	lr, r3, #8
 3052 006c 03F0100C 		and	ip, r3, #16
 3053 0070 03F02008 		and	r8, r3, #32
 3054 0074 03F04004 		and	r4, r3, #64
 3055 0078 D809     		lsrs	r0, r3, #7
 3056              		.loc 1 512 0
 3057 007a DB07     		lsls	r3, r3, #31
 3058              	.LVL446:
 3059 007c 34D5     		bpl	.L478
 3060              		.loc 1 513 0
 3061 007e 531C     		adds	r3, r2, #1
 3062              	.LVL447:
 3063              		.loc 1 515 0
 3064 0080 002D     		cmp	r5, #0
 3065 0082 5AD1     		bne	.L479
 3066              	.LVL448:
 3067              		.loc 1 517 0
 3068 0084 0129     		cmp	r1, #1
 3069 0086 40F2BB80 		bls	.L480
 3070              	.LVL449:
 3071              		.loc 1 512 0
 3072 008a 002F     		cmp	r7, #0
 3073 008c 00F09480 		beq	.L538
 3074              		.loc 1 513 0
 3075 0090 931C     		adds	r3, r2, #2
 3076              	.LVL450:
 3077              		.loc 1 516 0
 3078 0092 4FF0010A 		mov	r10, #1
ARM GAS  C:\Users\mathi\AppData\Local\Temp\ccVwcWGw.s 			page 55


 3079              	.LVL451:
 3080              	.L481:
 3081              		.loc 1 512 0
 3082 0096 002E     		cmp	r6, #0
 3083 0098 53D1     		bne	.L586
 3084              	.LVL452:
 3085              	.L563:
 3086 009a BEF1000F 		cmp	lr, #0
 3087 009e 7BD0     		beq	.L489
 3088              	.LVL453:
 3089              	.L513:
 3090              		.loc 1 513 0
 3091 00a0 0133     		adds	r3, r3, #1
 3092              	.LVL454:
 3093              	.L488:
 3094              		.loc 1 512 0
 3095 00a2 BCF1000F 		cmp	ip, #0
 3096 00a6 30D1     		bne	.L524
 3097              	.LVL455:
 3098 00a8 B8F1000F 		cmp	r8, #0
 3099 00ac 00D0     		beq	.L497
 3100              	.LVL456:
 3101              	.L526:
 3102              		.loc 1 513 0
 3103 00ae 0133     		adds	r3, r3, #1
 3104              	.LVL457:
 3105              	.L497:
 3106              		.loc 1 512 0
 3107 00b0 84BB     		cbnz	r4, .L533
 3108              	.LVL458:
 3109 00b2 0028     		cmp	r0, #0
 3110 00b4 5BD0     		beq	.L575
 3111              	.LVL459:
 3112              	.L535:
 3113              		.loc 1 513 0
 3114 00b6 5A1C     		adds	r2, r3, #1
 3115              	.LVL460:
 3116              	.L576:
 3117              		.loc 1 512 0
 3118 00b8 0125     		movs	r5, #1
 3119              	.L505:
 3120              	.LVL461:
 3121              		.loc 1 508 0
 3122 00ba 0131     		adds	r1, r1, #1
 3123              	.LVL462:
 3124 00bc 0529     		cmp	r1, #5
 3125 00be CDD1     		bne	.L507
 3126              	.LVL463:
 3127 00c0 9DF81930 		ldrb	r3, [sp, #25]	@ zero_extendqisi2
 3128              	.LBE109:
 3129              	.LBE108:
 3130              		.loc 1 1047 0
 3131 00c4 0099     		ldr	r1, [sp]
 3132              	.LVL464:
 3133 00c6 DB07     		lsls	r3, r3, #31
 3134              	.LVL465:
 3135 00c8 DDE90204 		ldrd	r0, r4, [sp, #8]
ARM GAS  C:\Users\mathi\AppData\Local\Temp\ccVwcWGw.s 			page 56


 3136 00cc 48BF     		it	mi
 3137 00ce 0532     		addmi	r2, r2, #5
 3138              	.LVL466:
 3139 00d0 0A60     		str	r2, [r1]
 3140              		.loc 1 1048 0
 3141 00d2 0199     		ldr	r1, [sp, #4]
 3142              		.loc 1 1050 0
 3143 00d4 0123     		movs	r3, #1
 3144              		.loc 1 1048 0
 3145 00d6 81F800A0 		strb	r10, [r1]
 3146              		.loc 1 1052 0
 3147 00da 84F81321 		strb	r2, [r4, #275]
 3148              		.loc 1 1055 0
 3149 00de 84F814A1 		strb	r10, [r4, #276]
 3150              		.loc 1 1050 0
 3151 00e2 84F81531 		strb	r3, [r4, #277]
 3152 00e6 A0E7     		b	.L477
 3153              	.LVL467:
 3154              	.L478:
 3155              	.LBB111:
 3156              	.LBB110:
 3157              		.loc 1 512 0
 3158 00e8 D7B1     		cbz	r7, .L482
 3159              		.loc 1 513 0
 3160 00ea 531C     		adds	r3, r2, #1
 3161              	.LVL468:
 3162              		.loc 1 515 0
 3163 00ec 002D     		cmp	r5, #0
 3164 00ee D2D1     		bne	.L481
 3165              	.LVL469:
 3166              		.loc 1 517 0
 3167 00f0 0129     		cmp	r1, #1
 3168 00f2 7BD9     		bls	.L587
 3169              	.LVL470:
 3170              		.loc 1 512 0
 3171 00f4 002E     		cmp	r6, #0
 3172 00f6 56D0     		beq	.L541
 3173              		.loc 1 513 0
 3174 00f8 931C     		adds	r3, r2, #2
 3175              	.LVL471:
 3176              		.loc 1 516 0
 3177 00fa 4FF0010A 		mov	r10, #1
 3178              	.LVL472:
 3179              	.L484:
 3180              		.loc 1 512 0
 3181 00fe BEF1000F 		cmp	lr, #0
 3182 0102 CDD1     		bne	.L513
 3183              	.LVL473:
 3184 0104 BCF1000F 		cmp	ip, #0
 3185 0108 00D0     		beq	.L493
 3186              	.LVL474:
 3187              	.L524:
 3188              		.loc 1 513 0
 3189 010a 0133     		adds	r3, r3, #1
 3190              	.LVL475:
 3191              	.L493:
 3192              		.loc 1 512 0
ARM GAS  C:\Users\mathi\AppData\Local\Temp\ccVwcWGw.s 			page 57


 3193 010c B8F1000F 		cmp	r8, #0
 3194 0110 CDD1     		bne	.L526
 3195              	.LVL476:
 3196              	.L498:
 3197 0112 54B3     		cbz	r4, .L588
 3198              	.LVL477:
 3199              	.L533:
 3200              		.loc 1 513 0
 3201 0114 5A1C     		adds	r2, r3, #1
 3202              	.LVL478:
 3203              	.L500:
 3204              		.loc 1 512 0
 3205 0116 0028     		cmp	r0, #0
 3206 0118 CED0     		beq	.L576
 3207              		.loc 1 513 0
 3208 011a 0132     		adds	r2, r2, #1
 3209              	.LVL479:
 3210 011c 0125     		movs	r5, #1
 3211 011e CCE7     		b	.L505
 3212              	.LVL480:
 3213              	.L482:
 3214              		.loc 1 512 0
 3215 0120 8EB1     		cbz	r6, .L486
 3216              		.loc 1 513 0
 3217 0122 531C     		adds	r3, r2, #1
 3218              	.LVL481:
 3219              		.loc 1 515 0
 3220 0124 002D     		cmp	r5, #0
 3221 0126 EAD1     		bne	.L484
 3222              	.LVL482:
 3223              		.loc 1 517 0
 3224 0128 0129     		cmp	r1, #1
 3225 012a 63D9     		bls	.L589
 3226              	.LVL483:
 3227              		.loc 1 512 0
 3228 012c BEF1000F 		cmp	lr, #0
 3229 0130 45D0     		beq	.L543
 3230              		.loc 1 513 0
 3231 0132 931C     		adds	r3, r2, #2
 3232              	.LVL484:
 3233              		.loc 1 516 0
 3234 0134 4FF0010A 		mov	r10, #1
 3235 0138 B3E7     		b	.L488
 3236              	.LVL485:
 3237              	.L479:
 3238              		.loc 1 512 0
 3239 013a D7B1     		cbz	r7, .L590
 3240              		.loc 1 513 0
 3241 013c 931C     		adds	r3, r2, #2
 3242              	.LVL486:
 3243              		.loc 1 512 0
 3244 013e 002E     		cmp	r6, #0
 3245 0140 ABD0     		beq	.L563
 3246              	.LVL487:
 3247              	.L586:
 3248              		.loc 1 513 0
 3249 0142 0133     		adds	r3, r3, #1
ARM GAS  C:\Users\mathi\AppData\Local\Temp\ccVwcWGw.s 			page 58


 3250              	.LVL488:
 3251 0144 DBE7     		b	.L484
 3252              	.LVL489:
 3253              	.L486:
 3254              		.loc 1 512 0
 3255 0146 BEF1000F 		cmp	lr, #0
 3256 014a 15D0     		beq	.L490
 3257              		.loc 1 513 0
 3258 014c 531C     		adds	r3, r2, #1
 3259              	.LVL490:
 3260              		.loc 1 515 0
 3261 014e 002D     		cmp	r5, #0
 3262 0150 A7D1     		bne	.L488
 3263              	.LVL491:
 3264              		.loc 1 517 0
 3265 0152 0129     		cmp	r1, #1
 3266 0154 41D9     		bls	.L591
 3267              	.LVL492:
 3268              		.loc 1 512 0
 3269 0156 BCF1000F 		cmp	ip, #0
 3270 015a 27D0     		beq	.L545
 3271              		.loc 1 513 0
 3272 015c 931C     		adds	r3, r2, #2
 3273              	.LVL493:
 3274              		.loc 1 516 0
 3275 015e 4FF0010A 		mov	r10, #1
 3276              	.LVL494:
 3277              		.loc 1 512 0
 3278 0162 B8F1000F 		cmp	r8, #0
 3279 0166 D4D0     		beq	.L498
 3280 0168 A1E7     		b	.L526
 3281              	.LVL495:
 3282              	.L588:
 3283 016a 0028     		cmp	r0, #0
 3284 016c A3D1     		bne	.L535
 3285              	.LVL496:
 3286              	.L575:
 3287 016e 1A46     		mov	r2, r3
 3288 0170 A2E7     		b	.L576
 3289              	.LVL497:
 3290              	.L590:
 3291 0172 3EB3     		cbz	r6, .L485
 3292              		.loc 1 513 0
 3293 0174 931C     		adds	r3, r2, #2
 3294              	.LVL498:
 3295 0176 C2E7     		b	.L484
 3296              	.LVL499:
 3297              	.L490:
 3298              		.loc 1 512 0
 3299 0178 BCF1000F 		cmp	ip, #0
 3300 017c 44D0     		beq	.L495
 3301              		.loc 1 513 0
 3302 017e 531C     		adds	r3, r2, #1
 3303              	.LVL500:
 3304              		.loc 1 515 0
 3305 0180 002D     		cmp	r5, #0
 3306 0182 C3D1     		bne	.L493
ARM GAS  C:\Users\mathi\AppData\Local\Temp\ccVwcWGw.s 			page 59


 3307              	.LVL501:
 3308              		.loc 1 512 0
 3309 0184 B8F1000F 		cmp	r8, #0
 3310 0188 03D0     		beq	.L546
 3311              		.loc 1 513 0
 3312 018a 931C     		adds	r3, r2, #2
 3313              	.LVL502:
 3314              		.loc 1 516 0
 3315 018c 4FF0010A 		mov	r10, #1
 3316 0190 8EE7     		b	.L497
 3317              	.L546:
 3318 0192 4FF0010A 		mov	r10, #1
 3319 0196 8BE7     		b	.L497
 3320              	.LVL503:
 3321              	.L489:
 3322              		.loc 1 512 0
 3323 0198 BCF1000F 		cmp	ip, #0
 3324 019c B5D1     		bne	.L524
 3325              	.LVL504:
 3326 019e B8F1000F 		cmp	r8, #0
 3327 01a2 84D1     		bne	.L526
 3328 01a4 B5E7     		b	.L498
 3329              	.LVL505:
 3330              	.L541:
 3331              		.loc 1 516 0
 3332 01a6 4FF0010A 		mov	r10, #1
 3333 01aa A8E7     		b	.L484
 3334              	.LVL506:
 3335              	.L545:
 3336 01ac 4FF0010A 		mov	r10, #1
 3337              	.LVL507:
 3338              		.loc 1 512 0
 3339 01b0 B8F1000F 		cmp	r8, #0
 3340 01b4 ADD0     		beq	.L498
 3341 01b6 7AE7     		b	.L526
 3342              	.LVL508:
 3343              	.L538:
 3344              		.loc 1 516 0
 3345 01b8 4FF0010A 		mov	r10, #1
 3346 01bc 6BE7     		b	.L481
 3347              	.LVL509:
 3348              	.L543:
 3349 01be 4FF0010A 		mov	r10, #1
 3350 01c2 6EE7     		b	.L488
 3351              	.LVL510:
 3352              	.L485:
 3353              		.loc 1 512 0
 3354 01c4 BEF1000F 		cmp	lr, #0
 3355 01c8 61D1     		bne	.L592
 3356              	.LVL511:
 3357 01ca BCF1000F 		cmp	ip, #0
 3358 01ce 37D0     		beq	.L494
 3359              		.loc 1 513 0
 3360 01d0 931C     		adds	r3, r2, #2
 3361              	.LVL512:
 3362              		.loc 1 512 0
 3363 01d2 B8F1000F 		cmp	r8, #0
ARM GAS  C:\Users\mathi\AppData\Local\Temp\ccVwcWGw.s 			page 60


 3364 01d6 9CD0     		beq	.L498
 3365 01d8 69E7     		b	.L526
 3366              	.LVL513:
 3367              	.L591:
 3368 01da BCF1000F 		cmp	ip, #0
 3369 01de 25D0     		beq	.L544
 3370              		.loc 1 513 0
 3371 01e0 931C     		adds	r3, r2, #2
 3372              	.LVL514:
 3373              		.loc 1 518 0
 3374 01e2 AA46     		mov	r10, r5
 3375              	.LVL515:
 3376              		.loc 1 512 0
 3377 01e4 B8F1000F 		cmp	r8, #0
 3378 01e8 93D0     		beq	.L498
 3379 01ea 60E7     		b	.L526
 3380              	.LVL516:
 3381              	.L587:
 3382 01ec 26B3     		cbz	r6, .L540
 3383              		.loc 1 513 0
 3384 01ee 931C     		adds	r3, r2, #2
 3385              	.LVL517:
 3386              		.loc 1 518 0
 3387 01f0 AA46     		mov	r10, r5
 3388 01f2 84E7     		b	.L484
 3389              	.LVL518:
 3390              	.L589:
 3391              		.loc 1 512 0
 3392 01f4 BEF1000F 		cmp	lr, #0
 3393 01f8 20D0     		beq	.L542
 3394              		.loc 1 513 0
 3395 01fa 931C     		adds	r3, r2, #2
 3396              	.LVL519:
 3397              		.loc 1 518 0
 3398 01fc AA46     		mov	r10, r5
 3399 01fe 50E7     		b	.L488
 3400              	.LVL520:
 3401              	.L480:
 3402              		.loc 1 512 0
 3403 0200 97B1     		cbz	r7, .L539
 3404              		.loc 1 513 0
 3405 0202 931C     		adds	r3, r2, #2
 3406              	.LVL521:
 3407              		.loc 1 518 0
 3408 0204 AA46     		mov	r10, r5
 3409 0206 46E7     		b	.L481
 3410              	.LVL522:
 3411              	.L495:
 3412              		.loc 1 512 0
 3413 0208 B8F1000F 		cmp	r8, #0
 3414 020c 1ED0     		beq	.L499
 3415              		.loc 1 513 0
 3416 020e 531C     		adds	r3, r2, #1
 3417              	.LVL523:
 3418              		.loc 1 515 0
 3419 0210 002D     		cmp	r5, #0
 3420 0212 7FF44DAF 		bne	.L497
ARM GAS  C:\Users\mathi\AppData\Local\Temp\ccVwcWGw.s 			page 61


 3421              	.LVL524:
 3422              		.loc 1 512 0
 3423 0216 1CB1     		cbz	r4, .L547
 3424              		.loc 1 513 0
 3425 0218 0232     		adds	r2, r2, #2
 3426              	.LVL525:
 3427              		.loc 1 516 0
 3428 021a 4FF0010A 		mov	r10, #1
 3429 021e 7AE7     		b	.L500
 3430              	.LVL526:
 3431              	.L547:
 3432              		.loc 1 513 0
 3433 0220 1A46     		mov	r2, r3
 3434              		.loc 1 516 0
 3435 0222 4FF0010A 		mov	r10, #1
 3436 0226 76E7     		b	.L500
 3437              	.LVL527:
 3438              	.L539:
 3439              		.loc 1 518 0
 3440 0228 AA46     		mov	r10, r5
 3441 022a 34E7     		b	.L481
 3442              	.LVL528:
 3443              	.L544:
 3444 022c AA46     		mov	r10, r5
 3445              	.LVL529:
 3446              		.loc 1 512 0
 3447 022e B8F1000F 		cmp	r8, #0
 3448 0232 3FF46EAF 		beq	.L498
 3449 0236 3AE7     		b	.L526
 3450              	.LVL530:
 3451              	.L540:
 3452              		.loc 1 518 0
 3453 0238 AA46     		mov	r10, r5
 3454 023a 60E7     		b	.L484
 3455              	.LVL531:
 3456              	.L542:
 3457 023c AA46     		mov	r10, r5
 3458 023e 30E7     		b	.L488
 3459              	.LVL532:
 3460              	.L494:
 3461              		.loc 1 512 0
 3462 0240 B8F1000F 		cmp	r8, #0
 3463 0244 21D1     		bne	.L593
 3464              	.LVL533:
 3465 0246 D4B1     		cbz	r4, .L503
 3466              		.loc 1 513 0
 3467 0248 0232     		adds	r2, r2, #2
 3468              	.LVL534:
 3469 024a 64E7     		b	.L500
 3470              	.LVL535:
 3471              	.L499:
 3472              		.loc 1 512 0
 3473 024c 54B1     		cbz	r4, .L504
 3474              		.loc 1 513 0
 3475 024e 531C     		adds	r3, r2, #1
 3476              	.LVL536:
 3477              		.loc 1 515 0
ARM GAS  C:\Users\mathi\AppData\Local\Temp\ccVwcWGw.s 			page 62


 3478 0250 9DB9     		cbnz	r5, .L548
 3479              	.LVL537:
 3480              		.loc 1 516 0
 3481 0252 4FF0010A 		mov	r10, #1
 3482              		.loc 1 512 0
 3483 0256 10B1     		cbz	r0, .L549
 3484              		.loc 1 513 0
 3485 0258 0232     		adds	r2, r2, #2
 3486              	.LVL538:
 3487              		.loc 1 519 0
 3488 025a 5546     		mov	r5, r10
 3489 025c 2DE7     		b	.L505
 3490              	.LVL539:
 3491              	.L549:
 3492              		.loc 1 513 0
 3493 025e 1A46     		mov	r2, r3
 3494              		.loc 1 519 0
 3495 0260 5546     		mov	r5, r10
 3496 0262 2AE7     		b	.L505
 3497              	.LVL540:
 3498              	.L504:
 3499              		.loc 1 512 0
 3500 0264 0028     		cmp	r0, #0
 3501 0266 3FF428AF 		beq	.L505
 3502              		.loc 1 513 0
 3503 026a 0132     		adds	r2, r2, #1
 3504              	.LVL541:
 3505              		.loc 1 515 0
 3506 026c 002D     		cmp	r5, #0
 3507 026e 7FF423AF 		bne	.L576
 3508              		.loc 1 516 0
 3509 0272 4FF0010A 		mov	r10, #1
 3510              		.loc 1 519 0
 3511 0276 5546     		mov	r5, r10
 3512              	.LVL542:
 3513 0278 1FE7     		b	.L505
 3514              	.LVL543:
 3515              	.L548:
 3516              		.loc 1 513 0
 3517 027a 1A46     		mov	r2, r3
 3518 027c 4BE7     		b	.L500
 3519              	.LVL544:
 3520              	.L503:
 3521 027e 0232     		adds	r2, r2, #2
 3522              		.loc 1 512 0
 3523 0280 0028     		cmp	r0, #0
 3524 0282 7FF419AF 		bne	.L576
 3525              		.loc 1 513 0
 3526 0286 1A46     		mov	r2, r3
 3527 0288 17E7     		b	.L505
 3528              	.LVL545:
 3529              	.L593:
 3530 028a 931C     		adds	r3, r2, #2
 3531              	.LVL546:
 3532 028c 10E7     		b	.L497
 3533              	.LVL547:
 3534              	.L592:
ARM GAS  C:\Users\mathi\AppData\Local\Temp\ccVwcWGw.s 			page 63


 3535 028e 931C     		adds	r3, r2, #2
 3536              	.LVL548:
 3537 0290 07E7     		b	.L488
 3538              	.LVL549:
 3539              	.L585:
 3540              	.LBE110:
 3541              	.LBE111:
 3542              		.loc 1 1062 0
 3543 0292 FFF7FEFF 		bl	__stack_chk_fail
 3544              	.LVL550:
 3545              	.L595:
 3546 0296 00BF     		.align	2
 3547              	.L594:
 3548 0298 00000000 		.word	__stack_chk_guard
 3549              		.cfi_endproc
 3550              	.LFE18:
 3551              		.size	VL53L0X_get_reference_spads, .-VL53L0X_get_reference_spads
 3552              		.section	.text.VL53L0X_perform_single_ref_calibration,"ax",%progbits
 3553              		.align	1
 3554              		.p2align 4,,15
 3555              		.global	VL53L0X_perform_single_ref_calibration
 3556              		.syntax unified
 3557              		.thumb
 3558              		.thumb_func
 3559              		.fpu fpv4-sp-d16
 3560              		.type	VL53L0X_perform_single_ref_calibration, %function
 3561              	VL53L0X_perform_single_ref_calibration:
 3562              	.LFB19:
 3563              		.loc 1 1067 0
 3564              		.cfi_startproc
 3565              		@ args = 0, pretend = 0, frame = 8
 3566              		@ frame_needed = 0, uses_anonymous_args = 0
 3567              	.LVL551:
 3568 0000 30B5     		push	{r4, r5, lr}
 3569              		.cfi_def_cfa_offset 12
 3570              		.cfi_offset 4, -12
 3571              		.cfi_offset 5, -8
 3572              		.cfi_offset 14, -4
 3573 0002 164C     		ldr	r4, .L603
 3574 0004 83B0     		sub	sp, sp, #12
 3575              		.cfi_def_cfa_offset 24
 3576              		.loc 1 1071 0
 3577 0006 41F00102 		orr	r2, r1, #1
 3578              		.loc 1 1067 0
 3579 000a 2368     		ldr	r3, [r4]
 3580 000c 0193     		str	r3, [sp, #4]
 3581              		.loc 1 1071 0
 3582 000e 0021     		movs	r1, #0
 3583              	.LVL552:
 3584              		.loc 1 1067 0
 3585 0010 0546     		mov	r5, r0
 3586              	.LVL553:
 3587              		.loc 1 1071 0
 3588 0012 FFF7FEFF 		bl	VL53L0X_WrByte
 3589              	.LVL554:
 3590              		.loc 1 1075 0
 3591 0016 0246     		mov	r2, r0
ARM GAS  C:\Users\mathi\AppData\Local\Temp\ccVwcWGw.s 			page 64


 3592 0018 30B1     		cbz	r0, .L602
 3593              	.L597:
 3594              	.LVL555:
 3595              		.loc 1 1085 0
 3596 001a 0199     		ldr	r1, [sp, #4]
 3597 001c 2368     		ldr	r3, [r4]
 3598 001e 9942     		cmp	r1, r3
 3599 0020 1046     		mov	r0, r2
 3600 0022 19D1     		bne	.L601
 3601 0024 03B0     		add	sp, sp, #12
 3602              		.cfi_remember_state
 3603              		.cfi_def_cfa_offset 12
 3604              		@ sp needed
 3605 0026 30BD     		pop	{r4, r5, pc}
 3606              	.LVL556:
 3607              	.L602:
 3608              		.cfi_restore_state
 3609              		.loc 1 1076 0
 3610 0028 2846     		mov	r0, r5
 3611              	.LVL557:
 3612 002a FFF7FEFF 		bl	VL53L0X_measurement_poll_for_completion
 3613              	.LVL558:
 3614              		.loc 1 1078 0
 3615 002e 0246     		mov	r2, r0
 3616 0030 0028     		cmp	r0, #0
 3617 0032 F2D1     		bne	.L597
 3618              		.loc 1 1079 0
 3619 0034 0146     		mov	r1, r0
 3620 0036 2846     		mov	r0, r5
 3621              	.LVL559:
 3622 0038 FFF7FEFF 		bl	VL53L0X_ClearInterruptMask
 3623              	.LVL560:
 3624              		.loc 1 1081 0
 3625 003c 0246     		mov	r2, r0
 3626 003e 0028     		cmp	r0, #0
 3627 0040 EBD1     		bne	.L597
 3628              	.LVL561:
 3629              	.LBB114:
 3630              	.LBB115:
 3631              		.loc 1 1082 0
 3632 0042 0199     		ldr	r1, [sp, #4]
 3633 0044 2368     		ldr	r3, [r4]
 3634 0046 9942     		cmp	r1, r3
 3635 0048 06D1     		bne	.L601
 3636 004a 2846     		mov	r0, r5
 3637              	.LVL562:
 3638 004c 1146     		mov	r1, r2
 3639              	.LBE115:
 3640              	.LBE114:
 3641              		.loc 1 1085 0
 3642 004e 03B0     		add	sp, sp, #12
 3643              		.cfi_remember_state
 3644              		.cfi_def_cfa_offset 12
 3645              		@ sp needed
 3646 0050 BDE83040 		pop	{r4, r5, lr}
 3647              		.cfi_restore 14
 3648              		.cfi_restore 5
ARM GAS  C:\Users\mathi\AppData\Local\Temp\ccVwcWGw.s 			page 65


 3649              		.cfi_restore 4
 3650              		.cfi_def_cfa_offset 0
 3651              	.LVL563:
 3652              	.LBB117:
 3653              	.LBB116:
 3654              		.loc 1 1082 0
 3655 0054 FFF7FEBF 		b	VL53L0X_WrByte
 3656              	.LVL564:
 3657              	.L601:
 3658              		.cfi_restore_state
 3659              	.LBE116:
 3660              	.LBE117:
 3661              		.loc 1 1085 0
 3662 0058 FFF7FEFF 		bl	__stack_chk_fail
 3663              	.LVL565:
 3664              	.L604:
 3665              		.align	2
 3666              	.L603:
 3667 005c 00000000 		.word	__stack_chk_guard
 3668              		.cfi_endproc
 3669              	.LFE19:
 3670              		.size	VL53L0X_perform_single_ref_calibration, .-VL53L0X_perform_single_ref_calibration
 3671              		.section	.text.VL53L0X_ref_calibration_io,"ax",%progbits
 3672              		.align	1
 3673              		.p2align 4,,15
 3674              		.global	VL53L0X_ref_calibration_io
 3675              		.syntax unified
 3676              		.thumb
 3677              		.thumb_func
 3678              		.fpu fpv4-sp-d16
 3679              		.type	VL53L0X_ref_calibration_io, %function
 3680              	VL53L0X_ref_calibration_io:
 3681              	.LFB20:
 3682              		.loc 1 1092 0
 3683              		.cfi_startproc
 3684              		@ args = 16, pretend = 0, frame = 24
 3685              		@ frame_needed = 0, uses_anonymous_args = 0
 3686              	.LVL566:
 3687 0000 2DE9F04F 		push	{r4, r5, r6, r7, r8, r9, r10, fp, lr}
 3688              		.cfi_def_cfa_offset 36
 3689              		.cfi_offset 4, -36
 3690              		.cfi_offset 5, -32
 3691              		.cfi_offset 6, -28
 3692              		.cfi_offset 7, -24
 3693              		.cfi_offset 8, -20
 3694              		.cfi_offset 9, -16
 3695              		.cfi_offset 10, -12
 3696              		.cfi_offset 11, -8
 3697              		.cfi_offset 14, -4
 3698 0004 87B0     		sub	sp, sp, #28
 3699              		.cfi_def_cfa_offset 64
 3700              		.loc 1 1092 0
 3701 0006 3F4F     		ldr	r7, .L629
 3702 0008 109C     		ldr	r4, [sp, #64]
 3703 000a 0394     		str	r4, [sp, #12]
 3704              		.loc 1 1094 0
 3705 000c 0026     		movs	r6, #0
ARM GAS  C:\Users\mathi\AppData\Local\Temp\ccVwcWGw.s 			page 66


 3706              		.loc 1 1092 0
 3707 000e 3C68     		ldr	r4, [r7]
 3708 0010 0292     		str	r2, [sp, #8]
 3709 0012 8A46     		mov	r10, r1
 3710              		.loc 1 1097 0
 3711 0014 0122     		movs	r2, #1
 3712              	.LVL567:
 3713 0016 FF21     		movs	r1, #255
 3714              	.LVL568:
 3715              		.loc 1 1092 0
 3716 0018 0546     		mov	r5, r0
 3717 001a 0193     		str	r3, [sp, #4]
 3718 001c 0594     		str	r4, [sp, #20]
 3719              	.LVL569:
 3720              		.loc 1 1094 0
 3721 001e 8DF81360 		strb	r6, [sp, #19]
 3722              		.loc 1 1092 0
 3723 0022 DDF84480 		ldr	r8, [sp, #68]
 3724 0026 9DF848B0 		ldrb	fp, [sp, #72]	@ zero_extendqisi2
 3725 002a 9DF84C90 		ldrb	r9, [sp, #76]	@ zero_extendqisi2
 3726              		.loc 1 1097 0
 3727 002e FFF7FEFF 		bl	VL53L0X_WrByte
 3728              	.LVL570:
 3729              		.loc 1 1098 0
 3730 0032 3246     		mov	r2, r6
 3731              		.loc 1 1097 0
 3732 0034 0446     		mov	r4, r0
 3733              	.LVL571:
 3734              		.loc 1 1098 0
 3735 0036 3146     		mov	r1, r6
 3736 0038 2846     		mov	r0, r5
 3737 003a FFF7FEFF 		bl	VL53L0X_WrByte
 3738              	.LVL572:
 3739              		.loc 1 1099 0
 3740 003e 3246     		mov	r2, r6
 3741              		.loc 1 1098 0
 3742 0040 0443     		orrs	r4, r4, r0
 3743              	.LVL573:
 3744              		.loc 1 1099 0
 3745 0042 FF21     		movs	r1, #255
 3746 0044 2846     		mov	r0, r5
 3747 0046 FFF7FEFF 		bl	VL53L0X_WrByte
 3748              	.LVL574:
 3749              		.loc 1 1098 0
 3750 004a 64B2     		sxtb	r4, r4
 3751              	.LVL575:
 3752              		.loc 1 1099 0
 3753 004c 0443     		orrs	r4, r4, r0
 3754              	.LVL576:
 3755 004e 64B2     		sxtb	r4, r4
 3756              	.LVL577:
 3757              		.loc 1 1101 0
 3758 0050 BAF1000F 		cmp	r10, #0
 3759 0054 27D0     		beq	.L606
 3760              		.loc 1 1102 0
 3761 0056 BBF1000F 		cmp	fp, #0
 3762 005a 33D1     		bne	.L624
ARM GAS  C:\Users\mathi\AppData\Local\Temp\ccVwcWGw.s 			page 67


 3763              		.loc 1 1104 0
 3764 005c B9F1000F 		cmp	r9, #0
 3765 0060 3AD1     		bne	.L625
 3766              	.L608:
 3767              		.loc 1 1113 0
 3768 0062 0122     		movs	r2, #1
 3769 0064 FF21     		movs	r1, #255
 3770 0066 2846     		mov	r0, r5
 3771 0068 FFF7FEFF 		bl	VL53L0X_WrByte
 3772              	.LVL578:
 3773              		.loc 1 1114 0
 3774 006c 0122     		movs	r2, #1
 3775              		.loc 1 1113 0
 3776 006e 0443     		orrs	r4, r4, r0
 3777              	.LVL579:
 3778              		.loc 1 1114 0
 3779 0070 0021     		movs	r1, #0
 3780 0072 2846     		mov	r0, r5
 3781 0074 FFF7FEFF 		bl	VL53L0X_WrByte
 3782              	.LVL580:
 3783              		.loc 1 1113 0
 3784 0078 64B2     		sxtb	r4, r4
 3785              	.LVL581:
 3786              		.loc 1 1115 0
 3787 007a 0022     		movs	r2, #0
 3788              		.loc 1 1114 0
 3789 007c 0443     		orrs	r4, r4, r0
 3790              	.LVL582:
 3791              		.loc 1 1115 0
 3792 007e FF21     		movs	r1, #255
 3793 0080 2846     		mov	r0, r5
 3794 0082 FFF7FEFF 		bl	VL53L0X_WrByte
 3795              	.LVL583:
 3796              		.loc 1 1117 0
 3797 0086 9DF81330 		ldrb	r3, [sp, #19]	@ zero_extendqisi2
 3798              		.loc 1 1120 0
 3799 008a 059A     		ldr	r2, [sp, #20]
 3800              		.loc 1 1117 0
 3801 008c 23F01003 		bic	r3, r3, #16
 3802 0090 88F80030 		strb	r3, [r8]
 3803              		.loc 1 1120 0
 3804 0094 3B68     		ldr	r3, [r7]
 3805              		.loc 1 1114 0
 3806 0096 64B2     		sxtb	r4, r4
 3807              	.LVL584:
 3808              		.loc 1 1115 0
 3809 0098 2043     		orrs	r0, r0, r4
 3810              	.LVL585:
 3811              		.loc 1 1120 0
 3812 009a 9A42     		cmp	r2, r3
 3813 009c 40B2     		sxtb	r0, r0
 3814 009e 2FD1     		bne	.L626
 3815 00a0 07B0     		add	sp, sp, #28
 3816              		.cfi_remember_state
 3817              		.cfi_def_cfa_offset 36
 3818              		@ sp needed
 3819 00a2 BDE8F08F 		pop	{r4, r5, r6, r7, r8, r9, r10, fp, pc}
ARM GAS  C:\Users\mathi\AppData\Local\Temp\ccVwcWGw.s 			page 68


 3820              	.LVL586:
 3821              	.L606:
 3822              		.cfi_restore_state
 3823              		.loc 1 1107 0
 3824 00a6 BBF1000F 		cmp	fp, #0
 3825 00aa 1ED1     		bne	.L627
 3826              		.loc 1 1109 0
 3827 00ac B9F1000F 		cmp	r9, #0
 3828 00b0 D7D0     		beq	.L608
 3829              	.L628:
 3830              		.loc 1 1110 0
 3831 00b2 019B     		ldr	r3, [sp, #4]
 3832 00b4 8022     		movs	r2, #128
 3833 00b6 EE21     		movs	r1, #238
 3834 00b8 2846     		mov	r0, r5
 3835 00ba FFF7FEFF 		bl	VL53L0X_UpdateByte
 3836              	.LVL587:
 3837 00be 0443     		orrs	r4, r4, r0
 3838              	.LVL588:
 3839 00c0 64B2     		sxtb	r4, r4
 3840              	.LVL589:
 3841 00c2 CEE7     		b	.L608
 3842              	.L624:
 3843              		.loc 1 1103 0
 3844 00c4 039A     		ldr	r2, [sp, #12]
 3845 00c6 CB21     		movs	r1, #203
 3846 00c8 2846     		mov	r0, r5
 3847 00ca FFF7FEFF 		bl	VL53L0X_RdByte
 3848              	.LVL590:
 3849 00ce 0443     		orrs	r4, r4, r0
 3850              	.LVL591:
 3851 00d0 64B2     		sxtb	r4, r4
 3852              	.LVL592:
 3853              		.loc 1 1104 0
 3854 00d2 B9F1000F 		cmp	r9, #0
 3855 00d6 C4D0     		beq	.L608
 3856              	.L625:
 3857              		.loc 1 1105 0
 3858 00d8 0DF11302 		add	r2, sp, #19
 3859 00dc EE21     		movs	r1, #238
 3860 00de 2846     		mov	r0, r5
 3861 00e0 FFF7FEFF 		bl	VL53L0X_RdByte
 3862              	.LVL593:
 3863 00e4 0443     		orrs	r4, r4, r0
 3864              	.LVL594:
 3865 00e6 64B2     		sxtb	r4, r4
 3866              	.LVL595:
 3867 00e8 BBE7     		b	.L608
 3868              	.L627:
 3869              		.loc 1 1108 0
 3870 00ea 029A     		ldr	r2, [sp, #8]
 3871 00ec CB21     		movs	r1, #203
 3872 00ee 2846     		mov	r0, r5
 3873 00f0 FFF7FEFF 		bl	VL53L0X_WrByte
 3874              	.LVL596:
 3875 00f4 0443     		orrs	r4, r4, r0
 3876              	.LVL597:
ARM GAS  C:\Users\mathi\AppData\Local\Temp\ccVwcWGw.s 			page 69


 3877 00f6 64B2     		sxtb	r4, r4
 3878              	.LVL598:
 3879              		.loc 1 1109 0
 3880 00f8 B9F1000F 		cmp	r9, #0
 3881 00fc B1D0     		beq	.L608
 3882 00fe D8E7     		b	.L628
 3883              	.LVL599:
 3884              	.L626:
 3885              		.loc 1 1120 0
 3886 0100 FFF7FEFF 		bl	__stack_chk_fail
 3887              	.LVL600:
 3888              	.L630:
 3889              		.align	2
 3890              	.L629:
 3891 0104 00000000 		.word	__stack_chk_guard
 3892              		.cfi_endproc
 3893              	.LFE20:
 3894              		.size	VL53L0X_ref_calibration_io, .-VL53L0X_ref_calibration_io
 3895              		.section	.text.VL53L0X_perform_vhv_calibration,"ax",%progbits
 3896              		.align	1
 3897              		.p2align 4,,15
 3898              		.global	VL53L0X_perform_vhv_calibration
 3899              		.syntax unified
 3900              		.thumb
 3901              		.thumb_func
 3902              		.fpu fpv4-sp-d16
 3903              		.type	VL53L0X_perform_vhv_calibration, %function
 3904              	VL53L0X_perform_vhv_calibration:
 3905              	.LFB21:
 3906              		.loc 1 1126 0
 3907              		.cfi_startproc
 3908              		@ args = 0, pretend = 0, frame = 8
 3909              		@ frame_needed = 0, uses_anonymous_args = 0
 3910              	.LVL601:
 3911 0000 2DE9F04F 		push	{r4, r5, r6, r7, r8, r9, r10, fp, lr}
 3912              		.cfi_def_cfa_offset 36
 3913              		.cfi_offset 4, -36
 3914              		.cfi_offset 5, -32
 3915              		.cfi_offset 6, -28
 3916              		.cfi_offset 7, -24
 3917              		.cfi_offset 8, -20
 3918              		.cfi_offset 9, -16
 3919              		.cfi_offset 10, -12
 3920              		.cfi_offset 11, -8
 3921              		.cfi_offset 14, -4
 3922 0004 4A4F     		ldr	r7, .L649
 3923 0006 83B0     		sub	sp, sp, #12
 3924              		.cfi_def_cfa_offset 48
 3925              		.loc 1 1126 0
 3926 0008 3C68     		ldr	r4, [r7]
 3927 000a 0194     		str	r4, [sp, #4]
 3928              	.LVL602:
 3929 000c 0546     		mov	r5, r0
 3930 000e 8B46     		mov	fp, r1
 3931 0010 9246     		mov	r10, r2
 3932              		.loc 1 1137 0
 3933 0012 1E46     		mov	r6, r3
ARM GAS  C:\Users\mathi\AppData\Local\Temp\ccVwcWGw.s 			page 70


 3934 0014 9BB1     		cbz	r3, .L638
 3935              		.loc 1 1141 0
 3936 0016 0122     		movs	r2, #1
 3937              	.LVL603:
 3938              		.loc 1 1138 0
 3939 0018 90F83091 		ldrb	r9, [r0, #304]	@ zero_extendqisi2
 3940              	.LVL604:
 3941              		.loc 1 1141 0
 3942 001c 1146     		mov	r1, r2
 3943              	.LVL605:
 3944 001e 2846     		mov	r0, r5
 3945 0020 FFF7FEFF 		bl	VL53L0X_WrByte
 3946              	.LVL606:
 3947              		.loc 1 1143 0
 3948 0024 0446     		mov	r4, r0
 3949 0026 98B1     		cbz	r0, .L646
 3950              	.LVL607:
 3951              	.L633:
 3952              		.loc 1 1153 0
 3953 0028 0023     		movs	r3, #0
 3954 002a 8BF80030 		strb	r3, [fp]
 3955              	.LVL608:
 3956              	.L636:
 3957              		.loc 1 1166 0
 3958 002e 019A     		ldr	r2, [sp, #4]
 3959 0030 3B68     		ldr	r3, [r7]
 3960 0032 9A42     		cmp	r2, r3
 3961 0034 2046     		mov	r0, r4
 3962 0036 79D1     		bne	.L647
 3963 0038 03B0     		add	sp, sp, #12
 3964              		.cfi_remember_state
 3965              		.cfi_def_cfa_offset 36
 3966              		@ sp needed
 3967 003a BDE8F08F 		pop	{r4, r5, r6, r7, r8, r9, r10, fp, pc}
 3968              	.LVL609:
 3969              	.L638:
 3970              		.cfi_restore_state
 3971              		.loc 1 1141 0
 3972 003e 0122     		movs	r2, #1
 3973              	.LVL610:
 3974 0040 1146     		mov	r1, r2
 3975              	.LVL611:
 3976 0042 2846     		mov	r0, r5
 3977              	.LVL612:
 3978              		.loc 1 1128 0
 3979 0044 9946     		mov	r9, r3
 3980              	.LVL613:
 3981              		.loc 1 1141 0
 3982 0046 FFF7FEFF 		bl	VL53L0X_WrByte
 3983              	.LVL614:
 3984              		.loc 1 1143 0
 3985 004a 0446     		mov	r4, r0
 3986 004c 0028     		cmp	r0, #0
 3987 004e EBD1     		bne	.L633
 3988              	.L646:
 3989              	.LVL615:
 3990              	.LBB124:
ARM GAS  C:\Users\mathi\AppData\Local\Temp\ccVwcWGw.s 			page 71


 3991              	.LBB125:
 3992              		.loc 1 1071 0
 3993 0050 0146     		mov	r1, r0
 3994 0052 4122     		movs	r2, #65
 3995 0054 2846     		mov	r0, r5
 3996              	.LVL616:
 3997 0056 FFF7FEFF 		bl	VL53L0X_WrByte
 3998              	.LVL617:
 3999              		.loc 1 1075 0
 4000 005a 0446     		mov	r4, r0
 4001 005c 0028     		cmp	r0, #0
 4002 005e E3D1     		bne	.L633
 4003              		.loc 1 1076 0
 4004 0060 2846     		mov	r0, r5
 4005              	.LVL618:
 4006 0062 FFF7FEFF 		bl	VL53L0X_measurement_poll_for_completion
 4007              	.LVL619:
 4008              		.loc 1 1078 0
 4009 0066 0446     		mov	r4, r0
 4010 0068 0028     		cmp	r0, #0
 4011 006a DDD1     		bne	.L633
 4012              		.loc 1 1079 0
 4013 006c 0146     		mov	r1, r0
 4014 006e 2846     		mov	r0, r5
 4015              	.LVL620:
 4016 0070 FFF7FEFF 		bl	VL53L0X_ClearInterruptMask
 4017              	.LVL621:
 4018              		.loc 1 1081 0
 4019 0074 0446     		mov	r4, r0
 4020 0076 0028     		cmp	r0, #0
 4021 0078 D6D1     		bne	.L633
 4022              	.LVL622:
 4023              	.LBB126:
 4024              	.LBB127:
 4025              		.loc 1 1082 0
 4026 007a 0246     		mov	r2, r0
 4027 007c 0146     		mov	r1, r0
 4028 007e 2846     		mov	r0, r5
 4029              	.LVL623:
 4030 0080 FFF7FEFF 		bl	VL53L0X_WrByte
 4031              	.LVL624:
 4032              	.LBE127:
 4033              	.LBE126:
 4034              	.LBE125:
 4035              	.LBE124:
 4036              		.loc 1 1147 0
 4037 0084 0446     		mov	r4, r0
 4038 0086 0028     		cmp	r0, #0
 4039 0088 CED1     		bne	.L633
 4040              		.loc 1 1147 0 is_stmt 0 discriminator 1
 4041 008a BAF1010F 		cmp	r10, #1
 4042 008e 0ED0     		beq	.L648
 4043              		.loc 1 1153 0 is_stmt 1
 4044 0090 8BF80000 		strb	r0, [fp]
 4045              	.LVL625:
 4046              	.L635:
 4047              		.loc 1 1156 0 discriminator 1
ARM GAS  C:\Users\mathi\AppData\Local\Temp\ccVwcWGw.s 			page 72


 4048 0094 002E     		cmp	r6, #0
 4049 0096 CAD0     		beq	.L636
 4050              		.loc 1 1158 0
 4051 0098 4A46     		mov	r2, r9
 4052 009a 0121     		movs	r1, #1
 4053 009c 2846     		mov	r0, r5
 4054 009e FFF7FEFF 		bl	VL53L0X_WrByte
 4055              	.LVL626:
 4056              		.loc 1 1160 0
 4057 00a2 0446     		mov	r4, r0
 4058 00a4 0028     		cmp	r0, #0
 4059 00a6 C2D1     		bne	.L636
 4060              		.loc 1 1161 0
 4061 00a8 85F83091 		strb	r9, [r5, #304]
 4062 00ac BFE7     		b	.L636
 4063              	.L648:
 4064              	.LVL627:
 4065              	.LBB128:
 4066              	.LBB129:
 4067              		.loc 1 1097 0
 4068 00ae 5246     		mov	r2, r10
 4069 00b0 FF21     		movs	r1, #255
 4070 00b2 2846     		mov	r0, r5
 4071              	.LVL628:
 4072 00b4 FFF7FEFF 		bl	VL53L0X_WrByte
 4073              	.LVL629:
 4074              		.loc 1 1098 0
 4075 00b8 2246     		mov	r2, r4
 4076              		.loc 1 1097 0
 4077 00ba 8046     		mov	r8, r0
 4078              	.LVL630:
 4079              		.loc 1 1098 0
 4080 00bc 2146     		mov	r1, r4
 4081 00be 2846     		mov	r0, r5
 4082 00c0 FFF7FEFF 		bl	VL53L0X_WrByte
 4083              	.LVL631:
 4084              		.loc 1 1099 0
 4085 00c4 2246     		mov	r2, r4
 4086              		.loc 1 1098 0
 4087 00c6 48EA0008 		orr	r8, r8, r0
 4088              	.LVL632:
 4089              		.loc 1 1099 0
 4090 00ca FF21     		movs	r1, #255
 4091 00cc 2846     		mov	r0, r5
 4092 00ce FFF7FEFF 		bl	VL53L0X_WrByte
 4093              	.LVL633:
 4094              		.loc 1 1098 0
 4095 00d2 4FFA88F8 		sxtb	r8, r8
 4096              	.LVL634:
 4097              		.loc 1 1103 0
 4098 00d6 5A46     		mov	r2, fp
 4099              		.loc 1 1099 0
 4100 00d8 48EA0008 		orr	r8, r8, r0
 4101              	.LVL635:
 4102              		.loc 1 1103 0
 4103 00dc CB21     		movs	r1, #203
 4104 00de 2846     		mov	r0, r5
ARM GAS  C:\Users\mathi\AppData\Local\Temp\ccVwcWGw.s 			page 73


 4105 00e0 FFF7FEFF 		bl	VL53L0X_RdByte
 4106              	.LVL636:
 4107              		.loc 1 1099 0
 4108 00e4 4FFA88F8 		sxtb	r8, r8
 4109              	.LVL637:
 4110              		.loc 1 1113 0
 4111 00e8 5246     		mov	r2, r10
 4112              		.loc 1 1103 0
 4113 00ea 48EA0008 		orr	r8, r8, r0
 4114              	.LVL638:
 4115              		.loc 1 1113 0
 4116 00ee FF21     		movs	r1, #255
 4117 00f0 2846     		mov	r0, r5
 4118 00f2 FFF7FEFF 		bl	VL53L0X_WrByte
 4119              	.LVL639:
 4120              		.loc 1 1103 0
 4121 00f6 4FFA88F8 		sxtb	r8, r8
 4122              	.LVL640:
 4123              		.loc 1 1114 0
 4124 00fa 5246     		mov	r2, r10
 4125              		.loc 1 1113 0
 4126 00fc 48EA0008 		orr	r8, r8, r0
 4127              	.LVL641:
 4128              		.loc 1 1114 0
 4129 0100 2146     		mov	r1, r4
 4130 0102 2846     		mov	r0, r5
 4131 0104 FFF7FEFF 		bl	VL53L0X_WrByte
 4132              	.LVL642:
 4133              		.loc 1 1113 0
 4134 0108 4FFA88F8 		sxtb	r8, r8
 4135              	.LVL643:
 4136              		.loc 1 1114 0
 4137 010c 48EA0008 		orr	r8, r8, r0
 4138              	.LVL644:
 4139              		.loc 1 1115 0
 4140 0110 2246     		mov	r2, r4
 4141 0112 FF21     		movs	r1, #255
 4142 0114 2846     		mov	r0, r5
 4143 0116 FFF7FEFF 		bl	VL53L0X_WrByte
 4144              	.LVL645:
 4145              		.loc 1 1114 0
 4146 011a 4FFA88F8 		sxtb	r8, r8
 4147              	.LVL646:
 4148              		.loc 1 1115 0
 4149 011e 48EA0000 		orr	r0, r8, r0
 4150 0122 40B2     		sxtb	r0, r0
 4151              	.LVL647:
 4152              	.LBE129:
 4153              	.LBE128:
 4154              		.loc 1 1156 0
 4155 0124 0028     		cmp	r0, #0
 4156 0126 B5D0     		beq	.L635
 4157              		.loc 1 1148 0
 4158 0128 0446     		mov	r4, r0
 4159 012a 80E7     		b	.L636
 4160              	.LVL648:
 4161              	.L647:
ARM GAS  C:\Users\mathi\AppData\Local\Temp\ccVwcWGw.s 			page 74


 4162              		.loc 1 1166 0
 4163 012c FFF7FEFF 		bl	__stack_chk_fail
 4164              	.LVL649:
 4165              	.L650:
 4166              		.align	2
 4167              	.L649:
 4168 0130 00000000 		.word	__stack_chk_guard
 4169              		.cfi_endproc
 4170              	.LFE21:
 4171              		.size	VL53L0X_perform_vhv_calibration, .-VL53L0X_perform_vhv_calibration
 4172              		.section	.text.VL53L0X_perform_phase_calibration,"ax",%progbits
 4173              		.align	1
 4174              		.p2align 4,,15
 4175              		.global	VL53L0X_perform_phase_calibration
 4176              		.syntax unified
 4177              		.thumb
 4178              		.thumb_func
 4179              		.fpu fpv4-sp-d16
 4180              		.type	VL53L0X_perform_phase_calibration, %function
 4181              	VL53L0X_perform_phase_calibration:
 4182              	.LFB22:
 4183              		.loc 1 1171 0
 4184              		.cfi_startproc
 4185              		@ args = 0, pretend = 0, frame = 16
 4186              		@ frame_needed = 0, uses_anonymous_args = 0
 4187              	.LVL650:
 4188 0000 2DE9F04F 		push	{r4, r5, r6, r7, r8, r9, r10, fp, lr}
 4189              		.cfi_def_cfa_offset 36
 4190              		.cfi_offset 4, -36
 4191              		.cfi_offset 5, -32
 4192              		.cfi_offset 6, -28
 4193              		.cfi_offset 7, -24
 4194              		.cfi_offset 8, -20
 4195              		.cfi_offset 9, -16
 4196              		.cfi_offset 10, -12
 4197              		.cfi_offset 11, -8
 4198              		.cfi_offset 14, -4
 4199 0004 4D4F     		ldr	r7, .L669
 4200 0006 85B0     		sub	sp, sp, #20
 4201              		.cfi_def_cfa_offset 56
 4202              		.loc 1 1171 0
 4203 0008 3C68     		ldr	r4, [r7]
 4204 000a 0394     		str	r4, [sp, #12]
 4205              	.LVL651:
 4206 000c 0546     		mov	r5, r0
 4207 000e 8946     		mov	r9, r1
 4208 0010 9346     		mov	fp, r2
 4209              		.loc 1 1182 0
 4210 0012 1E46     		mov	r6, r3
 4211 0014 9BB1     		cbz	r3, .L658
 4212              		.loc 1 1183 0
 4213 0016 90F830A1 		ldrb	r10, [r0, #304]	@ zero_extendqisi2
 4214              	.LVL652:
 4215              	.L652:
 4216              		.loc 1 1186 0
 4217 001a 0222     		movs	r2, #2
 4218              	.LVL653:
ARM GAS  C:\Users\mathi\AppData\Local\Temp\ccVwcWGw.s 			page 75


 4219 001c 0121     		movs	r1, #1
 4220              	.LVL654:
 4221 001e 2846     		mov	r0, r5
 4222              	.LVL655:
 4223 0020 FFF7FEFF 		bl	VL53L0X_WrByte
 4224              	.LVL656:
 4225              		.loc 1 1188 0
 4226 0024 0446     		mov	r4, r0
 4227 0026 60B1     		cbz	r0, .L666
 4228              	.LVL657:
 4229              	.L653:
 4230              		.loc 1 1198 0
 4231 0028 0023     		movs	r3, #0
 4232 002a 89F80030 		strb	r3, [r9]
 4233              	.LVL658:
 4234              	.L656:
 4235              		.loc 1 1211 0
 4236 002e 039A     		ldr	r2, [sp, #12]
 4237 0030 3B68     		ldr	r3, [r7]
 4238 0032 9A42     		cmp	r2, r3
 4239 0034 2046     		mov	r0, r4
 4240 0036 7ED1     		bne	.L667
 4241 0038 05B0     		add	sp, sp, #20
 4242              		.cfi_remember_state
 4243              		.cfi_def_cfa_offset 36
 4244              		@ sp needed
 4245 003a BDE8F08F 		pop	{r4, r5, r6, r7, r8, r9, r10, fp, pc}
 4246              	.LVL659:
 4247              	.L658:
 4248              		.cfi_restore_state
 4249              		.loc 1 1173 0
 4250 003e 9A46     		mov	r10, r3
 4251 0040 EBE7     		b	.L652
 4252              	.LVL660:
 4253              	.L666:
 4254              	.LBB136:
 4255              	.LBB137:
 4256              		.loc 1 1071 0
 4257 0042 0146     		mov	r1, r0
 4258 0044 0122     		movs	r2, #1
 4259 0046 2846     		mov	r0, r5
 4260              	.LVL661:
 4261 0048 FFF7FEFF 		bl	VL53L0X_WrByte
 4262              	.LVL662:
 4263              		.loc 1 1075 0
 4264 004c 0446     		mov	r4, r0
 4265 004e 0028     		cmp	r0, #0
 4266 0050 EAD1     		bne	.L653
 4267              		.loc 1 1076 0
 4268 0052 2846     		mov	r0, r5
 4269              	.LVL663:
 4270 0054 FFF7FEFF 		bl	VL53L0X_measurement_poll_for_completion
 4271              	.LVL664:
 4272              		.loc 1 1078 0
 4273 0058 0446     		mov	r4, r0
 4274 005a 0028     		cmp	r0, #0
 4275 005c E4D1     		bne	.L653
ARM GAS  C:\Users\mathi\AppData\Local\Temp\ccVwcWGw.s 			page 76


 4276              		.loc 1 1079 0
 4277 005e 0146     		mov	r1, r0
 4278 0060 2846     		mov	r0, r5
 4279              	.LVL665:
 4280 0062 FFF7FEFF 		bl	VL53L0X_ClearInterruptMask
 4281              	.LVL666:
 4282              		.loc 1 1081 0
 4283 0066 0446     		mov	r4, r0
 4284 0068 0028     		cmp	r0, #0
 4285 006a DDD1     		bne	.L653
 4286              	.LVL667:
 4287              	.LBB138:
 4288              	.LBB139:
 4289              		.loc 1 1082 0
 4290 006c 0246     		mov	r2, r0
 4291 006e 0146     		mov	r1, r0
 4292 0070 2846     		mov	r0, r5
 4293              	.LVL668:
 4294 0072 FFF7FEFF 		bl	VL53L0X_WrByte
 4295              	.LVL669:
 4296              	.LBE139:
 4297              	.LBE138:
 4298              	.LBE137:
 4299              	.LBE136:
 4300              		.loc 1 1192 0
 4301 0076 0446     		mov	r4, r0
 4302 0078 0028     		cmp	r0, #0
 4303 007a D5D1     		bne	.L653
 4304              		.loc 1 1192 0 is_stmt 0 discriminator 1
 4305 007c BBF1010F 		cmp	fp, #1
 4306 0080 0ED0     		beq	.L668
 4307              		.loc 1 1198 0 is_stmt 1
 4308 0082 89F80000 		strb	r0, [r9]
 4309              	.LVL670:
 4310              	.L655:
 4311              		.loc 1 1201 0 discriminator 1
 4312 0086 002E     		cmp	r6, #0
 4313 0088 D1D0     		beq	.L656
 4314              		.loc 1 1203 0
 4315 008a 5246     		mov	r2, r10
 4316 008c 0121     		movs	r1, #1
 4317 008e 2846     		mov	r0, r5
 4318 0090 FFF7FEFF 		bl	VL53L0X_WrByte
 4319              	.LVL671:
 4320              		.loc 1 1205 0
 4321 0094 0446     		mov	r4, r0
 4322 0096 0028     		cmp	r0, #0
 4323 0098 C9D1     		bne	.L656
 4324              		.loc 1 1206 0
 4325 009a 85F830A1 		strb	r10, [r5, #304]
 4326 009e C6E7     		b	.L656
 4327              	.L668:
 4328              	.LVL672:
 4329              	.LBB140:
 4330              	.LBB141:
 4331              		.loc 1 1094 0
 4332 00a0 04AB     		add	r3, sp, #16
ARM GAS  C:\Users\mathi\AppData\Local\Temp\ccVwcWGw.s 			page 77


 4333              		.loc 1 1097 0
 4334 00a2 5A46     		mov	r2, fp
 4335              		.loc 1 1094 0
 4336 00a4 03F8054D 		strb	r4, [r3, #-5]!
 4337              		.loc 1 1097 0
 4338 00a8 FF21     		movs	r1, #255
 4339 00aa 2846     		mov	r0, r5
 4340              	.LVL673:
 4341              		.loc 1 1094 0
 4342 00ac CDE90033 		strd	r3, r3, [sp]
 4343              		.loc 1 1097 0
 4344 00b0 FFF7FEFF 		bl	VL53L0X_WrByte
 4345              	.LVL674:
 4346              		.loc 1 1098 0
 4347 00b4 2246     		mov	r2, r4
 4348              		.loc 1 1097 0
 4349 00b6 8046     		mov	r8, r0
 4350              	.LVL675:
 4351              		.loc 1 1098 0
 4352 00b8 2146     		mov	r1, r4
 4353 00ba 2846     		mov	r0, r5
 4354 00bc FFF7FEFF 		bl	VL53L0X_WrByte
 4355              	.LVL676:
 4356              		.loc 1 1099 0
 4357 00c0 2246     		mov	r2, r4
 4358              		.loc 1 1098 0
 4359 00c2 48EA0008 		orr	r8, r8, r0
 4360              	.LVL677:
 4361              		.loc 1 1099 0
 4362 00c6 FF21     		movs	r1, #255
 4363 00c8 2846     		mov	r0, r5
 4364 00ca FFF7FEFF 		bl	VL53L0X_WrByte
 4365              	.LVL678:
 4366              		.loc 1 1105 0
 4367 00ce 009B     		ldr	r3, [sp]
 4368              		.loc 1 1098 0
 4369 00d0 4FFA88F8 		sxtb	r8, r8
 4370              	.LVL679:
 4371              		.loc 1 1105 0
 4372 00d4 1A46     		mov	r2, r3
 4373              		.loc 1 1099 0
 4374 00d6 48EA0008 		orr	r8, r8, r0
 4375              	.LVL680:
 4376              		.loc 1 1105 0
 4377 00da EE21     		movs	r1, #238
 4378 00dc 2846     		mov	r0, r5
 4379 00de FFF7FEFF 		bl	VL53L0X_RdByte
 4380              	.LVL681:
 4381              		.loc 1 1099 0
 4382 00e2 4FFA88F8 		sxtb	r8, r8
 4383              	.LVL682:
 4384              		.loc 1 1113 0
 4385 00e6 5A46     		mov	r2, fp
 4386              		.loc 1 1105 0
 4387 00e8 48EA0008 		orr	r8, r8, r0
 4388              	.LVL683:
 4389              		.loc 1 1113 0
ARM GAS  C:\Users\mathi\AppData\Local\Temp\ccVwcWGw.s 			page 78


 4390 00ec FF21     		movs	r1, #255
 4391 00ee 2846     		mov	r0, r5
 4392 00f0 FFF7FEFF 		bl	VL53L0X_WrByte
 4393              	.LVL684:
 4394              		.loc 1 1105 0
 4395 00f4 4FFA88F8 		sxtb	r8, r8
 4396              	.LVL685:
 4397              		.loc 1 1114 0
 4398 00f8 5A46     		mov	r2, fp
 4399              		.loc 1 1113 0
 4400 00fa 48EA0008 		orr	r8, r8, r0
 4401              	.LVL686:
 4402              		.loc 1 1114 0
 4403 00fe 2146     		mov	r1, r4
 4404 0100 2846     		mov	r0, r5
 4405 0102 FFF7FEFF 		bl	VL53L0X_WrByte
 4406              	.LVL687:
 4407              		.loc 1 1113 0
 4408 0106 4FFA88F8 		sxtb	r8, r8
 4409              	.LVL688:
 4410              		.loc 1 1114 0
 4411 010a 48EA0008 		orr	r8, r8, r0
 4412              	.LVL689:
 4413              		.loc 1 1115 0
 4414 010e 2246     		mov	r2, r4
 4415 0110 FF21     		movs	r1, #255
 4416 0112 2846     		mov	r0, r5
 4417 0114 FFF7FEFF 		bl	VL53L0X_WrByte
 4418              	.LVL690:
 4419              		.loc 1 1114 0
 4420 0118 4FFA88F8 		sxtb	r8, r8
 4421              	.LVL691:
 4422              		.loc 1 1117 0
 4423 011c 9DF80B30 		ldrb	r3, [sp, #11]	@ zero_extendqisi2
 4424              		.loc 1 1115 0
 4425 0120 48EA0000 		orr	r0, r8, r0
 4426              		.loc 1 1117 0
 4427 0124 23F01003 		bic	r3, r3, #16
 4428              		.loc 1 1115 0
 4429 0128 40B2     		sxtb	r0, r0
 4430              	.LVL692:
 4431              		.loc 1 1117 0
 4432 012a 89F80030 		strb	r3, [r9]
 4433              	.LVL693:
 4434              	.LBE141:
 4435              	.LBE140:
 4436              		.loc 1 1201 0
 4437 012e 0028     		cmp	r0, #0
 4438 0130 A9D0     		beq	.L655
 4439              		.loc 1 1193 0
 4440 0132 0446     		mov	r4, r0
 4441 0134 7BE7     		b	.L656
 4442              	.LVL694:
 4443              	.L667:
 4444              		.loc 1 1211 0
 4445 0136 FFF7FEFF 		bl	__stack_chk_fail
 4446              	.LVL695:
ARM GAS  C:\Users\mathi\AppData\Local\Temp\ccVwcWGw.s 			page 79


 4447              	.L670:
 4448 013a 00BF     		.align	2
 4449              	.L669:
 4450 013c 00000000 		.word	__stack_chk_guard
 4451              		.cfi_endproc
 4452              	.LFE22:
 4453              		.size	VL53L0X_perform_phase_calibration, .-VL53L0X_perform_phase_calibration
 4454              		.section	.text.VL53L0X_perform_ref_calibration,"ax",%progbits
 4455              		.align	1
 4456              		.p2align 4,,15
 4457              		.global	VL53L0X_perform_ref_calibration
 4458              		.syntax unified
 4459              		.thumb
 4460              		.thumb_func
 4461              		.fpu fpv4-sp-d16
 4462              		.type	VL53L0X_perform_ref_calibration, %function
 4463              	VL53L0X_perform_ref_calibration:
 4464              	.LFB23:
 4465              		.loc 1 1215 0
 4466              		.cfi_startproc
 4467              		@ args = 0, pretend = 0, frame = 8
 4468              		@ frame_needed = 0, uses_anonymous_args = 0
 4469              	.LVL696:
 4470 0000 2DE9F04F 		push	{r4, r5, r6, r7, r8, r9, r10, fp, lr}
 4471              		.cfi_def_cfa_offset 36
 4472              		.cfi_offset 4, -36
 4473              		.cfi_offset 5, -32
 4474              		.cfi_offset 6, -28
 4475              		.cfi_offset 7, -24
 4476              		.cfi_offset 8, -20
 4477              		.cfi_offset 9, -16
 4478              		.cfi_offset 10, -12
 4479              		.cfi_offset 11, -8
 4480              		.cfi_offset 14, -4
 4481 0004 744E     		ldr	r6, .L692
 4482              		.loc 1 1223 0
 4483 0006 90F83091 		ldrb	r9, [r0, #304]	@ zero_extendqisi2
 4484              		.loc 1 1215 0
 4485 000a 83B0     		sub	sp, sp, #12
 4486              		.cfi_def_cfa_offset 48
 4487              		.loc 1 1215 0
 4488 000c 9246     		mov	r10, r2
 4489 000e 8B46     		mov	fp, r1
 4490              	.LBB158:
 4491              	.LBB159:
 4492              		.loc 1 1141 0
 4493 0010 0122     		movs	r2, #1
 4494              	.LVL697:
 4495              	.LBE159:
 4496              	.LBE158:
 4497              		.loc 1 1215 0
 4498 0012 3168     		ldr	r1, [r6]
 4499              	.LVL698:
 4500 0014 0191     		str	r1, [sp, #4]
 4501              	.LVL699:
 4502              	.LBB170:
 4503              	.LBB166:
ARM GAS  C:\Users\mathi\AppData\Local\Temp\ccVwcWGw.s 			page 80


 4504              		.loc 1 1141 0
 4505 0016 1146     		mov	r1, r2
 4506              	.LBE166:
 4507              	.LBE170:
 4508              		.loc 1 1215 0
 4509 0018 0546     		mov	r5, r0
 4510              	.LVL700:
 4511 001a 9846     		mov	r8, r3
 4512              	.LVL701:
 4513              	.LBB171:
 4514              	.LBB167:
 4515              		.loc 1 1141 0
 4516 001c FFF7FEFF 		bl	VL53L0X_WrByte
 4517              	.LVL702:
 4518              		.loc 1 1143 0
 4519 0020 0446     		mov	r4, r0
 4520 0022 58B1     		cbz	r0, .L687
 4521              	.LVL703:
 4522              	.L672:
 4523              		.loc 1 1153 0
 4524 0024 0023     		movs	r3, #0
 4525 0026 8BF80030 		strb	r3, [fp]
 4526              	.LVL704:
 4527              	.L675:
 4528              	.LBE167:
 4529              	.LBE171:
 4530              		.loc 1 1246 0
 4531 002a 019A     		ldr	r2, [sp, #4]
 4532 002c 3368     		ldr	r3, [r6]
 4533 002e 9A42     		cmp	r2, r3
 4534 0030 2046     		mov	r0, r4
 4535 0032 40F0CF80 		bne	.L688
 4536 0036 03B0     		add	sp, sp, #12
 4537              		.cfi_remember_state
 4538              		.cfi_def_cfa_offset 36
 4539              		@ sp needed
 4540 0038 BDE8F08F 		pop	{r4, r5, r6, r7, r8, r9, r10, fp, pc}
 4541              	.LVL705:
 4542              	.L687:
 4543              		.cfi_restore_state
 4544              	.LBB172:
 4545              	.LBB168:
 4546              	.LBB160:
 4547              	.LBB161:
 4548              		.loc 1 1071 0
 4549 003c 0146     		mov	r1, r0
 4550 003e 4122     		movs	r2, #65
 4551 0040 2846     		mov	r0, r5
 4552              	.LVL706:
 4553 0042 FFF7FEFF 		bl	VL53L0X_WrByte
 4554              	.LVL707:
 4555              		.loc 1 1075 0
 4556 0046 0446     		mov	r4, r0
 4557 0048 0028     		cmp	r0, #0
 4558 004a EBD1     		bne	.L672
 4559              		.loc 1 1076 0
 4560 004c 2846     		mov	r0, r5
ARM GAS  C:\Users\mathi\AppData\Local\Temp\ccVwcWGw.s 			page 81


 4561              	.LVL708:
 4562 004e FFF7FEFF 		bl	VL53L0X_measurement_poll_for_completion
 4563              	.LVL709:
 4564              		.loc 1 1078 0
 4565 0052 0446     		mov	r4, r0
 4566 0054 0028     		cmp	r0, #0
 4567 0056 E5D1     		bne	.L672
 4568              		.loc 1 1079 0
 4569 0058 0146     		mov	r1, r0
 4570 005a 2846     		mov	r0, r5
 4571              	.LVL710:
 4572 005c FFF7FEFF 		bl	VL53L0X_ClearInterruptMask
 4573              	.LVL711:
 4574              		.loc 1 1081 0
 4575 0060 0446     		mov	r4, r0
 4576 0062 0028     		cmp	r0, #0
 4577 0064 DED1     		bne	.L672
 4578              	.LVL712:
 4579              	.LBB162:
 4580              	.LBB163:
 4581              		.loc 1 1082 0
 4582 0066 0246     		mov	r2, r0
 4583 0068 0146     		mov	r1, r0
 4584 006a 2846     		mov	r0, r5
 4585              	.LVL713:
 4586 006c FFF7FEFF 		bl	VL53L0X_WrByte
 4587              	.LVL714:
 4588              	.LBE163:
 4589              	.LBE162:
 4590              	.LBE161:
 4591              	.LBE160:
 4592              		.loc 1 1147 0
 4593 0070 0446     		mov	r4, r0
 4594 0072 0028     		cmp	r0, #0
 4595 0074 D6D1     		bne	.L672
 4596 0076 B8F1010F 		cmp	r8, #1
 4597 007a 39D0     		beq	.L689
 4598              		.loc 1 1153 0
 4599 007c 8BF80000 		strb	r0, [fp]
 4600              	.LVL715:
 4601              	.L674:
 4602              	.LBE168:
 4603              	.LBE172:
 4604              	.LBB173:
 4605              	.LBB174:
 4606              		.loc 1 1186 0
 4607 0080 0222     		movs	r2, #2
 4608 0082 0121     		movs	r1, #1
 4609 0084 2846     		mov	r0, r5
 4610 0086 FFF7FEFF 		bl	VL53L0X_WrByte
 4611              	.LVL716:
 4612              		.loc 1 1188 0
 4613 008a 0446     		mov	r4, r0
 4614 008c 18B1     		cbz	r0, .L690
 4615              	.LVL717:
 4616              	.L676:
 4617              		.loc 1 1198 0
ARM GAS  C:\Users\mathi\AppData\Local\Temp\ccVwcWGw.s 			page 82


 4618 008e 0023     		movs	r3, #0
 4619 0090 8AF80030 		strb	r3, [r10]
 4620              	.LVL718:
 4621 0094 C9E7     		b	.L675
 4622              	.LVL719:
 4623              	.L690:
 4624              	.LBB175:
 4625              	.LBB176:
 4626              		.loc 1 1071 0
 4627 0096 0146     		mov	r1, r0
 4628 0098 0122     		movs	r2, #1
 4629 009a 2846     		mov	r0, r5
 4630              	.LVL720:
 4631 009c FFF7FEFF 		bl	VL53L0X_WrByte
 4632              	.LVL721:
 4633              		.loc 1 1075 0
 4634 00a0 0446     		mov	r4, r0
 4635 00a2 0028     		cmp	r0, #0
 4636 00a4 F3D1     		bne	.L676
 4637              		.loc 1 1076 0
 4638 00a6 2846     		mov	r0, r5
 4639              	.LVL722:
 4640 00a8 FFF7FEFF 		bl	VL53L0X_measurement_poll_for_completion
 4641              	.LVL723:
 4642              		.loc 1 1078 0
 4643 00ac 0446     		mov	r4, r0
 4644 00ae 0028     		cmp	r0, #0
 4645 00b0 EDD1     		bne	.L676
 4646              		.loc 1 1079 0
 4647 00b2 0146     		mov	r1, r0
 4648 00b4 2846     		mov	r0, r5
 4649              	.LVL724:
 4650 00b6 FFF7FEFF 		bl	VL53L0X_ClearInterruptMask
 4651              	.LVL725:
 4652              		.loc 1 1081 0
 4653 00ba 0446     		mov	r4, r0
 4654 00bc 0028     		cmp	r0, #0
 4655 00be E6D1     		bne	.L676
 4656              	.LVL726:
 4657              	.LBB177:
 4658              	.LBB178:
 4659              		.loc 1 1082 0
 4660 00c0 0246     		mov	r2, r0
 4661 00c2 0146     		mov	r1, r0
 4662 00c4 2846     		mov	r0, r5
 4663              	.LVL727:
 4664 00c6 FFF7FEFF 		bl	VL53L0X_WrByte
 4665              	.LVL728:
 4666              	.LBE178:
 4667              	.LBE177:
 4668              	.LBE176:
 4669              	.LBE175:
 4670              		.loc 1 1192 0
 4671 00ca 0446     		mov	r4, r0
 4672 00cc 0028     		cmp	r0, #0
 4673 00ce DED1     		bne	.L676
 4674 00d0 B8F1010F 		cmp	r8, #1
ARM GAS  C:\Users\mathi\AppData\Local\Temp\ccVwcWGw.s 			page 83


 4675 00d4 40D0     		beq	.L691
 4676              		.loc 1 1198 0
 4677 00d6 8AF80000 		strb	r0, [r10]
 4678              	.LVL729:
 4679              	.L678:
 4680              	.LBE174:
 4681              	.LBE173:
 4682              		.loc 1 1238 0
 4683 00da 4A46     		mov	r2, r9
 4684 00dc 0121     		movs	r1, #1
 4685 00de 2846     		mov	r0, r5
 4686 00e0 FFF7FEFF 		bl	VL53L0X_WrByte
 4687              	.LVL730:
 4688              		.loc 1 1240 0
 4689 00e4 0446     		mov	r4, r0
 4690 00e6 0028     		cmp	r0, #0
 4691 00e8 9FD1     		bne	.L675
 4692              		.loc 1 1241 0
 4693 00ea 85F83091 		strb	r9, [r5, #304]
 4694 00ee 9CE7     		b	.L675
 4695              	.LVL731:
 4696              	.L689:
 4697              	.LBB182:
 4698              	.LBB169:
 4699              	.LBB164:
 4700              	.LBB165:
 4701              		.loc 1 1097 0
 4702 00f0 4246     		mov	r2, r8
 4703 00f2 FF21     		movs	r1, #255
 4704 00f4 2846     		mov	r0, r5
 4705              	.LVL732:
 4706 00f6 FFF7FEFF 		bl	VL53L0X_WrByte
 4707              	.LVL733:
 4708              		.loc 1 1098 0
 4709 00fa 2246     		mov	r2, r4
 4710 00fc 2146     		mov	r1, r4
 4711              		.loc 1 1097 0
 4712 00fe 0746     		mov	r7, r0
 4713              	.LVL734:
 4714              		.loc 1 1098 0
 4715 0100 2846     		mov	r0, r5
 4716 0102 FFF7FEFF 		bl	VL53L0X_WrByte
 4717              	.LVL735:
 4718              		.loc 1 1099 0
 4719 0106 2246     		mov	r2, r4
 4720              		.loc 1 1098 0
 4721 0108 0743     		orrs	r7, r7, r0
 4722              	.LVL736:
 4723              		.loc 1 1099 0
 4724 010a FF21     		movs	r1, #255
 4725 010c 2846     		mov	r0, r5
 4726 010e FFF7FEFF 		bl	VL53L0X_WrByte
 4727              	.LVL737:
 4728              		.loc 1 1098 0
 4729 0112 7FB2     		sxtb	r7, r7
 4730              	.LVL738:
 4731              		.loc 1 1103 0
ARM GAS  C:\Users\mathi\AppData\Local\Temp\ccVwcWGw.s 			page 84


 4732 0114 5A46     		mov	r2, fp
 4733              		.loc 1 1099 0
 4734 0116 0743     		orrs	r7, r7, r0
 4735              	.LVL739:
 4736              		.loc 1 1103 0
 4737 0118 CB21     		movs	r1, #203
 4738 011a 2846     		mov	r0, r5
 4739 011c FFF7FEFF 		bl	VL53L0X_RdByte
 4740              	.LVL740:
 4741              		.loc 1 1099 0
 4742 0120 7FB2     		sxtb	r7, r7
 4743              	.LVL741:
 4744              		.loc 1 1113 0
 4745 0122 4246     		mov	r2, r8
 4746              		.loc 1 1103 0
 4747 0124 0743     		orrs	r7, r7, r0
 4748              	.LVL742:
 4749              		.loc 1 1113 0
 4750 0126 FF21     		movs	r1, #255
 4751 0128 2846     		mov	r0, r5
 4752 012a FFF7FEFF 		bl	VL53L0X_WrByte
 4753              	.LVL743:
 4754              		.loc 1 1103 0
 4755 012e 7FB2     		sxtb	r7, r7
 4756              	.LVL744:
 4757              		.loc 1 1114 0
 4758 0130 2146     		mov	r1, r4
 4759 0132 4246     		mov	r2, r8
 4760              		.loc 1 1113 0
 4761 0134 0743     		orrs	r7, r7, r0
 4762              	.LVL745:
 4763              		.loc 1 1114 0
 4764 0136 2846     		mov	r0, r5
 4765 0138 FFF7FEFF 		bl	VL53L0X_WrByte
 4766              	.LVL746:
 4767              		.loc 1 1113 0
 4768 013c 7FB2     		sxtb	r7, r7
 4769              	.LVL747:
 4770              		.loc 1 1115 0
 4771 013e 2246     		mov	r2, r4
 4772 0140 FF21     		movs	r1, #255
 4773              		.loc 1 1114 0
 4774 0142 47EA0004 		orr	r4, r7, r0
 4775              		.loc 1 1115 0
 4776 0146 2846     		mov	r0, r5
 4777 0148 FFF7FEFF 		bl	VL53L0X_WrByte
 4778              	.LVL748:
 4779              		.loc 1 1114 0
 4780 014c 64B2     		sxtb	r4, r4
 4781              	.LVL749:
 4782              		.loc 1 1115 0
 4783 014e 0443     		orrs	r4, r4, r0
 4784              	.LVL750:
 4785 0150 64B2     		sxtb	r4, r4
 4786              	.LVL751:
 4787              	.LBE165:
 4788              	.LBE164:
ARM GAS  C:\Users\mathi\AppData\Local\Temp\ccVwcWGw.s 			page 85


 4789              		.loc 1 1156 0
 4790 0152 002C     		cmp	r4, #0
 4791 0154 94D0     		beq	.L674
 4792 0156 68E7     		b	.L675
 4793              	.LVL752:
 4794              	.L691:
 4795              	.LBE169:
 4796              	.LBE182:
 4797              	.LBB183:
 4798              	.LBB181:
 4799              	.LBB179:
 4800              	.LBB180:
 4801              		.loc 1 1094 0
 4802 0158 0DF1080B 		add	fp, sp, #8
 4803              	.LVL753:
 4804              		.loc 1 1097 0
 4805 015c 4246     		mov	r2, r8
 4806 015e FF21     		movs	r1, #255
 4807 0160 2846     		mov	r0, r5
 4808              	.LVL754:
 4809              		.loc 1 1094 0
 4810 0162 0BF8054D 		strb	r4, [fp, #-5]!
 4811              		.loc 1 1097 0
 4812 0166 FFF7FEFF 		bl	VL53L0X_WrByte
 4813              	.LVL755:
 4814              		.loc 1 1098 0
 4815 016a 2246     		mov	r2, r4
 4816 016c 2146     		mov	r1, r4
 4817              		.loc 1 1097 0
 4818 016e 0746     		mov	r7, r0
 4819              	.LVL756:
 4820              		.loc 1 1098 0
 4821 0170 2846     		mov	r0, r5
 4822 0172 FFF7FEFF 		bl	VL53L0X_WrByte
 4823              	.LVL757:
 4824              		.loc 1 1099 0
 4825 0176 2246     		mov	r2, r4
 4826              		.loc 1 1098 0
 4827 0178 0743     		orrs	r7, r7, r0
 4828              	.LVL758:
 4829              		.loc 1 1099 0
 4830 017a FF21     		movs	r1, #255
 4831 017c 2846     		mov	r0, r5
 4832 017e FFF7FEFF 		bl	VL53L0X_WrByte
 4833              	.LVL759:
 4834              		.loc 1 1098 0
 4835 0182 7FB2     		sxtb	r7, r7
 4836              	.LVL760:
 4837              		.loc 1 1105 0
 4838 0184 5A46     		mov	r2, fp
 4839              		.loc 1 1099 0
 4840 0186 0743     		orrs	r7, r7, r0
 4841              	.LVL761:
 4842              		.loc 1 1105 0
 4843 0188 EE21     		movs	r1, #238
 4844 018a 2846     		mov	r0, r5
 4845 018c FFF7FEFF 		bl	VL53L0X_RdByte
ARM GAS  C:\Users\mathi\AppData\Local\Temp\ccVwcWGw.s 			page 86


 4846              	.LVL762:
 4847              		.loc 1 1099 0
 4848 0190 7FB2     		sxtb	r7, r7
 4849              	.LVL763:
 4850              		.loc 1 1113 0
 4851 0192 4246     		mov	r2, r8
 4852              		.loc 1 1105 0
 4853 0194 0743     		orrs	r7, r7, r0
 4854              	.LVL764:
 4855              		.loc 1 1113 0
 4856 0196 FF21     		movs	r1, #255
 4857 0198 2846     		mov	r0, r5
 4858 019a FFF7FEFF 		bl	VL53L0X_WrByte
 4859              	.LVL765:
 4860              		.loc 1 1105 0
 4861 019e 7FB2     		sxtb	r7, r7
 4862              	.LVL766:
 4863              		.loc 1 1114 0
 4864 01a0 2146     		mov	r1, r4
 4865 01a2 4246     		mov	r2, r8
 4866              		.loc 1 1113 0
 4867 01a4 0743     		orrs	r7, r7, r0
 4868              	.LVL767:
 4869              		.loc 1 1114 0
 4870 01a6 2846     		mov	r0, r5
 4871 01a8 FFF7FEFF 		bl	VL53L0X_WrByte
 4872              	.LVL768:
 4873              		.loc 1 1113 0
 4874 01ac 7FB2     		sxtb	r7, r7
 4875              	.LVL769:
 4876              		.loc 1 1115 0
 4877 01ae 2246     		mov	r2, r4
 4878 01b0 FF21     		movs	r1, #255
 4879              		.loc 1 1114 0
 4880 01b2 47EA0004 		orr	r4, r7, r0
 4881              		.loc 1 1115 0
 4882 01b6 2846     		mov	r0, r5
 4883 01b8 FFF7FEFF 		bl	VL53L0X_WrByte
 4884              	.LVL770:
 4885              		.loc 1 1114 0
 4886 01bc 64B2     		sxtb	r4, r4
 4887              	.LVL771:
 4888              		.loc 1 1117 0
 4889 01be 9DF80330 		ldrb	r3, [sp, #3]	@ zero_extendqisi2
 4890              		.loc 1 1115 0
 4891 01c2 0443     		orrs	r4, r4, r0
 4892              	.LVL772:
 4893              		.loc 1 1117 0
 4894 01c4 23F01003 		bic	r3, r3, #16
 4895              		.loc 1 1115 0
 4896 01c8 64B2     		sxtb	r4, r4
 4897              	.LVL773:
 4898              		.loc 1 1117 0
 4899 01ca 8AF80030 		strb	r3, [r10]
 4900              	.LVL774:
 4901              	.LBE180:
 4902              	.LBE179:
ARM GAS  C:\Users\mathi\AppData\Local\Temp\ccVwcWGw.s 			page 87


 4903              		.loc 1 1201 0
 4904 01ce 002C     		cmp	r4, #0
 4905 01d0 83D0     		beq	.L678
 4906 01d2 2AE7     		b	.L675
 4907              	.LVL775:
 4908              	.L688:
 4909              	.LBE181:
 4910              	.LBE183:
 4911              		.loc 1 1246 0
 4912 01d4 FFF7FEFF 		bl	__stack_chk_fail
 4913              	.LVL776:
 4914              	.L693:
 4915              		.align	2
 4916              	.L692:
 4917 01d8 00000000 		.word	__stack_chk_guard
 4918              		.cfi_endproc
 4919              	.LFE23:
 4920              		.size	VL53L0X_perform_ref_calibration, .-VL53L0X_perform_ref_calibration
 4921              		.section	.text.VL53L0X_perform_ref_spad_management,"ax",%progbits
 4922              		.align	1
 4923              		.p2align 4,,15
 4924              		.global	VL53L0X_perform_ref_spad_management
 4925              		.syntax unified
 4926              		.thumb
 4927              		.thumb_func
 4928              		.fpu fpv4-sp-d16
 4929              		.type	VL53L0X_perform_ref_spad_management, %function
 4930              	VL53L0X_perform_ref_spad_management:
 4931              	.LFB16:
 4932              		.loc 1 679 0
 4933              		.cfi_startproc
 4934              		@ args = 0, pretend = 0, frame = 72
 4935              		@ frame_needed = 0, uses_anonymous_args = 0
 4936              	.LVL777:
 4937 0000 2DE9F04F 		push	{r4, r5, r6, r7, r8, r9, r10, fp, lr}
 4938              		.cfi_def_cfa_offset 36
 4939              		.cfi_offset 4, -36
 4940              		.cfi_offset 5, -32
 4941              		.cfi_offset 6, -28
 4942              		.cfi_offset 7, -24
 4943              		.cfi_offset 8, -20
 4944              		.cfi_offset 9, -16
 4945              		.cfi_offset 10, -12
 4946              		.cfi_offset 11, -8
 4947              		.cfi_offset 14, -4
 4948 0004 97B0     		sub	sp, sp, #92
 4949              		.cfi_def_cfa_offset 128
 4950              		.loc 1 679 0
 4951 0006 CDE90712 		strd	r1, r2, [sp, #28]
 4952 000a B94A     		ldr	r2, .L759
 4953              	.LVL778:
 4954              		.loc 1 724 0
 4955 000c B0F83C91 		ldrh	r9, [r0, #316]
 4956              		.loc 1 679 0
 4957 0010 1468     		ldr	r4, [r2]
 4958 0012 1594     		str	r4, [sp, #84]
 4959              	.LVL779:
ARM GAS  C:\Users\mathi\AppData\Local\Temp\ccVwcWGw.s 			page 88


 4960              		.loc 1 686 0
 4961 0014 0023     		movs	r3, #0
 4962              		.loc 1 738 0
 4963 0016 0122     		movs	r2, #1
 4964              		.loc 1 735 0
 4965 0018 C0F82431 		str	r3, [r0, #292]
 4966 001c A0F82831 		strh	r3, [r0, #296]	@ movhi
 4967              		.loc 1 738 0
 4968 0020 FF21     		movs	r1, #255
 4969              	.LVL780:
 4970              		.loc 1 679 0
 4971 0022 0546     		mov	r5, r0
 4972              		.loc 1 686 0
 4973 0024 0B93     		str	r3, [sp, #44]
 4974              	.LVL781:
 4975              		.loc 1 696 0
 4976 0026 8DF82830 		strb	r3, [sp, #40]
 4977              		.loc 1 697 0
 4978 002a 8DF82930 		strb	r3, [sp, #41]
 4979              	.LVL782:
 4980              		.loc 1 738 0
 4981 002e FFF7FEFF 		bl	VL53L0X_WrByte
 4982              	.LVL783:
 4983              		.loc 1 740 0
 4984 0032 0246     		mov	r2, r0
 4985 0034 48B1     		cbz	r0, .L753
 4986              	.LVL784:
 4987              	.L695:
 4988              		.loc 1 941 0
 4989 0036 AE4B     		ldr	r3, .L759
 4990 0038 1599     		ldr	r1, [sp, #84]
 4991 003a 1B68     		ldr	r3, [r3]
 4992 003c 9942     		cmp	r1, r3
 4993 003e 1046     		mov	r0, r2
 4994 0040 40F00382 		bne	.L754
 4995 0044 17B0     		add	sp, sp, #92
 4996              		.cfi_remember_state
 4997              		.cfi_def_cfa_offset 36
 4998              		@ sp needed
 4999 0046 BDE8F08F 		pop	{r4, r5, r6, r7, r8, r9, r10, fp, pc}
 5000              	.LVL785:
 5001              	.L753:
 5002              		.cfi_restore_state
 5003              		.loc 1 741 0
 5004 004a 4F21     		movs	r1, #79
 5005 004c 2846     		mov	r0, r5
 5006              	.LVL786:
 5007 004e FFF7FEFF 		bl	VL53L0X_WrByte
 5008              	.LVL787:
 5009              		.loc 1 744 0
 5010 0052 0246     		mov	r2, r0
 5011 0054 0028     		cmp	r0, #0
 5012 0056 EED1     		bne	.L695
 5013              		.loc 1 745 0
 5014 0058 2C22     		movs	r2, #44
 5015 005a 4E21     		movs	r1, #78
 5016 005c 2846     		mov	r0, r5
ARM GAS  C:\Users\mathi\AppData\Local\Temp\ccVwcWGw.s 			page 89


 5017              	.LVL788:
 5018 005e FFF7FEFF 		bl	VL53L0X_WrByte
 5019              	.LVL789:
 5020              		.loc 1 748 0
 5021 0062 0246     		mov	r2, r0
 5022 0064 0028     		cmp	r0, #0
 5023 0066 E6D1     		bne	.L695
 5024              		.loc 1 749 0
 5025 0068 FF21     		movs	r1, #255
 5026 006a 2846     		mov	r0, r5
 5027              	.LVL790:
 5028 006c FFF7FEFF 		bl	VL53L0X_WrByte
 5029              	.LVL791:
 5030              		.loc 1 751 0
 5031 0070 0246     		mov	r2, r0
 5032 0072 0028     		cmp	r0, #0
 5033 0074 DFD1     		bne	.L695
 5034              		.loc 1 752 0
 5035 0076 B422     		movs	r2, #180
 5036 0078 B621     		movs	r1, #182
 5037 007a 2846     		mov	r0, r5
 5038              	.LVL792:
 5039 007c FFF7FEFF 		bl	VL53L0X_WrByte
 5040              	.LVL793:
 5041              		.loc 1 757 0
 5042 0080 0246     		mov	r2, r0
 5043 0082 0028     		cmp	r0, #0
 5044 0084 D7D1     		bne	.L695
 5045              		.loc 1 758 0
 5046 0086 8021     		movs	r1, #128
 5047 0088 2846     		mov	r0, r5
 5048              	.LVL794:
 5049 008a FFF7FEFF 		bl	VL53L0X_WrByte
 5050              	.LVL795:
 5051              		.loc 1 762 0
 5052 008e 0246     		mov	r2, r0
 5053 0090 0028     		cmp	r0, #0
 5054 0092 D0D1     		bne	.L695
 5055              		.loc 1 763 0
 5056 0094 0346     		mov	r3, r0
 5057 0096 0DF12902 		add	r2, sp, #41
 5058 009a 0AA9     		add	r1, sp, #40
 5059 009c 2846     		mov	r0, r5
 5060              	.LVL796:
 5061 009e FFF7FEFF 		bl	VL53L0X_perform_ref_calibration
 5062              	.LVL797:
 5063              		.loc 1 766 0
 5064 00a2 0246     		mov	r2, r0
 5065 00a4 0028     		cmp	r0, #0
 5066 00a6 C6D1     		bne	.L695
 5067              		.loc 1 769 0
 5068 00a8 16AF     		add	r7, sp, #88
 5069              		.loc 1 773 0
 5070 00aa 05F59573 		add	r3, r5, #298
 5071              		.loc 1 769 0
 5072 00ae 47F82C0D 		str	r0, [r7, #-44]!
 5073              		.loc 1 774 0
ARM GAS  C:\Users\mathi\AppData\Local\Temp\ccVwcWGw.s 			page 90


 5074 00b2 05F59276 		add	r6, r5, #292
 5075              		.loc 1 771 0
 5076 00b6 0320     		movs	r0, #3
 5077              	.LVL798:
 5078              		.loc 1 773 0
 5079 00b8 0693     		str	r3, [sp, #24]
 5080              		.loc 1 771 0
 5081 00ba 0092     		str	r2, [sp]
 5082 00bc 1146     		mov	r1, r2
 5083 00be 0190     		str	r0, [sp, #4]
 5084 00c0 1A46     		mov	r2, r3
 5085 00c2 0297     		str	r7, [sp, #8]
 5086 00c4 3346     		mov	r3, r6
 5087 00c6 2846     		mov	r0, r5
 5088 00c8 FFF7FEFF 		bl	enable_ref_spads.constprop.1
 5089              	.LVL799:
 5090              		.loc 1 782 0
 5091 00cc 0246     		mov	r2, r0
 5092 00ce 0028     		cmp	r0, #0
 5093 00d0 B1D1     		bne	.L695
 5094              	.LBB202:
 5095              	.LBB203:
 5096              		.loc 1 647 0
 5097 00d2 C022     		movs	r2, #192
 5098 00d4 0121     		movs	r1, #1
 5099 00d6 2846     		mov	r0, r5
 5100              	.LVL800:
 5101              	.LBE203:
 5102              	.LBE202:
 5103              		.loc 1 783 0
 5104 00d8 0B9C     		ldr	r4, [sp, #44]
 5105              	.LVL801:
 5106              	.LBB206:
 5107              	.LBB204:
 5108              		.loc 1 641 0
 5109 00da 95F83081 		ldrb	r8, [r5, #304]	@ zero_extendqisi2
 5110              	.LVL802:
 5111              		.loc 1 647 0
 5112 00de FFF7FEFF 		bl	VL53L0X_WrByte
 5113              	.LVL803:
 5114              		.loc 1 650 0
 5115 00e2 0246     		mov	r2, r0
 5116 00e4 0028     		cmp	r0, #0
 5117 00e6 A6D1     		bne	.L695
 5118              		.loc 1 651 0
 5119 00e8 0CA9     		add	r1, sp, #48
 5120 00ea 2846     		mov	r0, r5
 5121              	.LVL804:
 5122 00ec FFF7FEFF 		bl	VL53L0X_PerformSingleRangingMeasurement
 5123              	.LVL805:
 5124              		.loc 1 654 0
 5125 00f0 0246     		mov	r2, r0
 5126 00f2 0028     		cmp	r0, #0
 5127 00f4 9FD1     		bne	.L695
 5128              		.loc 1 655 0
 5129 00f6 0122     		movs	r2, #1
 5130 00f8 FF21     		movs	r1, #255
ARM GAS  C:\Users\mathi\AppData\Local\Temp\ccVwcWGw.s 			page 91


 5131 00fa 2846     		mov	r0, r5
 5132              	.LVL806:
 5133 00fc FFF7FEFF 		bl	VL53L0X_WrByte
 5134              	.LVL807:
 5135              		.loc 1 657 0
 5136 0100 0246     		mov	r2, r0
 5137 0102 0028     		cmp	r0, #0
 5138 0104 97D1     		bne	.L695
 5139              		.loc 1 658 0
 5140 0106 0DF12A02 		add	r2, sp, #42
 5141              	.LVL808:
 5142 010a B621     		movs	r1, #182
 5143 010c 2846     		mov	r0, r5
 5144              	.LVL809:
 5145 010e FFF7FEFF 		bl	VL53L0X_RdWord
 5146              	.LVL810:
 5147              		.loc 1 662 0
 5148 0112 0246     		mov	r2, r0
 5149 0114 0028     		cmp	r0, #0
 5150 0116 8ED1     		bne	.L695
 5151              		.loc 1 663 0
 5152 0118 FF21     		movs	r1, #255
 5153 011a 2846     		mov	r0, r5
 5154              	.LVL811:
 5155 011c FFF7FEFF 		bl	VL53L0X_WrByte
 5156              	.LVL812:
 5157              		.loc 1 665 0
 5158 0120 0246     		mov	r2, r0
 5159 0122 0028     		cmp	r0, #0
 5160 0124 87D1     		bne	.L695
 5161              		.loc 1 667 0
 5162 0126 4246     		mov	r2, r8
 5163 0128 0121     		movs	r1, #1
 5164 012a 2846     		mov	r0, r5
 5165              	.LVL813:
 5166 012c FFF7FEFF 		bl	VL53L0X_WrByte
 5167              	.LVL814:
 5168              		.loc 1 669 0
 5169 0130 0028     		cmp	r0, #0
 5170 0132 72D1     		bne	.L749
 5171              	.LBE204:
 5172              	.LBE206:
 5173              		.loc 1 788 0
 5174 0134 BDF82A30 		ldrh	r3, [sp, #42]
 5175              	.LBB207:
 5176              	.LBB205:
 5177              		.loc 1 670 0
 5178 0138 85F83081 		strb	r8, [r5, #304]
 5179              	.LVL815:
 5180              	.LBE205:
 5181              	.LBE207:
 5182              		.loc 1 787 0
 5183 013c 4B45     		cmp	r3, r9
 5184 013e 6ED9     		bls	.L722
 5185              	.LVL816:
 5186              		.loc 1 797 0
 5187 0140 04F1B403 		add	r3, r4, #180
ARM GAS  C:\Users\mathi\AppData\Local\Temp\ccVwcWGw.s 			page 92


 5188              	.LBB208:
 5189              	.LBB209:
 5190              		.loc 1 455 0
 5191 0144 9B09     		lsrs	r3, r3, #6
 5192              		.loc 1 456 0
 5193 0146 6B49     		ldr	r1, .L759+4
 5194              	.LBE209:
 5195              	.LBE208:
 5196              		.loc 1 793 0
 5197 0148 C5F82401 		str	r0, [r5, #292]
 5198              	.LBB214:
 5199              	.LBB210:
 5200              		.loc 1 456 0
 5201 014c 51F82330 		ldr	r3, [r1, r3, lsl #2]
 5202              	.LBE210:
 5203              	.LBE214:
 5204              		.loc 1 793 0
 5205 0150 A5F82801 		strh	r0, [r5, #296]	@ movhi
 5206              	.LVL817:
 5207              	.LBB215:
 5208              	.LBB211:
 5209              		.loc 1 456 0
 5210 0154 002B     		cmp	r3, #0
 5211 0156 40F07181 		bne	.L724
 5212              	.LVL818:
 5213              	.LBE211:
 5214              	.LBE215:
 5215              		.loc 1 798 0
 5216 015a 2B2C     		cmp	r4, #43
 5217 015c 03D9     		bls	.L699
 5218 015e 6DE1     		b	.L724
 5219              	.LVL819:
 5220              	.L755:
 5221 0160 2C2A     		cmp	r2, #44
 5222 0162 1446     		mov	r4, r2
 5223 0164 07D0     		beq	.L698
 5224              	.LVL820:
 5225              	.L699:
 5226              	.LBB216:
 5227              	.LBB212:
 5228              		.loc 1 455 0
 5229 0166 04F1B503 		add	r3, r4, #181
 5230 016a 9B09     		lsrs	r3, r3, #6
 5231              	.LBE212:
 5232              	.LBE216:
 5233              		.loc 1 799 0
 5234 016c 621C     		adds	r2, r4, #1
 5235              	.LVL821:
 5236              	.LBB217:
 5237              	.LBB213:
 5238              		.loc 1 456 0
 5239 016e 51F82330 		ldr	r3, [r1, r3, lsl #2]
 5240 0172 002B     		cmp	r3, #0
 5241 0174 F4D0     		beq	.L755
 5242              	.LVL822:
 5243              	.L698:
 5244              	.LBE213:
ARM GAS  C:\Users\mathi\AppData\Local\Temp\ccVwcWGw.s 			page 93


 5245              	.LBE217:
 5246              		.loc 1 804 0
 5247 0176 4FF0030B 		mov	fp, #3
 5248 017a CDE9002B 		strd	r2, fp, [sp]
 5249 017e 0297     		str	r7, [sp, #8]
 5250 0180 069A     		ldr	r2, [sp, #24]
 5251 0182 3346     		mov	r3, r6
 5252 0184 0121     		movs	r1, #1
 5253 0186 2846     		mov	r0, r5
 5254 0188 FFF7FEFF 		bl	enable_ref_spads.constprop.1
 5255              	.LVL823:
 5256              		.loc 1 814 0
 5257 018c 0246     		mov	r2, r0
 5258 018e 0028     		cmp	r0, #0
 5259 0190 7FF451AF 		bne	.L695
 5260              	.LBB218:
 5261              	.LBB219:
 5262              		.loc 1 647 0
 5263 0194 C022     		movs	r2, #192
 5264 0196 0121     		movs	r1, #1
 5265 0198 2846     		mov	r0, r5
 5266              	.LVL824:
 5267              	.LBE219:
 5268              	.LBE218:
 5269              		.loc 1 815 0
 5270 019a 0B9C     		ldr	r4, [sp, #44]
 5271              	.LVL825:
 5272              	.LBB222:
 5273              	.LBB220:
 5274              		.loc 1 641 0
 5275 019c 95F83071 		ldrb	r7, [r5, #304]	@ zero_extendqisi2
 5276              	.LVL826:
 5277              		.loc 1 647 0
 5278 01a0 FFF7FEFF 		bl	VL53L0X_WrByte
 5279              	.LVL827:
 5280              		.loc 1 650 0
 5281 01a4 0246     		mov	r2, r0
 5282 01a6 0028     		cmp	r0, #0
 5283 01a8 7FF445AF 		bne	.L695
 5284              		.loc 1 651 0
 5285 01ac 0CA9     		add	r1, sp, #48
 5286 01ae 2846     		mov	r0, r5
 5287              	.LVL828:
 5288 01b0 FFF7FEFF 		bl	VL53L0X_PerformSingleRangingMeasurement
 5289              	.LVL829:
 5290              		.loc 1 654 0
 5291 01b4 0246     		mov	r2, r0
 5292 01b6 0028     		cmp	r0, #0
 5293 01b8 7FF43DAF 		bne	.L695
 5294              		.loc 1 655 0
 5295 01bc 0122     		movs	r2, #1
 5296 01be FF21     		movs	r1, #255
 5297 01c0 2846     		mov	r0, r5
 5298              	.LVL830:
 5299 01c2 FFF7FEFF 		bl	VL53L0X_WrByte
 5300              	.LVL831:
 5301              		.loc 1 657 0
ARM GAS  C:\Users\mathi\AppData\Local\Temp\ccVwcWGw.s 			page 94


 5302 01c6 0246     		mov	r2, r0
 5303 01c8 0028     		cmp	r0, #0
 5304 01ca 7FF434AF 		bne	.L695
 5305              		.loc 1 658 0
 5306 01ce 0DF12A02 		add	r2, sp, #42
 5307              	.LVL832:
 5308 01d2 B621     		movs	r1, #182
 5309 01d4 2846     		mov	r0, r5
 5310              	.LVL833:
 5311 01d6 FFF7FEFF 		bl	VL53L0X_RdWord
 5312              	.LVL834:
 5313              		.loc 1 662 0
 5314 01da 0246     		mov	r2, r0
 5315 01dc 0028     		cmp	r0, #0
 5316 01de 7FF42AAF 		bne	.L695
 5317              		.loc 1 663 0
 5318 01e2 FF21     		movs	r1, #255
 5319 01e4 2846     		mov	r0, r5
 5320              	.LVL835:
 5321 01e6 FFF7FEFF 		bl	VL53L0X_WrByte
 5322              	.LVL836:
 5323              		.loc 1 665 0
 5324 01ea 0246     		mov	r2, r0
 5325 01ec 0028     		cmp	r0, #0
 5326 01ee 7FF422AF 		bne	.L695
 5327              		.loc 1 667 0
 5328 01f2 3A46     		mov	r2, r7
 5329 01f4 0121     		movs	r1, #1
 5330 01f6 2846     		mov	r0, r5
 5331              	.LVL837:
 5332 01f8 FFF7FEFF 		bl	VL53L0X_WrByte
 5333              	.LVL838:
 5334              		.loc 1 669 0
 5335 01fc 0246     		mov	r2, r0
 5336 01fe 0028     		cmp	r0, #0
 5337 0200 7FF419AF 		bne	.L695
 5338              	.LBE220:
 5339              	.LBE222:
 5340              		.loc 1 820 0
 5341 0204 BDF82A30 		ldrh	r3, [sp, #42]
 5342              	.LBB223:
 5343              	.LBB221:
 5344              		.loc 1 670 0
 5345 0208 85F83071 		strb	r7, [r5, #304]
 5346              	.LVL839:
 5347              	.LBE221:
 5348              	.LBE223:
 5349              		.loc 1 819 0
 5350 020c 4B45     		cmp	r3, r9
 5351 020e 40F21781 		bls	.L725
 5352 0212 0122     		movs	r2, #1
 5353 0214 0992     		str	r2, [sp, #36]
 5354              		.loc 1 827 0
 5355 0216 9046     		mov	r8, r2
 5356 0218 05E0     		b	.L697
 5357              	.LVL840:
 5358              	.L749:
ARM GAS  C:\Users\mathi\AppData\Local\Temp\ccVwcWGw.s 			page 95


 5359 021a 0246     		mov	r2, r0
 5360 021c 0BE7     		b	.L695
 5361              	.LVL841:
 5362              	.L722:
 5363 021e 8046     		mov	r8, r0
 5364 0220 0990     		str	r0, [sp, #36]
 5365              		.loc 1 699 0
 5366 0222 0246     		mov	r2, r0
 5367              		.loc 1 698 0
 5368 0224 8346     		mov	fp, r0
 5369              	.LVL842:
 5370              	.L697:
 5371              		.loc 1 836 0 discriminator 1
 5372 0226 4B45     		cmp	r3, r9
 5373 0228 80F00481 		bcs	.L726
 5374              	.LVL843:
 5375              		.loc 1 848 0
 5376 022c A3EB0903 		sub	r3, r3, r9
 5377              	.LBB224:
 5378              	.LBB225:
 5379              		.loc 1 419 0
 5380 0230 4FEAD40A 		lsr	r10, r4, #3
 5381              	.LBE225:
 5382              	.LBE224:
 5383              		.loc 1 848 0
 5384 0234 002B     		cmp	r3, #0
 5385 0236 B8BF     		it	lt
 5386 0238 5B42     		rsblt	r3, r3, #0
 5387              		.loc 1 846 0
 5388 023a B288     		ldrh	r2, [r6, #4]	@ unaligned
 5389 023c 3068     		ldr	r0, [r6]	@ unaligned
 5390 023e ADF85020 		strh	r2, [sp, #80]	@ unaligned
 5391              	.LBB234:
 5392              	.LBB226:
 5393              		.loc 1 422 0
 5394 0242 BAF1050F 		cmp	r10, #5
 5395              	.LBE226:
 5396              	.LBE234:
 5397              		.loc 1 848 0
 5398 0246 0593     		str	r3, [sp, #20]
 5399              	.LVL844:
 5400              		.loc 1 846 0
 5401 0248 1390     		str	r0, [sp, #76]
 5402              	.LBB235:
 5403              	.LBB227:
 5404              		.loc 1 420 0
 5405 024a 04F00704 		and	r4, r4, #7
 5406              	.LVL845:
 5407              		.loc 1 422 0
 5408 024e 00F2DB80 		bhi	.L702
 5409              	.LBE227:
 5410              	.LBE235:
 5411              		.loc 1 844 0
 5412 0252 0323     		movs	r3, #3
 5413              	.LBB236:
 5414              	.LBB237:
 5415              		.loc 1 456 0
ARM GAS  C:\Users\mathi\AppData\Local\Temp\ccVwcWGw.s 			page 96


 5416 0254 274F     		ldr	r7, .L759+4
 5417              	.LBE237:
 5418              	.LBE236:
 5419              		.loc 1 844 0
 5420 0256 0493     		str	r3, [sp, #16]
 5421              	.LVL846:
 5422              	.L718:
 5423 0258 069B     		ldr	r3, [sp, #24]
 5424 025a 0AF1FF3C 		add	ip, r10, #-1
 5425 025e 9C44     		add	ip, ip, r3
 5426              	.LBB239:
 5427              	.LBB228:
 5428              		.loc 1 441 0
 5429 0260 5046     		mov	r0, r10
 5430              	.LVL847:
 5431              		.loc 1 427 0
 5432 0262 5045     		cmp	r0, r10
 5433              		.loc 1 441 0
 5434 0264 04F1010B 		add	fp, r4, #1
 5435              		.loc 1 425 0
 5436 0268 1CF8013F 		ldrb	r3, [ip, #1]!	@ zero_extendqisi2
 5437              	.LVL848:
 5438              		.loc 1 427 0
 5439 026c 34D0     		beq	.L704
 5440              	.LVL849:
 5441              	.L757:
 5442              		.loc 1 435 0
 5443 026e 13F00101 		ands	r1, r3, #1
 5444 0272 40F0C780 		bne	.L756
 5445              		.loc 1 440 0
 5446 0276 4FEA530E 		lsr	lr, r3, #1
 5447              	.LVL850:
 5448              		.loc 1 441 0
 5449 027a 0122     		movs	r2, #1
 5450              	.LVL851:
 5451              	.L719:
 5452              		.loc 1 435 0
 5453 027c 1EF0010F 		tst	lr, #1
 5454 0280 3BD1     		bne	.L705
 5455              	.LVL852:
 5456              		.loc 1 441 0
 5457 0282 8A1C     		adds	r2, r1, #2
 5458              	.LVL853:
 5459              		.loc 1 434 0
 5460 0284 082A     		cmp	r2, #8
 5461 0286 1FD0     		beq	.L751
 5462              		.loc 1 435 0
 5463 0288 13F0040F 		tst	r3, #4
 5464 028c 35D1     		bne	.L705
 5465              	.LVL854:
 5466              		.loc 1 441 0
 5467 028e CA1C     		adds	r2, r1, #3
 5468              	.LVL855:
 5469              		.loc 1 434 0
 5470 0290 082A     		cmp	r2, #8
 5471 0292 19D0     		beq	.L751
 5472              		.loc 1 435 0
ARM GAS  C:\Users\mathi\AppData\Local\Temp\ccVwcWGw.s 			page 97


 5473 0294 13F0080F 		tst	r3, #8
 5474 0298 2FD1     		bne	.L705
 5475              	.LVL856:
 5476              		.loc 1 441 0
 5477 029a 0A1D     		adds	r2, r1, #4
 5478              	.LVL857:
 5479              		.loc 1 434 0
 5480 029c 082A     		cmp	r2, #8
 5481 029e 13D0     		beq	.L751
 5482              		.loc 1 435 0
 5483 02a0 13F0100F 		tst	r3, #16
 5484 02a4 29D1     		bne	.L705
 5485              	.LVL858:
 5486              		.loc 1 441 0
 5487 02a6 4A1D     		adds	r2, r1, #5
 5488              	.LVL859:
 5489              		.loc 1 434 0
 5490 02a8 082A     		cmp	r2, #8
 5491 02aa 0DD0     		beq	.L751
 5492              		.loc 1 435 0
 5493 02ac 13F0200F 		tst	r3, #32
 5494 02b0 23D1     		bne	.L705
 5495              	.LVL860:
 5496              		.loc 1 441 0
 5497 02b2 8A1D     		adds	r2, r1, #6
 5498              	.LVL861:
 5499              		.loc 1 434 0
 5500 02b4 082A     		cmp	r2, #8
 5501 02b6 07D0     		beq	.L751
 5502              		.loc 1 435 0
 5503 02b8 13F0400F 		tst	r3, #64
 5504 02bc 1DD1     		bne	.L705
 5505              		.loc 1 440 0
 5506 02be DB09     		lsrs	r3, r3, #7
 5507              	.LVL862:
 5508              		.loc 1 434 0
 5509 02c0 11B9     		cbnz	r1, .L751
 5510              		.loc 1 435 0
 5511 02c2 002B     		cmp	r3, #0
 5512 02c4 40F0B880 		bne	.L729
 5513              	.LVL863:
 5514              	.L751:
 5515              		.loc 1 422 0
 5516 02c8 0528     		cmp	r0, #5
 5517 02ca 00F09D80 		beq	.L702
 5518              	.LVL864:
 5519 02ce 0130     		adds	r0, r0, #1
 5520              	.LVL865:
 5521              		.loc 1 427 0
 5522 02d0 5045     		cmp	r0, r10
 5523              		.loc 1 425 0
 5524 02d2 1CF8013F 		ldrb	r3, [ip, #1]!	@ zero_extendqisi2
 5525              	.LVL866:
 5526              		.loc 1 427 0
 5527 02d6 CAD1     		bne	.L757
 5528              	.LVL867:
 5529              	.L704:
ARM GAS  C:\Users\mathi\AppData\Local\Temp\ccVwcWGw.s 			page 98


 5530              		.loc 1 430 0
 5531 02d8 2341     		asrs	r3, r3, r4
 5532              	.LVL868:
 5533 02da DBB2     		uxtb	r3, r3
 5534              	.LVL869:
 5535              		.loc 1 435 0
 5536 02dc DA07     		lsls	r2, r3, #31
 5537 02de 0BD4     		bmi	.L728
 5538              	.LVL870:
 5539              		.loc 1 434 0
 5540 02e0 BBF1080F 		cmp	fp, #8
 5541 02e4 F0D0     		beq	.L751
 5542              		.loc 1 440 0
 5543 02e6 4FEA530E 		lsr	lr, r3, #1
 5544 02ea 2146     		mov	r1, r4
 5545 02ec 5A46     		mov	r2, fp
 5546 02ee C5E7     		b	.L719
 5547              	.L760:
 5548              		.align	2
 5549              	.L759:
 5550 02f0 00000000 		.word	__stack_chk_guard
 5551 02f4 00000000 		.word	.LANCHOR0
 5552              	.LVL871:
 5553              	.L728:
 5554              		.loc 1 435 0
 5555 02f8 2246     		mov	r2, r4
 5556              	.LVL872:
 5557              	.L705:
 5558              		.loc 1 437 0
 5559 02fa 02EBC004 		add	r4, r2, r0, lsl #3
 5560              	.LVL873:
 5561              	.LBE228:
 5562              	.LBE239:
 5563              		.loc 1 866 0
 5564 02fe 04F1B403 		add	r3, r4, #180
 5565              	.LBB240:
 5566              	.LBB238:
 5567              		.loc 1 455 0
 5568 0302 9B09     		lsrs	r3, r3, #6
 5569              		.loc 1 456 0
 5570 0304 57F82330 		ldr	r3, [r7, r3, lsl #2]
 5571 0308 0033     		adds	r3, r3, #0
 5572 030a 18BF     		it	ne
 5573 030c 0123     		movne	r3, #1
 5574              	.LBE238:
 5575              	.LBE240:
 5576              		.loc 1 866 0
 5577 030e 4345     		cmp	r3, r8
 5578 0310 40F08D80 		bne	.L731
 5579              	.LBB241:
 5580              	.LBB242:
 5581              		.loc 1 471 0
 5582 0314 E208     		lsrs	r2, r4, #3
 5583              		.loc 1 472 0
 5584 0316 04F00703 		and	r3, r4, #7
 5585              		.loc 1 476 0
 5586 031a B15C     		ldrb	r1, [r6, r2]	@ zero_extendqisi2
ARM GAS  C:\Users\mathi\AppData\Local\Temp\ccVwcWGw.s 			page 99


 5587 031c 0120     		movs	r0, #1
 5588 031e 00FA03F3 		lsl	r3, r0, r3
 5589 0322 0B43     		orrs	r3, r3, r1
 5590 0324 B354     		strb	r3, [r6, r2]
 5591              	.LBE242:
 5592              	.LBE241:
 5593              	.LBB243:
 5594              	.LBB244:
 5595              		.loc 1 541 0
 5596 0326 B021     		movs	r1, #176
 5597 0328 0623     		movs	r3, #6
 5598 032a 3246     		mov	r2, r6
 5599 032c 2846     		mov	r0, r5
 5600 032e FFF7FEFF 		bl	VL53L0X_WriteMulti
 5601              	.LVL874:
 5602              	.LBE244:
 5603              	.LBE243:
 5604              		.loc 1 875 0
 5605 0332 049B     		ldr	r3, [sp, #16]
 5606              		.loc 1 883 0
 5607 0334 0134     		adds	r4, r4, #1
 5608              	.LVL875:
 5609              		.loc 1 875 0
 5610 0336 03F1010B 		add	fp, r3, #1
 5611              	.LVL876:
 5612              		.loc 1 890 0
 5613 033a 0028     		cmp	r0, #0
 5614 033c 7FF46DAF 		bne	.L749
 5615              	.LVL877:
 5616              	.LBB245:
 5617              	.LBB246:
 5618              		.loc 1 647 0
 5619 0340 C022     		movs	r2, #192
 5620 0342 0121     		movs	r1, #1
 5621 0344 2846     		mov	r0, r5
 5622              	.LVL878:
 5623              		.loc 1 641 0
 5624 0346 95F830A1 		ldrb	r10, [r5, #304]	@ zero_extendqisi2
 5625              	.LVL879:
 5626              		.loc 1 647 0
 5627 034a FFF7FEFF 		bl	VL53L0X_WrByte
 5628              	.LVL880:
 5629              		.loc 1 650 0
 5630 034e 0028     		cmp	r0, #0
 5631 0350 7FF463AF 		bne	.L749
 5632              		.loc 1 651 0
 5633 0354 0CA9     		add	r1, sp, #48
 5634 0356 2846     		mov	r0, r5
 5635              	.LVL881:
 5636 0358 FFF7FEFF 		bl	VL53L0X_PerformSingleRangingMeasurement
 5637              	.LVL882:
 5638              		.loc 1 654 0
 5639 035c 0028     		cmp	r0, #0
 5640 035e 7FF45CAF 		bne	.L749
 5641              		.loc 1 655 0
 5642 0362 0122     		movs	r2, #1
 5643 0364 FF21     		movs	r1, #255
ARM GAS  C:\Users\mathi\AppData\Local\Temp\ccVwcWGw.s 			page 100


 5644 0366 2846     		mov	r0, r5
 5645              	.LVL883:
 5646 0368 FFF7FEFF 		bl	VL53L0X_WrByte
 5647              	.LVL884:
 5648              		.loc 1 657 0
 5649 036c 0028     		cmp	r0, #0
 5650 036e 7FF454AF 		bne	.L749
 5651              		.loc 1 658 0
 5652 0372 0DF12A02 		add	r2, sp, #42
 5653              	.LVL885:
 5654 0376 B621     		movs	r1, #182
 5655 0378 2846     		mov	r0, r5
 5656              	.LVL886:
 5657 037a FFF7FEFF 		bl	VL53L0X_RdWord
 5658              	.LVL887:
 5659              		.loc 1 663 0
 5660 037e 0246     		mov	r2, r0
 5661              		.loc 1 662 0
 5662 0380 0028     		cmp	r0, #0
 5663 0382 7FF458AE 		bne	.L695
 5664              		.loc 1 663 0
 5665 0386 FF21     		movs	r1, #255
 5666 0388 2846     		mov	r0, r5
 5667              	.LVL888:
 5668 038a FFF7FEFF 		bl	VL53L0X_WrByte
 5669              	.LVL889:
 5670              		.loc 1 665 0
 5671 038e 0028     		cmp	r0, #0
 5672 0390 7FF443AF 		bne	.L749
 5673              		.loc 1 667 0
 5674 0394 5246     		mov	r2, r10
 5675 0396 0121     		movs	r1, #1
 5676 0398 2846     		mov	r0, r5
 5677              	.LVL890:
 5678 039a FFF7FEFF 		bl	VL53L0X_WrByte
 5679              	.LVL891:
 5680              		.loc 1 669 0
 5681 039e 0028     		cmp	r0, #0
 5682 03a0 7FF43BAF 		bne	.L749
 5683              	.LBE246:
 5684              	.LBE245:
 5685              		.loc 1 899 0
 5686 03a4 BDF82A20 		ldrh	r2, [sp, #42]
 5687              	.LBB248:
 5688              	.LBB247:
 5689              		.loc 1 670 0
 5690 03a8 85F830A1 		strb	r10, [r5, #304]
 5691              	.LVL892:
 5692              	.LBE247:
 5693              	.LBE248:
 5694              		.loc 1 899 0
 5695 03ac A2EB0903 		sub	r3, r2, r9
 5696 03b0 002B     		cmp	r3, #0
 5697 03b2 B8BF     		it	lt
 5698 03b4 5B42     		rsblt	r3, r3, #0
 5699              	.LVL893:
 5700              		.loc 1 901 0
ARM GAS  C:\Users\mathi\AppData\Local\Temp\ccVwcWGw.s 			page 101


 5701 03b6 4A45     		cmp	r2, r9
 5702 03b8 14D9     		bls	.L717
 5703              		.loc 1 906 0
 5704 03ba 059A     		ldr	r2, [sp, #20]
 5705 03bc 9342     		cmp	r3, r2
 5706 03be 26D8     		bhi	.L758
 5707              	.LVL894:
 5708              	.L701:
 5709              		.loc 1 930 0
 5710 03c0 079A     		ldr	r2, [sp, #28]
 5711              		.loc 1 931 0
 5712 03c2 0899     		ldr	r1, [sp, #32]
 5713 03c4 9DF82440 		ldrb	r4, [sp, #36]	@ zero_extendqisi2
 5714              		.loc 1 930 0
 5715 03c8 C2F800B0 		str	fp, [r2]
 5716              		.loc 1 933 0
 5717 03cc 0123     		movs	r3, #1
 5718              		.loc 1 931 0
 5719 03ce 0C70     		strb	r4, [r1]
 5720              		.loc 1 933 0
 5721 03d0 85F81531 		strb	r3, [r5, #277]
 5722              		.loc 1 934 0
 5723 03d4 1368     		ldr	r3, [r2]
 5724 03d6 85F81331 		strb	r3, [r5, #275]
 5725              		.loc 1 936 0
 5726 03da 0B78     		ldrb	r3, [r1]	@ zero_extendqisi2
 5727 03dc 85F81431 		strb	r3, [r5, #276]
 5728 03e0 0022     		movs	r2, #0
 5729 03e2 28E6     		b	.L695
 5730              	.LVL895:
 5731              	.L717:
 5732              	.LBB249:
 5733              	.LBB229:
 5734              		.loc 1 419 0
 5735 03e4 4FEAD40A 		lsr	r10, r4, #3
 5736              	.LBE229:
 5737              	.LBE249:
 5738              		.loc 1 921 0
 5739 03e8 3068     		ldr	r0, [r6]	@ unaligned
 5740 03ea B288     		ldrh	r2, [r6, #4]	@ unaligned
 5741 03ec 1390     		str	r0, [sp, #76]
 5742              	.LBB250:
 5743              	.LBB230:
 5744              		.loc 1 422 0
 5745 03ee BAF1060F 		cmp	r10, #6
 5746              	.LBE230:
 5747              	.LBE250:
 5748              		.loc 1 899 0
 5749 03f2 0593     		str	r3, [sp, #20]
 5750              		.loc 1 921 0
 5751 03f4 ADF85020 		strh	r2, [sp, #80]	@ unaligned
 5752              	.LVL896:
 5753              	.LBB251:
 5754              	.LBB231:
 5755              		.loc 1 420 0
 5756 03f8 04F00704 		and	r4, r4, #7
 5757              	.LVL897:
ARM GAS  C:\Users\mathi\AppData\Local\Temp\ccVwcWGw.s 			page 102


 5758              		.loc 1 422 0
 5759 03fc 04D0     		beq	.L702
 5760              	.LBE231:
 5761              	.LBE251:
 5762              		.loc 1 875 0
 5763 03fe CDF810B0 		str	fp, [sp, #16]
 5764 0402 29E7     		b	.L718
 5765              	.LVL898:
 5766              	.L756:
 5767              	.LBB252:
 5768              	.LBB232:
 5769              		.loc 1 424 0
 5770 0404 0022     		movs	r2, #0
 5771 0406 78E7     		b	.L705
 5772              	.LVL899:
 5773              	.L702:
 5774              	.LBE232:
 5775              	.LBE252:
 5776              		.loc 1 936 0
 5777 0408 6FF03102 		mvn	r2, #49
 5778 040c 13E6     		b	.L695
 5779              	.LVL900:
 5780              	.L758:
 5781              	.LBB253:
 5782              	.LBB254:
 5783              		.loc 1 541 0
 5784 040e 0623     		movs	r3, #6
 5785              	.LVL901:
 5786 0410 13AA     		add	r2, sp, #76
 5787              	.LVL902:
 5788 0412 B021     		movs	r1, #176
 5789 0414 2846     		mov	r0, r5
 5790 0416 FFF7FEFF 		bl	VL53L0X_WriteMulti
 5791              	.LVL903:
 5792              	.LBE254:
 5793              	.LBE253:
 5794              		.loc 1 911 0
 5795 041a BDF85030 		ldrh	r3, [sp, #80]	@ unaligned
 5796              	.LBB256:
 5797              	.LBB255:
 5798              		.loc 1 541 0
 5799 041e 0246     		mov	r2, r0
 5800              	.LVL904:
 5801              	.LBE255:
 5802              	.LBE256:
 5803              		.loc 1 911 0
 5804 0420 1398     		ldr	r0, [sp, #76]
 5805 0422 C5F82401 		str	r0, [r5, #292]	@ unaligned
 5806 0426 B380     		strh	r3, [r6, #4]	@ unaligned
 5807              	.LVL905:
 5808              		.loc 1 929 0
 5809 0428 002A     		cmp	r2, #0
 5810 042a 7FF404AE 		bne	.L695
 5811              	.LVL906:
 5812              	.L731:
 5813 042e DDF810B0 		ldr	fp, [sp, #16]
 5814 0432 C5E7     		b	.L701
ARM GAS  C:\Users\mathi\AppData\Local\Temp\ccVwcWGw.s 			page 103


 5815              	.LVL907:
 5816              	.L726:
 5817 0434 0992     		str	r2, [sp, #36]
 5818 0436 C3E7     		b	.L701
 5819              	.LVL908:
 5820              	.L729:
 5821              	.LBB257:
 5822              	.LBB233:
 5823              		.loc 1 435 0
 5824 0438 0722     		movs	r2, #7
 5825 043a 5EE7     		b	.L705
 5826              	.LVL909:
 5827              	.L724:
 5828              	.LBE233:
 5829              	.LBE257:
 5830              		.loc 1 798 0
 5831 043c 2246     		mov	r2, r4
 5832 043e 9AE6     		b	.L698
 5833              	.LVL910:
 5834              	.L725:
 5835 0440 0121     		movs	r1, #1
 5836 0442 0991     		str	r1, [sp, #36]
 5837              		.loc 1 698 0
 5838 0444 8346     		mov	fp, r0
 5839              		.loc 1 802 0
 5840 0446 8846     		mov	r8, r1
 5841 0448 EDE6     		b	.L697
 5842              	.LVL911:
 5843              	.L754:
 5844              		.loc 1 941 0
 5845 044a FFF7FEFF 		bl	__stack_chk_fail
 5846              	.LVL912:
 5847              		.cfi_endproc
 5848              	.LFE16:
 5849              		.size	VL53L0X_perform_ref_spad_management, .-VL53L0X_perform_ref_spad_management
 5850 044e 00BF     		.section	.text.VL53L0X_set_ref_calibration,"ax",%progbits
 5851              		.align	1
 5852              		.p2align 4,,15
 5853              		.global	VL53L0X_set_ref_calibration
 5854              		.syntax unified
 5855              		.thumb
 5856              		.thumb_func
 5857              		.fpu fpv4-sp-d16
 5858              		.type	VL53L0X_set_ref_calibration, %function
 5859              	VL53L0X_set_ref_calibration:
 5860              	.LFB24:
 5861              		.loc 1 1250 0
 5862              		.cfi_startproc
 5863              		@ args = 0, pretend = 0, frame = 8
 5864              		@ frame_needed = 0, uses_anonymous_args = 0
 5865              	.LVL913:
 5866 0000 2DE9F041 		push	{r4, r5, r6, r7, r8, lr}
 5867              		.cfi_def_cfa_offset 24
 5868              		.cfi_offset 4, -24
 5869              		.cfi_offset 5, -20
 5870              		.cfi_offset 6, -16
 5871              		.cfi_offset 7, -12
ARM GAS  C:\Users\mathi\AppData\Local\Temp\ccVwcWGw.s 			page 104


 5872              		.cfi_offset 8, -8
 5873              		.cfi_offset 14, -4
 5874 0004 234D     		ldr	r5, .L765
 5875 0006 82B0     		sub	sp, sp, #8
 5876              		.cfi_def_cfa_offset 32
 5877              		.loc 1 1250 0
 5878 0008 2B68     		ldr	r3, [r5]
 5879 000a 0193     		str	r3, [sp, #4]
 5880              	.LVL914:
 5881 000c 8846     		mov	r8, r1
 5882 000e 1746     		mov	r7, r2
 5883              	.LBB260:
 5884              	.LBB261:
 5885              		.loc 1 1097 0
 5886 0010 FF21     		movs	r1, #255
 5887              	.LVL915:
 5888 0012 0122     		movs	r2, #1
 5889              	.LVL916:
 5890              	.LBE261:
 5891              	.LBE260:
 5892              		.loc 1 1250 0
 5893 0014 0646     		mov	r6, r0
 5894              	.LVL917:
 5895              	.LBB265:
 5896              	.LBB262:
 5897              		.loc 1 1097 0
 5898 0016 FFF7FEFF 		bl	VL53L0X_WrByte
 5899              	.LVL918:
 5900              		.loc 1 1098 0
 5901 001a 0022     		movs	r2, #0
 5902 001c 1146     		mov	r1, r2
 5903              		.loc 1 1097 0
 5904 001e 0446     		mov	r4, r0
 5905              	.LVL919:
 5906              		.loc 1 1098 0
 5907 0020 3046     		mov	r0, r6
 5908 0022 FFF7FEFF 		bl	VL53L0X_WrByte
 5909              	.LVL920:
 5910              		.loc 1 1099 0
 5911 0026 0022     		movs	r2, #0
 5912              		.loc 1 1098 0
 5913 0028 0443     		orrs	r4, r4, r0
 5914              	.LVL921:
 5915              		.loc 1 1099 0
 5916 002a FF21     		movs	r1, #255
 5917 002c 3046     		mov	r0, r6
 5918 002e FFF7FEFF 		bl	VL53L0X_WrByte
 5919              	.LVL922:
 5920              		.loc 1 1098 0
 5921 0032 64B2     		sxtb	r4, r4
 5922              	.LVL923:
 5923              		.loc 1 1108 0
 5924 0034 4246     		mov	r2, r8
 5925              		.loc 1 1099 0
 5926 0036 0443     		orrs	r4, r4, r0
 5927              	.LVL924:
 5928              		.loc 1 1108 0
ARM GAS  C:\Users\mathi\AppData\Local\Temp\ccVwcWGw.s 			page 105


 5929 0038 CB21     		movs	r1, #203
 5930 003a 3046     		mov	r0, r6
 5931 003c FFF7FEFF 		bl	VL53L0X_WrByte
 5932              	.LVL925:
 5933              		.loc 1 1099 0
 5934 0040 64B2     		sxtb	r4, r4
 5935              	.LVL926:
 5936              		.loc 1 1110 0
 5937 0042 3B46     		mov	r3, r7
 5938              		.loc 1 1108 0
 5939 0044 0443     		orrs	r4, r4, r0
 5940              	.LVL927:
 5941              		.loc 1 1110 0
 5942 0046 8022     		movs	r2, #128
 5943 0048 EE21     		movs	r1, #238
 5944 004a 3046     		mov	r0, r6
 5945 004c FFF7FEFF 		bl	VL53L0X_UpdateByte
 5946              	.LVL928:
 5947              		.loc 1 1108 0
 5948 0050 64B2     		sxtb	r4, r4
 5949              	.LVL929:
 5950              		.loc 1 1113 0
 5951 0052 0122     		movs	r2, #1
 5952              		.loc 1 1110 0
 5953 0054 0443     		orrs	r4, r4, r0
 5954              	.LVL930:
 5955              		.loc 1 1113 0
 5956 0056 FF21     		movs	r1, #255
 5957 0058 3046     		mov	r0, r6
 5958 005a FFF7FEFF 		bl	VL53L0X_WrByte
 5959              	.LVL931:
 5960              		.loc 1 1110 0
 5961 005e 64B2     		sxtb	r4, r4
 5962              	.LVL932:
 5963              		.loc 1 1114 0
 5964 0060 0122     		movs	r2, #1
 5965              		.loc 1 1113 0
 5966 0062 0443     		orrs	r4, r4, r0
 5967              	.LVL933:
 5968              		.loc 1 1114 0
 5969 0064 0021     		movs	r1, #0
 5970 0066 3046     		mov	r0, r6
 5971 0068 FFF7FEFF 		bl	VL53L0X_WrByte
 5972              	.LVL934:
 5973              		.loc 1 1113 0
 5974 006c 64B2     		sxtb	r4, r4
 5975              	.LVL935:
 5976              		.loc 1 1115 0
 5977 006e 0022     		movs	r2, #0
 5978              		.loc 1 1114 0
 5979 0070 0443     		orrs	r4, r4, r0
 5980              	.LVL936:
 5981              		.loc 1 1115 0
 5982 0072 FF21     		movs	r1, #255
 5983 0074 3046     		mov	r0, r6
 5984 0076 FFF7FEFF 		bl	VL53L0X_WrByte
 5985              	.LVL937:
ARM GAS  C:\Users\mathi\AppData\Local\Temp\ccVwcWGw.s 			page 106


 5986              	.LBE262:
 5987              	.LBE265:
 5988              		.loc 1 1261 0
 5989 007a 019A     		ldr	r2, [sp, #4]
 5990 007c 2B68     		ldr	r3, [r5]
 5991              	.LBB266:
 5992              	.LBB263:
 5993              		.loc 1 1114 0
 5994 007e 64B2     		sxtb	r4, r4
 5995              	.LVL938:
 5996              	.LBE263:
 5997              	.LBE266:
 5998              		.loc 1 1261 0
 5999 0080 9A42     		cmp	r2, r3
 6000              	.LBB267:
 6001              	.LBB264:
 6002              		.loc 1 1115 0
 6003 0082 40EA0400 		orr	r0, r0, r4
 6004              	.LBE264:
 6005              	.LBE267:
 6006              		.loc 1 1261 0
 6007 0086 03D1     		bne	.L764
 6008 0088 40B2     		sxtb	r0, r0
 6009 008a 02B0     		add	sp, sp, #8
 6010              		.cfi_remember_state
 6011              		.cfi_def_cfa_offset 24
 6012              		@ sp needed
 6013 008c BDE8F081 		pop	{r4, r5, r6, r7, r8, pc}
 6014              	.LVL939:
 6015              	.L764:
 6016              		.cfi_restore_state
 6017 0090 FFF7FEFF 		bl	__stack_chk_fail
 6018              	.LVL940:
 6019              	.L766:
 6020              		.align	2
 6021              	.L765:
 6022 0094 00000000 		.word	__stack_chk_guard
 6023              		.cfi_endproc
 6024              	.LFE24:
 6025              		.size	VL53L0X_set_ref_calibration, .-VL53L0X_set_ref_calibration
 6026              		.section	.text.VL53L0X_get_ref_calibration,"ax",%progbits
 6027              		.align	1
 6028              		.p2align 4,,15
 6029              		.global	VL53L0X_get_ref_calibration
 6030              		.syntax unified
 6031              		.thumb
 6032              		.thumb_func
 6033              		.fpu fpv4-sp-d16
 6034              		.type	VL53L0X_get_ref_calibration, %function
 6035              	VL53L0X_get_ref_calibration:
 6036              	.LFB25:
 6037              		.loc 1 1265 0
 6038              		.cfi_startproc
 6039              		@ args = 0, pretend = 0, frame = 8
 6040              		@ frame_needed = 0, uses_anonymous_args = 0
 6041              	.LVL941:
 6042 0000 2DE9F047 		push	{r4, r5, r6, r7, r8, r9, r10, lr}
ARM GAS  C:\Users\mathi\AppData\Local\Temp\ccVwcWGw.s 			page 107


 6043              		.cfi_def_cfa_offset 32
 6044              		.cfi_offset 4, -32
 6045              		.cfi_offset 5, -28
 6046              		.cfi_offset 6, -24
 6047              		.cfi_offset 7, -20
 6048              		.cfi_offset 8, -16
 6049              		.cfi_offset 9, -12
 6050              		.cfi_offset 10, -8
 6051              		.cfi_offset 14, -4
 6052 0004 284F     		ldr	r7, .L771
 6053 0006 82B0     		sub	sp, sp, #8
 6054              		.cfi_def_cfa_offset 40
 6055              	.LBB270:
 6056              	.LBB271:
 6057              		.loc 1 1094 0
 6058 0008 0DF10809 		add	r9, sp, #8
 6059              	.LBE271:
 6060              	.LBE270:
 6061              		.loc 1 1265 0
 6062 000c 3B68     		ldr	r3, [r7]
 6063 000e 0193     		str	r3, [sp, #4]
 6064              	.LVL942:
 6065              	.LBB278:
 6066              	.LBB272:
 6067              		.loc 1 1094 0
 6068 0010 0026     		movs	r6, #0
 6069              	.LBE272:
 6070              	.LBE278:
 6071              		.loc 1 1265 0
 6072 0012 8A46     		mov	r10, r1
 6073 0014 9046     		mov	r8, r2
 6074              	.LBB279:
 6075              	.LBB273:
 6076              		.loc 1 1097 0
 6077 0016 FF21     		movs	r1, #255
 6078              	.LVL943:
 6079 0018 0122     		movs	r2, #1
 6080              	.LVL944:
 6081              	.LBE273:
 6082              	.LBE279:
 6083              		.loc 1 1265 0
 6084 001a 0546     		mov	r5, r0
 6085              	.LVL945:
 6086              	.LBB280:
 6087              	.LBB274:
 6088              		.loc 1 1094 0
 6089 001c 09F8056D 		strb	r6, [r9, #-5]!
 6090              		.loc 1 1097 0
 6091 0020 FFF7FEFF 		bl	VL53L0X_WrByte
 6092              	.LVL946:
 6093              		.loc 1 1098 0
 6094 0024 3246     		mov	r2, r6
 6095              		.loc 1 1097 0
 6096 0026 0446     		mov	r4, r0
 6097              	.LVL947:
 6098              		.loc 1 1098 0
 6099 0028 3146     		mov	r1, r6
ARM GAS  C:\Users\mathi\AppData\Local\Temp\ccVwcWGw.s 			page 108


 6100 002a 2846     		mov	r0, r5
 6101 002c FFF7FEFF 		bl	VL53L0X_WrByte
 6102              	.LVL948:
 6103              		.loc 1 1099 0
 6104 0030 3246     		mov	r2, r6
 6105              		.loc 1 1098 0
 6106 0032 0443     		orrs	r4, r4, r0
 6107              	.LVL949:
 6108              		.loc 1 1099 0
 6109 0034 FF21     		movs	r1, #255
 6110 0036 2846     		mov	r0, r5
 6111 0038 FFF7FEFF 		bl	VL53L0X_WrByte
 6112              	.LVL950:
 6113              		.loc 1 1098 0
 6114 003c 64B2     		sxtb	r4, r4
 6115              	.LVL951:
 6116              		.loc 1 1103 0
 6117 003e 5246     		mov	r2, r10
 6118              		.loc 1 1099 0
 6119 0040 0443     		orrs	r4, r4, r0
 6120              	.LVL952:
 6121              		.loc 1 1103 0
 6122 0042 CB21     		movs	r1, #203
 6123 0044 2846     		mov	r0, r5
 6124 0046 FFF7FEFF 		bl	VL53L0X_RdByte
 6125              	.LVL953:
 6126              		.loc 1 1099 0
 6127 004a 64B2     		sxtb	r4, r4
 6128              	.LVL954:
 6129              		.loc 1 1105 0
 6130 004c 4A46     		mov	r2, r9
 6131              		.loc 1 1103 0
 6132 004e 0443     		orrs	r4, r4, r0
 6133              	.LVL955:
 6134              		.loc 1 1105 0
 6135 0050 EE21     		movs	r1, #238
 6136 0052 2846     		mov	r0, r5
 6137 0054 FFF7FEFF 		bl	VL53L0X_RdByte
 6138              	.LVL956:
 6139              		.loc 1 1103 0
 6140 0058 64B2     		sxtb	r4, r4
 6141              	.LVL957:
 6142              		.loc 1 1113 0
 6143 005a 0122     		movs	r2, #1
 6144              		.loc 1 1105 0
 6145 005c 0443     		orrs	r4, r4, r0
 6146              	.LVL958:
 6147              		.loc 1 1113 0
 6148 005e FF21     		movs	r1, #255
 6149 0060 2846     		mov	r0, r5
 6150 0062 FFF7FEFF 		bl	VL53L0X_WrByte
 6151              	.LVL959:
 6152              		.loc 1 1105 0
 6153 0066 64B2     		sxtb	r4, r4
 6154              	.LVL960:
 6155              		.loc 1 1114 0
 6156 0068 3146     		mov	r1, r6
ARM GAS  C:\Users\mathi\AppData\Local\Temp\ccVwcWGw.s 			page 109


 6157              		.loc 1 1113 0
 6158 006a 0443     		orrs	r4, r4, r0
 6159              	.LVL961:
 6160              		.loc 1 1114 0
 6161 006c 0122     		movs	r2, #1
 6162 006e 2846     		mov	r0, r5
 6163 0070 FFF7FEFF 		bl	VL53L0X_WrByte
 6164              	.LVL962:
 6165              		.loc 1 1113 0
 6166 0074 64B2     		sxtb	r4, r4
 6167              	.LVL963:
 6168              		.loc 1 1115 0
 6169 0076 3246     		mov	r2, r6
 6170              		.loc 1 1114 0
 6171 0078 0443     		orrs	r4, r4, r0
 6172              	.LVL964:
 6173              		.loc 1 1115 0
 6174 007a FF21     		movs	r1, #255
 6175 007c 2846     		mov	r0, r5
 6176 007e FFF7FEFF 		bl	VL53L0X_WrByte
 6177              	.LVL965:
 6178              		.loc 1 1117 0
 6179 0082 9DF80330 		ldrb	r3, [sp, #3]	@ zero_extendqisi2
 6180              	.LBE274:
 6181              	.LBE280:
 6182              		.loc 1 1276 0
 6183 0086 019A     		ldr	r2, [sp, #4]
 6184              	.LBB281:
 6185              	.LBB275:
 6186              		.loc 1 1117 0
 6187 0088 23F01003 		bic	r3, r3, #16
 6188 008c 88F80030 		strb	r3, [r8]
 6189              	.LBE275:
 6190              	.LBE281:
 6191              		.loc 1 1276 0
 6192 0090 3B68     		ldr	r3, [r7]
 6193              	.LBB282:
 6194              	.LBB276:
 6195              		.loc 1 1114 0
 6196 0092 64B2     		sxtb	r4, r4
 6197              	.LVL966:
 6198              	.LBE276:
 6199              	.LBE282:
 6200              		.loc 1 1276 0
 6201 0094 9A42     		cmp	r2, r3
 6202              	.LBB283:
 6203              	.LBB277:
 6204              		.loc 1 1115 0
 6205 0096 40EA0400 		orr	r0, r0, r4
 6206              	.LBE277:
 6207              	.LBE283:
 6208              		.loc 1 1276 0
 6209 009a 03D1     		bne	.L770
 6210 009c 40B2     		sxtb	r0, r0
 6211 009e 02B0     		add	sp, sp, #8
 6212              		.cfi_remember_state
 6213              		.cfi_def_cfa_offset 32
ARM GAS  C:\Users\mathi\AppData\Local\Temp\ccVwcWGw.s 			page 110


 6214              		@ sp needed
 6215 00a0 BDE8F087 		pop	{r4, r5, r6, r7, r8, r9, r10, pc}
 6216              	.LVL967:
 6217              	.L770:
 6218              		.cfi_restore_state
 6219 00a4 FFF7FEFF 		bl	__stack_chk_fail
 6220              	.LVL968:
 6221              	.L772:
 6222              		.align	2
 6223              	.L771:
 6224 00a8 00000000 		.word	__stack_chk_guard
 6225              		.cfi_endproc
 6226              	.LFE25:
 6227              		.size	VL53L0X_get_ref_calibration, .-VL53L0X_get_ref_calibration
 6228              		.global	refArrayQuadrants
 6229              		.section	.data.refArrayQuadrants,"aw",%progbits
 6230              		.align	2
 6231              		.set	.LANCHOR0,. + 0
 6232              		.type	refArrayQuadrants, %object
 6233              		.size	refArrayQuadrants, 16
 6234              	refArrayQuadrants:
 6235 0000 0A000000 		.word	10
 6236 0004 05000000 		.word	5
 6237 0008 00000000 		.word	0
 6238 000c 05000000 		.word	5
 6239              		.text
 6240              	.Letext0:
 6241              		.file 2 "c:\\eclipse_e-puck2\\tools\\gcc-arm-none-eabi-7-2017-q4-major-win32\\arm-none-eabi\\inclu
 6242              		.file 3 "c:\\eclipse_e-puck2\\tools\\gcc-arm-none-eabi-7-2017-q4-major-win32\\arm-none-eabi\\inclu
 6243              		.file 4 "../../lib/e-puck2_main-processor/src/sensors/VL53L0X/Api/core/src/../inc/vl53l0x_types.h"
 6244              		.file 5 "../../lib/e-puck2_main-processor/src/sensors/VL53L0X/Api/core/src/../inc/vl53l0x_device.h
 6245              		.file 6 "../../lib/e-puck2_main-processor/src/sensors/VL53L0X/Api/core/src/../inc/vl53l0x_def.h"
 6246              		.file 7 "c:\\eclipse_e-puck2\\tools\\gcc-arm-none-eabi-7-2017-q4-major-win32\\arm-none-eabi\\inclu
 6247              		.file 8 "c:\\eclipse_e-puck2\\tools\\gcc-arm-none-eabi-7-2017-q4-major-win32\\arm-none-eabi\\inclu
 6248              		.file 9 "c:\\eclipse_e-puck2\\tools\\gcc-arm-none-eabi-7-2017-q4-major-win32\\lib\\gcc\\arm-none-e
 6249              		.file 10 "c:\\eclipse_e-puck2\\tools\\gcc-arm-none-eabi-7-2017-q4-major-win32\\arm-none-eabi\\incl
 6250              		.file 11 "../../lib/e-puck2_main-processor/src/sensors/VL53L0X/Api/core/src/../inc/../../platform/
 6251              		.file 12 "c:\\eclipse_e-puck2\\tools\\gcc-arm-none-eabi-7-2017-q4-major-win32\\arm-none-eabi\\incl
 6252              		.file 13 "../../lib/e-puck2_main-processor/src/sensors/VL53L0X/Api/core/src/../inc/vl53l0x_api_cor
 6253              		.file 14 "../../lib/e-puck2_main-processor/src/sensors/VL53L0X/Api/core/src/../inc/vl53l0x_api.h"