ARM GAS  C:\Users\mathi\AppData\Local\Temp\ccVwcWGw.s 			page 1


   1              		.cpu cortex-m4
   2              		.eabi_attribute 27, 1
   3              		.eabi_attribute 28, 1
   4              		.eabi_attribute 20, 1
   5              		.eabi_attribute 21, 1
   6              		.eabi_attribute 23, 3
   7              		.eabi_attribute 24, 1
   8              		.eabi_attribute 25, 1
   9              		.eabi_attribute 26, 1
  10              		.eabi_attribute 30, 2
  11              		.eabi_attribute 34, 1
  12              		.eabi_attribute 18, 4
  13              		.file	"vl53l0x_api_calibration.c"
  14              		.text
  15              	.Ltext0:
  16              		.cfi_sections	.debug_frame
  17              		.section	.text.enable_ref_spads.constprop.1,"ax",%progbits
  18              		.align	1
  19              		.p2align 4,,15
  20              		.syntax unified
  21              		.thumb
  22              		.thumb_func
  23              		.fpu fpv4-sp-d16
  24              		.type	enable_ref_spads.constprop.1, %function
  25              	enable_ref_spads.constprop.1:
  26              	.LFB27:
  27              		.file 1 "../../lib/e-puck2_main-processor/src/sensors/VL53L0X/Api/core/src/vl53l0x_api_calibration
  28              		.loc 1 556 0
  29              		.cfi_startproc
  30              		@ args = 12, pretend = 0, frame = 32
  31              		@ frame_needed = 0, uses_anonymous_args = 0
  32              	.LVL0:
  33 0000 2DE9F04F 		push	{r4, r5, r6, r7, r8, r9, r10, fp, lr}
  34              		.cfi_def_cfa_offset 36
  35              		.cfi_offset 4, -36
  36              		.cfi_offset 5, -32
  37              		.cfi_offset 6, -28
  38              		.cfi_offset 7, -24
  39              		.cfi_offset 8, -20
  40              		.cfi_offset 9, -16
  41              		.cfi_offset 10, -12
  42              		.cfi_offset 11, -8
  43              		.cfi_offset 14, -4
  44 0004 89B0     		sub	sp, sp, #36
  45              		.cfi_def_cfa_offset 72
  46              		.loc 1 556 0
  47 0006 644C     		ldr	r4, .L59
  48 0008 DDF84CB0 		ldr	fp, [sp, #76]
  49 000c 2468     		ldr	r4, [r4]
  50 000e 0794     		str	r4, [sp, #28]
  51              	.LVL1:
  52 0010 9846     		mov	r8, r3
  53 0012 149B     		ldr	r3, [sp, #80]
  54              	.LVL2:
  55 0014 0390     		str	r0, [sp, #12]
  56 0016 8E46     		mov	lr, r1
  57 0018 0092     		str	r2, [sp]
ARM GAS  C:\Users\mathi\AppData\Local\Temp\ccVwcWGw.s 			page 2


  58 001a 1299     		ldr	r1, [sp, #72]
  59              	.LVL3:
  60 001c 0293     		str	r3, [sp, #8]
  61              		.loc 1 584 0
  62 001e BBF1000F 		cmp	fp, #0
  63 0022 7FD0     		beq	.L2
  64              	.LVL4:
  65              	.LBB42:
  66              	.LBB43:
  67              		.loc 1 419 0
  68 0024 CF08     		lsrs	r7, r1, #3
  69              	.LVL5:
  70              		.loc 1 422 0
  71 0026 052F     		cmp	r7, #5
  72              		.loc 1 420 0
  73 0028 01F0070A 		and	r10, r1, #7
  74              	.LVL6:
  75              		.loc 1 422 0
  76 002c 69D8     		bhi	.L4
  77              	.LBE43:
  78              	.LBE42:
  79              	.LBB47:
  80              	.LBB48:
  81              		.loc 1 456 0
  82 002e DFF86CC1 		ldr	ip, .L59+4
  83              	.LBE48:
  84              	.LBE47:
  85              		.loc 1 584 0
  86 0032 4FF00009 		mov	r9, #0
  87              	.LVL7:
  88              	.L3:
  89 0036 009B     		ldr	r3, [sp]
  90 0038 7D1E     		subs	r5, r7, #1
  91 003a 1D44     		add	r5, r5, r3
  92              	.LBB50:
  93              	.LBB44:
  94              		.loc 1 441 0
  95 003c 3C46     		mov	r4, r7
  96              	.LVL8:
  97 003e 0AF10103 		add	r3, r10, #1
  98              		.loc 1 427 0
  99 0042 BC42     		cmp	r4, r7
 100              		.loc 1 441 0
 101 0044 0193     		str	r3, [sp, #4]
 102              		.loc 1 425 0
 103 0046 15F8013F 		ldrb	r3, [r5, #1]!	@ zero_extendqisi2
 104              	.LVL9:
 105              		.loc 1 427 0
 106 004a 2AD0     		beq	.L6
 107              	.LVL10:
 108              	.L56:
 109              		.loc 1 435 0
 110 004c 13F00100 		ands	r0, r3, #1
 111 0050 62D1     		bne	.L55
 112              		.loc 1 440 0
 113 0052 5E08     		lsrs	r6, r3, #1
 114              	.LVL11:
ARM GAS  C:\Users\mathi\AppData\Local\Temp\ccVwcWGw.s 			page 3


 115              		.loc 1 441 0
 116 0054 0122     		movs	r2, #1
 117              	.LVL12:
 118              	.L20:
 119              		.loc 1 435 0
 120 0056 F607     		lsls	r6, r6, #31
 121              	.LVL13:
 122 0058 30D4     		bmi	.L7
 123              	.LVL14:
 124              		.loc 1 441 0
 125 005a 821C     		adds	r2, r0, #2
 126              	.LVL15:
 127              		.loc 1 434 0
 128 005c 082A     		cmp	r2, #8
 129 005e 19D0     		beq	.L47
 130              		.loc 1 435 0
 131 0060 5E07     		lsls	r6, r3, #29
 132 0062 2BD4     		bmi	.L7
 133              	.LVL16:
 134              		.loc 1 441 0
 135 0064 C21C     		adds	r2, r0, #3
 136              	.LVL17:
 137              		.loc 1 434 0
 138 0066 082A     		cmp	r2, #8
 139 0068 14D0     		beq	.L47
 140              		.loc 1 435 0
 141 006a 1E07     		lsls	r6, r3, #28
 142 006c 26D4     		bmi	.L7
 143              	.LVL18:
 144              		.loc 1 441 0
 145 006e 021D     		adds	r2, r0, #4
 146              	.LVL19:
 147              		.loc 1 434 0
 148 0070 082A     		cmp	r2, #8
 149 0072 0FD0     		beq	.L47
 150              		.loc 1 435 0
 151 0074 DE06     		lsls	r6, r3, #27
 152 0076 21D4     		bmi	.L7
 153              	.LVL20:
 154              		.loc 1 441 0
 155 0078 421D     		adds	r2, r0, #5
 156              	.LVL21:
 157              		.loc 1 434 0
 158 007a 082A     		cmp	r2, #8
 159 007c 0AD0     		beq	.L47
 160              		.loc 1 435 0
 161 007e 9E06     		lsls	r6, r3, #26
 162 0080 1CD4     		bmi	.L7
 163              	.LVL22:
 164              		.loc 1 441 0
 165 0082 821D     		adds	r2, r0, #6
 166              	.LVL23:
 167              		.loc 1 434 0
 168 0084 082A     		cmp	r2, #8
 169 0086 05D0     		beq	.L47
 170              		.loc 1 435 0
 171 0088 5E06     		lsls	r6, r3, #25
ARM GAS  C:\Users\mathi\AppData\Local\Temp\ccVwcWGw.s 			page 4


 172 008a 17D4     		bmi	.L7
 173              		.loc 1 440 0
 174 008c DB09     		lsrs	r3, r3, #7
 175              	.LVL24:
 176              		.loc 1 434 0
 177 008e 08B9     		cbnz	r0, .L47
 178              		.loc 1 435 0
 179 0090 002B     		cmp	r3, #0
 180 0092 43D1     		bne	.L27
 181              	.LVL25:
 182              	.L47:
 183              		.loc 1 422 0
 184 0094 052C     		cmp	r4, #5
 185 0096 33D0     		beq	.L45
 186              	.LVL26:
 187 0098 0134     		adds	r4, r4, #1
 188              	.LVL27:
 189              		.loc 1 427 0
 190 009a BC42     		cmp	r4, r7
 191              		.loc 1 425 0
 192 009c 15F8013F 		ldrb	r3, [r5, #1]!	@ zero_extendqisi2
 193              	.LVL28:
 194              		.loc 1 427 0
 195 00a0 D4D1     		bne	.L56
 196              	.LVL29:
 197              	.L6:
 198              		.loc 1 430 0
 199 00a2 43FA0AF3 		asr	r3, r3, r10
 200              	.LVL30:
 201 00a6 DBB2     		uxtb	r3, r3
 202              	.LVL31:
 203              		.loc 1 435 0
 204 00a8 DA07     		lsls	r2, r3, #31
 205 00aa 06D4     		bmi	.L26
 206              	.LVL32:
 207              		.loc 1 434 0
 208 00ac 019A     		ldr	r2, [sp, #4]
 209 00ae 082A     		cmp	r2, #8
 210 00b0 F0D0     		beq	.L47
 211              		.loc 1 440 0
 212 00b2 5E08     		lsrs	r6, r3, #1
 213 00b4 5046     		mov	r0, r10
 214 00b6 019A     		ldr	r2, [sp, #4]
 215 00b8 CDE7     		b	.L20
 216              	.LVL33:
 217              	.L26:
 218              		.loc 1 435 0
 219 00ba 5246     		mov	r2, r10
 220              	.LVL34:
 221              	.L7:
 222              		.loc 1 437 0
 223 00bc 02EBC402 		add	r2, r2, r4, lsl #3
 224              	.LVL35:
 225              	.LBE44:
 226              	.LBE50:
 227              		.loc 1 594 0
 228 00c0 02F1B403 		add	r3, r2, #180
ARM GAS  C:\Users\mathi\AppData\Local\Temp\ccVwcWGw.s 			page 5


 229              	.LBB51:
 230              	.LBB49:
 231              		.loc 1 455 0
 232 00c4 9B09     		lsrs	r3, r3, #6
 233              		.loc 1 456 0
 234 00c6 5CF82330 		ldr	r3, [ip, r3, lsl #2]
 235              	.LBE49:
 236              	.LBE51:
 237              		.loc 1 594 0
 238 00ca 0033     		adds	r3, r3, #0
 239 00cc 18BF     		it	ne
 240 00ce 0123     		movne	r3, #1
 241 00d0 7345     		cmp	r3, lr
 242 00d2 15D1     		bne	.L45
 243              	.LVL36:
 244              	.LBB52:
 245              	.LBB53:
 246              		.loc 1 471 0
 247 00d4 D108     		lsrs	r1, r2, #3
 248              	.LVL37:
 249              		.loc 1 476 0
 250 00d6 0124     		movs	r4, #1
 251 00d8 18F80100 		ldrb	r0, [r8, r1]	@ zero_extendqisi2
 252              		.loc 1 472 0
 253 00dc 02F00703 		and	r3, r2, #7
 254              	.LVL38:
 255              		.loc 1 476 0
 256 00e0 04FA03F3 		lsl	r3, r4, r3
 257              	.LVL39:
 258              	.LBE53:
 259              	.LBE52:
 260              		.loc 1 584 0
 261 00e4 A144     		add	r9, r9, r4
 262              	.LVL40:
 263              	.LBB56:
 264              	.LBB54:
 265              		.loc 1 476 0
 266 00e6 0343     		orrs	r3, r3, r0
 267              	.LBE54:
 268              	.LBE56:
 269              		.loc 1 584 0
 270 00e8 D945     		cmp	r9, fp
 271              	.LBB57:
 272              	.LBB55:
 273              		.loc 1 476 0
 274 00ea 08F80130 		strb	r3, [r8, r1]
 275              	.LVL41:
 276              	.LBE55:
 277              	.LBE57:
 278              		.loc 1 603 0
 279 00ee 02EB0401 		add	r1, r2, r4
 280              	.LVL42:
 281              		.loc 1 584 0
 282 00f2 15D0     		beq	.L57
 283              	.LVL43:
 284              	.LBB58:
 285              	.LBB45:
ARM GAS  C:\Users\mathi\AppData\Local\Temp\ccVwcWGw.s 			page 6


 286              		.loc 1 419 0
 287 00f4 CF08     		lsrs	r7, r1, #3
 288              	.LVL44:
 289              		.loc 1 422 0
 290 00f6 062F     		cmp	r7, #6
 291              		.loc 1 420 0
 292 00f8 01F0070A 		and	r10, r1, #7
 293              	.LVL45:
 294              		.loc 1 422 0
 295 00fc 9BD1     		bne	.L3
 296 00fe 3021     		movs	r1, #48
 297              	.LVL46:
 298              	.L45:
 299 0100 029B     		ldr	r3, [sp, #8]
 300              	.LVL47:
 301              	.L4:
 302              	.LBE45:
 303              	.LBE58:
 304              		.loc 1 605 0
 305 0102 1960     		str	r1, [r3]
 306 0104 6FF03100 		mvn	r0, #49
 307              	.LVL48:
 308              	.L19:
 309              		.loc 1 626 0
 310 0108 234B     		ldr	r3, .L59
 311 010a 079A     		ldr	r2, [sp, #28]
 312 010c 1B68     		ldr	r3, [r3]
 313 010e 9A42     		cmp	r2, r3
 314 0110 40D1     		bne	.L58
 315 0112 09B0     		add	sp, sp, #36
 316              		.cfi_remember_state
 317              		.cfi_def_cfa_offset 36
 318              	.LVL49:
 319              		@ sp needed
 320 0114 BDE8F08F 		pop	{r4, r5, r6, r7, r8, r9, r10, fp, pc}
 321              	.LVL50:
 322              	.L55:
 323              		.cfi_restore_state
 324              	.LBB59:
 325              	.LBB46:
 326              		.loc 1 424 0
 327 0118 0022     		movs	r2, #0
 328 011a CFE7     		b	.L7
 329              	.LVL51:
 330              	.L27:
 331              		.loc 1 435 0
 332 011c 0722     		movs	r2, #7
 333 011e CDE7     		b	.L7
 334              	.LVL52:
 335              	.L57:
 336 0120 DDE90230 		ldrd	r3, r0, [sp, #8]
 337              	.LVL53:
 338              	.L2:
 339              	.LBE46:
 340              	.LBE59:
 341              		.loc 1 605 0
 342 0124 1960     		str	r1, [r3]
ARM GAS  C:\Users\mathi\AppData\Local\Temp\ccVwcWGw.s 			page 7


 343              	.LVL54:
 344              	.LBB60:
 345              	.LBB61:
 346              		.loc 1 541 0
 347 0126 4246     		mov	r2, r8
 348 0128 0623     		movs	r3, #6
 349 012a B021     		movs	r1, #176
 350              	.LVL55:
 351 012c FFF7FEFF 		bl	VL53L0X_WriteMulti
 352              	.LVL56:
 353              	.LBE61:
 354              	.LBE60:
 355              		.loc 1 611 0
 356 0130 0028     		cmp	r0, #0
 357 0132 E9D1     		bne	.L19
 358              	.LVL57:
 359              	.LBB62:
 360              	.LBB63:
 361              		.loc 1 549 0
 362 0134 0623     		movs	r3, #6
 363 0136 05AA     		add	r2, sp, #20
 364              	.LVL58:
 365 0138 0398     		ldr	r0, [sp, #12]
 366              	.LVL59:
 367 013a B021     		movs	r1, #176
 368 013c FFF7FEFF 		bl	VL53L0X_ReadMulti
 369              	.LVL60:
 370              	.LBE63:
 371              	.LBE62:
 372              		.loc 1 618 0
 373 0140 9DF81420 		ldrb	r2, [sp, #20]	@ zero_extendqisi2
 374 0144 98F80030 		ldrb	r3, [r8]	@ zero_extendqisi2
 375 0148 9A42     		cmp	r2, r3
 376 014a 20D1     		bne	.L32
 377              	.LVL61:
 378 014c 9DF81520 		ldrb	r2, [sp, #21]	@ zero_extendqisi2
 379 0150 98F80130 		ldrb	r3, [r8, #1]	@ zero_extendqisi2
 380 0154 9A42     		cmp	r2, r3
 381 0156 1AD1     		bne	.L32
 382              	.LVL62:
 383 0158 9DF81620 		ldrb	r2, [sp, #22]	@ zero_extendqisi2
 384 015c 98F80230 		ldrb	r3, [r8, #2]	@ zero_extendqisi2
 385 0160 9A42     		cmp	r2, r3
 386 0162 14D1     		bne	.L32
 387              	.LVL63:
 388 0164 9DF81720 		ldrb	r2, [sp, #23]	@ zero_extendqisi2
 389 0168 98F80330 		ldrb	r3, [r8, #3]	@ zero_extendqisi2
 390 016c 9A42     		cmp	r2, r3
 391 016e 0ED1     		bne	.L32
 392              	.LVL64:
 393 0170 9DF81820 		ldrb	r2, [sp, #24]	@ zero_extendqisi2
 394 0174 98F80430 		ldrb	r3, [r8, #4]	@ zero_extendqisi2
 395 0178 9A42     		cmp	r2, r3
 396 017a 08D1     		bne	.L32
 397              	.LVL65:
 398 017c 98F80520 		ldrb	r2, [r8, #5]	@ zero_extendqisi2
 399 0180 9DF81930 		ldrb	r3, [sp, #25]	@ zero_extendqisi2
ARM GAS  C:\Users\mathi\AppData\Local\Temp\ccVwcWGw.s 			page 8


 400              		.loc 1 619 0
 401 0184 9A42     		cmp	r2, r3
 402 0186 18BF     		it	ne
 403 0188 6FF03100 		mvnne	r0, #49
 404 018c BCE7     		b	.L19
 405              	.LVL66:
 406              	.L32:
 407 018e 6FF03100 		mvn	r0, #49
 408 0192 B9E7     		b	.L19
 409              	.LVL67:
 410              	.L58:
 411              		.loc 1 626 0
 412 0194 FFF7FEFF 		bl	__stack_chk_fail
 413              	.LVL68:
 414              	.L60:
 415              		.align	2
 416              	.L59:
 417 0198 00000000 		.word	__stack_chk_guard
 418 019c 00000000 		.word	.LANCHOR0
 419              		.cfi_endproc
 420              	.LFE27:
 421              		.size	enable_ref_spads.constprop.1, .-enable_ref_spads.constprop.1
 422              		.section	.text.VL53L0X_perform_xtalk_calibration,"ax",%progbits
 423              		.align	1
 424              		.p2align 4,,15
 425              		.global	VL53L0X_perform_xtalk_calibration
 426              		.syntax unified
 427              		.thumb
 428              		.thumb_func
 429              		.fpu fpv4-sp-d16
 430              		.type	VL53L0X_perform_xtalk_calibration, %function
 431              	VL53L0X_perform_xtalk_calibration:
 432              	.LFB3:
 433              		.loc 1 54 0
 434              		.cfi_startproc
 435              		@ args = 0, pretend = 0, frame = 40
 436              		@ frame_needed = 0, uses_anonymous_args = 0
 437              	.LVL69:
 438 0000 2DE9F04F 		push	{r4, r5, r6, r7, r8, r9, r10, fp, lr}
 439              		.cfi_def_cfa_offset 36
 440              		.cfi_offset 4, -36
 441              		.cfi_offset 5, -32
 442              		.cfi_offset 6, -28
 443              		.cfi_offset 7, -24
 444              		.cfi_offset 8, -20
 445              		.cfi_offset 9, -16
 446              		.cfi_offset 10, -12
 447              		.cfi_offset 11, -8
 448              		.cfi_offset 14, -4
 449 0004 DFF8EC90 		ldr	r9, .L86
 450 0008 8BB0     		sub	sp, sp, #44
 451              		.cfi_def_cfa_offset 80
 452              		.loc 1 54 0
 453 000a D9F80030 		ldr	r3, [r9]
 454 000e 0993     		str	r3, [sp, #36]
 455              	.LVL70:
 456 0010 0192     		str	r2, [sp, #4]
ARM GAS  C:\Users\mathi\AppData\Local\Temp\ccVwcWGw.s 			page 9


 457              		.loc 1 70 0
 458 0012 49B9     		cbnz	r1, .L81
 459              		.loc 1 71 0
 460 0014 6FF00300 		mvn	r0, #3
 461              	.LVL71:
 462              	.L62:
 463              		.loc 1 188 0
 464 0018 099A     		ldr	r2, [sp, #36]
 465 001a D9F80030 		ldr	r3, [r9]
 466 001e 9A42     		cmp	r2, r3
 467 0020 66D1     		bne	.L82
 468 0022 0BB0     		add	sp, sp, #44
 469              		.cfi_remember_state
 470              		.cfi_def_cfa_offset 36
 471              		@ sp needed
 472 0024 BDE8F08F 		pop	{r4, r5, r6, r7, r8, r9, r10, fp, pc}
 473              	.LVL72:
 474              	.L81:
 475              		.cfi_restore_state
 476 0028 8A46     		mov	r10, r1
 477              		.loc 1 75 0
 478 002a 0021     		movs	r1, #0
 479              	.LVL73:
 480 002c 0646     		mov	r6, r0
 481 002e FFF7FEFF 		bl	VL53L0X_SetXTalkCompensationEnable
 482              	.LVL74:
 483              		.loc 1 78 0
 484 0032 0028     		cmp	r0, #0
 485 0034 F0D1     		bne	.L62
 486              		.loc 1 79 0
 487 0036 0246     		mov	r2, r0
 488 0038 0321     		movs	r1, #3
 489 003a 3046     		mov	r0, r6
 490              	.LVL75:
 491 003c FFF7FEFF 		bl	VL53L0X_SetLimitCheckEnable
 492              	.LVL76:
 493              		.loc 1 84 0
 494 0040 0028     		cmp	r0, #0
 495 0042 E9D1     		bne	.L62
 496              		.loc 1 88 0
 497 0044 0546     		mov	r5, r0
 498              		.loc 1 87 0
 499 0046 8046     		mov	r8, r0
 500              		.loc 1 86 0
 501 0048 0446     		mov	r4, r0
 502              		.loc 1 85 0
 503 004a 0746     		mov	r7, r0
 504 004c 4FF0320B 		mov	fp, #50
 505 0050 13E0     		b	.L65
 506              	.LVL77:
 507              	.L84:
 508              		.loc 1 97 0
 509 0052 9DF82020 		ldrb	r2, [sp, #32]	@ zero_extendqisi2
 510 0056 5AB9     		cbnz	r2, .L64
 511              		.loc 1 98 0
 512 0058 BDF81000 		ldrh	r0, [sp, #16]
 513              	.LVL78:
ARM GAS  C:\Users\mathi\AppData\Local\Temp\ccVwcWGw.s 			page 10


 514              		.loc 1 102 0
 515 005c BDF81C20 		ldrh	r2, [sp, #28]
 516              		.loc 1 100 0
 517 0060 0599     		ldr	r1, [sp, #20]
 518              		.loc 1 98 0
 519 0062 0744     		add	r7, r7, r0
 520              	.LVL79:
 521              		.loc 1 102 0
 522 0064 04EB1224 		add	r4, r4, r2, lsr #8
 523              	.LVL80:
 524              		.loc 1 105 0
 525 0068 0135     		adds	r5, r5, #1
 526              	.LVL81:
 527              		.loc 1 98 0
 528 006a BFB2     		uxth	r7, r7
 529              	.LVL82:
 530              		.loc 1 102 0
 531 006c A4B2     		uxth	r4, r4
 532              		.loc 1 100 0
 533 006e 8844     		add	r8, r8, r1
 534              	.LVL83:
 535              	.L64:
 536 0070 0BF1FF31 		add	r1, fp, #-1
 537              		.loc 1 89 0 discriminator 2
 538 0074 11F0FF0B 		ands	fp, r1, #255
 539 0078 0AD0     		beq	.L83
 540              	.LVL84:
 541              	.L65:
 542              		.loc 1 90 0
 543 007a 02A9     		add	r1, sp, #8
 544 007c 3046     		mov	r0, r6
 545 007e FFF7FEFF 		bl	VL53L0X_PerformSingleRangingMeasurement
 546              	.LVL85:
 547              		.loc 1 93 0
 548 0082 0028     		cmp	r0, #0
 549 0084 E5D0     		beq	.L84
 550              		.loc 1 111 0
 551 0086 002D     		cmp	r5, #0
 552 0088 08BF     		it	eq
 553 008a 6FF00500 		mvneq	r0, #5
 554              	.LVL86:
 555 008e C3E7     		b	.L62
 556              	.LVL87:
 557              	.L83:
 558              		.loc 1 110 0
 559 0090 15B9     		cbnz	r5, .L85
 560              		.loc 1 111 0
 561 0092 6FF00500 		mvn	r0, #5
 562 0096 BFE7     		b	.L62
 563              	.L85:
 564              	.LVL88:
 565              		.loc 1 122 0
 566 0098 2404     		lsls	r4, r4, #16
 567              	.LVL89:
 568              		.loc 1 121 0
 569 009a B4FBF5F4 		udiv	r4, r4, r5
 570              		.loc 1 135 0
ARM GAS  C:\Users\mathi\AppData\Local\Temp\ccVwcWGw.s 			page 11


 571 009e 04F50044 		add	r4, r4, #32768
 572              	.LVL90:
 573              		.loc 1 143 0
 574 00a2 240C     		lsrs	r4, r4, #16
 575              	.LVL91:
 576 00a4 22D0     		beq	.L74
 577              		.loc 1 141 0 discriminator 1
 578 00a6 0AF50042 		add	r2, r10, #32768
 579              	.LVL92:
 580              		.loc 1 143 0 discriminator 1
 581 00aa 120C     		lsrs	r2, r2, #16
 582              	.LVL93:
 583 00ac 1ED0     		beq	.L74
 584              		.loc 1 120 0
 585 00ae 3F04     		lsls	r7, r7, #16
 586              	.LVL94:
 587              		.loc 1 119 0
 588 00b0 B7FBF5F7 		udiv	r7, r7, r5
 589              		.loc 1 144 0
 590 00b4 BA45     		cmp	r10, r7
 591 00b6 19D9     		bls	.L74
 592              		.loc 1 167 0
 593 00b8 B7FBF2F2 		udiv	r2, r7, r2
 594              		.loc 1 118 0
 595 00bc B8FBF5F3 		udiv	r3, r8, r5
 596              	.LVL95:
 597              		.loc 1 166 0
 598 00c0 C2F58032 		rsb	r2, r2, #65536
 599              		.loc 1 158 0
 600 00c4 B3FBF4F3 		udiv	r3, r3, r4
 601              	.LVL96:
 602              		.loc 1 166 0
 603 00c8 03FB02F3 		mul	r3, r3, r2
 604              	.LVL97:
 605              		.loc 1 171 0
 606 00cc 03F50043 		add	r3, r3, #32768
 607              		.loc 1 170 0
 608 00d0 1C0C     		lsrs	r4, r3, #16
 609              	.LVL98:
 610              	.L67:
 611              		.loc 1 174 0
 612 00d2 019B     		ldr	r3, [sp, #4]
 613              		.loc 1 178 0
 614 00d4 0121     		movs	r1, #1
 615              		.loc 1 174 0
 616 00d6 1C60     		str	r4, [r3]
 617              		.loc 1 178 0
 618 00d8 3046     		mov	r0, r6
 619 00da FFF7FEFF 		bl	VL53L0X_SetXTalkCompensationEnable
 620              	.LVL99:
 621              		.loc 1 181 0
 622 00de 0028     		cmp	r0, #0
 623 00e0 9AD1     		bne	.L62
 624              		.loc 1 182 0
 625 00e2 2146     		mov	r1, r4
 626 00e4 3046     		mov	r0, r6
 627              	.LVL100:
ARM GAS  C:\Users\mathi\AppData\Local\Temp\ccVwcWGw.s 			page 12


 628 00e6 FFF7FEFF 		bl	VL53L0X_SetXTalkCompensationRateMegaCps
 629              	.LVL101:
 630 00ea 95E7     		b	.L62
 631              	.LVL102:
 632              	.L74:
 633              		.loc 1 146 0
 634 00ec 5C46     		mov	r4, fp
 635              	.LVL103:
 636 00ee F0E7     		b	.L67
 637              	.LVL104:
 638              	.L82:
 639              		.loc 1 188 0
 640 00f0 FFF7FEFF 		bl	__stack_chk_fail
 641              	.LVL105:
 642              	.L87:
 643              		.align	2
 644              	.L86:
 645 00f4 00000000 		.word	__stack_chk_guard
 646              		.cfi_endproc
 647              	.LFE3:
 648              		.size	VL53L0X_perform_xtalk_calibration, .-VL53L0X_perform_xtalk_calibration
 649              		.section	.text.VL53L0X_perform_offset_calibration,"ax",%progbits
 650              		.align	1
 651              		.p2align 4,,15
 652              		.global	VL53L0X_perform_offset_calibration
 653              		.syntax unified
 654              		.thumb
 655              		.thumb_func
 656              		.fpu fpv4-sp-d16
 657              		.type	VL53L0X_perform_offset_calibration, %function
 658              	VL53L0X_perform_offset_calibration:
 659              	.LFB4:
 660              		.loc 1 193 0
 661              		.cfi_startproc
 662              		@ args = 0, pretend = 0, frame = 40
 663              		@ frame_needed = 0, uses_anonymous_args = 0
 664              	.LVL106:
 665 0000 2DE9F047 		push	{r4, r5, r6, r7, r8, r9, r10, lr}
 666              		.cfi_def_cfa_offset 32
 667              		.cfi_offset 4, -32
 668              		.cfi_offset 5, -28
 669              		.cfi_offset 6, -24
 670              		.cfi_offset 7, -20
 671              		.cfi_offset 8, -16
 672              		.cfi_offset 9, -12
 673              		.cfi_offset 10, -8
 674              		.cfi_offset 14, -4
 675 0004 374F     		ldr	r7, .L111
 676 0006 8AB0     		sub	sp, sp, #40
 677              		.cfi_def_cfa_offset 72
 678              		.loc 1 193 0
 679 0008 3B68     		ldr	r3, [r7]
 680 000a 0993     		str	r3, [sp, #36]
 681              	.LVL107:
 682              		.loc 1 204 0
 683 000c 41B9     		cbnz	r1, .L106
 684              		.loc 1 205 0
ARM GAS  C:\Users\mathi\AppData\Local\Temp\ccVwcWGw.s 			page 13


 685 000e 6FF00300 		mvn	r0, #3
 686              	.LVL108:
 687              	.L89:
 688              		.loc 1 286 0
 689 0012 099A     		ldr	r2, [sp, #36]
 690 0014 3B68     		ldr	r3, [r7]
 691 0016 9A42     		cmp	r2, r3
 692 0018 61D1     		bne	.L107
 693 001a 0AB0     		add	sp, sp, #40
 694              		.cfi_remember_state
 695              		.cfi_def_cfa_offset 32
 696              		@ sp needed
 697 001c BDE8F087 		pop	{r4, r5, r6, r7, r8, r9, r10, pc}
 698              	.LVL109:
 699              	.L106:
 700              		.cfi_restore_state
 701 0020 8846     		mov	r8, r1
 702              		.loc 1 208 0
 703 0022 0021     		movs	r1, #0
 704              	.LVL110:
 705 0024 9146     		mov	r9, r2
 706 0026 0546     		mov	r5, r0
 707 0028 FFF7FEFF 		bl	VL53L0X_SetOffsetCalibrationDataMicroMeter
 708              	.LVL111:
 709              		.loc 1 212 0
 710 002c 0028     		cmp	r0, #0
 711 002e F0D1     		bne	.L89
 712              		.loc 1 213 0
 713 0030 0146     		mov	r1, r0
 714 0032 0DF10702 		add	r2, sp, #7
 715 0036 2846     		mov	r0, r5
 716              	.LVL112:
 717 0038 FFF7FEFF 		bl	VL53L0X_GetSequenceStepEnable
 718              	.LVL113:
 719              		.loc 1 218 0
 720 003c 0028     		cmp	r0, #0
 721 003e E8D1     		bne	.L89
 722              		.loc 1 219 0
 723 0040 0246     		mov	r2, r0
 724 0042 0146     		mov	r1, r0
 725 0044 2846     		mov	r0, r5
 726              	.LVL114:
 727 0046 FFF7FEFF 		bl	VL53L0X_SetSequenceStepEnable
 728              	.LVL115:
 729              		.loc 1 224 0
 730 004a 0028     		cmp	r0, #0
 731 004c E1D1     		bne	.L89
 732              		.loc 1 225 0
 733 004e 0246     		mov	r2, r0
 734 0050 0321     		movs	r1, #3
 735 0052 2846     		mov	r0, r5
 736              	.LVL116:
 737 0054 FFF7FEFF 		bl	VL53L0X_SetLimitCheckEnable
 738              	.LVL117:
 739              		.loc 1 229 0
 740 0058 0028     		cmp	r0, #0
 741 005a DAD1     		bne	.L89
ARM GAS  C:\Users\mathi\AppData\Local\Temp\ccVwcWGw.s 			page 14


 742              		.loc 1 231 0
 743 005c 0646     		mov	r6, r0
 744              		.loc 1 230 0
 745 005e 8246     		mov	r10, r0
 746 0060 3224     		movs	r4, #50
 747 0062 0AE0     		b	.L92
 748              	.LVL118:
 749              	.L109:
 750              		.loc 1 240 0
 751 0064 9DF82030 		ldrb	r3, [sp, #32]	@ zero_extendqisi2
 752 0068 2BB9     		cbnz	r3, .L91
 753              		.loc 1 241 0
 754 006a BDF81030 		ldrh	r3, [sp, #16]
 755 006e 5344     		add	r3, r3, r10
 756              		.loc 1 243 0
 757 0070 0136     		adds	r6, r6, #1
 758              	.LVL119:
 759              		.loc 1 241 0
 760 0072 1FFA83FA 		uxth	r10, r3
 761              	.LVL120:
 762              	.L91:
 763              		.loc 1 232 0 discriminator 2
 764 0076 013C     		subs	r4, r4, #1
 765 0078 0AD0     		beq	.L108
 766              	.LVL121:
 767              	.L92:
 768              		.loc 1 233 0
 769 007a 02A9     		add	r1, sp, #8
 770 007c 2846     		mov	r0, r5
 771 007e FFF7FEFF 		bl	VL53L0X_PerformSingleRangingMeasurement
 772              	.LVL122:
 773              		.loc 1 236 0
 774 0082 0028     		cmp	r0, #0
 775 0084 EED0     		beq	.L109
 776              		.loc 1 249 0
 777 0086 002E     		cmp	r6, #0
 778 0088 08BF     		it	eq
 779 008a 6FF00500 		mvneq	r0, #5
 780              	.LVL123:
 781 008e C0E7     		b	.L89
 782              	.LVL124:
 783              	.L108:
 784              		.loc 1 248 0
 785 0090 16B3     		cbz	r6, .L110
 786              	.LVL125:
 787              		.loc 1 255 0
 788 0092 4FEA0A43 		lsl	r3, r10, #16
 789 0096 B3FBF6F3 		udiv	r3, r3, r6
 790              		.loc 1 258 0
 791 009a 03F50043 		add	r3, r3, #32768
 792 009e 1B0C     		lsrs	r3, r3, #16
 793              		.loc 1 263 0
 794 00a0 08F50048 		add	r8, r8, #32768
 795              	.LVL126:
 796              		.loc 1 265 0
 797 00a4 C3EB1848 		rsb	r8, r3, r8, lsr #16
 798              	.LVL127:
ARM GAS  C:\Users\mathi\AppData\Local\Temp\ccVwcWGw.s 			page 15


 799              		.loc 1 266 0
 800 00a8 4FF47A73 		mov	r3, #1000
 801 00ac 03FB08F3 		mul	r3, r3, r8
 802              		.loc 1 265 0
 803 00b0 C9F80030 		str	r3, [r9]
 804              		.loc 1 270 0
 805 00b4 6B62     		str	r3, [r5, #36]
 806              		.loc 1 272 0
 807 00b6 D9F80010 		ldr	r1, [r9]
 808 00ba 2846     		mov	r0, r5
 809 00bc FFF7FEFF 		bl	VL53L0X_SetOffsetCalibrationDataMicroMeter
 810              	.LVL128:
 811              		.loc 1 279 0
 812 00c0 0028     		cmp	r0, #0
 813 00c2 A6D1     		bne	.L89
 814              		.loc 1 280 0
 815 00c4 9DF80730 		ldrb	r3, [sp, #7]	@ zero_extendqisi2
 816 00c8 002B     		cmp	r3, #0
 817 00ca A2D0     		beq	.L89
 818              		.loc 1 281 0
 819 00cc 2146     		mov	r1, r4
 820 00ce 2846     		mov	r0, r5
 821              	.LVL129:
 822 00d0 0122     		movs	r2, #1
 823 00d2 FFF7FEFF 		bl	VL53L0X_SetSequenceStepEnable
 824              	.LVL130:
 825 00d6 9CE7     		b	.L89
 826              	.LVL131:
 827              	.L110:
 828              		.loc 1 249 0
 829 00d8 6FF00500 		mvn	r0, #5
 830 00dc 99E7     		b	.L89
 831              	.LVL132:
 832              	.L107:
 833              		.loc 1 286 0
 834 00de FFF7FEFF 		bl	__stack_chk_fail
 835              	.LVL133:
 836              	.L112:
 837 00e2 00BF     		.align	2
 838              	.L111:
 839 00e4 00000000 		.word	__stack_chk_guard
 840              		.cfi_endproc
 841              	.LFE4:
 842              		.size	VL53L0X_perform_offset_calibration, .-VL53L0X_perform_offset_calibration
 843              		.section	.text.VL53L0X_set_offset_calibration_data_micro_meter,"ax",%progbits
 844              		.align	1
 845              		.p2align 4,,15
 846              		.global	VL53L0X_set_offset_calibration_data_micro_meter
 847              		.syntax unified
 848              		.thumb
 849              		.thumb_func
 850              		.fpu fpv4-sp-d16
 851              		.type	VL53L0X_set_offset_calibration_data_micro_meter, %function
 852              	VL53L0X_set_offset_calibration_data_micro_meter:
 853              	.LFB5:
 854              		.loc 1 291 0
 855              		.cfi_startproc
ARM GAS  C:\Users\mathi\AppData\Local\Temp\ccVwcWGw.s 			page 16


 856              		@ args = 0, pretend = 0, frame = 8
 857              		@ frame_needed = 0, uses_anonymous_args = 0
 858              	.LVL134:
 859 0000 10B5     		push	{r4, lr}
 860              		.cfi_def_cfa_offset 8
 861              		.cfi_offset 4, -8
 862              		.cfi_offset 14, -4
 863 0002 134B     		ldr	r3, .L124
 864              		.loc 1 300 0
 865 0004 134A     		ldr	r2, .L124+4
 866              		.loc 1 291 0
 867 0006 1C68     		ldr	r4, [r3]
 868 0008 82B0     		sub	sp, sp, #8
 869              		.cfi_def_cfa_offset 16
 870              		.loc 1 300 0
 871 000a 9142     		cmp	r1, r2
 872              		.loc 1 291 0
 873 000c 0194     		str	r4, [sp, #4]
 874              	.LVL135:
 875              		.loc 1 300 0
 876 000e 1ADC     		bgt	.L120
 877              		.loc 1 302 0
 878 0010 11F5FA2F 		cmn	r1, #512000
 879 0014 14DB     		blt	.L121
 880 0016 104C     		ldr	r4, .L124+8
 881 0018 CA17     		asrs	r2, r1, #31
 882 001a 84FB01C4 		smull	ip, r4, r4, r1
 883 001e C2EB2412 		rsb	r2, r2, r4, asr #4
 884              		.loc 1 309 0
 885 0022 0029     		cmp	r1, #0
 886 0024 B8BF     		it	lt
 887 0026 02F58052 		addlt	r2, r2, #4096
 888 002a 92B2     		uxth	r2, r2
 889              	.L117:
 890              		.loc 1 318 0
 891 002c 0199     		ldr	r1, [sp, #4]
 892              	.LVL136:
 893 002e 1B68     		ldr	r3, [r3]
 894 0030 9942     		cmp	r1, r3
 895 0032 0BD1     		bne	.L123
 896 0034 2821     		movs	r1, #40
 897              		.loc 1 324 0
 898 0036 02B0     		add	sp, sp, #8
 899              		.cfi_remember_state
 900              		.cfi_def_cfa_offset 8
 901              		@ sp needed
 902 0038 BDE81040 		pop	{r4, lr}
 903              		.cfi_restore 14
 904              		.cfi_restore 4
 905              		.cfi_def_cfa_offset 0
 906              		.loc 1 318 0
 907 003c FFF7FEBF 		b	VL53L0X_WrWord
 908              	.LVL137:
 909              	.L121:
 910              		.cfi_restore_state
 911 0040 4FF40062 		mov	r2, #2048
 912              	.LVL138:
ARM GAS  C:\Users\mathi\AppData\Local\Temp\ccVwcWGw.s 			page 17


 913 0044 F2E7     		b	.L117
 914              	.L120:
 915 0046 40F2FC72 		movw	r2, #2044
 916 004a EFE7     		b	.L117
 917              	.LVL139:
 918              	.L123:
 919 004c FFF7FEFF 		bl	__stack_chk_fail
 920              	.LVL140:
 921              	.L125:
 922              		.align	2
 923              	.L124:
 924 0050 00000000 		.word	__stack_chk_guard
 925 0054 18CC0700 		.word	511000
 926 0058 D34D6210 		.word	274877907
 927              		.cfi_endproc
 928              	.LFE5:
 929              		.size	VL53L0X_set_offset_calibration_data_micro_meter, .-VL53L0X_set_offset_calibration_data_micro
 930              		.section	.text.VL53L0X_get_offset_calibration_data_micro_meter,"ax",%progbits
 931              		.align	1
 932              		.p2align 4,,15
 933              		.global	VL53L0X_get_offset_calibration_data_micro_meter
 934              		.syntax unified
 935              		.thumb
 936              		.thumb_func
 937              		.fpu fpv4-sp-d16
 938              		.type	VL53L0X_get_offset_calibration_data_micro_meter, %function
 939              	VL53L0X_get_offset_calibration_data_micro_meter:
 940              	.LFB6:
 941              		.loc 1 328 0
 942              		.cfi_startproc
 943              		@ args = 0, pretend = 0, frame = 8
 944              		@ frame_needed = 0, uses_anonymous_args = 0
 945              	.LVL141:
 946 0000 30B5     		push	{r4, r5, lr}
 947              		.cfi_def_cfa_offset 12
 948              		.cfi_offset 4, -12
 949              		.cfi_offset 5, -8
 950              		.cfi_offset 14, -4
 951 0002 134C     		ldr	r4, .L133
 952 0004 83B0     		sub	sp, sp, #12
 953              		.cfi_def_cfa_offset 24
 954              		.loc 1 328 0
 955 0006 0D46     		mov	r5, r1
 956 0008 2368     		ldr	r3, [r4]
 957 000a 0193     		str	r3, [sp, #4]
 958              	.LVL142:
 959              		.loc 1 336 0
 960 000c 0DF10202 		add	r2, sp, #2
 961 0010 2821     		movs	r1, #40
 962              	.LVL143:
 963 0012 FFF7FEFF 		bl	VL53L0X_RdWord
 964              	.LVL144:
 965              		.loc 1 340 0
 966 0016 50B9     		cbnz	r0, .L127
 967              		.loc 1 341 0
 968 0018 BDF80230 		ldrh	r3, [sp, #2]
 969 001c C3F30B03 		ubfx	r3, r3, #0, #12
ARM GAS  C:\Users\mathi\AppData\Local\Temp\ccVwcWGw.s 			page 18


 970              	.LVL145:
 971              		.loc 1 344 0
 972 0020 B3F5006F 		cmp	r3, #2048
 973 0024 09D2     		bcs	.L131
 974              		.loc 1 350 0
 975 0026 FA22     		movs	r2, #250
 976 0028 02FB03F3 		mul	r3, r2, r3
 977              	.LVL146:
 978              		.loc 1 349 0
 979 002c 2B60     		str	r3, [r5]
 980              	.LVL147:
 981              	.L127:
 982              		.loc 1 355 0
 983 002e 019A     		ldr	r2, [sp, #4]
 984 0030 2368     		ldr	r3, [r4]
 985 0032 9A42     		cmp	r2, r3
 986 0034 0AD1     		bne	.L132
 987 0036 03B0     		add	sp, sp, #12
 988              		.cfi_remember_state
 989              		.cfi_def_cfa_offset 12
 990              		@ sp needed
 991 0038 30BD     		pop	{r4, r5, pc}
 992              	.LVL148:
 993              	.L131:
 994              		.cfi_restore_state
 995              		.loc 1 346 0
 996 003a A3F58053 		sub	r3, r3, #4096
 997              	.LVL149:
 998              		.loc 1 347 0
 999 003e C3EB4312 		rsb	r2, r3, r3, lsl #5
 1000 0042 03EB8203 		add	r3, r3, r2, lsl #2
 1001              	.LVL150:
 1002 0046 5B00     		lsls	r3, r3, #1
 1003              		.loc 1 345 0
 1004 0048 2B60     		str	r3, [r5]
 1005 004a F0E7     		b	.L127
 1006              	.LVL151:
 1007              	.L132:
 1008              		.loc 1 355 0
 1009 004c FFF7FEFF 		bl	__stack_chk_fail
 1010              	.LVL152:
 1011              	.L134:
 1012              		.align	2
 1013              	.L133:
 1014 0050 00000000 		.word	__stack_chk_guard
 1015              		.cfi_endproc
 1016              	.LFE6:
 1017              		.size	VL53L0X_get_offset_calibration_data_micro_meter, .-VL53L0X_get_offset_calibration_data_micro
 1018              		.section	.text.VL53L0X_apply_offset_adjustment,"ax",%progbits
 1019              		.align	1
 1020              		.p2align 4,,15
 1021              		.global	VL53L0X_apply_offset_adjustment
 1022              		.syntax unified
 1023              		.thumb
 1024              		.thumb_func
 1025              		.fpu fpv4-sp-d16
 1026              		.type	VL53L0X_apply_offset_adjustment, %function
ARM GAS  C:\Users\mathi\AppData\Local\Temp\ccVwcWGw.s 			page 19


 1027              	VL53L0X_apply_offset_adjustment:
 1028              	.LFB7:
 1029              		.loc 1 359 0
 1030              		.cfi_startproc
 1031              		@ args = 0, pretend = 0, frame = 8
 1032              		@ frame_needed = 0, uses_anonymous_args = 0
 1033              	.LVL153:
 1034 0000 70B5     		push	{r4, r5, r6, lr}
 1035              		.cfi_def_cfa_offset 16
 1036              		.cfi_offset 4, -16
 1037              		.cfi_offset 5, -12
 1038              		.cfi_offset 6, -8
 1039              		.cfi_offset 14, -4
 1040 0002 114C     		ldr	r4, .L141
 1041 0004 82B0     		sub	sp, sp, #8
 1042              		.cfi_def_cfa_offset 24
 1043              		.loc 1 359 0
 1044 0006 2368     		ldr	r3, [r4]
 1045 0008 0193     		str	r3, [sp, #4]
 1046              	.LVL154:
 1047              		.loc 1 366 0
 1048 000a 0721     		movs	r1, #7
 1049              		.loc 1 359 0
 1050 000c 0546     		mov	r5, r0
 1051              		.loc 1 366 0
 1052 000e FFF7FEFF 		bl	VL53L0X_get_info_from_device
 1053              	.LVL155:
 1054              		.loc 1 369 0
 1055 0012 28B1     		cbz	r0, .L139
 1056              	.L136:
 1057              		.loc 1 396 0
 1058 0014 019A     		ldr	r2, [sp, #4]
 1059 0016 2368     		ldr	r3, [r4]
 1060 0018 9A42     		cmp	r2, r3
 1061 001a 13D1     		bne	.L140
 1062 001c 02B0     		add	sp, sp, #8
 1063              		.cfi_remember_state
 1064              		.cfi_def_cfa_offset 16
 1065              		@ sp needed
 1066 001e 70BD     		pop	{r4, r5, r6, pc}
 1067              	.LVL156:
 1068              	.L139:
 1069              		.cfi_restore_state
 1070              		.loc 1 370 0
 1071 0020 6946     		mov	r1, sp
 1072 0022 2846     		mov	r0, r5
 1073              	.LVL157:
 1074 0024 FFF7FEFF 		bl	VL53L0X_GetOffsetCalibrationDataMicroMeter
 1075              	.LVL158:
 1076              		.loc 1 375 0
 1077 0028 0028     		cmp	r0, #0
 1078 002a F3D1     		bne	.L136
 1079              		.loc 1 378 0
 1080 002c 009B     		ldr	r3, [sp]
 1081              		.loc 1 381 0
 1082 002e EE68     		ldr	r6, [r5, #12]
 1083              		.loc 1 378 0
ARM GAS  C:\Users\mathi\AppData\Local\Temp\ccVwcWGw.s 			page 20


 1084 0030 AB60     		str	r3, [r5, #8]
 1085              		.loc 1 381 0
 1086 0032 1E44     		add	r6, r6, r3
 1087              	.LVL159:
 1088              		.loc 1 385 0
 1089 0034 3146     		mov	r1, r6
 1090 0036 2846     		mov	r0, r5
 1091              	.LVL160:
 1092 0038 FFF7FEFF 		bl	VL53L0X_SetOffsetCalibrationDataMicroMeter
 1093              	.LVL161:
 1094              		.loc 1 389 0
 1095 003c 0028     		cmp	r0, #0
 1096 003e E9D1     		bne	.L136
 1097              		.loc 1 390 0
 1098 0040 6E62     		str	r6, [r5, #36]
 1099 0042 E7E7     		b	.L136
 1100              	.LVL162:
 1101              	.L140:
 1102              		.loc 1 396 0
 1103 0044 FFF7FEFF 		bl	__stack_chk_fail
 1104              	.LVL163:
 1105              	.L142:
 1106              		.align	2
 1107              	.L141:
 1108 0048 00000000 		.word	__stack_chk_guard
 1109              		.cfi_endproc
 1110              	.LFE7:
 1111              		.size	VL53L0X_apply_offset_adjustment, .-VL53L0X_apply_offset_adjustment
 1112              		.section	.text.get_next_good_spad,"ax",%progbits
 1113              		.align	1
 1114              		.p2align 4,,15
 1115              		.global	get_next_good_spad
 1116              		.syntax unified
 1117              		.thumb
 1118              		.thumb_func
 1119              		.fpu fpv4-sp-d16
 1120              		.type	get_next_good_spad, %function
 1121              	get_next_good_spad:
 1122              	.LFB8:
 1123              		.loc 1 400 0
 1124              		.cfi_startproc
 1125              		@ args = 0, pretend = 0, frame = 16
 1126              		@ frame_needed = 0, uses_anonymous_args = 0
 1127              	.LVL164:
 1128 0000 2DE9F04F 		push	{r4, r5, r6, r7, r8, r9, r10, fp, lr}
 1129              		.cfi_def_cfa_offset 36
 1130              		.cfi_offset 4, -36
 1131              		.cfi_offset 5, -32
 1132              		.cfi_offset 6, -28
 1133              		.cfi_offset 7, -24
 1134              		.cfi_offset 8, -20
 1135              		.cfi_offset 9, -16
 1136              		.cfi_offset 10, -12
 1137              		.cfi_offset 11, -8
 1138              		.cfi_offset 14, -4
 1139 0004 DFF818E1 		ldr	lr, .L185
 1140 0008 85B0     		sub	sp, sp, #20
ARM GAS  C:\Users\mathi\AppData\Local\Temp\ccVwcWGw.s 			page 21


 1141              		.cfi_def_cfa_offset 56
 1142              		.loc 1 400 0
 1143 000a DEF80040 		ldr	r4, [lr]
 1144 000e 0394     		str	r4, [sp, #12]
 1145              	.LVL165:
 1146              		.loc 1 419 0
 1147 0010 4FEAD20C 		lsr	ip, r2, #3
 1148              	.LVL166:
 1149              		.loc 1 417 0
 1150 0014 4FF0FF34 		mov	r4, #-1
 1151              		.loc 1 422 0
 1152 0018 8C45     		cmp	ip, r1
 1153              		.loc 1 417 0
 1154 001a 1C60     		str	r4, [r3]
 1155              	.LVL167:
 1156              		.loc 1 422 0
 1157 001c 31D2     		bcs	.L143
 1158 001e 02F00702 		and	r2, r2, #7
 1159              	.LVL168:
 1160 0022 6444     		add	r4, ip, r4
 1161 0024 2044     		add	r0, r0, r4
 1162              	.LVL169:
 1163              		.loc 1 441 0
 1164 0026 941C     		adds	r4, r2, #2
 1165 0028 02F10109 		add	r9, r2, #1
 1166 002c 0194     		str	r4, [sp, #4]
 1167 002e 6646     		mov	r6, ip
 1168 0030 02F1030B 		add	fp, r2, #3
 1169 0034 02F1040A 		add	r10, r2, #4
 1170              		.loc 1 423 0
 1171 0038 0CF10108 		add	r8, ip, #1
 1172              	.LVL170:
 1173              	.L145:
 1174              		.loc 1 427 0
 1175 003c B445     		cmp	ip, r6
 1176              		.loc 1 425 0
 1177 003e 10F8014F 		ldrb	r4, [r0, #1]!	@ zero_extendqisi2
 1178              	.LVL171:
 1179              		.loc 1 427 0
 1180 0042 44D0     		beq	.L146
 1181              		.loc 1 435 0
 1182 0044 E707     		lsls	r7, r4, #31
 1183 0046 29D4     		bmi	.L183
 1184              	.LVL172:
 1185 0048 A707     		lsls	r7, r4, #30
 1186 004a 2CD4     		bmi	.L164
 1187              	.LVL173:
 1188 004c 6507     		lsls	r5, r4, #29
 1189 004e 2FD4     		bmi	.L165
 1190              	.LVL174:
 1191 0050 14F00807 		ands	r7, r4, #8
 1192 0054 31D1     		bne	.L166
 1193              		.loc 1 441 0
 1194 0056 0425     		movs	r5, #4
 1195              	.LVL175:
 1196              	.L153:
 1197              		.loc 1 435 0
ARM GAS  C:\Users\mathi\AppData\Local\Temp\ccVwcWGw.s 			page 22


 1198 0058 14F0100F 		tst	r4, #16
 1199 005c 1AD1     		bne	.L147
 1200              	.LVL176:
 1201              		.loc 1 441 0
 1202 005e 7D1D     		adds	r5, r7, #5
 1203              	.LVL177:
 1204              		.loc 1 434 0
 1205 0060 082D     		cmp	r5, #8
 1206 0062 0BD0     		beq	.L178
 1207              		.loc 1 435 0
 1208 0064 14F0200F 		tst	r4, #32
 1209 0068 14D1     		bne	.L147
 1210              	.LVL178:
 1211              		.loc 1 441 0
 1212 006a BD1D     		adds	r5, r7, #6
 1213              	.LVL179:
 1214              		.loc 1 434 0
 1215 006c 082D     		cmp	r5, #8
 1216 006e 05D0     		beq	.L178
 1217              		.loc 1 435 0
 1218 0070 14F0400F 		tst	r4, #64
 1219 0074 0ED1     		bne	.L147
 1220              		.loc 1 440 0
 1221 0076 E409     		lsrs	r4, r4, #7
 1222              	.LVL180:
 1223              		.loc 1 434 0
 1224 0078 07B9     		cbnz	r7, .L178
 1225              		.loc 1 435 0
 1226 007a 1CBB     		cbnz	r4, .L163
 1227              	.LVL181:
 1228              	.L178:
 1229              		.loc 1 423 0
 1230 007c 0136     		adds	r6, r6, #1
 1231              		.loc 1 422 0
 1232 007e B142     		cmp	r1, r6
 1233 0080 DCD8     		bhi	.L145
 1234              	.LVL182:
 1235              	.L143:
 1236              		.loc 1 444 0
 1237 0082 039A     		ldr	r2, [sp, #12]
 1238 0084 DEF80030 		ldr	r3, [lr]
 1239              	.LVL183:
 1240 0088 9A42     		cmp	r2, r3
 1241 008a 2ED1     		bne	.L184
 1242 008c 05B0     		add	sp, sp, #20
 1243              		.cfi_remember_state
 1244              		.cfi_def_cfa_offset 36
 1245              		@ sp needed
 1246 008e BDE8F08F 		pop	{r4, r5, r6, r7, r8, r9, r10, fp, pc}
 1247              	.LVL184:
 1248              	.L160:
 1249              		.cfi_restore_state
 1250              		.loc 1 435 0
 1251 0092 4D46     		mov	r5, r9
 1252              	.LVL185:
 1253              	.L147:
 1254              		.loc 1 437 0
ARM GAS  C:\Users\mathi\AppData\Local\Temp\ccVwcWGw.s 			page 23


 1255 0094 05EBC605 		add	r5, r5, r6, lsl #3
 1256 0098 1D60     		str	r5, [r3]
 1257              	.LVL186:
 1258              		.loc 1 444 0
 1259 009a F2E7     		b	.L143
 1260              	.LVL187:
 1261              	.L183:
 1262              		.loc 1 424 0
 1263 009c 0025     		movs	r5, #0
 1264              	.LVL188:
 1265              		.loc 1 437 0
 1266 009e 05EBC605 		add	r5, r5, r6, lsl #3
 1267 00a2 1D60     		str	r5, [r3]
 1268              	.LVL189:
 1269 00a4 EDE7     		b	.L143
 1270              	.LVL190:
 1271              	.L164:
 1272              		.loc 1 441 0
 1273 00a6 0125     		movs	r5, #1
 1274              	.LVL191:
 1275              		.loc 1 437 0
 1276 00a8 05EBC605 		add	r5, r5, r6, lsl #3
 1277 00ac 1D60     		str	r5, [r3]
 1278              	.LVL192:
 1279 00ae E8E7     		b	.L143
 1280              	.LVL193:
 1281              	.L165:
 1282              		.loc 1 441 0
 1283 00b0 0225     		movs	r5, #2
 1284              	.LVL194:
 1285              		.loc 1 437 0
 1286 00b2 05EBC605 		add	r5, r5, r6, lsl #3
 1287 00b6 1D60     		str	r5, [r3]
 1288              	.LVL195:
 1289 00b8 E3E7     		b	.L143
 1290              	.LVL196:
 1291              	.L166:
 1292              		.loc 1 441 0
 1293 00ba 0325     		movs	r5, #3
 1294              	.LVL197:
 1295              		.loc 1 437 0
 1296 00bc 05EBC605 		add	r5, r5, r6, lsl #3
 1297 00c0 1D60     		str	r5, [r3]
 1298              	.LVL198:
 1299 00c2 DEE7     		b	.L143
 1300              	.LVL199:
 1301              	.L163:
 1302              		.loc 1 435 0
 1303 00c4 0725     		movs	r5, #7
 1304              	.LVL200:
 1305              		.loc 1 437 0
 1306 00c6 05EBC605 		add	r5, r5, r6, lsl #3
 1307 00ca 1D60     		str	r5, [r3]
 1308              	.LVL201:
 1309 00cc D9E7     		b	.L143
 1310              	.LVL202:
 1311              	.L146:
ARM GAS  C:\Users\mathi\AppData\Local\Temp\ccVwcWGw.s 			page 24


 1312              		.loc 1 430 0
 1313 00ce 1441     		asrs	r4, r4, r2
 1314              	.LVL203:
 1315 00d0 E4B2     		uxtb	r4, r4
 1316              	.LVL204:
 1317              		.loc 1 435 0
 1318 00d2 E507     		lsls	r5, r4, #31
 1319 00d4 07D4     		bmi	.L159
 1320              	.LVL205:
 1321              		.loc 1 434 0
 1322 00d6 B9F1080F 		cmp	r9, #8
 1323 00da 08D1     		bne	.L149
 1324              	.LVL206:
 1325              	.L181:
 1326              		.loc 1 422 0
 1327 00dc 4145     		cmp	r1, r8
 1328 00de D0D9     		bls	.L143
 1329 00e0 0CF10106 		add	r6, ip, #1
 1330 00e4 AAE7     		b	.L145
 1331              	.LVL207:
 1332              	.L159:
 1333              		.loc 1 420 0
 1334 00e6 1546     		mov	r5, r2
 1335 00e8 D4E7     		b	.L147
 1336              	.LVL208:
 1337              	.L184:
 1338              		.loc 1 444 0
 1339 00ea FFF7FEFF 		bl	__stack_chk_fail
 1340              	.LVL209:
 1341              	.L149:
 1342              		.loc 1 435 0
 1343 00ee A707     		lsls	r7, r4, #30
 1344 00f0 CFD4     		bmi	.L160
 1345              	.LVL210:
 1346              		.loc 1 434 0
 1347 00f2 019D     		ldr	r5, [sp, #4]
 1348 00f4 082D     		cmp	r5, #8
 1349 00f6 F1D0     		beq	.L181
 1350              		.loc 1 435 0
 1351 00f8 6507     		lsls	r5, r4, #29
 1352 00fa 0FD4     		bmi	.L161
 1353              	.LVL211:
 1354              		.loc 1 434 0
 1355 00fc BBF1080F 		cmp	fp, #8
 1356              		.loc 1 441 0
 1357 0100 5D46     		mov	r5, fp
 1358              	.LVL212:
 1359              		.loc 1 434 0
 1360 0102 EBD0     		beq	.L181
 1361              	.LVL213:
 1362              		.loc 1 435 0
 1363 0104 2707     		lsls	r7, r4, #28
 1364 0106 C5D4     		bmi	.L147
 1365              	.LVL214:
 1366              		.loc 1 434 0
 1367 0108 BAF1080F 		cmp	r10, #8
 1368              		.loc 1 441 0
ARM GAS  C:\Users\mathi\AppData\Local\Temp\ccVwcWGw.s 			page 25


 1369 010c 5546     		mov	r5, r10
 1370              	.LVL215:
 1371              		.loc 1 434 0
 1372 010e 03D1     		bne	.L162
 1373              	.LVL216:
 1374              		.loc 1 422 0
 1375 0110 4145     		cmp	r1, r8
 1376 0112 B6D9     		bls	.L143
 1377 0114 0136     		adds	r6, r6, #1
 1378 0116 91E7     		b	.L145
 1379              	.LVL217:
 1380              	.L162:
 1381              		.loc 1 434 0
 1382 0118 1746     		mov	r7, r2
 1383 011a 9DE7     		b	.L153
 1384              	.LVL218:
 1385              	.L161:
 1386              		.loc 1 441 0
 1387 011c 019D     		ldr	r5, [sp, #4]
 1388 011e B9E7     		b	.L147
 1389              	.L186:
 1390              		.align	2
 1391              	.L185:
 1392 0120 00000000 		.word	__stack_chk_guard
 1393              		.cfi_endproc
 1394              	.LFE8:
 1395              		.size	get_next_good_spad, .-get_next_good_spad
 1396              		.section	.text.is_aperture,"ax",%progbits
 1397              		.align	1
 1398              		.p2align 4,,15
 1399              		.global	is_aperture
 1400              		.syntax unified
 1401              		.thumb
 1402              		.thumb_func
 1403              		.fpu fpv4-sp-d16
 1404              		.type	is_aperture, %function
 1405              	is_aperture:
 1406              	.LFB9:
 1407              		.loc 1 448 0
 1408              		.cfi_startproc
 1409              		@ args = 0, pretend = 0, frame = 8
 1410              		@ frame_needed = 0, uses_anonymous_args = 0
 1411              	.LVL219:
 1412 0000 00B5     		push	{lr}
 1413              		.cfi_def_cfa_offset 4
 1414              		.cfi_offset 14, -4
 1415 0002 0A4B     		ldr	r3, .L191
 1416              		.loc 1 456 0
 1417 0004 0A49     		ldr	r1, .L191+4
 1418              		.loc 1 448 0
 1419 0006 1A68     		ldr	r2, [r3]
 1420 0008 83B0     		sub	sp, sp, #12
 1421              		.cfi_def_cfa_offset 16
 1422              		.loc 1 455 0
 1423 000a 8009     		lsrs	r0, r0, #6
 1424              	.LVL220:
 1425              		.loc 1 448 0
ARM GAS  C:\Users\mathi\AppData\Local\Temp\ccVwcWGw.s 			page 26


 1426 000c 0192     		str	r2, [sp, #4]
 1427              	.LVL221:
 1428              		.loc 1 456 0
 1429 000e 51F82000 		ldr	r0, [r1, r0, lsl #2]
 1430              		.loc 1 460 0
 1431 0012 019A     		ldr	r2, [sp, #4]
 1432 0014 1B68     		ldr	r3, [r3]
 1433 0016 0030     		adds	r0, r0, #0
 1434 0018 18BF     		it	ne
 1435 001a 0120     		movne	r0, #1
 1436 001c 9A42     		cmp	r2, r3
 1437 001e 02D1     		bne	.L190
 1438 0020 03B0     		add	sp, sp, #12
 1439              		.cfi_remember_state
 1440              		.cfi_def_cfa_offset 4
 1441              		@ sp needed
 1442 0022 5DF804FB 		ldr	pc, [sp], #4
 1443              	.L190:
 1444              		.cfi_restore_state
 1445 0026 FFF7FEFF 		bl	__stack_chk_fail
 1446              	.LVL222:
 1447              	.L192:
 1448 002a 00BF     		.align	2
 1449              	.L191:
 1450 002c 00000000 		.word	__stack_chk_guard
 1451 0030 00000000 		.word	.LANCHOR0
 1452              		.cfi_endproc
 1453              	.LFE9:
 1454              		.size	is_aperture, .-is_aperture
 1455              		.section	.text.enable_spad_bit,"ax",%progbits
 1456              		.align	1
 1457              		.p2align 4,,15
 1458              		.global	enable_spad_bit
 1459              		.syntax unified
 1460              		.thumb
 1461              		.thumb_func
 1462              		.fpu fpv4-sp-d16
 1463              		.type	enable_spad_bit, %function
 1464              	enable_spad_bit:
 1465              	.LFB10:
 1466              		.loc 1 465 0
 1467              		.cfi_startproc
 1468              		@ args = 0, pretend = 0, frame = 8
 1469              		@ frame_needed = 0, uses_anonymous_args = 0
 1470              	.LVL223:
 1471 0000 30B5     		push	{r4, r5, lr}
 1472              		.cfi_def_cfa_offset 12
 1473              		.cfi_offset 4, -12
 1474              		.cfi_offset 5, -8
 1475              		.cfi_offset 14, -4
 1476 0002 0D4D     		ldr	r5, .L199
 1477 0004 83B0     		sub	sp, sp, #12
 1478              		.cfi_def_cfa_offset 24
 1479              		.loc 1 465 0
 1480 0006 2B68     		ldr	r3, [r5]
 1481 0008 0193     		str	r3, [sp, #4]
 1482              	.LVL224:
ARM GAS  C:\Users\mathi\AppData\Local\Temp\ccVwcWGw.s 			page 27


 1483              		.loc 1 471 0
 1484 000a D308     		lsrs	r3, r2, #3
 1485              	.LVL225:
 1486              		.loc 1 473 0
 1487 000c 8B42     		cmp	r3, r1
 1488 000e 0ED2     		bcs	.L196
 1489              		.loc 1 476 0
 1490 0010 C15C     		ldrb	r1, [r0, r3]	@ zero_extendqisi2
 1491              	.LVL226:
 1492 0012 02F00702 		and	r2, r2, #7
 1493              	.LVL227:
 1494 0016 0124     		movs	r4, #1
 1495 0018 04FA02F2 		lsl	r2, r4, r2
 1496              	.LVL228:
 1497 001c 0A43     		orrs	r2, r2, r1
 1498 001e C254     		strb	r2, [r0, r3]
 1499              		.loc 1 466 0
 1500 0020 0020     		movs	r0, #0
 1501              	.LVL229:
 1502              	.L194:
 1503              		.loc 1 479 0
 1504 0022 019A     		ldr	r2, [sp, #4]
 1505 0024 2B68     		ldr	r3, [r5]
 1506              	.LVL230:
 1507 0026 9A42     		cmp	r2, r3
 1508 0028 04D1     		bne	.L198
 1509 002a 03B0     		add	sp, sp, #12
 1510              		.cfi_remember_state
 1511              		.cfi_def_cfa_offset 12
 1512              		@ sp needed
 1513 002c 30BD     		pop	{r4, r5, pc}
 1514              	.LVL231:
 1515              	.L196:
 1516              		.cfi_restore_state
 1517              		.loc 1 474 0
 1518 002e 6FF03100 		mvn	r0, #49
 1519              	.LVL232:
 1520 0032 F6E7     		b	.L194
 1521              	.LVL233:
 1522              	.L198:
 1523              		.loc 1 479 0
 1524 0034 FFF7FEFF 		bl	__stack_chk_fail
 1525              	.LVL234:
 1526              	.L200:
 1527              		.align	2
 1528              	.L199:
 1529 0038 00000000 		.word	__stack_chk_guard
 1530              		.cfi_endproc
 1531              	.LFE10:
 1532              		.size	enable_spad_bit, .-enable_spad_bit
 1533              		.section	.text.count_enabled_spads,"ax",%progbits
 1534              		.align	1
 1535              		.p2align 4,,15
 1536              		.global	count_enabled_spads
 1537              		.syntax unified
 1538              		.thumb
 1539              		.thumb_func
ARM GAS  C:\Users\mathi\AppData\Local\Temp\ccVwcWGw.s 			page 28


 1540              		.fpu fpv4-sp-d16
 1541              		.type	count_enabled_spads, %function
 1542              	count_enabled_spads:
 1543              	.LFB11:
 1544              		.loc 1 484 0
 1545              		.cfi_startproc
 1546              		@ args = 4, pretend = 0, frame = 32
 1547              		@ frame_needed = 0, uses_anonymous_args = 0
 1548              	.LVL235:
 1549 0000 2DE9F04F 		push	{r4, r5, r6, r7, r8, r9, r10, fp, lr}
 1550              		.cfi_def_cfa_offset 36
 1551              		.cfi_offset 4, -36
 1552              		.cfi_offset 5, -32
 1553              		.cfi_offset 6, -28
 1554              		.cfi_offset 7, -24
 1555              		.cfi_offset 8, -20
 1556              		.cfi_offset 9, -16
 1557              		.cfi_offset 10, -12
 1558              		.cfi_offset 11, -8
 1559              		.cfi_offset 14, -4
 1560 0004 A54C     		ldr	r4, .L347
 1561 0006 89B0     		sub	sp, sp, #36
 1562              		.cfi_def_cfa_offset 72
 1563              		.loc 1 498 0
 1564 0008 D508     		lsrs	r5, r2, #3
 1565              		.loc 1 484 0
 1566 000a 2468     		ldr	r4, [r4]
 1567 000c 0794     		str	r4, [sp, #28]
 1568              	.LVL236:
 1569              		.loc 1 499 0
 1570 000e 02F00702 		and	r2, r2, #7
 1571              	.LVL237:
 1572              		.loc 1 505 0
 1573 0012 0024     		movs	r4, #0
 1574              		.loc 1 485 0
 1575 0014 8D42     		cmp	r5, r1
 1576              		.loc 1 499 0
 1577 0016 0592     		str	r2, [sp, #20]
 1578              		.loc 1 485 0
 1579 0018 2CBF     		ite	cs
 1580 001a 6FF03102 		mvncs	r2, #49
 1581 001e 2246     		movcc	r2, r4
 1582 0020 0392     		str	r2, [sp, #12]
 1583              		.loc 1 484 0
 1584 0022 DDF848C0 		ldr	ip, [sp, #72]
 1585              		.loc 1 498 0
 1586 0026 0295     		str	r5, [sp, #8]
 1587              	.LVL238:
 1588              		.loc 1 508 0
 1589 0028 6A1E     		subs	r2, r5, #1
 1590 002a 0192     		str	r2, [sp, #4]
 1591              		.loc 1 484 0
 1592 002c 0490     		str	r0, [sp, #16]
 1593              		.loc 1 505 0
 1594 002e 1C60     		str	r4, [r3]
 1595              		.loc 1 508 0
 1596 0030 2246     		mov	r2, r4
ARM GAS  C:\Users\mathi\AppData\Local\Temp\ccVwcWGw.s 			page 29


 1597 0032 00F1FF3E 		add	lr, r0, #-1
 1598              		.loc 1 513 0
 1599 0036 4FF0010B 		mov	fp, #1
 1600 003a 2746     		mov	r7, r4
 1601              	.LVL239:
 1602              	.L239:
 1603              		.loc 1 509 0
 1604 003c 1EF8019F 		ldrb	r9, [lr, #1]!	@ zero_extendqisi2
 1605              	.LVL240:
 1606 0040 09F01001 		and	r1, r9, #16
 1607              		.loc 1 512 0
 1608 0044 19F0010F 		tst	r9, #1
 1609 0048 0091     		str	r1, [sp]
 1610 004a 09F00205 		and	r5, r9, #2
 1611 004e 09F00408 		and	r8, r9, #4
 1612 0052 09F00804 		and	r4, r9, #8
 1613 0056 09F0200A 		and	r10, r9, #32
 1614 005a 09F04006 		and	r6, r9, #64
 1615 005e 4FEAD911 		lsr	r1, r9, #7
 1616 0062 40D0     		beq	.L203
 1617              		.loc 1 513 0
 1618 0064 D3F80090 		ldr	r9, [r3]
 1619 0068 09F10100 		add	r0, r9, #1
 1620 006c 1860     		str	r0, [r3]
 1621              	.LVL241:
 1622              		.loc 1 515 0
 1623 006e 002F     		cmp	r7, #0
 1624 0070 77D1     		bne	.L204
 1625              		.loc 1 517 0
 1626 0072 012A     		cmp	r2, #1
 1627              		.loc 1 516 0
 1628 0074 8CF800B0 		strb	fp, [ip]
 1629              		.loc 1 518 0
 1630 0078 98BF     		it	ls
 1631 007a 8CF80070 		strbls	r7, [ip]
 1632              	.LVL242:
 1633              		.loc 1 512 0
 1634 007e 15B1     		cbz	r5, .L207
 1635              		.loc 1 513 0
 1636 0080 1D68     		ldr	r5, [r3]
 1637 0082 0135     		adds	r5, r5, #1
 1638 0084 1D60     		str	r5, [r3]
 1639              	.LVL243:
 1640              	.L207:
 1641              		.loc 1 512 0
 1642 0086 B8F1000F 		cmp	r8, #0
 1643 008a 3BD1     		bne	.L246
 1644              	.LVL244:
 1645 008c 002C     		cmp	r4, #0
 1646 008e 00F0AE80 		beq	.L217
 1647              	.L248:
 1648              		.loc 1 513 0
 1649 0092 1C68     		ldr	r4, [r3]
 1650 0094 0134     		adds	r4, r4, #1
 1651 0096 1C60     		str	r4, [r3]
 1652              	.LVL245:
 1653              	.L216:
ARM GAS  C:\Users\mathi\AppData\Local\Temp\ccVwcWGw.s 			page 30


 1654              		.loc 1 512 0
 1655 0098 0098     		ldr	r0, [sp]
 1656 009a 0028     		cmp	r0, #0
 1657 009c 39D1     		bne	.L259
 1658              	.LVL246:
 1659 009e BAF1000F 		cmp	r10, #0
 1660 00a2 47D0     		beq	.L227
 1661              	.L228:
 1662              		.loc 1 513 0
 1663 00a4 1868     		ldr	r0, [r3]
 1664              	.L327:
 1665 00a6 0130     		adds	r0, r0, #1
 1666 00a8 1860     		str	r0, [r3]
 1667              	.LVL247:
 1668              	.L226:
 1669              		.loc 1 512 0
 1670 00aa 002E     		cmp	r6, #0
 1671 00ac 38D1     		bne	.L234
 1672              	.LVL248:
 1673              	.L232:
 1674 00ae 0029     		cmp	r1, #0
 1675 00b0 3BD1     		bne	.L256
 1676              	.LVL249:
 1677              	.L271:
 1678 00b2 0127     		movs	r7, #1
 1679              	.L235:
 1680              	.LVL250:
 1681              		.loc 1 508 0
 1682 00b4 0199     		ldr	r1, [sp, #4]
 1683 00b6 0132     		adds	r2, r2, #1
 1684              	.LVL251:
 1685 00b8 8A42     		cmp	r2, r1
 1686 00ba BFD9     		bls	.L239
 1687              	.LVL252:
 1688 00bc 049A     		ldr	r2, [sp, #16]
 1689              	.LVL253:
 1690 00be 0299     		ldr	r1, [sp, #8]
 1691 00c0 525C     		ldrb	r2, [r2, r1]	@ zero_extendqisi2
 1692 00c2 12F00102 		ands	r2, r2, #1
 1693 00c6 7DD1     		bne	.L240
 1694              		.loc 1 531 0
 1695 00c8 1346     		mov	r3, r2
 1696              	.LVL254:
 1697 00ca 059A     		ldr	r2, [sp, #20]
 1698              	.LVL255:
 1699              	.L241:
 1700 00cc 0133     		adds	r3, r3, #1
 1701              	.LVL256:
 1702 00ce 9A42     		cmp	r2, r3
 1703 00d0 FCD2     		bcs	.L241
 1704              	.LVL257:
 1705              	.L242:
 1706              		.loc 1 537 0
 1707 00d2 724B     		ldr	r3, .L347
 1708 00d4 079A     		ldr	r2, [sp, #28]
 1709 00d6 1B68     		ldr	r3, [r3]
 1710 00d8 0398     		ldr	r0, [sp, #12]
ARM GAS  C:\Users\mathi\AppData\Local\Temp\ccVwcWGw.s 			page 31


 1711 00da 9A42     		cmp	r2, r3
 1712 00dc 40F0DC80 		bne	.L342
 1713 00e0 09B0     		add	sp, sp, #36
 1714              		.cfi_remember_state
 1715              		.cfi_def_cfa_offset 36
 1716              		@ sp needed
 1717 00e2 BDE8F08F 		pop	{r4, r5, r6, r7, r8, r9, r10, fp, pc}
 1718              	.LVL258:
 1719              	.L203:
 1720              		.cfi_restore_state
 1721              		.loc 1 512 0
 1722 00e6 002D     		cmp	r5, #0
 1723 00e8 2CD0     		beq	.L208
 1724              		.loc 1 513 0
 1725 00ea 1D68     		ldr	r5, [r3]
 1726 00ec 0135     		adds	r5, r5, #1
 1727 00ee 1D60     		str	r5, [r3]
 1728              	.LVL259:
 1729              		.loc 1 515 0
 1730 00f0 002F     		cmp	r7, #0
 1731 00f2 C8D1     		bne	.L207
 1732              		.loc 1 517 0
 1733 00f4 012A     		cmp	r2, #1
 1734              		.loc 1 516 0
 1735 00f6 8CF800B0 		strb	fp, [ip]
 1736              		.loc 1 517 0
 1737 00fa 40F28880 		bls	.L343
 1738              	.LVL260:
 1739              		.loc 1 512 0
 1740 00fe B8F1000F 		cmp	r8, #0
 1741 0102 02D0     		beq	.L211
 1742              	.L246:
 1743              		.loc 1 513 0
 1744 0104 1D68     		ldr	r5, [r3]
 1745 0106 0135     		adds	r5, r5, #1
 1746 0108 1D60     		str	r5, [r3]
 1747              	.LVL261:
 1748              	.L211:
 1749              		.loc 1 512 0
 1750 010a 002C     		cmp	r4, #0
 1751 010c C1D1     		bne	.L248
 1752              	.LVL262:
 1753              	.L317:
 1754 010e 0098     		ldr	r0, [sp]
 1755 0110 10B1     		cbz	r0, .L222
 1756              	.L259:
 1757              		.loc 1 513 0
 1758 0112 1868     		ldr	r0, [r3]
 1759 0114 0130     		adds	r0, r0, #1
 1760 0116 1860     		str	r0, [r3]
 1761              	.LVL263:
 1762              	.L222:
 1763              		.loc 1 512 0
 1764 0118 BAF1000F 		cmp	r10, #0
 1765 011c C2D1     		bne	.L228
 1766              	.L323:
 1767              	.LVL264:
ARM GAS  C:\Users\mathi\AppData\Local\Temp\ccVwcWGw.s 			page 32


 1768 011e 5EB1     		cbz	r6, .L229
 1769              	.L234:
 1770              		.loc 1 513 0
 1771 0120 1868     		ldr	r0, [r3]
 1772              	.L329:
 1773 0122 0130     		adds	r0, r0, #1
 1774 0124 1860     		str	r0, [r3]
 1775              	.LVL265:
 1776              		.loc 1 512 0
 1777 0126 0029     		cmp	r1, #0
 1778 0128 C3D0     		beq	.L271
 1779              	.L256:
 1780              		.loc 1 513 0
 1781 012a 1968     		ldr	r1, [r3]
 1782 012c 0131     		adds	r1, r1, #1
 1783 012e 1960     		str	r1, [r3]
 1784 0130 0127     		movs	r7, #1
 1785 0132 BFE7     		b	.L235
 1786              	.LVL266:
 1787              	.L227:
 1788              		.loc 1 512 0
 1789 0134 002E     		cmp	r6, #0
 1790 0136 F3D1     		bne	.L234
 1791              	.L229:
 1792              	.LVL267:
 1793 0138 0029     		cmp	r1, #0
 1794 013a BAD0     		beq	.L271
 1795              		.loc 1 513 0
 1796 013c 1968     		ldr	r1, [r3]
 1797 013e 0131     		adds	r1, r1, #1
 1798 0140 1960     		str	r1, [r3]
 1799 0142 B6E7     		b	.L271
 1800              	.LVL268:
 1801              	.L208:
 1802              		.loc 1 512 0
 1803 0144 B8F1000F 		cmp	r8, #0
 1804 0148 10D0     		beq	.L213
 1805              		.loc 1 513 0
 1806 014a 1D68     		ldr	r5, [r3]
 1807 014c 0135     		adds	r5, r5, #1
 1808 014e 1D60     		str	r5, [r3]
 1809              	.LVL269:
 1810              		.loc 1 515 0
 1811 0150 002F     		cmp	r7, #0
 1812 0152 DAD1     		bne	.L211
 1813              		.loc 1 517 0
 1814 0154 012A     		cmp	r2, #1
 1815              		.loc 1 516 0
 1816 0156 8CF800B0 		strb	fp, [ip]
 1817              		.loc 1 517 0
 1818 015a 52D9     		bls	.L344
 1819              	.LVL270:
 1820              		.loc 1 512 0
 1821 015c 002C     		cmp	r4, #0
 1822 015e 9BD0     		beq	.L216
 1823 0160 97E7     		b	.L248
 1824              	.LVL271:
ARM GAS  C:\Users\mathi\AppData\Local\Temp\ccVwcWGw.s 			page 33


 1825              	.L204:
 1826 0162 B5B1     		cbz	r5, .L345
 1827              		.loc 1 513 0
 1828 0164 09F10205 		add	r5, r9, #2
 1829 0168 1D60     		str	r5, [r3]
 1830 016a 8CE7     		b	.L207
 1831              	.LVL272:
 1832              	.L213:
 1833              		.loc 1 512 0
 1834 016c C4B1     		cbz	r4, .L218
 1835              		.loc 1 513 0
 1836 016e 1C68     		ldr	r4, [r3]
 1837 0170 0134     		adds	r4, r4, #1
 1838 0172 1C60     		str	r4, [r3]
 1839              	.LVL273:
 1840              		.loc 1 515 0
 1841 0174 002F     		cmp	r7, #0
 1842 0176 8FD1     		bne	.L216
 1843              		.loc 1 517 0
 1844 0178 012A     		cmp	r2, #1
 1845              		.loc 1 516 0
 1846 017a 8CF800B0 		strb	fp, [ip]
 1847              		.loc 1 517 0
 1848 017e C6D8     		bhi	.L317
 1849              		.loc 1 512 0
 1850 0180 0098     		ldr	r0, [sp]
 1851              		.loc 1 518 0
 1852 0182 8CF80070 		strb	r7, [ip]
 1853              	.LVL274:
 1854              		.loc 1 512 0
 1855 0186 0028     		cmp	r0, #0
 1856 0188 C3D1     		bne	.L259
 1857              	.LVL275:
 1858 018a BAF1000F 		cmp	r10, #0
 1859 018e C6D0     		beq	.L323
 1860 0190 88E7     		b	.L228
 1861              	.LVL276:
 1862              	.L345:
 1863 0192 B8F1000F 		cmp	r8, #0
 1864 0196 1FD0     		beq	.L212
 1865              		.loc 1 513 0
 1866 0198 09F10205 		add	r5, r9, #2
 1867 019c 1D60     		str	r5, [r3]
 1868 019e B4E7     		b	.L211
 1869              	.LVL277:
 1870              	.L218:
 1871              		.loc 1 512 0
 1872 01a0 0098     		ldr	r0, [sp]
 1873 01a2 0028     		cmp	r0, #0
 1874 01a4 3DD0     		beq	.L224
 1875              		.loc 1 513 0
 1876 01a6 1868     		ldr	r0, [r3]
 1877 01a8 0130     		adds	r0, r0, #1
 1878 01aa 1860     		str	r0, [r3]
 1879              	.LVL278:
 1880              		.loc 1 515 0
 1881 01ac 002F     		cmp	r7, #0
ARM GAS  C:\Users\mathi\AppData\Local\Temp\ccVwcWGw.s 			page 34


 1882 01ae B3D1     		bne	.L222
 1883              		.loc 1 516 0
 1884 01b0 8CF800B0 		strb	fp, [ip]
 1885              	.LVL279:
 1886              		.loc 1 512 0
 1887 01b4 BAF1000F 		cmp	r10, #0
 1888 01b8 7FF474AF 		bne	.L228
 1889              	.LVL280:
 1890 01bc 002E     		cmp	r6, #0
 1891 01be 3FF476AF 		beq	.L232
 1892 01c2 ADE7     		b	.L234
 1893              	.LVL281:
 1894              	.L240:
 1895 01c4 1968     		ldr	r1, [r3]
 1896              	.LVL282:
 1897 01c6 059C     		ldr	r4, [sp, #20]
 1898              		.loc 1 531 0
 1899 01c8 0022     		movs	r2, #0
 1900 01ca 0131     		adds	r1, r1, #1
 1901              	.LVL283:
 1902              	.L243:
 1903 01cc 8818     		adds	r0, r1, r2
 1904 01ce 0132     		adds	r2, r2, #1
 1905              	.LVL284:
 1906 01d0 9442     		cmp	r4, r2
 1907 01d2 FBD2     		bcs	.L243
 1908 01d4 1860     		str	r0, [r3]
 1909              	.LVL285:
 1910 01d6 7CE7     		b	.L242
 1911              	.LVL286:
 1912              	.L212:
 1913              		.loc 1 512 0
 1914 01d8 002C     		cmp	r4, #0
 1915 01da 61D1     		bne	.L346
 1916              	.LVL287:
 1917 01dc 009C     		ldr	r4, [sp]
 1918 01de 7CB3     		cbz	r4, .L223
 1919              		.loc 1 513 0
 1920 01e0 09F10200 		add	r0, r9, #2
 1921 01e4 1860     		str	r0, [r3]
 1922              	.LVL288:
 1923              		.loc 1 512 0
 1924 01e6 BAF1000F 		cmp	r10, #0
 1925 01ea 98D0     		beq	.L323
 1926 01ec 5AE7     		b	.L228
 1927              	.LVL289:
 1928              	.L217:
 1929 01ee 0098     		ldr	r0, [sp]
 1930 01f0 0028     		cmp	r0, #0
 1931 01f2 8ED1     		bne	.L259
 1932              	.LVL290:
 1933 01f4 BAF1000F 		cmp	r10, #0
 1934 01f8 7FF454AF 		bne	.L228
 1935              	.LVL291:
 1936 01fc 002E     		cmp	r6, #0
 1937 01fe 8FD1     		bne	.L234
 1938 0200 9AE7     		b	.L229
ARM GAS  C:\Users\mathi\AppData\Local\Temp\ccVwcWGw.s 			page 35


 1939              	.LVL292:
 1940              	.L344:
 1941              		.loc 1 518 0
 1942 0202 8CF80070 		strb	r7, [ip]
 1943              	.LVL293:
 1944              		.loc 1 512 0
 1945 0206 002C     		cmp	r4, #0
 1946 0208 3FF446AF 		beq	.L216
 1947 020c 41E7     		b	.L248
 1948              	.LVL294:
 1949              	.L343:
 1950              		.loc 1 518 0
 1951 020e 8CF80070 		strb	r7, [ip]
 1952              	.LVL295:
 1953              		.loc 1 512 0
 1954 0212 B8F1000F 		cmp	r8, #0
 1955 0216 3FF478AF 		beq	.L211
 1956              		.loc 1 513 0
 1957 021a 1D68     		ldr	r5, [r3]
 1958 021c 0135     		adds	r5, r5, #1
 1959 021e 1D60     		str	r5, [r3]
 1960 0220 73E7     		b	.L211
 1961              	.LVL296:
 1962              	.L224:
 1963              		.loc 1 512 0
 1964 0222 BAF1000F 		cmp	r10, #0
 1965 0226 19D0     		beq	.L231
 1966              		.loc 1 513 0
 1967 0228 1868     		ldr	r0, [r3]
 1968 022a 0130     		adds	r0, r0, #1
 1969 022c 1860     		str	r0, [r3]
 1970              	.LVL297:
 1971              		.loc 1 515 0
 1972 022e 002F     		cmp	r7, #0
 1973 0230 7FF43BAF 		bne	.L226
 1974              		.loc 1 516 0
 1975 0234 8CF800B0 		strb	fp, [ip]
 1976              	.LVL298:
 1977              		.loc 1 512 0
 1978 0238 002E     		cmp	r6, #0
 1979 023a 3FF438AF 		beq	.L232
 1980 023e 6FE7     		b	.L234
 1981              	.LVL299:
 1982              	.L223:
 1983 0240 BAF1000F 		cmp	r10, #0
 1984 0244 7FF42FAF 		bne	.L327
 1985              	.LVL300:
 1986 0248 002E     		cmp	r6, #0
 1987 024a 7FF46AAF 		bne	.L329
 1988              	.LVL301:
 1989 024e 0029     		cmp	r1, #0
 1990 0250 3FF430AF 		beq	.L235
 1991              		.loc 1 513 0
 1992 0254 0146     		mov	r1, r0
 1993 0256 0131     		adds	r1, r1, #1
 1994 0258 1960     		str	r1, [r3]
 1995 025a 2AE7     		b	.L271
ARM GAS  C:\Users\mathi\AppData\Local\Temp\ccVwcWGw.s 			page 36


 1996              	.LVL302:
 1997              	.L231:
 1998              		.loc 1 512 0
 1999 025c 7EB1     		cbz	r6, .L237
 2000              		.loc 1 513 0
 2001 025e 1868     		ldr	r0, [r3]
 2002 0260 0130     		adds	r0, r0, #1
 2003 0262 1860     		str	r0, [r3]
 2004              	.LVL303:
 2005              		.loc 1 515 0
 2006 0264 002F     		cmp	r7, #0
 2007 0266 7FF422AF 		bne	.L232
 2008              		.loc 1 516 0
 2009 026a 8CF800B0 		strb	fp, [ip]
 2010              	.LVL304:
 2011              		.loc 1 512 0
 2012 026e 0029     		cmp	r1, #0
 2013 0270 3FF41FAF 		beq	.L271
 2014              		.loc 1 513 0
 2015 0274 1968     		ldr	r1, [r3]
 2016 0276 0131     		adds	r1, r1, #1
 2017 0278 1960     		str	r1, [r3]
 2018 027a 0127     		movs	r7, #1
 2019 027c 1AE7     		b	.L235
 2020              	.LVL305:
 2021              	.L237:
 2022              		.loc 1 512 0
 2023 027e 0029     		cmp	r1, #0
 2024 0280 3FF418AF 		beq	.L235
 2025              		.loc 1 513 0
 2026 0284 1968     		ldr	r1, [r3]
 2027 0286 0131     		adds	r1, r1, #1
 2028 0288 1960     		str	r1, [r3]
 2029              	.LVL306:
 2030              		.loc 1 515 0
 2031 028a 002F     		cmp	r7, #0
 2032 028c 7FF411AF 		bne	.L271
 2033              		.loc 1 516 0
 2034 0290 8CF800B0 		strb	fp, [ip]
 2035              		.loc 1 519 0
 2036 0294 0127     		movs	r7, #1
 2037              	.LVL307:
 2038 0296 0DE7     		b	.L235
 2039              	.LVL308:
 2040              	.L342:
 2041              		.loc 1 537 0
 2042 0298 FFF7FEFF 		bl	__stack_chk_fail
 2043              	.LVL309:
 2044              	.L348:
 2045              		.align	2
 2046              	.L347:
 2047 029c 00000000 		.word	__stack_chk_guard
 2048              	.LVL310:
 2049              	.L346:
 2050              		.loc 1 513 0
 2051 02a0 09F10204 		add	r4, r9, #2
 2052 02a4 1C60     		str	r4, [r3]
ARM GAS  C:\Users\mathi\AppData\Local\Temp\ccVwcWGw.s 			page 37


 2053 02a6 F7E6     		b	.L216
 2054              		.cfi_endproc
 2055              	.LFE11:
 2056              		.size	count_enabled_spads, .-count_enabled_spads
 2057              		.section	.text.set_ref_spad_map,"ax",%progbits
 2058              		.align	1
 2059              		.p2align 4,,15
 2060              		.global	set_ref_spad_map
 2061              		.syntax unified
 2062              		.thumb
 2063              		.thumb_func
 2064              		.fpu fpv4-sp-d16
 2065              		.type	set_ref_spad_map, %function
 2066              	set_ref_spad_map:
 2067              	.LFB12:
 2068              		.loc 1 540 0
 2069              		.cfi_startproc
 2070              		@ args = 0, pretend = 0, frame = 8
 2071              		@ frame_needed = 0, uses_anonymous_args = 0
 2072              	.LVL311:
 2073 0000 10B5     		push	{r4, lr}
 2074              		.cfi_def_cfa_offset 8
 2075              		.cfi_offset 4, -8
 2076              		.cfi_offset 14, -4
 2077 0002 094B     		ldr	r3, .L354
 2078 0004 82B0     		sub	sp, sp, #8
 2079              		.cfi_def_cfa_offset 16
 2080              		.loc 1 540 0
 2081 0006 1A68     		ldr	r2, [r3]
 2082 0008 0192     		str	r2, [sp, #4]
 2083              		.loc 1 541 0
 2084 000a 019C     		ldr	r4, [sp, #4]
 2085 000c 1B68     		ldr	r3, [r3]
 2086 000e 9C42     		cmp	r4, r3
 2087 0010 07D1     		bne	.L353
 2088 0012 0A46     		mov	r2, r1
 2089 0014 0623     		movs	r3, #6
 2090 0016 B021     		movs	r1, #176
 2091              	.LVL312:
 2092              		.loc 1 545 0
 2093 0018 02B0     		add	sp, sp, #8
 2094              		.cfi_remember_state
 2095              		.cfi_def_cfa_offset 8
 2096              		@ sp needed
 2097 001a BDE81040 		pop	{r4, lr}
 2098              		.cfi_restore 14
 2099              		.cfi_restore 4
 2100              		.cfi_def_cfa_offset 0
 2101              		.loc 1 541 0
 2102 001e FFF7FEBF 		b	VL53L0X_WriteMulti
 2103              	.LVL313:
 2104              	.L353:
 2105              		.cfi_restore_state
 2106 0022 FFF7FEFF 		bl	__stack_chk_fail
 2107              	.LVL314:
 2108              	.L355:
 2109 0026 00BF     		.align	2
ARM GAS  C:\Users\mathi\AppData\Local\Temp\ccVwcWGw.s 			page 38


 2110              	.L354:
 2111 0028 00000000 		.word	__stack_chk_guard
 2112              		.cfi_endproc
 2113              	.LFE12:
 2114              		.size	set_ref_spad_map, .-set_ref_spad_map
 2115              		.section	.text.get_ref_spad_map,"ax",%progbits
 2116              		.align	1
 2117              		.p2align 4,,15
 2118              		.global	get_ref_spad_map
 2119              		.syntax unified
 2120              		.thumb
 2121              		.thumb_func
 2122              		.fpu fpv4-sp-d16
 2123              		.type	get_ref_spad_map, %function
 2124              	get_ref_spad_map:
 2125              	.LFB13:
 2126              		.loc 1 548 0
 2127              		.cfi_startproc
 2128              		@ args = 0, pretend = 0, frame = 8
 2129              		@ frame_needed = 0, uses_anonymous_args = 0
 2130              	.LVL315:
 2131 0000 10B5     		push	{r4, lr}
 2132              		.cfi_def_cfa_offset 8
 2133              		.cfi_offset 4, -8
 2134              		.cfi_offset 14, -4
 2135 0002 094B     		ldr	r3, .L361
 2136 0004 82B0     		sub	sp, sp, #8
 2137              		.cfi_def_cfa_offset 16
 2138              		.loc 1 548 0
 2139 0006 1A68     		ldr	r2, [r3]
 2140 0008 0192     		str	r2, [sp, #4]
 2141              		.loc 1 549 0
 2142 000a 019C     		ldr	r4, [sp, #4]
 2143 000c 1B68     		ldr	r3, [r3]
 2144 000e 9C42     		cmp	r4, r3
 2145 0010 07D1     		bne	.L360
 2146 0012 0A46     		mov	r2, r1
 2147 0014 0623     		movs	r3, #6
 2148 0016 B021     		movs	r1, #176
 2149              	.LVL316:
 2150              		.loc 1 554 0
 2151 0018 02B0     		add	sp, sp, #8
 2152              		.cfi_remember_state
 2153              		.cfi_def_cfa_offset 8
 2154              		@ sp needed
 2155 001a BDE81040 		pop	{r4, lr}
 2156              		.cfi_restore 14
 2157              		.cfi_restore 4
 2158              		.cfi_def_cfa_offset 0
 2159              		.loc 1 549 0
 2160 001e FFF7FEBF 		b	VL53L0X_ReadMulti
 2161              	.LVL317:
 2162              	.L360:
 2163              		.cfi_restore_state
 2164 0022 FFF7FEFF 		bl	__stack_chk_fail
 2165              	.LVL318:
 2166              	.L362:
ARM GAS  C:\Users\mathi\AppData\Local\Temp\ccVwcWGw.s 			page 39


 2167 0026 00BF     		.align	2
 2168              	.L361:
 2169 0028 00000000 		.word	__stack_chk_guard
 2170              		.cfi_endproc
 2171              	.LFE13:
 2172              		.size	get_ref_spad_map, .-get_ref_spad_map
 2173              		.section	.text.enable_ref_spads,"ax",%progbits
 2174              		.align	1
 2175              		.p2align 4,,15
 2176              		.global	enable_ref_spads
 2177              		.syntax unified
 2178              		.thumb
 2179              		.thumb_func
 2180              		.fpu fpv4-sp-d16
 2181              		.type	enable_ref_spads, %function
 2182              	enable_ref_spads:
 2183              	.LFB14:
 2184              		.loc 1 565 0
 2185              		.cfi_startproc
 2186              		@ args = 20, pretend = 0, frame = 48
 2187              		@ frame_needed = 0, uses_anonymous_args = 0
 2188              	.LVL319:
 2189 0000 2DE9F04F 		push	{r4, r5, r6, r7, r8, r9, r10, fp, lr}
 2190              		.cfi_def_cfa_offset 36
 2191              		.cfi_offset 4, -36
 2192              		.cfi_offset 5, -32
 2193              		.cfi_offset 6, -28
 2194              		.cfi_offset 7, -24
 2195              		.cfi_offset 8, -20
 2196              		.cfi_offset 9, -16
 2197              		.cfi_offset 10, -12
 2198              		.cfi_offset 11, -8
 2199              		.cfi_offset 14, -4
 2200 0004 8DB0     		sub	sp, sp, #52
 2201              		.cfi_def_cfa_offset 88
 2202              		.loc 1 565 0
 2203 0006 7D4C     		ldr	r4, .L445
 2204 0008 DDF86490 		ldr	r9, [sp, #100]
 2205 000c 2468     		ldr	r4, [r4]
 2206 000e 0B94     		str	r4, [sp, #44]
 2207              	.LVL320:
 2208 0010 9846     		mov	r8, r3
 2209 0012 1A9B     		ldr	r3, [sp, #104]
 2210              	.LVL321:
 2211 0014 0790     		str	r0, [sp, #28]
 2212 0016 0192     		str	r2, [sp, #4]
 2213 0018 DDE9166B 		ldrd	r6, fp, [sp, #88]
 2214 001c DDF860C0 		ldr	ip, [sp, #96]
 2215              	.LVL322:
 2216 0020 0693     		str	r3, [sp, #24]
 2217              		.loc 1 584 0
 2218 0022 B9F1000F 		cmp	r9, #0
 2219 0026 00F08880 		beq	.L364
 2220              	.LVL323:
 2221              	.LBB74:
 2222              	.LBB75:
 2223              		.loc 1 419 0
ARM GAS  C:\Users\mathi\AppData\Local\Temp\ccVwcWGw.s 			page 40


 2224 002a 4FEADC05 		lsr	r5, ip, #3
 2225              	.LVL324:
 2226              		.loc 1 422 0
 2227 002e AE42     		cmp	r6, r5
 2228              		.loc 1 420 0
 2229 0030 0CF00707 		and	r7, ip, #7
 2230              	.LVL325:
 2231              		.loc 1 422 0
 2232 0034 33D9     		bls	.L430
 2233 0036 8A46     		mov	r10, r1
 2234              	.LBE75:
 2235              	.LBE74:
 2236              		.loc 1 584 0
 2237 0038 4FF0000E 		mov	lr, #0
 2238              	.LVL326:
 2239              	.L365:
 2240 003c 019B     		ldr	r3, [sp, #4]
 2241 003e 6C1E     		subs	r4, r5, #1
 2242 0040 1C44     		add	r4, r4, r3
 2243              	.LBB81:
 2244              	.LBB76:
 2245              		.loc 1 441 0
 2246 0042 7B1C     		adds	r3, r7, #1
 2247 0044 0293     		str	r3, [sp, #8]
 2248 0046 BB1C     		adds	r3, r7, #2
 2249 0048 0393     		str	r3, [sp, #12]
 2250 004a FB1C     		adds	r3, r7, #3
 2251 004c 0493     		str	r3, [sp, #16]
 2252 004e 3B1D     		adds	r3, r7, #4
 2253 0050 2A46     		mov	r2, r5
 2254 0052 0593     		str	r3, [sp, #20]
 2255              	.LVL327:
 2256              	.L367:
 2257              		.loc 1 427 0
 2258 0054 AA42     		cmp	r2, r5
 2259              		.loc 1 425 0
 2260 0056 14F8013F 		ldrb	r3, [r4, #1]!	@ zero_extendqisi2
 2261              	.LVL328:
 2262              		.loc 1 427 0
 2263 005a 61D0     		beq	.L368
 2264              		.loc 1 435 0
 2265 005c D807     		lsls	r0, r3, #31
 2266 005e 55D4     		bmi	.L441
 2267              	.LVL329:
 2268 0060 9807     		lsls	r0, r3, #30
 2269 0062 55D4     		bmi	.L442
 2270              	.LVL330:
 2271 0064 5907     		lsls	r1, r3, #29
 2272 0066 55D4     		bmi	.L399
 2273              	.LVL331:
 2274 0068 13F00800 		ands	r0, r3, #8
 2275 006c 54D1     		bne	.L400
 2276              		.loc 1 441 0
 2277 006e 0421     		movs	r1, #4
 2278              	.LVL332:
 2279              	.L375:
 2280              		.loc 1 435 0
ARM GAS  C:\Users\mathi\AppData\Local\Temp\ccVwcWGw.s 			page 41


 2281 0070 13F0100F 		tst	r3, #16
 2282 0074 21D1     		bne	.L369
 2283              	.LVL333:
 2284              		.loc 1 441 0
 2285 0076 411D     		adds	r1, r0, #5
 2286              	.LVL334:
 2287              		.loc 1 434 0
 2288 0078 0829     		cmp	r1, #8
 2289 007a 0CD0     		beq	.L434
 2290              		.loc 1 435 0
 2291 007c 13F0200F 		tst	r3, #32
 2292 0080 1BD1     		bne	.L369
 2293              	.LVL335:
 2294              		.loc 1 441 0
 2295 0082 811D     		adds	r1, r0, #6
 2296              	.LVL336:
 2297              		.loc 1 434 0
 2298 0084 0829     		cmp	r1, #8
 2299 0086 06D0     		beq	.L434
 2300              		.loc 1 435 0
 2301 0088 13F0400F 		tst	r3, #64
 2302 008c 15D1     		bne	.L369
 2303              		.loc 1 440 0
 2304 008e DB09     		lsrs	r3, r3, #7
 2305              	.LVL337:
 2306              		.loc 1 434 0
 2307 0090 08B9     		cbnz	r0, .L434
 2308              		.loc 1 435 0
 2309 0092 002B     		cmp	r3, #0
 2310 0094 42D1     		bne	.L392
 2311              	.LVL338:
 2312              	.L434:
 2313              		.loc 1 423 0
 2314 0096 0132     		adds	r2, r2, #1
 2315              		.loc 1 422 0
 2316 0098 9642     		cmp	r6, r2
 2317 009a DBD8     		bhi	.L367
 2318              	.LVL339:
 2319              	.L379:
 2320              	.LBE76:
 2321              	.LBE81:
 2322              		.loc 1 605 0
 2323 009c 069B     		ldr	r3, [sp, #24]
 2324              	.LVL340:
 2325              	.L430:
 2326 009e C3F800C0 		str	ip, [r3]
 2327 00a2 6FF03100 		mvn	r0, #49
 2328              	.LVL341:
 2329              	.L382:
 2330              		.loc 1 626 0
 2331 00a6 554B     		ldr	r3, .L445
 2332 00a8 0B9A     		ldr	r2, [sp, #44]
 2333 00aa 1B68     		ldr	r3, [r3]
 2334 00ac 9A42     		cmp	r2, r3
 2335 00ae 40F0A180 		bne	.L443
 2336 00b2 0DB0     		add	sp, sp, #52
 2337              		.cfi_remember_state
ARM GAS  C:\Users\mathi\AppData\Local\Temp\ccVwcWGw.s 			page 42


 2338              		.cfi_def_cfa_offset 36
 2339              		@ sp needed
 2340 00b4 BDE8F08F 		pop	{r4, r5, r6, r7, r8, r9, r10, fp, pc}
 2341              	.LVL342:
 2342              	.L389:
 2343              		.cfi_restore_state
 2344              	.LBB82:
 2345              	.LBB77:
 2346              		.loc 1 435 0
 2347 00b8 0299     		ldr	r1, [sp, #8]
 2348              	.LVL343:
 2349              	.L369:
 2350              		.loc 1 437 0
 2351 00ba 01EBC202 		add	r2, r1, r2, lsl #3
 2352              	.LVL344:
 2353              	.LBE77:
 2354              	.LBE82:
 2355              		.loc 1 588 0
 2356 00be 541C     		adds	r4, r2, #1
 2357 00c0 ECD0     		beq	.L379
 2358              		.loc 1 594 0
 2359 00c2 0BEB0203 		add	r3, fp, r2
 2360              	.LBB83:
 2361              	.LBB84:
 2362              		.loc 1 455 0
 2363 00c6 9B09     		lsrs	r3, r3, #6
 2364              		.loc 1 456 0
 2365 00c8 4D49     		ldr	r1, .L445+4
 2366 00ca 51F82330 		ldr	r3, [r1, r3, lsl #2]
 2367              	.LBE84:
 2368              	.LBE83:
 2369              		.loc 1 594 0
 2370 00ce 0033     		adds	r3, r3, #0
 2371 00d0 18BF     		it	ne
 2372 00d2 0123     		movne	r3, #1
 2373 00d4 5345     		cmp	r3, r10
 2374 00d6 E1D1     		bne	.L379
 2375              	.LVL345:
 2376              	.LBB85:
 2377              	.LBB86:
 2378              		.loc 1 471 0 discriminator 2
 2379 00d8 D308     		lsrs	r3, r2, #3
 2380              	.LVL346:
 2381              		.loc 1 473 0 discriminator 2
 2382 00da 9E42     		cmp	r6, r3
 2383 00dc 09D9     		bls	.L380
 2384              		.loc 1 476 0
 2385 00de 18F80300 		ldrb	r0, [r8, r3]	@ zero_extendqisi2
 2386              		.loc 1 472 0
 2387 00e2 02F00701 		and	r1, r2, #7
 2388              	.LVL347:
 2389              		.loc 1 476 0
 2390 00e6 0124     		movs	r4, #1
 2391 00e8 04FA01F1 		lsl	r1, r4, r1
 2392              	.LVL348:
 2393 00ec 0143     		orrs	r1, r1, r0
 2394 00ee 08F80310 		strb	r1, [r8, r3]
ARM GAS  C:\Users\mathi\AppData\Local\Temp\ccVwcWGw.s 			page 43


 2395              	.L380:
 2396              	.LVL349:
 2397              	.LBE86:
 2398              	.LBE85:
 2399              		.loc 1 584 0
 2400 00f2 0EF1010E 		add	lr, lr, #1
 2401              	.LVL350:
 2402 00f6 F145     		cmp	r9, lr
 2403              		.loc 1 603 0
 2404 00f8 02F1010C 		add	ip, r2, #1
 2405              	.LVL351:
 2406              		.loc 1 584 0
 2407 00fc 1BD0     		beq	.L444
 2408              	.LVL352:
 2409              	.LBB87:
 2410              	.LBB78:
 2411              		.loc 1 419 0
 2412 00fe 4FEADC05 		lsr	r5, ip, #3
 2413              	.LVL353:
 2414              		.loc 1 422 0
 2415 0102 AE42     		cmp	r6, r5
 2416              		.loc 1 420 0
 2417 0104 0CF00707 		and	r7, ip, #7
 2418              	.LVL354:
 2419              		.loc 1 422 0
 2420 0108 98D8     		bhi	.L365
 2421 010a C7E7     		b	.L379
 2422              	.LVL355:
 2423              	.L441:
 2424              		.loc 1 424 0
 2425 010c 0021     		movs	r1, #0
 2426 010e D4E7     		b	.L369
 2427              	.LVL356:
 2428              	.L442:
 2429              		.loc 1 441 0
 2430 0110 0121     		movs	r1, #1
 2431 0112 D2E7     		b	.L369
 2432              	.LVL357:
 2433              	.L399:
 2434 0114 0221     		movs	r1, #2
 2435 0116 D0E7     		b	.L369
 2436              	.LVL358:
 2437              	.L400:
 2438 0118 0321     		movs	r1, #3
 2439 011a CEE7     		b	.L369
 2440              	.LVL359:
 2441              	.L392:
 2442              		.loc 1 435 0
 2443 011c 0721     		movs	r1, #7
 2444 011e CCE7     		b	.L369
 2445              	.LVL360:
 2446              	.L368:
 2447              		.loc 1 430 0
 2448 0120 3B41     		asrs	r3, r3, r7
 2449              	.LVL361:
 2450 0122 DBB2     		uxtb	r3, r3
 2451              	.LVL362:
ARM GAS  C:\Users\mathi\AppData\Local\Temp\ccVwcWGw.s 			page 44


 2452              		.loc 1 435 0
 2453 0124 D907     		lsls	r1, r3, #31
 2454 0126 4ED4     		bmi	.L388
 2455              	.LVL363:
 2456              		.loc 1 434 0
 2457 0128 0299     		ldr	r1, [sp, #8]
 2458 012a 0829     		cmp	r1, #8
 2459 012c 4DD1     		bne	.L371
 2460              	.LVL364:
 2461              	.L437:
 2462              		.loc 1 423 0
 2463 012e 6A1C     		adds	r2, r5, #1
 2464              		.loc 1 422 0
 2465 0130 9642     		cmp	r6, r2
 2466 0132 8FD8     		bhi	.L367
 2467 0134 B2E7     		b	.L379
 2468              	.LVL365:
 2469              	.L444:
 2470 0136 DDE90630 		ldrd	r3, r0, [sp, #24]
 2471              	.LVL366:
 2472              	.L364:
 2473              	.LBE78:
 2474              	.LBE87:
 2475              		.loc 1 605 0
 2476 013a C3F800C0 		str	ip, [r3]
 2477              	.LVL367:
 2478              	.LBB88:
 2479              	.LBB89:
 2480              		.loc 1 541 0
 2481 013e 4246     		mov	r2, r8
 2482 0140 0623     		movs	r3, #6
 2483 0142 B021     		movs	r1, #176
 2484 0144 FFF7FEFF 		bl	VL53L0X_WriteMulti
 2485              	.LVL368:
 2486              	.LBE89:
 2487              	.LBE88:
 2488              		.loc 1 611 0
 2489 0148 0028     		cmp	r0, #0
 2490 014a ACD1     		bne	.L382
 2491              	.LVL369:
 2492              	.LBB90:
 2493              	.LBB91:
 2494              		.loc 1 549 0
 2495 014c 0798     		ldr	r0, [sp, #28]
 2496              	.LVL370:
 2497 014e 0623     		movs	r3, #6
 2498 0150 09AA     		add	r2, sp, #36
 2499              	.LVL371:
 2500 0152 B021     		movs	r1, #176
 2501 0154 FFF7FEFF 		bl	VL53L0X_ReadMulti
 2502              	.LVL372:
 2503              	.LBE91:
 2504              	.LBE90:
 2505              		.loc 1 617 0
 2506 0158 002E     		cmp	r6, #0
 2507 015a A4D0     		beq	.L382
 2508              		.loc 1 618 0
ARM GAS  C:\Users\mathi\AppData\Local\Temp\ccVwcWGw.s 			page 45


 2509 015c 98F80020 		ldrb	r2, [r8]	@ zero_extendqisi2
 2510 0160 9DF82430 		ldrb	r3, [sp, #36]	@ zero_extendqisi2
 2511 0164 9A42     		cmp	r2, r3
 2512 0166 2BD1     		bne	.L397
 2513              	.LVL373:
 2514              		.loc 1 617 0
 2515 0168 012E     		cmp	r6, #1
 2516 016a 9CD9     		bls	.L382
 2517              		.loc 1 618 0
 2518 016c 98F80120 		ldrb	r2, [r8, #1]	@ zero_extendqisi2
 2519 0170 9DF82530 		ldrb	r3, [sp, #37]	@ zero_extendqisi2
 2520 0174 9A42     		cmp	r2, r3
 2521 0176 23D1     		bne	.L397
 2522              	.LVL374:
 2523              		.loc 1 617 0
 2524 0178 022E     		cmp	r6, #2
 2525 017a 94D0     		beq	.L382
 2526              		.loc 1 618 0
 2527 017c 9DF82620 		ldrb	r2, [sp, #38]	@ zero_extendqisi2
 2528 0180 98F80230 		ldrb	r3, [r8, #2]	@ zero_extendqisi2
 2529 0184 9A42     		cmp	r2, r3
 2530 0186 1BD1     		bne	.L397
 2531              	.LVL375:
 2532              		.loc 1 617 0
 2533 0188 032E     		cmp	r6, #3
 2534 018a 8CD0     		beq	.L382
 2535              		.loc 1 618 0
 2536 018c 9DF82720 		ldrb	r2, [sp, #39]	@ zero_extendqisi2
 2537 0190 98F80330 		ldrb	r3, [r8, #3]	@ zero_extendqisi2
 2538 0194 9A42     		cmp	r2, r3
 2539 0196 13D1     		bne	.L397
 2540              	.LVL376:
 2541              		.loc 1 617 0
 2542 0198 042E     		cmp	r6, #4
 2543 019a 84D0     		beq	.L382
 2544              		.loc 1 618 0
 2545 019c 9DF82820 		ldrb	r2, [sp, #40]	@ zero_extendqisi2
 2546 01a0 98F80430 		ldrb	r3, [r8, #4]	@ zero_extendqisi2
 2547 01a4 9A42     		cmp	r2, r3
 2548 01a6 0BD1     		bne	.L397
 2549              	.LVL377:
 2550              		.loc 1 617 0
 2551 01a8 052E     		cmp	r6, #5
 2552 01aa 3FF47CAF 		beq	.L382
 2553              		.loc 1 618 0
 2554 01ae 98F80530 		ldrb	r3, [r8, #5]	@ zero_extendqisi2
 2555 01b2 9DF82920 		ldrb	r2, [sp, #41]	@ zero_extendqisi2
 2556              		.loc 1 619 0
 2557 01b6 9A42     		cmp	r2, r3
 2558 01b8 18BF     		it	ne
 2559 01ba 6FF03100 		mvnne	r0, #49
 2560 01be 72E7     		b	.L382
 2561              	.LVL378:
 2562              	.L397:
 2563 01c0 6FF03100 		mvn	r0, #49
 2564 01c4 6FE7     		b	.L382
 2565              	.LVL379:
ARM GAS  C:\Users\mathi\AppData\Local\Temp\ccVwcWGw.s 			page 46


 2566              	.L388:
 2567              	.LBB92:
 2568              	.LBB79:
 2569              		.loc 1 435 0
 2570 01c6 3946     		mov	r1, r7
 2571 01c8 77E7     		b	.L369
 2572              	.LVL380:
 2573              	.L371:
 2574 01ca 9807     		lsls	r0, r3, #30
 2575 01cc 3FF574AF 		bmi	.L389
 2576              	.LVL381:
 2577              		.loc 1 434 0
 2578 01d0 0399     		ldr	r1, [sp, #12]
 2579 01d2 0829     		cmp	r1, #8
 2580 01d4 ABD0     		beq	.L437
 2581              		.loc 1 435 0
 2582 01d6 5907     		lsls	r1, r3, #29
 2583 01d8 0ED4     		bmi	.L390
 2584              	.LVL382:
 2585              		.loc 1 441 0
 2586 01da 0498     		ldr	r0, [sp, #16]
 2587              		.loc 1 434 0
 2588 01dc 0828     		cmp	r0, #8
 2589              		.loc 1 441 0
 2590 01de 0146     		mov	r1, r0
 2591              	.LVL383:
 2592              		.loc 1 434 0
 2593 01e0 A5D0     		beq	.L437
 2594              	.LVL384:
 2595              		.loc 1 435 0
 2596 01e2 1807     		lsls	r0, r3, #28
 2597 01e4 3FF569AF 		bmi	.L369
 2598              	.LVL385:
 2599              		.loc 1 441 0
 2600 01e8 0598     		ldr	r0, [sp, #20]
 2601              		.loc 1 434 0
 2602 01ea 0828     		cmp	r0, #8
 2603              		.loc 1 441 0
 2604 01ec 0146     		mov	r1, r0
 2605              	.LVL386:
 2606              		.loc 1 434 0
 2607 01ee 9ED0     		beq	.L437
 2608 01f0 3846     		mov	r0, r7
 2609              	.LVL387:
 2610 01f2 3DE7     		b	.L375
 2611              	.LVL388:
 2612              	.L443:
 2613              	.LBE79:
 2614              	.LBE92:
 2615              		.loc 1 626 0
 2616 01f4 FFF7FEFF 		bl	__stack_chk_fail
 2617              	.LVL389:
 2618              	.L390:
 2619              	.LBB93:
 2620              	.LBB80:
 2621              		.loc 1 441 0
 2622 01f8 0399     		ldr	r1, [sp, #12]
ARM GAS  C:\Users\mathi\AppData\Local\Temp\ccVwcWGw.s 			page 47


 2623 01fa 5EE7     		b	.L369
 2624              	.L446:
 2625              		.align	2
 2626              	.L445:
 2627 01fc 00000000 		.word	__stack_chk_guard
 2628 0200 00000000 		.word	.LANCHOR0
 2629              	.LBE80:
 2630              	.LBE93:
 2631              		.cfi_endproc
 2632              	.LFE14:
 2633              		.size	enable_ref_spads, .-enable_ref_spads
 2634              		.section	.text.perform_ref_signal_measurement,"ax",%progbits
 2635              		.align	1
 2636              		.p2align 4,,15
 2637              		.global	perform_ref_signal_measurement
 2638              		.syntax unified
 2639              		.thumb
 2640              		.thumb_func
 2641              		.fpu fpv4-sp-d16
 2642              		.type	perform_ref_signal_measurement, %function
 2643              	perform_ref_signal_measurement:
 2644              	.LFB15:
 2645              		.loc 1 631 0
 2646              		.cfi_startproc
 2647              		@ args = 0, pretend = 0, frame = 32
 2648              		@ frame_needed = 0, uses_anonymous_args = 0
 2649              	.LVL390:
 2650 0000 F0B5     		push	{r4, r5, r6, r7, lr}
 2651              		.cfi_def_cfa_offset 20
 2652              		.cfi_offset 4, -20
 2653              		.cfi_offset 5, -16
 2654              		.cfi_offset 6, -12
 2655              		.cfi_offset 7, -8
 2656              		.cfi_offset 14, -4
 2657 0002 1D4D     		ldr	r5, .L453
 2658              		.loc 1 641 0
 2659 0004 90F83061 		ldrb	r6, [r0, #304]	@ zero_extendqisi2
 2660              		.loc 1 631 0
 2661 0008 2B68     		ldr	r3, [r5]
 2662 000a 89B0     		sub	sp, sp, #36
 2663              		.cfi_def_cfa_offset 56
 2664              		.loc 1 631 0
 2665 000c 0F46     		mov	r7, r1
 2666              		.loc 1 647 0
 2667 000e C022     		movs	r2, #192
 2668 0010 0121     		movs	r1, #1
 2669              	.LVL391:
 2670              		.loc 1 631 0
 2671 0012 0446     		mov	r4, r0
 2672 0014 0793     		str	r3, [sp, #28]
 2673              	.LVL392:
 2674              		.loc 1 647 0
 2675 0016 FFF7FEFF 		bl	VL53L0X_WrByte
 2676              	.LVL393:
 2677              		.loc 1 650 0
 2678 001a 28B1     		cbz	r0, .L451
 2679              	.L448:
ARM GAS  C:\Users\mathi\AppData\Local\Temp\ccVwcWGw.s 			page 48


 2680              		.loc 1 674 0
 2681 001c 079A     		ldr	r2, [sp, #28]
 2682 001e 2B68     		ldr	r3, [r5]
 2683 0020 9A42     		cmp	r2, r3
 2684 0022 26D1     		bne	.L452
 2685 0024 09B0     		add	sp, sp, #36
 2686              		.cfi_remember_state
 2687              		.cfi_def_cfa_offset 20
 2688              		@ sp needed
 2689 0026 F0BD     		pop	{r4, r5, r6, r7, pc}
 2690              	.LVL394:
 2691              	.L451:
 2692              		.cfi_restore_state
 2693              		.loc 1 651 0
 2694 0028 6946     		mov	r1, sp
 2695 002a 2046     		mov	r0, r4
 2696              	.LVL395:
 2697 002c FFF7FEFF 		bl	VL53L0X_PerformSingleRangingMeasurement
 2698              	.LVL396:
 2699              		.loc 1 654 0
 2700 0030 0028     		cmp	r0, #0
 2701 0032 F3D1     		bne	.L448
 2702              		.loc 1 655 0
 2703 0034 0122     		movs	r2, #1
 2704 0036 FF21     		movs	r1, #255
 2705 0038 2046     		mov	r0, r4
 2706              	.LVL397:
 2707 003a FFF7FEFF 		bl	VL53L0X_WrByte
 2708              	.LVL398:
 2709              		.loc 1 657 0
 2710 003e 0028     		cmp	r0, #0
 2711 0040 ECD1     		bne	.L448
 2712              		.loc 1 658 0
 2713 0042 3A46     		mov	r2, r7
 2714 0044 B621     		movs	r1, #182
 2715 0046 2046     		mov	r0, r4
 2716              	.LVL399:
 2717 0048 FFF7FEFF 		bl	VL53L0X_RdWord
 2718              	.LVL400:
 2719              		.loc 1 662 0
 2720 004c 0028     		cmp	r0, #0
 2721 004e E5D1     		bne	.L448
 2722              		.loc 1 663 0
 2723 0050 0246     		mov	r2, r0
 2724 0052 FF21     		movs	r1, #255
 2725 0054 2046     		mov	r0, r4
 2726              	.LVL401:
 2727 0056 FFF7FEFF 		bl	VL53L0X_WrByte
 2728              	.LVL402:
 2729              		.loc 1 665 0
 2730 005a 0028     		cmp	r0, #0
 2731 005c DED1     		bne	.L448
 2732              		.loc 1 667 0
 2733 005e 3246     		mov	r2, r6
 2734 0060 0121     		movs	r1, #1
 2735 0062 2046     		mov	r0, r4
 2736              	.LVL403:
ARM GAS  C:\Users\mathi\AppData\Local\Temp\ccVwcWGw.s 			page 49


 2737 0064 FFF7FEFF 		bl	VL53L0X_WrByte
 2738              	.LVL404:
 2739              		.loc 1 669 0
 2740 0068 0028     		cmp	r0, #0
 2741 006a D7D1     		bne	.L448
 2742              		.loc 1 670 0
 2743 006c 84F83061 		strb	r6, [r4, #304]
 2744 0070 D4E7     		b	.L448
 2745              	.L452:
 2746              		.loc 1 674 0
 2747 0072 FFF7FEFF 		bl	__stack_chk_fail
 2748              	.LVL405:
 2749              	.L454:
 2750 0076 00BF     		.align	2
 2751              	.L453:
 2752 0078 00000000 		.word	__stack_chk_guard
 2753              		.cfi_endproc
 2754              	.LFE15:
 2755              		.size	perform_ref_signal_measurement, .-perform_ref_signal_measurement
 2756              		.section	.text.VL53L0X_set_reference_spads,"ax",%progbits
 2757              		.align	1
 2758              		.p2align 4,,15
 2759              		.global	VL53L0X_set_reference_spads
 2760              		.syntax unified
 2761              		.thumb
 2762              		.thumb_func
 2763              		.fpu fpv4-sp-d16
 2764              		.type	VL53L0X_set_reference_spads, %function
 2765              	VL53L0X_set_reference_spads:
 2766              	.LFB17:
 2767              		.loc 1 945 0
 2768              		.cfi_startproc
 2769              		@ args = 0, pretend = 0, frame = 8
 2770              		@ frame_needed = 0, uses_anonymous_args = 0
 2771              	.LVL406:
 2772 0000 F0B5     		push	{r4, r5, r6, r7, lr}
 2773              		.cfi_def_cfa_offset 20
 2774              		.cfi_offset 4, -20
 2775              		.cfi_offset 5, -16
 2776              		.cfi_offset 6, -12
 2777              		.cfi_offset 7, -8
 2778              		.cfi_offset 14, -4
 2779 0002 2D4E     		ldr	r6, .L473
 2780 0004 87B0     		sub	sp, sp, #28
 2781              		.cfi_def_cfa_offset 48
 2782              		.loc 1 945 0
 2783 0006 0F46     		mov	r7, r1
 2784 0008 1546     		mov	r5, r2
 2785 000a 3368     		ldr	r3, [r6]
 2786 000c 0593     		str	r3, [sp, #20]
 2787              	.LVL407:
 2788              		.loc 1 961 0
 2789 000e 0122     		movs	r2, #1
 2790              	.LVL408:
 2791 0010 FF21     		movs	r1, #255
 2792              	.LVL409:
 2793              		.loc 1 945 0
ARM GAS  C:\Users\mathi\AppData\Local\Temp\ccVwcWGw.s 			page 50


 2794 0012 0446     		mov	r4, r0
 2795              		.loc 1 961 0
 2796 0014 FFF7FEFF 		bl	VL53L0X_WrByte
 2797              	.LVL410:
 2798              		.loc 1 963 0
 2799 0018 88B3     		cbz	r0, .L471
 2800              	.LVL411:
 2801              	.L457:
 2802              		.loc 1 980 0 discriminator 1
 2803 001a 0021     		movs	r1, #0
 2804 001c C4F82411 		str	r1, [r4, #292]
 2805 0020 A4F82811 		strh	r1, [r4, #296]	@ movhi
 2806              	.LVL412:
 2807              		.loc 1 982 0 discriminator 1
 2808 0024 4DB3     		cbz	r5, .L464
 2809              	.LVL413:
 2810              	.LBB94:
 2811              	.LBB95:
 2812              		.loc 1 456 0
 2813 0026 2548     		ldr	r0, .L473+4
 2814 0028 8368     		ldr	r3, [r0, #8]
 2815              	.LBE95:
 2816              	.LBE94:
 2817              		.loc 1 986 0
 2818 002a 0122     		movs	r2, #1
 2819              	.LBB99:
 2820              	.LBB96:
 2821              		.loc 1 456 0
 2822 002c E3B1     		cbz	r3, .L460
 2823              	.LVL414:
 2824              	.L459:
 2825              	.LBE96:
 2826              	.LBE99:
 2827              		.loc 1 989 0
 2828 002e 04AB     		add	r3, sp, #16
 2829 0030 CDE90017 		strd	r1, r7, [sp]
 2830 0034 0293     		str	r3, [sp, #8]
 2831 0036 04F59572 		add	r2, r4, #298
 2832 003a 04F59273 		add	r3, r4, #292
 2833 003e 2946     		mov	r1, r5
 2834              	.LVL415:
 2835 0040 2046     		mov	r0, r4
 2836 0042 FFF7FEFF 		bl	enable_ref_spads.constprop.1
 2837              	.LVL416:
 2838              		.loc 1 999 0
 2839 0046 30B9     		cbnz	r0, .L462
 2840              		.loc 1 1000 0
 2841 0048 0123     		movs	r3, #1
 2842              		.loc 1 1001 0
 2843 004a 84F81371 		strb	r7, [r4, #275]
 2844              		.loc 1 1003 0
 2845 004e 84F81451 		strb	r5, [r4, #276]
 2846              		.loc 1 1000 0
 2847 0052 84F81531 		strb	r3, [r4, #277]
 2848              	.L462:
 2849              		.loc 1 1008 0
 2850 0056 059A     		ldr	r2, [sp, #20]
ARM GAS  C:\Users\mathi\AppData\Local\Temp\ccVwcWGw.s 			page 51


 2851 0058 3368     		ldr	r3, [r6]
 2852 005a 9A42     		cmp	r2, r3
 2853 005c 2AD1     		bne	.L472
 2854 005e 07B0     		add	sp, sp, #28
 2855              		.cfi_remember_state
 2856              		.cfi_def_cfa_offset 20
 2857              		@ sp needed
 2858 0060 F0BD     		pop	{r4, r5, r6, r7, pc}
 2859              	.LVL417:
 2860              	.L461:
 2861              		.cfi_restore_state
 2862              		.loc 1 984 0
 2863 0062 2C29     		cmp	r1, #44
 2864 0064 0A46     		mov	r2, r1
 2865 0066 E2D0     		beq	.L459
 2866              	.LVL418:
 2867              	.L460:
 2868              	.LBB100:
 2869              	.LBB97:
 2870              		.loc 1 455 0
 2871 0068 02F1B503 		add	r3, r2, #181
 2872 006c 9B09     		lsrs	r3, r3, #6
 2873              	.LBE97:
 2874              	.LBE100:
 2875              		.loc 1 986 0
 2876 006e 511C     		adds	r1, r2, #1
 2877              	.LVL419:
 2878              	.LBB101:
 2879              	.LBB98:
 2880              		.loc 1 456 0
 2881 0070 50F82330 		ldr	r3, [r0, r3, lsl #2]
 2882 0074 002B     		cmp	r3, #0
 2883 0076 F4D0     		beq	.L461
 2884 0078 D9E7     		b	.L459
 2885              	.LVL420:
 2886              	.L464:
 2887              	.LBE98:
 2888              	.LBE101:
 2889              		.loc 1 947 0
 2890 007a 2946     		mov	r1, r5
 2891 007c D7E7     		b	.L459
 2892              	.LVL421:
 2893              	.L471:
 2894              		.loc 1 964 0
 2895 007e 0246     		mov	r2, r0
 2896 0080 4F21     		movs	r1, #79
 2897 0082 2046     		mov	r0, r4
 2898              	.LVL422:
 2899 0084 FFF7FEFF 		bl	VL53L0X_WrByte
 2900              	.LVL423:
 2901              		.loc 1 967 0
 2902 0088 0028     		cmp	r0, #0
 2903 008a C6D1     		bne	.L457
 2904              		.loc 1 968 0
 2905 008c 2C22     		movs	r2, #44
 2906 008e 4E21     		movs	r1, #78
 2907 0090 2046     		mov	r0, r4
ARM GAS  C:\Users\mathi\AppData\Local\Temp\ccVwcWGw.s 			page 52


 2908              	.LVL424:
 2909 0092 FFF7FEFF 		bl	VL53L0X_WrByte
 2910              	.LVL425:
 2911              		.loc 1 971 0
 2912 0096 0246     		mov	r2, r0
 2913 0098 0028     		cmp	r0, #0
 2914 009a BED1     		bne	.L457
 2915              		.loc 1 972 0
 2916 009c FF21     		movs	r1, #255
 2917 009e 2046     		mov	r0, r4
 2918              	.LVL426:
 2919 00a0 FFF7FEFF 		bl	VL53L0X_WrByte
 2920              	.LVL427:
 2921              		.loc 1 974 0
 2922 00a4 0028     		cmp	r0, #0
 2923 00a6 B8D1     		bne	.L457
 2924              		.loc 1 975 0
 2925 00a8 B422     		movs	r2, #180
 2926 00aa B621     		movs	r1, #182
 2927 00ac 2046     		mov	r0, r4
 2928              	.LVL428:
 2929 00ae FFF7FEFF 		bl	VL53L0X_WrByte
 2930              	.LVL429:
 2931 00b2 B2E7     		b	.L457
 2932              	.LVL430:
 2933              	.L472:
 2934              		.loc 1 1008 0
 2935 00b4 FFF7FEFF 		bl	__stack_chk_fail
 2936              	.LVL431:
 2937              	.L474:
 2938              		.align	2
 2939              	.L473:
 2940 00b8 00000000 		.word	__stack_chk_guard
 2941 00bc 00000000 		.word	.LANCHOR0
 2942              		.cfi_endproc
 2943              	.LFE17:
 2944              		.size	VL53L0X_set_reference_spads, .-VL53L0X_set_reference_spads
 2945              		.section	.text.VL53L0X_get_reference_spads,"ax",%progbits
 2946              		.align	1
 2947              		.p2align 4,,15
 2948              		.global	VL53L0X_get_reference_spads
 2949              		.syntax unified
 2950              		.thumb
 2951              		.thumb_func
 2952              		.fpu fpv4-sp-d16
 2953              		.type	VL53L0X_get_reference_spads, %function
 2954              	VL53L0X_get_reference_spads:
 2955              	.LFB18:
 2956              		.loc 1 1012 0
 2957              		.cfi_startproc
 2958              		@ args = 0, pretend = 0, frame = 32
 2959              		@ frame_needed = 0, uses_anonymous_args = 0
 2960              	.LVL432:
 2961 0000 2DE9F04F 		push	{r4, r5, r6, r7, r8, r9, r10, fp, lr}
 2962              		.cfi_def_cfa_offset 36
 2963              		.cfi_offset 4, -36
 2964              		.cfi_offset 5, -32
ARM GAS  C:\Users\mathi\AppData\Local\Temp\ccVwcWGw.s 			page 53


 2965              		.cfi_offset 6, -28
 2966              		.cfi_offset 7, -24
 2967              		.cfi_offset 8, -20
 2968              		.cfi_offset 9, -16
 2969              		.cfi_offset 10, -12
 2970              		.cfi_offset 11, -8
 2971              		.cfi_offset 14, -4
 2972 0004 DFF890B2 		ldr	fp, .L594
 2973              		.loc 1 1024 0
 2974 0008 90F81531 		ldrb	r3, [r0, #277]	@ zero_extendqisi2
 2975              		.loc 1 1012 0
 2976 000c DBF80050 		ldr	r5, [fp]
 2977 0010 89B0     		sub	sp, sp, #36
 2978              		.cfi_def_cfa_offset 72
 2979              		.loc 1 1024 0
 2980 0012 012B     		cmp	r3, #1
 2981              		.loc 1 1012 0
 2982 0014 0446     		mov	r4, r0
 2983 0016 0795     		str	r5, [sp, #28]
 2984              	.LVL433:
 2985 0018 CDE90012 		strd	r1, r2, [sp]
 2986              		.loc 1 1024 0
 2987 001c 0ED0     		beq	.L583
 2988              	.LVL434:
 2989              	.LBB106:
 2990              	.LBB107:
 2991              		.loc 1 549 0
 2992 001e 05AA     		add	r2, sp, #20
 2993              	.LVL435:
 2994 0020 0623     		movs	r3, #6
 2995 0022 B021     		movs	r1, #176
 2996              	.LVL436:
 2997 0024 FFF7FEFF 		bl	VL53L0X_ReadMulti
 2998              	.LVL437:
 2999              	.LBE107:
 3000              	.LBE106:
 3001              		.loc 1 1035 0
 3002 0028 80B1     		cbz	r0, .L584
 3003              	.LVL438:
 3004              	.L477:
 3005              		.loc 1 1062 0
 3006 002a 079A     		ldr	r2, [sp, #28]
 3007 002c DBF80030 		ldr	r3, [fp]
 3008 0030 9A42     		cmp	r2, r3
 3009 0032 40F02E81 		bne	.L585
 3010 0036 09B0     		add	sp, sp, #36
 3011              		.cfi_remember_state
 3012              		.cfi_def_cfa_offset 36
 3013              	.LVL439:
 3014              		@ sp needed
 3015 0038 BDE8F08F 		pop	{r4, r5, r6, r7, r8, r9, r10, fp, pc}
 3016              	.LVL440:
 3017              	.L583:
 3018              		.cfi_restore_state
 3019              		.loc 1 1026 0
 3020 003c 90F81331 		ldrb	r3, [r0, #275]	@ zero_extendqisi2
 3021 0040 0B60     		str	r3, [r1]
ARM GAS  C:\Users\mathi\AppData\Local\Temp\ccVwcWGw.s 			page 54


 3022              	.LVL441:
 3023              		.loc 1 1028 0
 3024 0042 90F81431 		ldrb	r3, [r0, #276]	@ zero_extendqisi2
 3025 0046 1370     		strb	r3, [r2]
 3026              		.loc 1 1013 0
 3027 0048 0020     		movs	r0, #0
 3028              	.LVL442:
 3029 004a EEE7     		b	.L477
 3030              	.LVL443:
 3031              	.L584:
 3032              	.LBB108:
 3033              	.LBB109:
 3034              		.loc 1 508 0
 3035 004c CDE90204 		strd	r0, r4, [sp, #8]
 3036 0050 0DF11409 		add	r9, sp, #20
 3037              		.loc 1 505 0
 3038 0054 0246     		mov	r2, r0
 3039              		.loc 1 492 0
 3040 0056 0546     		mov	r5, r0
 3041              		.loc 1 508 0
 3042 0058 0146     		mov	r1, r0
 3043 005a 8246     		mov	r10, r0
 3044              	.LVL444:
 3045              	.L507:
 3046              		.loc 1 509 0
 3047 005c 19F8013B 		ldrb	r3, [r9], #1	@ zero_extendqisi2
 3048              	.LVL445:
 3049 0060 03F00207 		and	r7, r3, #2
 3050 0064 03F00406 		and	r6, r3, #4
 3051 0068 03F0080E 		and	lr, r3, #8
 3052 006c 03F0100C 		and	ip, r3, #16
 3053 0070 03F02008 		and	r8, r3, #32
 3054 0074 03F04004 		and	r4, r3, #64
 3055 0078 D809     		lsrs	r0, r3, #7
 3056              		.loc 1 512 0
 3057 007a DB07     		lsls	r3, r3, #31
 3058              	.LVL446:
 3059 007c 34D5     		bpl	.L478
 3060              		.loc 1 513 0
 3061 007e 531C     		adds	r3, r2, #1
 3062              	.LVL447:
 3063              		.loc 1 515 0
 3064 0080 002D     		cmp	r5, #0
 3065 0082 5AD1     		bne	.L479
 3066              	.LVL448:
 3067              		.loc 1 517 0
 3068 0084 0129     		cmp	r1, #1
 3069 0086 40F2BB80 		bls	.L480
 3070              	.LVL449:
 3071              		.loc 1 512 0
 3072 008a 002F     		cmp	r7, #0
 3073 008c 00F09480 		beq	.L538
 3074              		.loc 1 513 0
 3075 0090 931C     		adds	r3, r2, #2
 3076              	.LVL450:
 3077              		.loc 1 516 0
 3078 0092 4FF0010A 		mov	r10, #1
ARM GAS  C:\Users\mathi\AppData\Local\Temp\ccVwcWGw.s 			page 55


 3079              	.LVL451:
 3080              	.L481:
 3081              		.loc 1 512 0
 3082 0096 002E     		cmp	r6, #0
 3083 0098 53D1     		bne	.L586
 3084              	.LVL452:
 3085              	.L563:
 3086 009a BEF1000F 		cmp	lr, #0
 3087 009e 7BD0     		beq	.L489
 3088              	.LVL453:
 3089              	.L513:
 3090              		.loc 1 513 0
 3091 00a0 0133     		adds	r3, r3, #1
 3092              	.LVL454:
 3093              	.L488:
 3094              		.loc 1 512 0
 3095 00a2 BCF1000F 		cmp	ip, #0
 3096 00a6 30D1     		bne	.L524
 3097              	.LVL455:
 3098 00a8 B8F1000F 		cmp	r8, #0
 3099 00ac 00D0     		beq	.L497
 3100              	.LVL456:
 3101              	.L526:
 3102              		.loc 1 513 0
 3103 00ae 0133     		adds	r3, r3, #1
 3104              	.LVL457:
 3105              	.L497:
 3106              		.loc 1 512 0
 3107 00b0 84BB     		cbnz	r4, .L533
 3108              	.LVL458:
 3109 00b2 0028     		cmp	r0, #0
 3110 00b4 5BD0     		beq	.L575
 3111              	.LVL459:
 3112              	.L535:
 3113              		.loc 1 513 0
 3114 00b6 5A1C     		adds	r2, r3, #1
 3115              	.LVL460:
 3116              	.L576:
 3117              		.loc 1 512 0
 3118 00b8 0125     		movs	r5, #1
 3119              	.L505:
 3120              	.LVL461:
 3121              		.loc 1 508 0
 3122 00ba 0131     		adds	r1, r1, #1
 3123              	.LVL462:
 3124 00bc 0529     		cmp	r1, #5
 3125 00be CDD1     		bne	.L507
 3126              	.LVL463:
 3127 00c0 9DF81930 		ldrb	r3, [sp, #25]	@ zero_extendqisi2
 3128              	.LBE109:
 3129              	.LBE108:
 3130              		.loc 1 1047 0
 3131 00c4 0099     		ldr	r1, [sp]
 3132              	.LVL464:
 3133 00c6 DB07     		lsls	r3, r3, #31
 3134              	.LVL465:
 3135 00c8 DDE90204 		ldrd	r0, r4, [sp, #8]
ARM GAS  C:\Users\mathi\AppData\Local\Temp\ccVwcWGw.s 			page 56


 3136 00cc 48BF     		it	mi
 3137 00ce 0532     		addmi	r2, r2, #5
 3138              	.LVL466:
 3139 00d0 0A60     		str	r2, [r1]
 3140              		.loc 1 1048 0
 3141 00d2 0199     		ldr	r1, [sp, #4]
 3142              		.loc 1 1050 0
 3143 00d4 0123     		movs	r3, #1
 3144              		.loc 1 1048 0
 3145 00d6 81F800A0 		strb	r10, [r1]
 3146              		.loc 1 1052 0
 3147 00da 84F81321 		strb	r2, [r4, #275]
 3148              		.loc 1 1055 0
 3149 00de 84F814A1 		strb	r10, [r4, #276]
 3150              		.loc 1 1050 0
 3151 00e2 84F81531 		strb	r3, [r4, #277]
 3152 00e6 A0E7     		b	.L477
 3153              	.LVL467:
 3154              	.L478:
 3155              	.LBB111:
 3156              	.LBB110:
 3157              		.loc 1 512 0
 3158 00e8 D7B1     		cbz	r7, .L482
 3159              		.loc 1 513 0
 3160 00ea 531C     		adds	r3, r2, #1
 3161              	.LVL468:
 3162              		.loc 1 515 0
 3163 00ec 002D     		cmp	r5, #0
 3164 00ee D2D1     		bne	.L481
 3165              	.LVL469:
 3166              		.loc 1 517 0
 3167 00f0 0129     		cmp	r1, #1
 3168 00f2 7BD9     		bls	.L587
 3169              	.LVL470:
 3170              		.loc 1 512 0
 3171 00f4 002E     		cmp	r6, #0
 3172 00f6 56D0     		beq	.L541
 3173              		.loc 1 513 0
 3174 00f8 931C     		adds	r3, r2, #2
 3175              	.LVL471:
 3176              		.loc 1 516 0
 3177 00fa 4FF0010A 		mov	r10, #1
 3178              	.LVL472:
 3179              	.L484:
 3180              		.loc 1 512 0
 3181 00fe BEF1000F 		cmp	lr, #0
 3182 0102 CDD1     		bne	.L513
 3183              	.LVL473:
 3184 0104 BCF1000F 		cmp	ip, #0
 3185 0108 00D0     		beq	.L493
 3186              	.LVL474:
 3187              	.L524:
 3188              		.loc 1 513 0
 3189 010a 0133     		adds	r3, r3, #1
 3190              	.LVL475:
 3191              	.L493:
 3192              		.loc 1 512 0
ARM GAS  C:\Users\mathi\AppData\Local\Temp\ccVwcWGw.s 			page 57


 3193 010c B8F1000F 		cmp	r8, #0
 3194 0110 CDD1     		bne	.L526
 3195              	.LVL476:
 3196              	.L498:
 3197 0112 54B3     		cbz	r4, .L588
 3198              	.LVL477:
 3199              	.L533:
 3200              		.loc 1 513 0
 3201 0114 5A1C     		adds	r2, r3, #1
 3202              	.LVL478:
 3203              	.L500:
 3204              		.loc 1 512 0
 3205 0116 0028     		cmp	r0, #0
 3206 0118 CED0     		beq	.L576
 3207              		.loc 1 513 0
 3208 011a 0132     		adds	r2, r2, #1
 3209              	.LVL479:
 3210 011c 0125     		movs	r5, #1
 3211 011e CCE7     		b	.L505
 3212              	.LVL480:
 3213              	.L482:
 3214              		.loc 1 512 0
 3215 0120 8EB1     		cbz	r6, .L486
 3216              		.loc 1 513 0
 3217 0122 531C     		adds	r3, r2, #1
 3218              	.LVL481:
 3219              		.loc 1 515 0
 3220 0124 002D     		cmp	r5, #0
 3221 0126 EAD1     		bne	.L484
 3222              	.LVL482:
 3223              		.loc 1 517 0
 3224 0128 0129     		cmp	r1, #1
 3225 012a 63D9     		bls	.L589
 3226              	.LVL483:
 3227              		.loc 1 512 0
 3228 012c BEF1000F 		cmp	lr, #0
 3229 0130 45D0     		beq	.L543
 3230              		.loc 1 513 0
 3231 0132 931C     		adds	r3, r2, #2
 3232              	.LVL484:
 3233              		.loc 1 516 0
 3234 0134 4FF0010A 		mov	r10, #1
 3235 0138 B3E7     		b	.L488
 3236              	.LVL485:
 3237              	.L479:
 3238              		.loc 1 512 0
 3239 013a D7B1     		cbz	r7, .L590
 3240              		.loc 1 513 0
 3241 013c 931C     		adds	r3, r2, #2
 3242              	.LVL486:
 3243              		.loc 1 512 0
 3244 013e 002E     		cmp	r6, #0
 3245 0140 ABD0     		beq	.L563
 3246              	.LVL487:
 3247              	.L586:
 3248              		.loc 1 513 0
 3249 0142 0133     		adds	r3, r3, #1
ARM GAS  C:\Users\mathi\AppData\Local\Temp\ccVwcWGw.s 			page 58


 3250              	.LVL488:
 3251 0144 DBE7     		b	.L484
 3252              	.LVL489:
 3253              	.L486:
 3254              		.loc 1 512 0
 3255 0146 BEF1000F 		cmp	lr, #0
 3256 014a 15D0     		beq	.L490
 3257              		.loc 1 513 0
 3258 014c 531C     		adds	r3, r2, #1
 3259              	.LVL490:
 3260              		.loc 1 515 0
 3261 014e 002D     		cmp	r5, #0
 3262 0150 A7D1     		bne	.L488
 3263              	.LVL491:
 3264              		.loc 1 517 0
 3265 0152 0129     		cmp	r1, #1
 3266 0154 41D9     		bls	.L591
 3267              	.LVL492:
 3268              		.loc 1 512 0
 3269 0156 BCF1000F 		cmp	ip, #0
 3270 015a 27D0     		beq	.L545
 3271              		.loc 1 513 0
 3272 015c 931C     		adds	r3, r2, #2
 3273              	.LVL493:
 3274              		.loc 1 516 0
 3275 015e 4FF0010A 		mov	r10, #1
 3276              	.LVL494:
 3277              		.loc 1 512 0
 3278 0162 B8F1000F 		cmp	r8, #0
 3279 0166 D4D0     		beq	.L498
 3280 0168 A1E7     		b	.L526
 3281              	.LVL495:
 3282              	.L588:
 3283 016a 0028     		cmp	r0, #0
 3284 016c A3D1     		bne	.L535
 3285              	.LVL496:
 3286              	.L575:
 3287 016e 1A46     		mov	r2, r3
 3288 0170 A2E7     		b	.L576
 3289              	.LVL497:
 3290              	.L590:
 3291 0172 3EB3     		cbz	r6, .L485
 3292              		.loc 1 513 0
 3293 0174 931C     		adds	r3, r2, #2
 3294              	.LVL498:
 3295 0176 C2E7     		b	.L484
 3296              	.LVL499:
 3297              	.L490:
 3298              		.loc 1 512 0
 3299 0178 BCF1000F 		cmp	ip, #0
 3300 017c 44D0     		beq	.L495
 3301              		.loc 1 513 0
 3302 017e 531C     		adds	r3, r2, #1
 3303              	.LVL500:
 3304              		.loc 1 515 0
 3305 0180 002D     		cmp	r5, #0
 3306 0182 C3D1     		bne	.L493
ARM GAS  C:\Users\mathi\AppData\Local\Temp\ccVwcWGw.s 			page 59


 3307              	.LVL501:
 3308              		.loc 1 512 0
 3309 0184 B8F1000F 		cmp	r8, #0
 3310 0188 03D0     		beq	.L546
 3311              		.loc 1 513 0
 3312 018a 931C     		adds	r3, r2, #2
 3313              	.LVL502:
 3314              		.loc 1 516 0
 3315 018c 4FF0010A 		mov	r10, #1
 3316 0190 8EE7     		b	.L497
 3317              	.L546:
 3318 0192 4FF0010A 		mov	r10, #1
 3319 0196 8BE7     		b	.L497
 3320              	.LVL503:
 3321              	.L489:
 3322              		.loc 1 512 0
 3323 0198 BCF1000F 		cmp	ip, #0
 3324 019c B5D1     		bne	.L524
 3325              	.LVL504:
 3326 019e B8F1000F 		cmp	r8, #0
 3327 01a2 84D1     		bne	.L526
 3328 01a4 B5E7     		b	.L498
 3329              	.LVL505:
 3330              	.L541:
 3331              		.loc 1 516 0
 3332 01a6 4FF0010A 		mov	r10, #1
 3333 01aa A8E7     		b	.L484
 3334              	.LVL506:
 3335              	.L545:
 3336 01ac 4FF0010A 		mov	r10, #1
 3337              	.LVL507:
 3338              		.loc 1 512 0
 3339 01b0 B8F1000F 		cmp	r8, #0
 3340 01b4 ADD0     		beq	.L498
 3341 01b6 7AE7     		b	.L526
 3342              	.LVL508:
 3343              	.L538:
 3344              		.loc 1 516 0
 3345 01b8 4FF0010A 		mov	r10, #1
 3346 01bc 6BE7     		b	.L481
 3347              	.LVL509:
 3348              	.L543:
 3349 01be 4FF0010A 		mov	r10, #1
 3350 01c2 6EE7     		b	.L488
 3351              	.LVL510:
 3352              	.L485:
 3353              		.loc 1 512 0
 3354 01c4 BEF1000F 		cmp	lr, #0
 3355 01c8 61D1     		bne	.L592
 3356              	.LVL511:
 3357 01ca BCF1000F 		cmp	ip, #0
 3358 01ce 37D0     		beq	.L494
 3359              		.loc 1 513 0
 3360 01d0 931C     		adds	r3, r2, #2
 3361              	.LVL512:
 3362              		.loc 1 512 0
 3363 01d2 B8F1000F 		cmp	r8, #0
ARM GAS  C:\Users\mathi\AppData\Local\Temp\ccVwcWGw.s 			page 60


 3364 01d6 9CD0     		beq	.L498
 3365 01d8 69E7     		b	.L526
 3366              	.LVL513:
 3367              	.L591:
 3368 01da BCF1000F 		cmp	ip, #0
 3369 01de 25D0     		beq	.L544
 3370              		.loc 1 513 0
 3371 01e0 931C     		adds	r3, r2, #2
 3372              	.LVL514:
 3373              		.loc 1 518 0
 3374 01e2 AA46     		mov	r10, r5
 3375              	.LVL515:
 3376              		.loc 1 512 0
 3377 01e4 B8F1000F 		cmp	r8, #0
 3378 01e8 93D0     		beq	.L498
 3379 01ea 60E7     		b	.L526
 3380              	.LVL516:
 3381              	.L587:
 3382 01ec 26B3     		cbz	r6, .L540
 3383              		.loc 1 513 0
 3384 01ee 931C     		adds	r3, r2, #2
 3385              	.LVL517:
 3386              		.loc 1 518 0
 3387 01f0 AA46     		mov	r10, r5
 3388 01f2 84E7     		b	.L484
 3389              	.LVL518:
 3390              	.L589:
 3391              		.loc 1 512 0
 3392 01f4 BEF1000F 		cmp	lr, #0
 3393 01f8 20D0     		beq	.L542
 3394              		.loc 1 513 0
 3395 01fa 931C     		adds	r3, r2, #2
 3396              	.LVL519:
 3397              		.loc 1 518 0
 3398 01fc AA46     		mov	r10, r5
 3399 01fe 50E7     		b	.L488
 3400              	.LVL520:
 3401              	.L480:
 3402              		.loc 1 512 0
 3403 0200 97B1     		cbz	r7, .L539
 3404              		.loc 1 513 0
 3405 0202 931C     		adds	r3, r2, #2
 3406              	.LVL521:
 3407              		.loc 1 518 0
 3408 0204 AA46     		mov	r10, r5
 3409 0206 46E7     		b	.L481
 3410              	.LVL522:
 3411              	.L495:
 3412              		.loc 1 512 0
 3413 0208 B8F1000F 		cmp	r8, #0
 3414 020c 1ED0     		beq	.L499
 3415              		.loc 1 513 0
 3416 020e 531C     		adds	r3, r2, #1
 3417              	.LVL523:
 3418              		.loc 1 515 0
 3419 0210 002D     		cmp	r5, #0
 3420 0212 7FF44DAF 		bne	.L497
ARM GAS  C:\Users\mathi\AppData\Local\Temp\ccVwcWGw.s 			page 61


 3421              	.LVL524:
 3422              		.loc 1 512 0
 3423 0216 1CB1     		cbz	r4, .L547
 3424              		.loc 1 513 0
 3425 0218 0232     		adds	r2, r2, #2
 3426              	.LVL525:
 3427              		.loc 1 516 0
 3428 021a 4FF0010A 		mov	r10, #1
 3429 021e 7AE7     		b	.L500
 3430              	.LVL526:
 3431              	.L547:
 3432              		.loc 1 513 0
 3433 0220 1A46     		mov	r2, r3
 3434              		.loc 1 516 0
 3435 0222 4FF0010A 		mov	r10, #1
 3436 0226 76E7     		b	.L500
 3437              	.LVL527:
 3438              	.L539:
 3439              		.loc 1 518 0
 3440 0228 AA46     		mov	r10, r5
 3441 022a 34E7     		b	.L481
 3442              	.LVL528:
 3443              	.L544:
 3444 022c AA46     		mov	r10, r5
 3445              	.LVL529:
 3446              		.loc 1 512 0
 3447 022e B8F1000F 		cmp	r8, #0
 3448 0232 3FF46EAF 		beq	.L498
 3449 0236 3AE7     		b	.L526
 3450              	.LVL530:
 3451              	.L540:
 3452              		.loc 1 518 0
 3453 0238 AA46     		mov	r10, r5
 3454 023a 60E7     		b	.L484
 3455              	.LVL531:
 3456              	.L542:
 3457 023c AA46     		mov	r10, r5
 3458 023e 30E7     		b	.L488
 3459              	.LVL532:
 3460              	.L494:
 3461              		.loc 1 512 0
 3462 0240 B8F1000F 		cmp	r8, #0
 3463 0244 21D1     		bne	.L593
 3464              	.LVL533:
 3465 0246 D4B1     		cbz	r4, .L503
 3466              		.loc 1 513 0
 3467 0248 0232     		adds	r2, r2, #2
 3468              	.LVL534:
 3469 024a 64E7     		b	.L500
 3470              	.LVL535:
 3471              	.L499:
 3472              		.loc 1 512 0
 3473 024c 54B1     		cbz	r4, .L504
 3474              		.loc 1 513 0
 3475 024e 531C     		adds	r3, r2, #1
 3476              	.LVL536:
 3477              		.loc 1 515 0
ARM GAS  C:\Users\mathi\AppData\Local\Temp\ccVwcWGw.s 			page 62


 3478 0250 9DB9     		cbnz	r5, .L548
 3479              	.LVL537:
 3480              		.loc 1 516 0
 3481 0252 4FF0010A 		mov	r10, #1
 3482              		.loc 1 512 0
 3483 0256 10B1     		cbz	r0, .L549
 3484              		.loc 1 513 0
 3485 0258 0232     		adds	r2, r2, #2
 3486              	.LVL538:
 3487              		.loc 1 519 0
 3488 025a 5546     		mov	r5, r10
 3489 025c 2DE7     		b	.L505
 3490              	.LVL539:
 3491              	.L549:
 3492              		.loc 1 513 0
 3493 025e 1A46     		mov	r2, r3
 3494              		.loc 1 519 0
 3495 0260 5546     		mov	r5, r10
 3496 0262 2AE7     		b	.L505
 3497              	.LVL540:
 3498              	.L504:
 3499              		.loc 1 512 0
 3500 0264 0028     		cmp	r0, #0
 3501 0266 3FF428AF 		beq	.L505
 3502              		.loc 1 513 0
 3503 026a 0132     		adds	r2, r2, #1
 3504              	.LVL541:
 3505              		.loc 1 515 0
 3506 026c 002D     		cmp	r5, #0
 3507 026e 7FF423AF 		bne	.L576
 3508              		.loc 1 516 0
 3509 0272 4FF0010A 		mov	r10, #1
 3510              		.loc 1 519 0
 3511 0276 5546     		mov	r5, r10
 3512              	.LVL542:
 3513 0278 1FE7     		b	.L505
 3514              	.LVL543:
 3515              	.L548:
 3516              		.loc 1 513 0
 3517 027a 1A46     		mov	r2, r3
 3518 027c 4BE7     		b	.L500
 3519              	.LVL544:
 3520              	.L503:
 3521 027e 0232     		adds	r2, r2, #2
 3522              		.loc 1 512 0
 3523 0280 0028     		cmp	r0, #0
 3524 0282 7FF419AF 		bne	.L576
 3525              		.loc 1 513 0
 3526 0286 1A46     		mov	r2, r3
 3527 0288 17E7     		b	.L505
 3528              	.LVL545:
 3529              	.L593:
 3530 028a 931C     		adds	r3, r2, #2
 3531              	.LVL546:
 3532 028c 10E7     		b	.L497
 3533              	.LVL547:
 3534              	.L592:
ARM GAS  C:\Users\mathi\AppData\Local\Temp\ccVwcWGw.s 			page 63


 3535 028e 931C     		adds	r3, r2, #2
 3536              	.LVL548:
 3537 0290 07E7     		b	.L488
 3538              	.LVL549:
 3539              	.L585:
 3540              	.LBE110:
 3541              	.LBE111:
 3542              		.loc 1 1062 0
 3543 0292 FFF7FEFF 		bl	__stack_chk_fail
 3544              	.LVL550:
 3545              	.L595:
 3546 0296 00BF     		.align	2
 3547              	.L594:
 3548 0298 00000000 		.word	__stack_chk_guard
 3549              		.cfi_endproc
 3550              	.LFE18:
 3551              		.size	VL53L0X_get_reference_spads, .-VL53L0X_get_reference_spads
 3552              		.section	.text.VL53L0X_perform_single_ref_calibration,"ax",%progbits
 3553              		.align	1
 3554              		.p2align 4,,15
 3555              		.global	VL53L0X_perform_single_ref_calibration
 3556              		.syntax unified
 3557              		.thumb
 3558              		.thumb_func
 3559              		.fpu fpv4-sp-d16
 3560              		.type	VL53L0X_perform_single_ref_calibration, %function
 3561              	VL53L0X_perform_single_ref_calibration:
 3562              	.LFB19:
 3563              		.loc 1 1067 0
 3564              		.cfi_startproc
 3565              		@ args = 0, pretend = 0, frame = 8
 3566              		@ frame_needed = 0, uses_anonymous_args = 0
 3567              	.LVL551:
 3568 0000 30B5     		push	{r4, r5, lr}
 3569              		.cfi_def_cfa_offset 12
 3570              		.cfi_offset 4, -12
 3571              		.cfi_offset 5, -8
 3572              		.cfi_offset 14, -4
 3573 0002 164C     		ldr	r4, .L603
 3574 0004 83B0     		sub	sp, sp, #12
 3575              		.cfi_def_cfa_offset 24
 3576              		.loc 1 1071 0
 3577 0006 41F00102 		orr	r2, r1, #1
 3578              		.loc 1 1067 0
 3579 000a 2368     		ldr	r3, [r4]
 3580 000c 0193     		str	r3, [sp, #4]
 3581              		.loc 1 1071 0
 3582 000e 0021     		movs	r1, #0
 3583              	.LVL552:
 3584              		.loc 1 1067 0
 3585 0010 0546     		mov	r5, r0
 3586              	.LVL553:
 3587              		.loc 1 1071 0
 3588 0012 FFF7FEFF 		bl	VL53L0X_WrByte
 3589              	.LVL554:
 3590              		.loc 1 1075 0
 3591 0016 0246     		mov	r2, r0
ARM GAS  C:\Users\mathi\AppData\Local\Temp\ccVwcWGw.s 			page 64


 3592 0018 30B1     		cbz	r0, .L602
 3593              	.L597:
 3594              	.LVL555:
 3595              		.loc 1 1085 0
 3596 001a 0199     		ldr	r1, [sp, #4]
 3597 001c 2368     		ldr	r3, [r4]
 3598 001e 9942     		cmp	r1, r3
 3599 0020 1046     		mov	r0, r2
 3600 0022 19D1     		bne	.L601
 3601 0024 03B0     		add	sp, sp, #12
 3602              		.cfi_remember_state
 3603              		.cfi_def_cfa_offset 12
 3604              		@ sp needed
 3605 0026 30BD     		pop	{r4, r5, pc}
 3606              	.LVL556:
 3607              	.L602:
 3608              		.cfi_restore_state
 3609              		.loc 1 1076 0
 3610 0028 2846     		mov	r0, r5
 3611              	.LVL557:
 3612 002a FFF7FEFF 		bl	VL53L0X_measurement_poll_for_completion
 3613              	.LVL558:
 3614              		.loc 1 1078 0
 3615 002e 0246     		mov	r2, r0
 3616 0030 0028     		cmp	r0, #0
 3617 0032 F2D1     		bne	.L597
 3618              		.loc 1 1079 0
 3619 0034 0146     		mov	r1, r0
 3620 0036 2846     		mov	r0, r5
 3621              	.LVL559:
 3622 0038 FFF7FEFF 		bl	VL53L0X_ClearInterruptMask
 3623              	.LVL560:
 3624              		.loc 1 1081 0
 3625 003c 0246     		mov	r2, r0
 3626 003e 0028     		cmp	r0, #0
 3627 0040 EBD1     		bne	.L597
 3628              	.LVL561:
 3629              	.LBB114:
 3630              	.LBB115:
 3631              		.loc 1 1082 0
 3632 0042 0199     		ldr	r1, [sp, #4]
 3633 0044 2368     		ldr	r3, [r4]
 3634 0046 9942     		cmp	r1, r3
 3635 0048 06D1     		bne	.L601
 3636 004a 2846     		mov	r0, r5
 3637              	.LVL562:
 3638 004c 1146     		mov	r1, r2
 3639              	.LBE115:
 3640              	.LBE114:
 3641              		.loc 1 1085 0
 3642 004e 03B0     		add	sp, sp, #12
 3643              		.cfi_remember_state
 3644              		.cfi_def_cfa_offset 12
 3645              		@ sp needed
 3646 0050 BDE83040 		pop	{r4, r5, lr}
 3647              		.cfi_restore 14
 3648              		.cfi_restore 5
ARM GAS  C:\Users\mathi\AppData\Local\Temp\ccVwcWGw.s 			page 65


 3649              		.cfi_restore 4
 3650              		.cfi_def_cfa_offset 0
 3651              	.LVL563:
 3652              	.LBB117:
 3653              	.LBB116:
 3654              		.loc 1 1082 0
 3655 0054 FFF7FEBF 		b	VL53L0X_WrByte
 3656              	.LVL564:
 3657              	.L601:
 3658              		.cfi_restore_state
 3659              	.LBE116:
 3660              	.LBE117:
 3661              		.loc 1 1085 0
 3662 0058 FFF7FEFF 		bl	__stack_chk_fail
 3663              	.LVL565:
 3664              	.L604:
 3665              		.align	2
 3666              	.L603:
 3667 005c 00000000 		.word	__stack_chk_guard
 3668              		.cfi_endproc
 3669              	.LFE19:
 3670              		.size	VL53L0X_perform_single_ref_calibration, .-VL53L0X_perform_single_ref_calibration
 3671              		.section	.text.VL53L0X_ref_calibration_io,"ax",%progbits
 3672              		.align	1
 3673              		.p2align 4,,15
 3674              		.global	VL53L0X_ref_calibration_io
 3675              		.syntax unified
 3676              		.thumb
 3677              		.thumb_func
 3678              		.fpu fpv4-sp-d16
 3679              		.type	VL53L0X_ref_calibration_io, %function
 3680              	VL53L0X_ref_calibration_io:
 3681              	.LFB20:
 3682              		.loc 1 1092 0
 3683              		.cfi_startproc
 3684              		@ args = 16, pretend = 0, frame = 24
 3685              		@ frame_needed = 0, uses_anonymous_args = 0
 3686              	.LVL566:
 3687 0000 2DE9F04F 		push	{r4, r5, r6, r7, r8, r9, r10, fp, lr}
 3688              		.cfi_def_cfa_offset 36
 3689              		.cfi_offset 4, -36
 3690              		.cfi_offset 5, -32
 3691              		.cfi_offset 6, -28
 3692              		.cfi_offset 7, -24
 3693              		.cfi_offset 8, -20
 3694              		.cfi_offset 9, -16
 3695              		.cfi_offset 10, -12
 3696              		.cfi_offset 11, -8
 3697              		.cfi_offset 14, -4
 3698 0004 87B0     		sub	sp, sp, #28
 3699              		.cfi_def_cfa_offset 64
 3700              		.loc 1 1092 0
 3701 0006 3F4F     		ldr	r7, .L629
 3702 0008 109C     		ldr	r4, [sp, #64]
 3703 000a 0394     		str	r4, [sp, #12]
 3704              		.loc 1 1094 0
 3705 000c 0026     		movs	r6, #0
ARM GAS  C:\Users\mathi\AppData\Local\Temp\ccVwcWGw.s 			page 66


 3706              		.loc 1 1092 0
 3707 000e 3C68     		ldr	r4, [r7]
 3708 0010 0292     		str	r2, [sp, #8]
 3709 0012 8A46     		mov	r10, r1
 3710              		.loc 1 1097 0
 3711 0014 0122     		movs	r2, #1
 3712              	.LVL567:
 3713 0016 FF21     		movs	r1, #255
 3714              	.LVL568:
 3715              		.loc 1 1092 0
 3716 0018 0546     		mov	r5, r0
 3717 001a 0193     		str	r3, [sp, #4]
 3718 001c 0594     		str	r4, [sp, #20]
 3719              	.LVL569:
 3720              		.loc 1 1094 0
 3721 001e 8DF81360 		strb	r6, [sp, #19]
 3722              		.loc 1 1092 0
 3723 0022 DDF84480 		ldr	r8, [sp, #68]
 3724 0026 9DF848B0 		ldrb	fp, [sp, #72]	@ zero_extendqisi2
 3725 002a 9DF84C90 		ldrb	r9, [sp, #76]	@ zero_extendqisi2
 3726              		.loc 1 1097 0
 3727 002e FFF7FEFF 		bl	VL53L0X_WrByte
 3728              	.LVL570:
 3729              		.loc 1 1098 0
 3730 0032 3246     		mov	r2, r6
 3731              		.loc 1 1097 0
 3732 0034 0446     		mov	r4, r0
 3733              	.LVL571:
 3734              		.loc 1 1098 0
 3735 0036 3146     		mov	r1, r6
 3736 0038 2846     		mov	r0, r5
 3737 003a FFF7FEFF 		bl	VL53L0X_WrByte
 3738              	.LVL572:
 3739              		.loc 1 1099 0
 3740 003e 3246     		mov	r2, r6
 3741              		.loc 1 1098 0
 3742 0040 0443     		orrs	r4, r4, r0
 3743              	.LVL573:
 3744              		.loc 1 1099 0
 3745 0042 FF21     		movs	r1, #255
 3746 0044 2846     		mov	r0, r5
 3747 0046 FFF7FEFF 		bl	VL53L0X_WrByte
 3748              	.LVL574:
 3749              		.loc 1 1098 0
 3750 004a 64B2     		sxtb	r4, r4
 3751              	.LVL575:
 3752              		.loc 1 1099 0
 3753 004c 0443     		orrs	r4, r4, r0
 3754              	.LVL576:
 3755 004e 64B2     		sxtb	r4, r4
 3756              	.LVL577:
 3757              		.loc 1 1101 0
 3758 0050 BAF1000F 		cmp	r10, #0
 3759 0054 27D0     		beq	.L606
 3760              		.loc 1 1102 0
 3761 0056 BBF1000F 		cmp	fp, #0
 3762 005a 33D1     		bne	.L624
ARM GAS  C:\Users\mathi\AppData\Local\Temp\ccVwcWGw.s 			page 67


 3763              		.loc 1 1104 0
 3764 005c B9F1000F 		cmp	r9, #0
 3765 0060 3AD1     		bne	.L625
 3766              	.L608:
 3767              		.loc 1 1113 0
 3768 0062 0122     		movs	r2, #1
 3769 0064 FF21     		movs	r1, #255
 3770 0066 2846     		mov	r0, r5
 3771 0068 FFF7FEFF 		bl	VL53L0X_WrByte
 3772              	.LVL578:
 3773              		.loc 1 1114 0
 3774 006c 0122     		movs	r2, #1
 3775              		.loc 1 1113 0
 3776 006e 0443     		orrs	r4, r4, r0
 3777              	.LVL579:
 3778              		.loc 1 1114 0
 3779 0070 0021     		movs	r1, #0
 3780 0072 2846     		mov	r0, r5
 3781 0074 FFF7FEFF 		bl	VL53L0X_WrByte
 3782              	.LVL580:
 3783              		.loc 1 1113 0
 3784 0078 64B2     		sxtb	r4, r4
 3785              	.LVL581:
 3786              		.loc 1 1115 0
 3787 007a 0022     		movs	r2, #0
 3788              		.loc 1 1114 0
 3789 007c 0443     		orrs	r4, r4, r0
 3790              	.LVL582:
 3791              		.loc 1 1115 0
 3792 007e FF21     		movs	r1, #255
 3793 0080 2846     		mov	r0, r5
 3794 0082 FFF7FEFF 		bl	VL53L0X_WrByte
 3795              	.LVL583:
 3796              		.loc 1 1117 0
 3797 0086 9DF81330 		ldrb	r3, [sp, #19]	@ zero_extendqisi2
 3798              		.loc 1 1120 0
 3799 008a 059A     		ldr	r2, [sp, #20]
 3800              		.loc 1 1117 0
 3801 008c 23F01003 		bic	r3, r3, #16
 3802 0090 88F80030 		strb	r3, [r8]
 3803              		.loc 1 1120 0
 3804 0094 3B68     		ldr	r3, [r7]
 3805              		.loc 1 1114 0
 3806 0096 64B2     		sxtb	r4, r4
 3807              	.LVL584:
 3808              		.loc 1 1115 0
 3809 0098 2043     		orrs	r0, r0, r4
 3810              	.LVL585:
 3811              		.loc 1 1120 0
 3812 009a 9A42     		cmp	r2, r3
 3813 009c 40B2     		sxtb	r0, r0
 3814 009e 2FD1     		bne	.L626
 3815 00a0 07B0     		add	sp, sp, #28
 3816              		.cfi_remember_state
 3817              		.cfi_def_cfa_offset 36
 3818              		@ sp needed
 3819 00a2 BDE8F08F 		pop	{r4, r5, r6, r7, r8, r9, r10, fp, pc}
ARM GAS  C:\Users\mathi\AppData\Local\Temp\ccVwcWGw.s 			page 68


 3820              	.LVL586:
 3821              	.L606:
 3822              		.cfi_restore_state
 3823              		.loc 1 1107 0
 3824 00a6 BBF1000F 		cmp	fp, #0
 3825 00aa 1ED1     		bne	.L627
 3826              		.loc 1 1109 0
 3827 00ac B9F1000F 		cmp	r9, #0
 3828 00b0 D7D0     		beq	.L608
 3829              	.L628:
 3830              		.loc 1 1110 0
 3831 00b2 019B     		ldr	r3, [sp, #4]
 3832 00b4 8022     		movs	r2, #128
 3833 00b6 EE21     		movs	r1, #238
 3834 00b8 2846     		mov	r0, r5
 3835 00ba FFF7FEFF 		bl	VL53L0X_UpdateByte
 3836              	.LVL587:
 3837 00be 0443     		orrs	r4, r4, r0
 3838              	.LVL588:
 3839 00c0 64B2     		sxtb	r4, r4
 3840              	.LVL589:
 3841 00c2 CEE7     		b	.L608
 3842              	.L624:
 3843              		.loc 1 1103 0
 3844 00c4 039A     		ldr	r2, [sp, #12]
 3845 00c6 CB21     		movs	r1, #203
 3846 00c8 2846     		mov	r0, r5
 3847 00ca FFF7FEFF 		bl	VL53L0X_RdByte
 3848              	.LVL590:
 3849 00ce 0443     		orrs	r4, r4, r0
 3850              	.LVL591:
 3851 00d0 64B2     		sxtb	r4, r4
 3852              	.LVL592:
 3853              		.loc 1 1104 0
 3854 00d2 B9F1000F 		cmp	r9, #0
 3855 00d6 C4D0     		beq	.L608
 3856              	.L625:
 3857              		.loc 1 1105 0
 3858 00d8 0DF11302 		add	r2, sp, #19
 3859 00dc EE21     		movs	r1, #238
 3860 00de 2846     		mov	r0, r5
 3861 00e0 FFF7FEFF 		bl	VL53L0X_RdByte
 3862              	.LVL593:
 3863 00e4 0443     		orrs	r4, r4, r0
 3864              	.LVL594:
 3865 00e6 64B2     		sxtb	r4, r4
 3866              	.LVL595:
 3867 00e8 BBE7     		b	.L608
 3868              	.L627:
 3869              		.loc 1 1108 0
 3870 00ea 029A     		ldr	r2, [sp, #8]
 3871 00ec CB21     		movs	r1, #203
 3872 00ee 2846     		mov	r0, r5
 3873 00f0 FFF7FEFF 		bl	VL53L0X_WrByte
 3874              	.LVL596:
 3875 00f4 0443     		orrs	r4, r4, r0
 3876              	.LVL597:
ARM GAS  C:\Users\mathi\AppData\Local\Temp\ccVwcWGw.s 			page 69


 3877 00f6 64B2     		sxtb	r4, r4
 3878              	.LVL598:
 3879              		.loc 1 1109 0
 3880 00f8 B9F1000F 		cmp	r9, #0
 3881 00fc B1D0     		beq	.L608
 3882 00fe D8E7     		b	.L628
 3883              	.LVL599:
 3884              	.L626:
 3885              		.loc 1 1120 0
 3886 0100 FFF7FEFF 		bl	__stack_chk_fail
 3887              	.LVL600:
 3888              	.L630:
 3889              		.align	2
 3890              	.L629:
 3891 0104 00000000 		.word	__stack_chk_guard
 3892              		.cfi_endproc
 3893              	.LFE20:
 3894              		.size	VL53L0X_ref_calibration_io, .-VL53L0X_ref_calibration_io
 3895              		.section	.text.VL53L0X_perform_vhv_calibration,"ax",%progbits
 3896              		.align	1
 3897              		.p2align 4,,15
 3898              		.global	VL53L0X_perform_vhv_calibration
 3899              		.syntax unified
 3900              		.thumb
 3901              		.thumb_func
 3902              		.fpu fpv4-sp-d16
 3903              		.type	VL53L0X_perform_vhv_calibration, %function
 3904              	VL53L0X_perform_vhv_calibration:
 3905              	.LFB21:
 3906              		.loc 1 1126 0
 3907              		.cfi_startproc
 3908              		@ args = 0, pretend = 0, frame = 8
 3909              		@ frame_needed = 0, uses_anonymous_args = 0
 3910              	.LVL601:
 3911 0000 2DE9F04F 		push	{r4, r5, r6, r7, r8, r9, r10, fp, lr}
 3912              		.cfi_def_cfa_offset 36
 3913              		.cfi_offset 4, -36
 3914              		.cfi_offset 5, -32
 3915              		.cfi_offset 6, -28
 3916              		.cfi_offset 7, -24
 3917              		.cfi_offset 8, -20
 3918              		.cfi_offset 9, -16
 3919              		.cfi_offset 10, -12
 3920              		.cfi_offset 11, -8
 3921              		.cfi_offset 14, -4
 3922 0004 4A4F     		ldr	r7, .L649
 3923 0006 83B0     		sub	sp, sp, #12
 3924              		.cfi_def_cfa_offset 48
 3925              		.loc 1 1126 0
 3926 0008 3C68     		ldr	r4, [r7]
 3927 000a 0194     		str	r4, [sp, #4]
 3928              	.LVL602:
 3929 000c 0546     		mov	r5, r0
 3930 000e 8B46     		mov	fp, r1
 3931 0010 9246     		mov	r10, r2
 3932              		.loc 1 1137 0
 3933 0012 1E46     		mov	r6, r3
ARM GAS  C:\Users\mathi\AppData\Local\Temp\ccVwcWGw.s 			page 70


 3934 0014 9BB1     		cbz	r3, .L638
 3935              		.loc 1 1141 0
 3936 0016 0122     		movs	r2, #1
 3937              	.LVL603:
 3938              		.loc 1 1138 0
 3939 0018 90F83091 		ldrb	r9, [r0, #304]	@ zero_extendqisi2
 3940              	.LVL604:
 3941              		.loc 1 1141 0
 3942 001c 1146     		mov	r1, r2
 3943              	.LVL605:
 3944 001e 2846     		mov	r0, r5
 3945 0020 FFF7FEFF 		bl	VL53L0X_WrByte
 3946              	.LVL606:
 3947              		.loc 1 1143 0
 3948 0024 0446     		mov	r4, r0
 3949 0026 98B1     		cbz	r0, .L646
 3950              	.LVL607:
 3951              	.L633:
 3952              		.loc 1 1153 0
 3953 0028 0023     		movs	r3, #0
 3954 002a 8BF80030 		strb	r3, [fp]
 3955              	.LVL608:
 3956              	.L636:
 3957              		.loc 1 1166 0
 3958 002e 019A     		ldr	r2, [sp, #4]
 3959 0030 3B68     		ldr	r3, [r7]
 3960 0032 9A42     		cmp	r2, r3
 3961 0034 2046     		mov	r0, r4
 3962 0036 79D1     		bne	.L647
 3963 0038 03B0     		add	sp, sp, #12
 3964              		.cfi_remember_state
 3965              		.cfi_def_cfa_offset 36
 3966              		@ sp needed
 3967 003a BDE8F08F 		pop	{r4, r5, r6, r7, r8, r9, r10, fp, pc}
 3968              	.LVL609:
 3969              	.L638:
 3970              		.cfi_restore_state
 3971              		.loc 1 1141 0
 3972 003e 0122     		movs	r2, #1
 3973              	.LVL610:
 3974 0040 1146     		mov	r1, r2
 3975              	.LVL611:
 3976 0042 2846     		mov	r0, r5
 3977              	.LVL612:
 3978              		.loc 1 1128 0
 3979 0044 9946     		mov	r9, r3
 3980              	.LVL613:
 3981              		.loc 1 1141 0
 3982 0046 FFF7FEFF 		bl	VL53L0X_WrByte
 3983              	.LVL614:
 3984              		.loc 1 1143 0
 3985 004a 0446     		mov	r4, r0
 3986 004c 0028     		cmp	r0, #0
 3987 004e EBD1     		bne	.L633
 3988              	.L646:
 3989              	.LVL615:
 3990              	.LBB124:
ARM GAS  C:\Users\mathi\AppData\Local\Temp\ccVwcWGw.s 			page 71


 3991              	.LBB125:
 3992              		.loc 1 1071 0
 3993 0050 0146     		mov	r1, r0
 3994 0052 4122     		movs	r2, #65
 3995 0054 2846     		mov	r0, r5
 3996              	.LVL616:
 3997 0056 FFF7FEFF 		bl	VL53L0X_WrByte
 3998              	.LVL617:
 3999              		.loc 1 1075 0
 4000 005a 0446     		mov	r4, r0
 4001 005c 0028     		cmp	r0, #0
 4002 005e E3D1     		bne	.L633
 4003              		.loc 1 1076 0
 4004 0060 2846     		mov	r0, r5
 4005              	.LVL618:
 4006 0062 FFF7FEFF 		bl	VL53L0X_measurement_poll_for_completion
 4007              	.LVL619:
 4008              		.loc 1 1078 0
 4009 0066 0446     		mov	r4, r0
 4010 0068 0028     		cmp	r0, #0
 4011 006a DDD1     		bne	.L633
 4012              		.loc 1 1079 0
 4013 006c 0146     		mov	r1, r0
 4014 006e 2846     		mov	r0, r5
 4015              	.LVL620:
 4016 0070 FFF7FEFF 		bl	VL53L0X_ClearInterruptMask
 4017              	.LVL621:
 4018              		.loc 1 1081 0
 4019 0074 0446     		mov	r4, r0
 4020 0076 0028     		cmp	r0, #0
 4021 0078 D6D1     		bne	.L633
 4022              	.LVL622:
 4023              	.LBB126:
 4024              	.LBB127:
 4025              		.loc 1 1082 0
 4026 007a 0246     		mov	r2, r0
 4027 007c 0146     		mov	r1, r0
 4028 007e 2846     		mov	r0, r5
 4029              	.LVL623:
 4030 0080 FFF7FEFF 		bl	VL53L0X_WrByte
 4031              	.LVL624:
 4032              	.LBE127:
 4033              	.LBE126:
 4034              	.LBE125:
 4035              	.LBE124:
 4036              		.loc 1 1147 0
 4037 0084 0446     		mov	r4, r0
 4038 0086 0028     		cmp	r0, #0
 4039 0088 CED1     		bne	.L633
 4040              		.loc 1 1147 0 is_stmt 0 discriminator 1
 4041 008a BAF1010F 		cmp	r10, #1
 4042 008e 0ED0     		beq	.L648
 4043              		.loc 1 1153 0 is_stmt 1
 4044 0090 8BF80000 		strb	r0, [fp]
 4045              	.LVL625:
 4046              	.L635:
 4047              		.loc 1 1156 0 discriminator 1
ARM GAS  C:\Users\mathi\AppData\Local\Temp\ccVwcWGw.s 			page 72


 4048 0094 002E     		cmp	r6, #0
 4049 0096 CAD0     		beq	.L636
 4050              		.loc 1 1158 0
 4051 0098 4A46     		mov	r2, r9
 4052 009a 0121     		movs	r1, #1
 4053 009c 2846     		mov	r0, r5
 4054 009e FFF7FEFF 		bl	VL53L0X_WrByte
 4055              	.LVL626:
 4056              		.loc 1 1160 0
 4057 00a2 0446     		mov	r4, r0
 4058 00a4 0028     		cmp	r0, #0
 4059 00a6 C2D1     		bne	.L636
 4060              		.loc 1 1161 0
 4061 00a8 85F83091 		strb	r9, [r5, #304]
 4062 00ac BFE7     		b	.L636
 4063              	.L648:
 4064              	.LVL627:
 4065              	.LBB128:
 4066              	.LBB129:
 4067              		.loc 1 1097 0
 4068 00ae 5246     		mov	r2, r10
 4069 00b0 FF21     		movs	r1, #255
 4070 00b2 2846     		mov	r0, r5
 4071              	.LVL628:
 4072 00b4 FFF7FEFF 		bl	VL53L0X_WrByte
 4073              	.LVL629:
 4074              		.loc 1 1098 0
 4075 00b8 2246     		mov	r2, r4
 4076              		.loc 1 1097 0
 4077 00ba 8046     		mov	r8, r0
 4078              	.LVL630:
 4079              		.loc 1 1098 0
 4080 00bc 2146     		mov	r1, r4
 4081 00be 2846     		mov	r0, r5
 4082 00c0 FFF7FEFF 		bl	VL53L0X_WrByte
 4083              	.LVL631:
 4084              		.loc 1 1099 0
 4085 00c4 2246     		mov	r2, r4
 4086              		.loc 1 1098 0
 4087 00c6 48EA0008 		orr	r8, r8, r0
 4088              	.LVL632:
 4089              		.loc 1 1099 0
 4090 00ca FF21     		movs	r1, #255
 4091 00cc 2846     		mov	r0, r5
 4092 00ce FFF7FEFF 		bl	VL53L0X_WrByte
 4093              	.LVL633:
 4094              		.loc 1 1098 0
 4095 00d2 4FFA88F8 		sxtb	r8, r8
 4096              	.LVL634:
 4097              		.loc 1 1103 0
 4098 00d6 5A46     		mov	r2, fp
 4099              		.loc 1 1099 0
 4100 00d8 48EA0008 		orr	r8, r8, r0
 4101              	.LVL635:
 4102              		.loc 1 1103 0
 4103 00dc CB21     		movs	r1, #203
 4104 00de 2846     		mov	r0, r5
ARM GAS  C:\Users\mathi\AppData\Local\Temp\ccVwcWGw.s 			page 73


 4105 00e0 FFF7FEFF 		bl	VL53L0X_RdByte
 4106              	.LVL636:
 4107              		.loc 1 1099 0
 4108 00e4 4FFA88F8 		sxtb	r8, r8
 4109              	.LVL637:
 4110              		.loc 1 1113 0
 4111 00e8 5246     		mov	r2, r10
 4112              		.loc 1 1103 0
 4113 00ea 48EA0008 		orr	r8, r8, r0
 4114              	.LVL638:
 4115              		.loc 1 1113 0
 4116 00ee FF21     		movs	r1, #255
 4117 00f0 2846     		mov	r0, r5
 4118 00f2 FFF7FEFF 		bl	VL53L0X_WrByte
 4119              	.LVL639:
 4120              		.loc 1 1103 0
 4121 00f6 4FFA88F8 		sxtb	r8, r8
 4122              	.LVL640:
 4123              		.loc 1 1114 0
 4124 00fa 5246     		mov	r2, r10
 4125              		.loc 1 1113 0
 4126 00fc 48EA0008 		orr	r8, r8, r0
 4127              	.LVL641:
 4128              		.loc 1 1114 0
 4129 0100 2146     		mov	r1, r4
 4130 0102 2846     		mov	r0, r5
 4131 0104 FFF7FEFF 		bl	VL53L0X_WrByte
 4132              	.LVL642:
 4133              		.loc 1 1113 0
 4134 0108 4FFA88F8 		sxtb	r8, r8
 4135              	.LVL643:
 4136              		.loc 1 1114 0
 4137 010c 48EA0008 		orr	r8, r8, r0
 4138              	.LVL644:
 4139              		.loc 1 1115 0
 4140 0110 2246     		mov	r2, r4
 4141 0112 FF21     		movs	r1, #255
 4142 0114 2846     		mov	r0, r5
 4143 0116 FFF7FEFF 		bl	VL53L0X_WrByte
 4144              	.LVL645:
 4145              		.loc 1 1114 0
 4146 011a 4FFA88F8 		sxtb	r8, r8
 4147              	.LVL646:
 4148              		.loc 1 1115 0
 4149 011e 48EA0000 		orr	r0, r8, r0
 4150 0122 40B2     		sxtb	r0, r0
 4151              	.LVL647:
 4152              	.LBE129:
 4153              	.LBE128:
 4154              		.loc 1 1156 0
 4155 0124 0028     		cmp	r0, #0
 4156 0126 B5D0     		beq	.L635
 4157              		.loc 1 1148 0
 4158 0128 0446     		mov	r4, r0
 4159 012a 80E7     		b	.L636
 4160              	.LVL648:
 4161              	.L647:
ARM GAS  C:\Users\mathi\AppData\Local\Temp\ccVwcWGw.s 			page 74


 4162              		.loc 1 1166 0
 4163 012c FFF7FEFF 		bl	__stack_chk_fail
 4164              	.LVL649:
 4165              	.L650:
 4166              		.align	2
 4167              	.L649:
 4168 0130 00000000 		.word	__stack_chk_guard
 4169              		.cfi_endproc
 4170              	.LFE21:
 4171              		.size	VL53L0X_perform_vhv_calibration, .-VL53L0X_perform_vhv_calibration
 4172              		.section	.text.VL53L0X_perform_phase_calibration,"ax",%progbits
 4173              		.align	1
 4174              		.p2align 4,,15
 4175              		.global	VL53L0X_perform_phase_calibration
 4176              		.syntax unified
 4177              		.thumb
 4178              		.thumb_func
 4179              		.fpu fpv4-sp-d16
 4180              		.type	VL53L0X_perform_phase_calibration, %function
 4181              	VL53L0X_perform_phase_calibration:
 4182              	.LFB22:
 4183              		.loc 1 1171 0
 4184              		.cfi_startproc
 4185              		@ args = 0, pretend = 0, frame = 16
 4186              		@ frame_needed = 0, uses_anonymous_args = 0
 4187              	.LVL650:
 4188 0000 2DE9F04F 		push	{r4, r5, r6, r7, r8, r9, r10, fp, lr}
 4189              		.cfi_def_cfa_offset 36
 4190              		.cfi_offset 4, -36
 4191              		.cfi_offset 5, -32
 4192              		.cfi_offset 6, -28
 4193              		.cfi_offset 7, -24
 4194              		.cfi_offset 8, -20
 4195              		.cfi_offset 9, -16
 4196              		.cfi_offset 10, -12
 4197              		.cfi_offset 11, -8
 4198              		.cfi_offset 14, -4
 4199 0004 4D4F     		ldr	r7, .L669
 4200 0006 85B0     		sub	sp, sp, #20
 4201              		.cfi_def_cfa_offset 56
 4202              		.loc 1 1171 0
 4203 0008 3C68     		ldr	r4, [r7]
 4204 000a 0394     		str	r4, [sp, #12]
 4205              	.LVL651:
 4206 000c 0546     		mov	r5, r0
 4207 000e 8946     		mov	r9, r1
 4208 0010 9346     		mov	fp, r2
 4209              		.loc 1 1182 0
 4210 0012 1E46     		mov	r6, r3
 4211 0014 9BB1     		cbz	r3, .L658
 4212              		.loc 1 1183 0
 4213 0016 90F830A1 		ldrb	r10, [r0, #304]	@ zero_extendqisi2
 4214              	.LVL652:
 4215              	.L652:
 4216              		.loc 1 1186 0
 4217 001a 0222     		movs	r2, #2
 4218              	.LVL653:
ARM GAS  C:\Users\mathi\AppData\Local\Temp\ccVwcWGw.s 			page 75


 4219 001c 0121     		movs	r1, #1
 4220              	.LVL654:
 4221 001e 2846     		mov	r0, r5
 4222              	.LVL655:
 4223 0020 FFF7FEFF 		bl	VL53L0X_WrByte
 4224              	.LVL656:
 4225              		.loc 1 1188 0
 4226 0024 0446     		mov	r4, r0
 4227 0026 60B1     		cbz	r0, .L666
 4228              	.LVL657:
 4229              	.L653:
 4230              		.loc 1 1198 0
 4231 0028 0023     		movs	r3, #0
 4232 002a 89F80030 		strb	r3, [r9]
 4233              	.LVL658:
 4234              	.L656:
 4235              		.loc 1 1211 0
 4236 002e 039A     		ldr	r2, [sp, #12]
 4237 0030 3B68     		ldr	r3, [r7]
 4238 0032 9A42     		cmp	r2, r3
 4239 0034 2046     		mov	r0, r4
 4240 0036 7ED1     		bne	.L667
 4241 0038 05B0     		add	sp, sp, #20
 4242              		.cfi_remember_state
 4243              		.cfi_def_cfa_offset 36
 4244              		@ sp needed
 4245 003a BDE8F08F 		pop	{r4, r5, r6, r7, r8, r9, r10, fp, pc}
 4246              	.LVL659:
 4247              	.L658:
 4248              		.cfi_restore_state
 4249              		.loc 1 1173 0
 4250 003e 9A46     		mov	r10, r3
 4251 0040 EBE7     		b	.L652
 4252              	.LVL660:
 4253              	.L666:
 4254              	.LBB136:
 4255              	.LBB137:
 4256              		.loc 1 1071 0
 4257 0042 0146     		mov	r1, r0
 4258 0044 0122     		movs	r2, #1
 4259 0046 2846     		mov	r0, r5
 4260              	.LVL661:
 4261 0048 FFF7FEFF 		bl	VL53L0X_WrByte
 4262              	.LVL662:
 4263              		.loc 1 1075 0
 4264 004c 0446     		mov	r4, r0
 4265 004e 0028     		cmp	r0, #0
 4266 0050 EAD1     		bne	.L653
 4267              		.loc 1 1076 0
 4268 0052 2846     		mov	r0, r5
 4269              	.LVL663:
 4270 0054 FFF7FEFF 		bl	VL53L0X_measurement_poll_for_completion
 4271              	.LVL664:
 4272              		.loc 1 1078 0
 4273 0058 0446     		mov	r4, r0
 4274 005a 0028     		cmp	r0, #0
 4275 005c E4D1     		bne	.L653
ARM GAS  C:\Users\mathi\AppData\Local\Temp\ccVwcWGw.s 			page 76


 4276              		.loc 1 1079 0
 4277 005e 0146     		mov	r1, r0
 4278 0060 2846     		mov	r0, r5
 4279              	.LVL665:
 4280 0062 FFF7FEFF 		bl	VL53L0X_ClearInterruptMask
 4281              	.LVL666:
 4282              		.loc 1 1081 0
 4283 0066 0446     		mov	r4, r0
 4284 0068 0028     		cmp	r0, #0
 4285 006a DDD1     		bne	.L653
 4286              	.LVL667:
 4287              	.LBB138:
 4288              	.LBB139:
 4289              		.loc 1 1082 0
 4290 006c 0246     		mov	r2, r0
 4291 006e 0146     		mov	r1, r0
 4292 0070 2846     		mov	r0, r5
 4293              	.LVL668:
 4294 0072 FFF7FEFF 		bl	VL53L0X_WrByte
 4295              	.LVL669:
 4296              	.LBE139:
 4297              	.LBE138:
 4298              	.LBE137:
 4299              	.LBE136:
 4300              		.loc 1 1192 0
 4301 0076 0446     		mov	r4, r0
 4302 0078 0028     		cmp	r0, #0
 4303 007a D5D1     		bne	.L653
 4304              		.loc 1 1192 0 is_stmt 0 discriminator 1
 4305 007c BBF1010F 		cmp	fp, #1
 4306 0080 0ED0     		beq	.L668
 4307              		.loc 1 1198 0 is_stmt 1
 4308 0082 89F80000 		strb	r0, [r9]
 4309              	.LVL670:
 4310              	.L655:
 4311              		.loc 1 1201 0 discriminator 1
 4312 0086 002E     		cmp	r6, #0
 4313 0088 D1D0     		beq	.L656
 4314              		.loc 1 1203 0
 4315 008a 5246     		mov	r2, r10
 4316 008c 0121     		movs	r1, #1
 4317 008e 2846     		mov	r0, r5
 4318 0090 FFF7FEFF 		bl	VL53L0X_WrByte
 4319              	.LVL671:
 4320              		.loc 1 1205 0
 4321 0094 0446     		mov	r4, r0
 4322 0096 0028     		cmp	r0, #0
 4323 0098 C9D1     		bne	.L656
 4324              		.loc 1 1206 0
 4325 009a 85F830A1 		strb	r10, [r5, #304]
 4326 009e C6E7     		b	.L656
 4327              	.L668:
 4328              	.LVL672:
 4329              	.LBB140:
 4330              	.LBB141:
 4331              		.loc 1 1094 0
 4332 00a0 04AB     		add	r3, sp, #16
ARM GAS  C:\Users\mathi\AppData\Local\Temp\ccVwcWGw.s 			page 77


 4333              		.loc 1 1097 0
 4334 00a2 5A46     		mov	r2, fp
 4335              		.loc 1 1094 0
 4336 00a4 03F8054D 		strb	r4, [r3, #-5]!
 4337              		.loc 1 1097 0
 4338 00a8 FF21     		movs	r1, #255
 4339 00aa 2846     		mov	r0, r5
 4340              	.LVL673:
 4341              		.loc 1 1094 0
 4342 00ac CDE90033 		strd	r3, r3, [sp]
 4343              		.loc 1 1097 0
 4344 00b0 FFF7FEFF 		bl	VL53L0X_WrByte
 4345              	.LVL674:
 4346              		.loc 1 1098 0
 4347 00b4 2246     		mov	r2, r4
 4348              		.loc 1 1097 0
 4349 00b6 8046     		mov	r8, r0
 4350              	.LVL675:
 4351              		.loc 1 1098 0
 4352 00b8 2146     		mov	r1, r4
 4353 00ba 2846     		mov	r0, r5
 4354 00bc FFF7FEFF 		bl	VL53L0X_WrByte
 4355              	.LVL676:
 4356              		.loc 1 1099 0
 4357 00c0 2246     		mov	r2, r4
 4358              		.loc 1 1098 0
 4359 00c2 48EA0008 		orr	r8, r8, r0
 4360              	.LVL677:
 4361              		.loc 1 1099 0
 4362 00c6 FF21     		movs	r1, #255
 4363 00c8 2846     		mov	r0, r5
 4364 00ca FFF7FEFF 		bl	VL53L0X_WrByte
 4365              	.LVL678:
 4366              		.loc 1 1105 0
 4367 00ce 009B     		ldr	r3, [sp]
 4368              		.loc 1 1098 0
 4369 00d0 4FFA88F8 		sxtb	r8, r8
 4370              	.LVL679:
 4371              		.loc 1 1105 0
 4372 00d4 1A46     		mov	r2, r3
 4373              		.loc 1 1099 0
 4374 00d6 48EA0008 		orr	r8, r8, r0
 4375              	.LVL680:
 4376              		.loc 1 1105 0
 4377 00da EE21     		movs	r1, #238
 4378 00dc 2846     		mov	r0, r5
 4379 00de FFF7FEFF 		bl	VL53L0X_RdByte
 4380              	.LVL681:
 4381              		.loc 1 1099 0
 4382 00e2 4FFA88F8 		sxtb	r8, r8
 4383              	.LVL682:
 4384              		.loc 1 1113 0
 4385 00e6 5A46     		mov	r2, fp
 4386              		.loc 1 1105 0
 4387 00e8 48EA0008 		orr	r8, r8, r0
 4388              	.LVL683:
 4389              		.loc 1 1113 0
ARM GAS  C:\Users\mathi\AppData\Local\Temp\ccVwcWGw.s 			page 78


 4390 00ec FF21     		movs	r1, #255
 4391 00ee 2846     		mov	r0, r5
 4392 00f0 FFF7FEFF 		bl	VL53L0X_WrByte
 4393              	.LVL684:
 4394              		.loc 1 1105 0
 4395 00f4 4FFA88F8 		sxtb	r8, r8
 4396              	.LVL685:
 4397              		.loc 1 1114 0
 4398 00f8 5A46     		mov	r2, fp
 4399              		.loc 1 1113 0
 4400 00fa 48EA0008 		orr	r8, r8, r0
 4401              	.LVL686:
 4402              		.loc 1 1114 0
 4403 00fe 2146     		mov	r1, r4
 4404 0100 2846     		mov	r0, r5
 4405 0102 FFF7FEFF 		bl	VL53L0X_WrByte
 4406              	.LVL687:
 4407              		.loc 1 1113 0
 4408 0106 4FFA88F8 		sxtb	r8, r8
 4409              	.LVL688:
 4410              		.loc 1 1114 0
 4411 010a 48EA0008 		orr	r8, r8, r0
 4412              	.LVL689:
 4413              		.loc 1 1115 0
 4414 010e 2246     		mov	r2, r4
 4415 0110 FF21     		movs	r1, #255
 4416 0112 2846     		mov	r0, r5
 4417 0114 FFF7FEFF 		bl	VL53L0X_WrByte
 4418              	.LVL690:
 4419              		.loc 1 1114 0
 4420 0118 4FFA88F8 		sxtb	r8, r8
 4421              	.LVL691:
 4422              		.loc 1 1117 0
 4423 011c 9DF80B30 		ldrb	r3, [sp, #11]	@ zero_extendqisi2
 4424              		.loc 1 1115 0
 4425 0120 48EA0000 		orr	r0, r8, r0
 4426              		.loc 1 1117 0
 4427 0124 23F01003 		bic	r3, r3, #16
 4428              		.loc 1 1115 0
 4429 0128 40B2     		sxtb	r0, r0
 4430              	.LVL692:
 4431              		.loc 1 1117 0
 4432 012a 89F80030 		strb	r3, [r9]
 4433              	.LVL693:
 4434              	.LBE141:
 4435              	.LBE140:
 4436              		.loc 1 1201 0
 4437 012e 0028     		cmp	r0, #0
 4438 0130 A9D0     		beq	.L655
 4439              		.loc 1 1193 0
 4440 0132 0446     		mov	r4, r0
 4441 0134 7BE7     		b	.L656
 4442              	.LVL694:
 4443              	.L667:
 4444              		.loc 1 1211 0
 4445 0136 FFF7FEFF 		bl	__stack_chk_fail
 4446              	.LVL695:
ARM GAS  C:\Users\mathi\AppData\Local\Temp\ccVwcWGw.s 			page 79


 4447              	.L670:
 4448 013a 00BF     		.align	2
 4449              	.L669:
 4450 013c 00000000 		.word	__stack_chk_guard
 4451              		.cfi_endproc
 4452              	.LFE22:
 4453              		.size	VL53L0X_perform_phase_calibration, .-VL53L0X_perform_phase_calibration
 4454              		.section	.text.VL53L0X_perform_ref_calibration,"ax",%progbits
 4455              		.align	1
 4456              		.p2align 4,,15
 4457              		.global	VL53L0X_perform_ref_calibration
 4458              		.syntax unified
 4459              		.thumb
 4460              		.thumb_func
 4461              		.fpu fpv4-sp-d16
 4462              		.type	VL53L0X_perform_ref_calibration, %function
 4463              	VL53L0X_perform_ref_calibration:
 4464              	.LFB23:
 4465              		.loc 1 1215 0
 4466              		.cfi_startproc
 4467              		@ args = 0, pretend = 0, frame = 8
 4468              		@ frame_needed = 0, uses_anonymous_args = 0
 4469              	.LVL696:
 4470 0000 2DE9F04F 		push	{r4, r5, r6, r7, r8, r9, r10, fp, lr}
 4471              		.cfi_def_cfa_offset 36
 4472              		.cfi_offset 4, -36
 4473              		.cfi_offset 5, -32
 4474              		.cfi_offset 6, -28
 4475              		.cfi_offset 7, -24
 4476              		.cfi_offset 8, -20
 4477              		.cfi_offset 9, -16
 4478              		.cfi_offset 10, -12
 4479              		.cfi_offset 11, -8
 4480              		.cfi_offset 14, -4
 4481 0004 744E     		ldr	r6, .L692
 4482              		.loc 1 1223 0
 4483 0006 90F83091 		ldrb	r9, [r0, #304]	@ zero_extendqisi2
 4484              		.loc 1 1215 0
 4485 000a 83B0     		sub	sp, sp, #12
 4486              		.cfi_def_cfa_offset 48
 4487              		.loc 1 1215 0
 4488 000c 9246     		mov	r10, r2
 4489 000e 8B46     		mov	fp, r1
 4490              	.LBB158:
 4491              	.LBB159:
 4492              		.loc 1 1141 0
 4493 0010 0122     		movs	r2, #1
 4494              	.LVL697:
 4495              	.LBE159:
 4496              	.LBE158:
 4497              		.loc 1 1215 0
 4498 0012 3168     		ldr	r1, [r6]
 4499              	.LVL698:
 4500 0014 0191     		str	r1, [sp, #4]
 4501              	.LVL699:
 4502              	.LBB170:
 4503              	.LBB166:
ARM GAS  C:\Users\mathi\AppData\Local\Temp\ccVwcWGw.s 			page 80


 4504              		.loc 1 1141 0
 4505 0016 1146     		mov	r1, r2
 4506              	.LBE166:
 4507              	.LBE170:
 4508              		.loc 1 1215 0
 4509 0018 0546     		mov	r5, r0
 4510              	.LVL700:
 4511 001a 9846     		mov	r8, r3
 4512              	.LVL701:
 4513              	.LBB171:
 4514              	.LBB167:
 4515              		.loc 1 1141 0
 4516 001c FFF7FEFF 		bl	VL53L0X_WrByte
 4517              	.LVL702:
 4518              		.loc 1 1143 0
 4519 0020 0446     		mov	r4, r0
 4520 0022 58B1     		cbz	r0, .L687
 4521              	.LVL703:
 4522              	.L672:
 4523              		.loc 1 1153 0
 4524 0024 0023     		movs	r3, #0
 4525 0026 8BF80030 		strb	r3, [fp]
 4526              	.LVL704:
 4527              	.L675:
 4528              	.LBE167:
 4529              	.LBE171:
 4530              		.loc 1 1246 0
 4531 002a 019A     		ldr	r2, [sp, #4]
 4532 002c 3368     		ldr	r3, [r6]
 4533 002e 9A42     		cmp	r2, r3
 4534 0030 2046     		mov	r0, r4
 4535 0032 40F0CF80 		bne	.L688
 4536 0036 03B0     		add	sp, sp, #12
 4537              		.cfi_remember_state
 4538              		.cfi_def_cfa_offset 36
 4539              		@ sp needed
 4540 0038 BDE8F08F 		pop	{r4, r5, r6, r7, r8, r9, r10, fp, pc}
 4541              	.LVL705:
 4542              	.L687:
 4543              		.cfi_restore_state
 4544              	.LBB172:
 4545              	.LBB168:
 4546              	.LBB160:
 4547              	.LBB161:
 4548              		.loc 1 1071 0
 4549 003c 0146     		mov	r1, r0
 4550 003e 4122     		movs	r2, #65
 4551 0040 2846     		mov	r0, r5
 4552              	.LVL706:
 4553 0042 FFF7FEFF 		bl	VL53L0X_WrByte
 4554              	.LVL707:
 4555              		.loc 1 1075 0
 4556 0046 0446     		mov	r4, r0
 4557 0048 0028     		cmp	r0, #0
 4558 004a EBD1     		bne	.L672
 4559              		.loc 1 1076 0
 4560 004c 2846     		mov	r0, r5
ARM GAS  C:\Users\mathi\AppData\Local\Temp\ccVwcWGw.s 			page 81


 4561              	.LVL708:
 4562 004e FFF7FEFF 		bl	VL53L0X_measurement_poll_for_completion
 4563              	.LVL709:
 4564              		.loc 1 1078 0
 4565 0052 0446     		mov	r4, r0
 4566 0054 0028     		cmp	r0, #0
 4567 0056 E5D1     		bne	.L672
 4568              		.loc 1 1079 0
 4569 0058 0146     		mov	r1, r0
 4570 005a 2846     		mov	r0, r5
 4571              	.LVL710:
 4572 005c FFF7FEFF 		bl	VL53L0X_ClearInterruptMask
 4573              	.LVL711:
 4574              		.loc 1 1081 0
 4575 0060 0446     		mov	r4, r0
 4576 0062 0028     		cmp	r0, #0
 4577 0064 DED1     		bne	.L672
 4578              	.LVL712:
 4579              	.LBB162:
 4580              	.LBB163:
 4581              		.loc 1 1082 0
 4582 0066 0246     		mov	r2, r0
 4583 0068 0146     		mov	r1, r0
 4584 006a 2846     		mov	r0, r5
 4585              	.LVL713:
 4586 006c FFF7FEFF 		bl	VL53L0X_WrByte
 4587              	.LVL714:
 4588              	.LBE163:
 4589              	.LBE162:
 4590              	.LBE161:
 4591              	.LBE160:
 4592              		.loc 1 1147 0
 4593 0070 0446     		mov	r4, r0
 4594 0072 0028     		cmp	r0, #0
 4595 0074 D6D1     		bne	.L672
 4596 0076 B8F1010F 		cmp	r8, #1
 4597 007a 39D0     		beq	.L689
 4598              		.loc 1 1153 0
 4599 007c 8BF80000 		strb	r0, [fp]
 4600              	.LVL715:
 4601              	.L674:
 4602              	.LBE168:
 4603              	.LBE172:
 4604              	.LBB173:
 4605              	.LBB174:
 4606              		.loc 1 1186 0
 4607 0080 0222     		movs	r2, #2
 4608 0082 0121     		movs	r1, #1
 4609 0084 2846     		mov	r0, r5
 4610 0086 FFF7FEFF 		bl	VL53L0X_WrByte
 4611              	.LVL716:
 4612              		.loc 1 1188 0
 4613 008a 0446     		mov	r4, r0
 4614 008c 18B1     		cbz	r0, .L690
 4615              	.LVL717:
 4616              	.L676:
 4617              		.loc 1 1198 0
ARM GAS  C:\Users\mathi\AppData\Local\Temp\ccVwcWGw.s 			page 82


 4618 008e 0023     		movs	r3, #0
 4619 0090 8AF80030 		strb	r3, [r10]
 4620              	.LVL718:
 4621 0094 C9E7     		b	.L675
 4622              	.LVL719:
 4623              	.L690:
 4624              	.LBB175:
 4625              	.LBB176:
 4626              		.loc 1 1071 0
 4627 0096 0146     		mov	r1, r0
 4628 0098 0122     		movs	r2, #1
 4629 009a 2846     		mov	r0, r5
 4630              	.LVL720:
 4631 009c FFF7FEFF 		bl	VL53L0X_WrByte
 4632              	.LVL721:
 4633              		.loc 1 1075 0
 4634 00a0 0446     		mov	r4, r0
 4635 00a2 0028     		cmp	r0, #0
 4636 00a4 F3D1     		bne	.L676
 4637              		.loc 1 1076 0
 4638 00a6 2846     		mov	r0, r5
 4639              	.LVL722:
 4640 00a8 FFF7FEFF 		bl	VL53L0X_measurement_poll_for_completion
 4641              	.LVL723:
 4642              		.loc 1 1078 0
 4643 00ac 0446     		mov	r4, r0
 4644 00ae 0028     		cmp	r0, #0
 4645 00b0 EDD1     		bne	.L676
 4646              		.loc 1 1079 0
 4647 00b2 0146     		mov	r1, r0
 4648 00b4 2846     		mov	r0, r5
 4649              	.LVL724:
 4650 00b6 FFF7FEFF 		bl	VL53L0X_ClearInterruptMask
 4651              	.LVL725:
 4652              		.loc 1 1081 0
 4653 00ba 0446     		mov	r4, r0
 4654 00bc 0028     		cmp	r0, #0
 4655 00be E6D1     		bne	.L676
 4656              	.LVL726:
 4657              	.LBB177:
 4658              	.LBB178:
 4659              		.loc 1 1082 0
 4660 00c0 0246     		mov	r2, r0
 4661 00c2 0146     		mov	r1, r0
 4662 00c4 2846     		mov	r0, r5
 4663              	.LVL727:
 4664 00c6 FFF7FEFF 		bl	VL53L0X_WrByte
 4665              	.LVL728:
 4666              	.LBE178:
 4667              	.LBE177:
 4668              	.LBE176:
 4669              	.LBE175:
 4670              		.loc 1 1192 0
 4671 00ca 0446     		mov	r4, r0
 4672 00cc 0028     		cmp	r0, #0
 4673 00ce DED1     		bne	.L676
 4674 00d0 B8F1010F 		cmp	r8, #1
ARM GAS  C:\Users\mathi\AppData\Local\Temp\ccVwcWGw.s 			page 83


 4675 00d4 40D0     		beq	.L691
 4676              		.loc 1 1198 0
 4677 00d6 8AF80000 		strb	r0, [r10]
 4678              	.LVL729:
 4679              	.L678:
 4680              	.LBE174:
 4681              	.LBE173:
 4682              		.loc 1 1238 0
 4683 00da 4A46     		mov	r2, r9
 4684 00dc 0121     		movs	r1, #1
 4685 00de 2846     		mov	r0, r5
 4686 00e0 FFF7FEFF 		bl	VL53L0X_WrByte
 4687              	.LVL730:
 4688              		.loc 1 1240 0
 4689 00e4 0446     		mov	r4, r0
 4690 00e6 0028     		cmp	r0, #0
 4691 00e8 9FD1     		bne	.L675
 4692              		.loc 1 1241 0
 4693 00ea 85F83091 		strb	r9, [r5, #304]
 4694 00ee 9CE7     		b	.L675
 4695              	.LVL731:
 4696              	.L689:
 4697              	.LBB182:
 4698              	.LBB169:
 4699              	.LBB164:
 4700              	.LBB165:
 4701              		.loc 1 1097 0
 4702 00f0 4246     		mov	r2, r8
 4703 00f2 FF21     		movs	r1, #255
 4704 00f4 2846     		mov	r0, r5
 4705              	.LVL732:
 4706 00f6 FFF7FEFF 		bl	VL53L0X_WrByte
 4707              	.LVL733:
 4708              		.loc 1 1098 0
 4709 00fa 2246     		mov	r2, r4
 4710 00fc 2146     		mov	r1, r4
 4711              		.loc 1 1097 0
 4712 00fe 0746     		mov	r7, r0
 4713              	.LVL734:
 4714              		.loc 1 1098 0
 4715 0100 2846     		mov	r0, r5
 4716 0102 FFF7FEFF 		bl	VL53L0X_WrByte
 4717              	.LVL735:
 4718              		.loc 1 1099 0
 4719 0106 2246     		mov	r2, r4
 4720              		.loc 1 1098 0
 4721 0108 0743     		orrs	r7, r7, r0
 4722              	.LVL736:
 4723              		.loc 1 1099 0
 4724 010a FF21     		movs	r1, #255
 4725 010c 2846     		mov	r0, r5
 4726 010e FFF7FEFF 		bl	VL53L0X_WrByte
 4727              	.LVL737:
 4728              		.loc 1 1098 0
 4729 0112 7FB2     		sxtb	r7, r7
 4730              	.LVL738:
 4731              		.loc 1 1103 0
ARM GAS  C:\Users\mathi\AppData\Local\Temp\ccVwcWGw.s 			page 84


 4732 0114 5A46     		mov	r2, fp
 4733              		.loc 1 1099 0
 4734 0116 0743     		orrs	r7, r7, r0
 4735              	.LVL739:
 4736              		.loc 1 1103 0
 4737 0118 CB21     		movs	r1, #203
 4738 011a 2846     		mov	r0, r5
 4739 011c FFF7FEFF 		bl	VL53L0X_RdByte
 4740              	.LVL740:
 4741              		.loc 1 1099 0
 4742 0120 7FB2     		sxtb	r7, r7
 4743              	.LVL741:
 4744              		.loc 1 1113 0
 4745 0122 4246     		mov	r2, r8
 4746              		.loc 1 1103 0
 4747 0124 0743     		orrs	r7, r7, r0
 4748              	.LVL742:
 4749              		.loc 1 1113 0
 4750 0126 FF21     		movs	r1, #255
 4751 0128 2846     		mov	r0, r5
 4752 012a FFF7FEFF 		bl	VL53L0X_WrByte
 4753              	.LVL743:
 4754              		.loc 1 1103 0
 4755 012e 7FB2     		sxtb	r7, r7
 4756              	.LVL744:
 4757              		.loc 1 1114 0
 4758 0130 2146     		mov	r1, r4
 4759 0132 4246     		mov	r2, r8
 4760              		.loc 1 1113 0
 4761 0134 0743     		orrs	r7, r7, r0
 4762              	.LVL745:
 4763              		.loc 1 1114 0
 4764 0136 2846     		mov	r0, r5
 4765 0138 FFF7FEFF 		bl	VL53L0X_WrByte
 4766              	.LVL746:
 4767              		.loc 1 1113 0
 4768 013c 7FB2     		sxtb	r7, r7
 4769              	.LVL747:
 4770              		.loc 1 1115 0
 4771 013e 2246     		mov	r2, r4
 4772 0140 FF21     		movs	r1, #255
 4773              		.loc 1 1114 0
 4774 0142 47EA0004 		orr	r4, r7, r0
 4775              		.loc 1 1115 0
 4776 0146 2846     		mov	r0, r5
 4777 0148 FFF7FEFF 		bl	VL53L0X_WrByte
 4778              	.LVL748:
 4779              		.loc 1 1114 0
 4780 014c 64B2     		sxtb	r4, r4
 4781              	.LVL749:
 4782              		.loc 1 1115 0
 4783 014e 0443     		orrs	r4, r4, r0
 4784              	.LVL750:
 4785 0150 64B2     		sxtb	r4, r4
 4786              	.LVL751:
 4787              	.LBE165:
 4788              	.LBE164:
ARM GAS  C:\Users\mathi\AppData\Local\Temp\ccVwcWGw.s 			page 85


 4789              		.loc 1 1156 0
 4790 0152 002C     		cmp	r4, #0
 4791 0154 94D0     		beq	.L674
 4792 0156 68E7     		b	.L675
 4793              	.LVL752:
 4794              	.L691:
 4795              	.LBE169:
 4796              	.LBE182:
 4797              	.LBB183:
 4798              	.LBB181:
 4799              	.LBB179:
 4800              	.LBB180:
 4801              		.loc 1 1094 0
 4802 0158 0DF1080B 		add	fp, sp, #8
 4803              	.LVL753:
 4804              		.loc 1 1097 0
 4805 015c 4246     		mov	r2, r8
 4806 015e FF21     		movs	r1, #255
 4807 0160 2846     		mov	r0, r5
 4808              	.LVL754:
 4809              		.loc 1 1094 0
 4810 0162 0BF8054D 		strb	r4, [fp, #-5]!
 4811              		.loc 1 1097 0
 4812 0166 FFF7FEFF 		bl	VL53L0X_WrByte
 4813              	.LVL755:
 4814              		.loc 1 1098 0
 4815 016a 2246     		mov	r2, r4
 4816 016c 2146     		mov	r1, r4
 4817              		.loc 1 1097 0
 4818 016e 0746     		mov	r7, r0
 4819              	.LVL756:
 4820              		.loc 1 1098 0
 4821 0170 2846     		mov	r0, r5
 4822 0172 FFF7FEFF 		bl	VL53L0X_WrByte
 4823              	.LVL757:
 4824              		.loc 1 1099 0
 4825 0176 2246     		mov	r2, r4
 4826              		.loc 1 1098 0
 4827 0178 0743     		orrs	r7, r7, r0
 4828              	.LVL758:
 4829              		.loc 1 1099 0
 4830 017a FF21     		movs	r1, #255
 4831 017c 2846     		mov	r0, r5
 4832 017e FFF7FEFF 		bl	VL53L0X_WrByte
 4833              	.LVL759:
 4834              		.loc 1 1098 0
 4835 0182 7FB2     		sxtb	r7, r7
 4836              	.LVL760:
 4837              		.loc 1 1105 0
 4838 0184 5A46     		mov	r2, fp
 4839              		.loc 1 1099 0
 4840 0186 0743     		orrs	r7, r7, r0
 4841              	.LVL761:
 4842              		.loc 1 1105 0
 4843 0188 EE21     		movs	r1, #238
 4844 018a 2846     		mov	r0, r5
 4845 018c FFF7FEFF 		bl	VL53L0X_RdByte
ARM GAS  C:\Users\mathi\AppData\Local\Temp\ccVwcWGw.s 			page 86


 4846              	.LVL762:
 4847              		.loc 1 1099 0
 4848 0190 7FB2     		sxtb	r7, r7
 4849              	.LVL763:
 4850              		.loc 1 1113 0
 4851 0192 4246     		mov	r2, r8
 4852              		.loc 1 1105 0
 4853 0194 0743     		orrs	r7, r7, r0
 4854              	.LVL764:
 4855              		.loc 1 1113 0
 4856 0196 FF21     		movs	r1, #255
 4857 0198 2846     		mov	r0, r5
 4858 019a FFF7FEFF 		bl	VL53L0X_WrByte
 4859              	.LVL765:
 4860              		.loc 1 1105 0
 4861 019e 7FB2     		sxtb	r7, r7
 4862              	.LVL766:
 4863              		.loc 1 1114 0
 4864 01a0 2146     		mov	r1, r4
 4865 01a2 4246     		mov	r2, r8
 4866              		.loc 1 1113 0
 4867 01a4 0743     		orrs	r7, r7, r0
 4868              	.LVL767:
 4869              		.loc 1 1114 0
 4870 01a6 2846     		mov	r0, r5
 4871 01a8 FFF7FEFF 		bl	VL53L0X_WrByte
 4872              	.LVL768:
 4873              		.loc 1 1113 0
 4874 01ac 7FB2     		sxtb	r7, r7
 4875              	.LVL769:
 4876              		.loc 1 1115 0
 4877 01ae 2246     		mov	r2, r4
 4878 01b0 FF21     		movs	r1, #255
 4879              		.loc 1 1114 0
 4880 01b2 47EA0004 		orr	r4, r7, r0
 4881              		.loc 1 1115 0
 4882 01b6 2846     		mov	r0, r5
 4883 01b8 FFF7FEFF 		bl	VL53L0X_WrByte
 4884              	.LVL770:
 4885              		.loc 1 1114 0
 4886 01bc 64B2     		sxtb	r4, r4
 4887              	.LVL771:
 4888              		.loc 1 1117 0
 4889 01be 9DF80330 		ldrb	r3, [sp, #3]	@ zero_extendqisi2
 4890              		.loc 1 1115 0
 4891 01c2 0443     		orrs	r4, r4, r0
 4892              	.LVL772:
 4893              		.loc 1 1117 0
 4894 01c4 23F01003 		bic	r3, r3, #16
 4895              		.loc 1 1115 0
 4896 01c8 64B2     		sxtb	r4, r4
 4897              	.LVL773:
 4898              		.loc 1 1117 0
 4899 01ca 8AF80030 		strb	r3, [r10]
 4900              	.LVL774:
 4901              	.LBE180:
 4902              	.LBE179:
ARM GAS  C:\Users\mathi\AppData\Local\Temp\ccVwcWGw.s 			page 87


 4903              		.loc 1 1201 0
 4904 01ce 002C     		cmp	r4, #0
 4905 01d0 83D0     		beq	.L678
 4906 01d2 2AE7     		b	.L675
 4907              	.LVL775:
 4908              	.L688:
 4909              	.LBE181:
 4910              	.LBE183:
 4911              		.loc 1 1246 0
 4912 01d4 FFF7FEFF 		bl	__stack_chk_fail
 4913              	.LVL776:
 4914              	.L693:
 4915              		.align	2
 4916              	.L692:
 4917 01d8 00000000 		.word	__stack_chk_guard
 4918              		.cfi_endproc
 4919              	.LFE23:
 4920              		.size	VL53L0X_perform_ref_calibration, .-VL53L0X_perform_ref_calibration
 4921              		.section	.text.VL53L0X_perform_ref_spad_management,"ax",%progbits
 4922              		.align	1
 4923              		.p2align 4,,15
 4924              		.global	VL53L0X_perform_ref_spad_management
 4925              		.syntax unified
 4926              		.thumb
 4927              		.thumb_func
 4928              		.fpu fpv4-sp-d16
 4929              		.type	VL53L0X_perform_ref_spad_management, %function
 4930              	VL53L0X_perform_ref_spad_management:
 4931              	.LFB16:
 4932              		.loc 1 679 0
 4933              		.cfi_startproc
 4934              		@ args = 0, pretend = 0, frame = 72
 4935              		@ frame_needed = 0, uses_anonymous_args = 0
 4936              	.LVL777:
 4937 0000 2DE9F04F 		push	{r4, r5, r6, r7, r8, r9, r10, fp, lr}
 4938              		.cfi_def_cfa_offset 36
 4939              		.cfi_offset 4, -36
 4940              		.cfi_offset 5, -32
 4941              		.cfi_offset 6, -28
 4942              		.cfi_offset 7, -24
 4943              		.cfi_offset 8, -20
 4944              		.cfi_offset 9, -16
 4945              		.cfi_offset 10, -12
 4946              		.cfi_offset 11, -8
 4947              		.cfi_offset 14, -4
 4948 0004 97B0     		sub	sp, sp, #92
 4949              		.cfi_def_cfa_offset 128
 4950              		.loc 1 679 0
 4951 0006 CDE90712 		strd	r1, r2, [sp, #28]
 4952 000a B94A     		ldr	r2, .L759
 4953              	.LVL778:
 4954              		.loc 1 724 0
 4955 000c B0F83C91 		ldrh	r9, [r0, #316]
 4956              		.loc 1 679 0
 4957 0010 1468     		ldr	r4, [r2]
 4958 0012 1594     		str	r4, [sp, #84]
 4959              	.LVL779:
ARM GAS  C:\Users\mathi\AppData\Local\Temp\ccVwcWGw.s 			page 88


 4960              		.loc 1 686 0
 4961 0014 0023     		movs	r3, #0
 4962              		.loc 1 738 0
 4963 0016 0122     		movs	r2, #1
 4964              		.loc 1 735 0
 4965 0018 C0F82431 		str	r3, [r0, #292]
 4966 001c A0F82831 		strh	r3, [r0, #296]	@ movhi
 4967              		.loc 1 738 0
 4968 0020 FF21     		movs	r1, #255
 4969              	.LVL780:
 4970              		.loc 1 679 0
 4971 0022 0546     		mov	r5, r0
 4972              		.loc 1 686 0
 4973 0024 0B93     		str	r3, [sp, #44]
 4974              	.LVL781:
 4975              		.loc 1 696 0
 4976 0026 8DF82830 		strb	r3, [sp, #40]
 4977              		.loc 1 697 0
 4978 002a 8DF82930 		strb	r3, [sp, #41]
 4979              	.LVL782:
 4980              		.loc 1 738 0
 4981 002e FFF7FEFF 		bl	VL53L0X_WrByte
 4982              	.LVL783:
 4983              		.loc 1 740 0
 4984 0032 0246     		mov	r2, r0
 4985 0034 48B1     		cbz	r0, .L753
 4986              	.LVL784:
 4987              	.L695:
 4988              		.loc 1 941 0
 4989 0036 AE4B     		ldr	r3, .L759
 4990 0038 1599     		ldr	r1, [sp, #84]
 4991 003a 1B68     		ldr	r3, [r3]
 4992 003c 9942     		cmp	r1, r3
 4993 003e 1046     		mov	r0, r2
 4994 0040 40F00382 		bne	.L754
 4995 0044 17B0     		add	sp, sp, #92
 4996              		.cfi_remember_state
 4997              		.cfi_def_cfa_offset 36
 4998              		@ sp needed
 4999 0046 BDE8F08F 		pop	{r4, r5, r6, r7, r8, r9, r10, fp, pc}
 5000              	.LVL785:
 5001              	.L753:
 5002              		.cfi_restore_state
 5003              		.loc 1 741 0
 5004 004a 4F21     		movs	r1, #79
 5005 004c 2846     		mov	r0, r5
 5006              	.LVL786:
 5007 004e FFF7FEFF 		bl	VL53L0X_WrByte
 5008              	.LVL787:
 5009              		.loc 1 744 0
 5010 0052 0246     		mov	r2, r0
 5011 0054 0028     		cmp	r0, #0
 5012 0056 EED1     		bne	.L695
 5013              		.loc 1 745 0
 5014 0058 2C22     		movs	r2, #44
 5015 005a 4E21     		movs	r1, #78
 5016 005c 2846     		mov	r0, r5
ARM GAS  C:\Users\mathi\AppData\Local\Temp\ccVwcWGw.s 			page 89


 5017              	.LVL788:
 5018 005e FFF7FEFF 		bl	VL53L0X_WrByte
 5019              	.LVL789:
 5020              		.loc 1 748 0
 5021 0062 0246     		mov	r2, r0
 5022 0064 0028     		cmp	r0, #0
 5023 0066 E6D1     		bne	.L695
 5024              		.loc 1 749 0
 5025 0068 FF21     		movs	r1, #255
 5026 006a 2846     		mov	r0, r5
 5027              	.LVL790:
 5028 006c FFF7FEFF 		bl	VL53L0X_WrByte
 5029              	.LVL791:
 5030              		.loc 1 751 0
 5031 0070 0246     		mov	r2, r0
 5032 0072 0028     		cmp	r0, #0
 5033 0074 DFD1     		bne	.L695
 5034              		.loc 1 752 0
 5035 0076 B422     		movs	r2, #180
 5036 0078 B621     		movs	r1, #182
 5037 007a 2846     		mov	r0, r5
 5038              	.LVL792:
 5039 007c FFF7FEFF 		bl	VL53L0X_WrByte
 5040              	.LVL793:
 5041              		.loc 1 757 0
 5042 0080 0246     		mov	r2, r0
 5043 0082 0028     		cmp	r0, #0
 5044 0084 D7D1     		bne	.L695
 5045              		.loc 1 758 0
 5046 0086 8021     		movs	r1, #128
 5047 0088 2846     		mov	r0, r5
 5048              	.LVL794:
 5049 008a FFF7FEFF 		bl	VL53L0X_WrByte
 5050              	.LVL795:
 5051              		.loc 1 762 0
 5052 008e 0246     		mov	r2, r0
 5053 0090 0028     		cmp	r0, #0
 5054 0092 D0D1     		bne	.L695
 5055              		.loc 1 763 0
 5056 0094 0346     		mov	r3, r0
 5057 0096 0DF12902 		add	r2, sp, #41
 5058 009a 0AA9     		add	r1, sp, #40
 5059 009c 2846     		mov	r0, r5
 5060              	.LVL796:
 5061 009e FFF7FEFF 		bl	VL53L0X_perform_ref_calibration
 5062              	.LVL797:
 5063              		.loc 1 766 0
 5064 00a2 0246     		mov	r2, r0
 5065 00a4 0028     		cmp	r0, #0
 5066 00a6 C6D1     		bne	.L695
 5067              		.loc 1 769 0
 5068 00a8 16AF     		add	r7, sp, #88
 5069              		.loc 1 773 0
 5070 00aa 05F59573 		add	r3, r5, #298
 5071              		.loc 1 769 0
 5072 00ae 47F82C0D 		str	r0, [r7, #-44]!
 5073              		.loc 1 774 0
ARM GAS  C:\Users\mathi\AppData\Local\Temp\ccVwcWGw.s 			page 90


 5074 00b2 05F59276 		add	r6, r5, #292
 5075              		.loc 1 771 0
 5076 00b6 0320     		movs	r0, #3
 5077              	.LVL798:
 5078              		.loc 1 773 0
 5079 00b8 0693     		str	r3, [sp, #24]
 5080              		.loc 1 771 0
 5081 00ba 0092     		str	r2, [sp]
 5082 00bc 1146     		mov	r1, r2
 5083 00be 0190     		str	r0, [sp, #4]
 5084 00c0 1A46     		mov	r2, r3
 5085 00c2 0297     		str	r7, [sp, #8]
 5086 00c4 3346     		mov	r3, r6
 5087 00c6 2846     		mov	r0, r5
 5088 00c8 FFF7FEFF 		bl	enable_ref_spads.constprop.1
 5089              	.LVL799:
 5090              		.loc 1 782 0
 5091 00cc 0246     		mov	r2, r0
 5092 00ce 0028     		cmp	r0, #0
 5093 00d0 B1D1     		bne	.L695
 5094              	.LBB202:
 5095              	.LBB203:
 5096              		.loc 1 647 0
 5097 00d2 C022     		movs	r2, #192
 5098 00d4 0121     		movs	r1, #1
 5099 00d6 2846     		mov	r0, r5
 5100              	.LVL800:
 5101              	.LBE203:
 5102              	.LBE202:
 5103              		.loc 1 783 0
 5104 00d8 0B9C     		ldr	r4, [sp, #44]
 5105              	.LVL801:
 5106              	.LBB206:
 5107              	.LBB204:
 5108              		.loc 1 641 0
 5109 00da 95F83081 		ldrb	r8, [r5, #304]	@ zero_extendqisi2
 5110              	.LVL802:
 5111              		.loc 1 647 0
 5112 00de FFF7FEFF 		bl	VL53L0X_WrByte
 5113              	.LVL803:
 5114              		.loc 1 650 0
 5115 00e2 0246     		mov	r2, r0
 5116 00e4 0028     		cmp	r0, #0
 5117 00e6 A6D1     		bne	.L695
 5118              		.loc 1 651 0
 5119 00e8 0CA9     		add	r1, sp, #48
 5120 00ea 2846     		mov	r0, r5
 5121              	.LVL804:
 5122 00ec FFF7FEFF 		bl	VL53L0X_PerformSingleRangingMeasurement
 5123              	.LVL805:
 5124              		.loc 1 654 0
 5125 00f0 0246     		mov	r2, r0
 5126 00f2 0028     		cmp	r0, #0
 5127 00f4 9FD1     		bne	.L695
 5128              		.loc 1 655 0
 5129 00f6 0122     		movs	r2, #1
 5130 00f8 FF21     		movs	r1, #255
ARM GAS  C:\Users\mathi\AppData\Local\Temp\ccVwcWGw.s 			page 91


 5131 00fa 2846     		mov	r0, r5
 5132              	.LVL806:
 5133 00fc FFF7FEFF 		bl	VL53L0X_WrByte
 5134              	.LVL807:
 5135              		.loc 1 657 0
 5136 0100 0246     		mov	r2, r0
 5137 0102 0028     		cmp	r0, #0
 5138 0104 97D1     		bne	.L695
 5139              		.loc 1 658 0
 5140 0106 0DF12A02 		add	r2, sp, #42
 5141              	.LVL808:
 5142 010a B621     		movs	r1, #182
 5143 010c 2846     		mov	r0, r5
 5144              	.LVL809:
 5145 010e FFF7FEFF 		bl	VL53L0X_RdWord
 5146              	.LVL810:
 5147              		.loc 1 662 0
 5148 0112 0246     		mov	r2, r0
 5149 0114 0028     		cmp	r0, #0
 5150 0116 8ED1     		bne	.L695
 5151              		.loc 1 663 0
 5152 0118 FF21     		movs	r1, #255
 5153 011a 2846     		mov	r0, r5
 5154              	.LVL811:
 5155 011c FFF7FEFF 		bl	VL53L0X_WrByte
 5156              	.LVL812:
 5157              		.loc 1 665 0
 5158 0120 0246     		mov	r2, r0
 5159 0122 0028     		cmp	r0, #0
 5160 0124 87D1     		bne	.L695
 5161              		.loc 1 667 0
 5162 0126 4246     		mov	r2, r8
 5163 0128 0121     		movs	r1, #1
 5164 012a 2846     		mov	r0, r5
 5165              	.LVL813:
 5166 012c FFF7FEFF 		bl	VL53L0X_WrByte
 5167              	.LVL814:
 5168              		.loc 1 669 0
 5169 0130 0028     		cmp	r0, #0
 5170 0132 72D1     		bne	.L749
 5171              	.LBE204:
 5172              	.LBE206:
 5173              		.loc 1 788 0
 5174 0134 BDF82A30 		ldrh	r3, [sp, #42]
 5175              	.LBB207:
 5176              	.LBB205:
 5177              		.loc 1 670 0
 5178 0138 85F83081 		strb	r8, [r5, #304]
 5179              	.LVL815:
 5180              	.LBE205:
 5181              	.LBE207:
 5182              		.loc 1 787 0
 5183 013c 4B45     		cmp	r3, r9
 5184 013e 6ED9     		bls	.L722
 5185              	.LVL816:
 5186              		.loc 1 797 0
 5187 0140 04F1B403 		add	r3, r4, #180
ARM GAS  C:\Users\mathi\AppData\Local\Temp\ccVwcWGw.s 			page 92


 5188              	.LBB208:
 5189              	.LBB209:
 5190              		.loc 1 455 0
 5191 0144 9B09     		lsrs	r3, r3, #6
 5192              		.loc 1 456 0
 5193 0146 6B49     		ldr	r1, .L759+4
 5194              	.LBE209:
 5195              	.LBE208:
 5196              		.loc 1 793 0
 5197 0148 C5F82401 		str	r0, [r5, #292]
 5198              	.LBB214:
 5199              	.LBB210:
 5200              		.loc 1 456 0
 5201 014c 51F82330 		ldr	r3, [r1, r3, lsl #2]
 5202              	.LBE210:
 5203              	.LBE214:
 5204              		.loc 1 793 0
 5205 0150 A5F82801 		strh	r0, [r5, #296]	@ movhi
 5206              	.LVL817:
 5207              	.LBB215:
 5208              	.LBB211:
 5209              		.loc 1 456 0
 5210 0154 002B     		cmp	r3, #0
 5211 0156 40F07181 		bne	.L724
 5212              	.LVL818:
 5213              	.LBE211:
 5214              	.LBE215:
 5215              		.loc 1 798 0
 5216 015a 2B2C     		cmp	r4, #43
 5217 015c 03D9     		bls	.L699
 5218 015e 6DE1     		b	.L724
 5219              	.LVL819:
 5220              	.L755:
 5221 0160 2C2A     		cmp	r2, #44
 5222 0162 1446     		mov	r4, r2
 5223 0164 07D0     		beq	.L698
 5224              	.LVL820:
 5225              	.L699:
 5226              	.LBB216:
 5227              	.LBB212:
 5228              		.loc 1 455 0
 5229 0166 04F1B503 		add	r3, r4, #181
 5230 016a 9B09     		lsrs	r3, r3, #6
 5231              	.LBE212:
 5232              	.LBE216:
 5233              		.loc 1 799 0
 5234 016c 621C     		adds	r2, r4, #1
 5235              	.LVL821:
 5236              	.LBB217:
 5237              	.LBB213:
 5238              		.loc 1 456 0
 5239 016e 51F82330 		ldr	r3, [r1, r3, lsl #2]
 5240 0172 002B     		cmp	r3, #0
 5241 0174 F4D0     		beq	.L755
 5242              	.LVL822:
 5243              	.L698:
 5244              	.LBE213:
ARM GAS  C:\Users\mathi\AppData\Local\Temp\ccVwcWGw.s 			page 93


 5245              	.LBE217:
 5246              		.loc 1 804 0
 5247 0176 4FF0030B 		mov	fp, #3
 5248 017a CDE9002B 		strd	r2, fp, [sp]
 5249 017e 0297     		str	r7, [sp, #8]
 5250 0180 069A     		ldr	r2, [sp, #24]
 5251 0182 3346     		mov	r3, r6
 5252 0184 0121     		movs	r1, #1
 5253 0186 2846     		mov	r0, r5
 5254 0188 FFF7FEFF 		bl	enable_ref_spads.constprop.1
 5255              	.LVL823:
 5256              		.loc 1 814 0
 5257 018c 0246     		mov	r2, r0
 5258 018e 0028     		cmp	r0, #0
 5259 0190 7FF451AF 		bne	.L695
 5260              	.LBB218:
 5261              	.LBB219:
 5262              		.loc 1 647 0
 5263 0194 C022     		movs	r2, #192
 5264 0196 0121     		movs	r1, #1
 5265 0198 2846     		mov	r0, r5
 5266              	.LVL824:
 5267              	.LBE219:
 5268              	.LBE218:
 5269              		.loc 1 815 0
 5270 019a 0B9C     		ldr	r4, [sp, #44]
 5271              	.LVL825:
 5272              	.LBB222:
 5273              	.LBB220:
 5274              		.loc 1 641 0
 5275 019c 95F83071 		ldrb	r7, [r5, #304]	@ zero_extendqisi2
 5276              	.LVL826:
 5277              		.loc 1 647 0
 5278 01a0 FFF7FEFF 		bl	VL53L0X_WrByte
 5279              	.LVL827:
 5280              		.loc 1 650 0
 5281 01a4 0246     		mov	r2, r0
 5282 01a6 0028     		cmp	r0, #0
 5283 01a8 7FF445AF 		bne	.L695
 5284              		.loc 1 651 0
 5285 01ac 0CA9     		add	r1, sp, #48
 5286 01ae 2846     		mov	r0, r5
 5287              	.LVL828:
 5288 01b0 FFF7FEFF 		bl	VL53L0X_PerformSingleRangingMeasurement
 5289              	.LVL829:
 5290              		.loc 1 654 0
 5291 01b4 0246     		mov	r2, r0
 5292 01b6 0028     		cmp	r0, #0
 5293 01b8 7FF43DAF 		bne	.L695
 5294              		.loc 1 655 0
 5295 01bc 0122     		movs	r2, #1
 5296 01be FF21     		movs	r1, #255
 5297 01c0 2846     		mov	r0, r5
 5298              	.LVL830:
 5299 01c2 FFF7FEFF 		bl	VL53L0X_WrByte
 5300              	.LVL831:
 5301              		.loc 1 657 0
ARM GAS  C:\Users\mathi\AppData\Local\Temp\ccVwcWGw.s 			page 94


 5302 01c6 0246     		mov	r2, r0
 5303 01c8 0028     		cmp	r0, #0
 5304 01ca 7FF434AF 		bne	.L695
 5305              		.loc 1 658 0
 5306 01ce 0DF12A02 		add	r2, sp, #42
 5307              	.LVL832:
 5308 01d2 B621     		movs	r1, #182
 5309 01d4 2846     		mov	r0, r5
 5310              	.LVL833:
 5311 01d6 FFF7FEFF 		bl	VL53L0X_RdWord
 5312              	.LVL834:
 5313              		.loc 1 662 0
 5314 01da 0246     		mov	r2, r0
 5315 01dc 0028     		cmp	r0, #0
 5316 01de 7FF42AAF 		bne	.L695
 5317              		.loc 1 663 0
 5318 01e2 FF21     		movs	r1, #255
 5319 01e4 2846     		mov	r0, r5
 5320              	.LVL835:
 5321 01e6 FFF7FEFF 		bl	VL53L0X_WrByte
 5322              	.LVL836:
 5323              		.loc 1 665 0
 5324 01ea 0246     		mov	r2, r0
 5325 01ec 0028     		cmp	r0, #0
 5326 01ee 7FF422AF 		bne	.L695
 5327              		.loc 1 667 0
 5328 01f2 3A46     		mov	r2, r7
 5329 01f4 0121     		movs	r1, #1
 5330 01f6 2846     		mov	r0, r5
 5331              	.LVL837:
 5332 01f8 FFF7FEFF 		bl	VL53L0X_WrByte
 5333              	.LVL838:
 5334              		.loc 1 669 0
 5335 01fc 0246     		mov	r2, r0
 5336 01fe 0028     		cmp	r0, #0
 5337 0200 7FF419AF 		bne	.L695
 5338              	.LBE220:
 5339              	.LBE222:
 5340              		.loc 1 820 0
 5341 0204 BDF82A30 		ldrh	r3, [sp, #42]
 5342              	.LBB223:
 5343              	.LBB221:
 5344              		.loc 1 670 0
 5345 0208 85F83071 		strb	r7, [r5, #304]
 5346              	.LVL839:
 5347              	.LBE221:
 5348              	.LBE223:
 5349              		.loc 1 819 0
 5350 020c 4B45     		cmp	r3, r9
 5351 020e 40F21781 		bls	.L725
 5352 0212 0122     		movs	r2, #1
 5353 0214 0992     		str	r2, [sp, #36]
 5354              		.loc 1 827 0
 5355 0216 9046     		mov	r8, r2
 5356 0218 05E0     		b	.L697
 5357              	.LVL840:
 5358              	.L749:
ARM GAS  C:\Users\mathi\AppData\Local\Temp\ccVwcWGw.s 			page 95


 5359 021a 0246     		mov	r2, r0
 5360 021c 0BE7     		b	.L695
 5361              	.LVL841:
 5362              	.L722:
 5363 021e 8046     		mov	r8, r0
 5364 0220 0990     		str	r0, [sp, #36]
 5365              		.loc 1 699 0
 5366 0222 0246     		mov	r2, r0
 5367              		.loc 1 698 0
 5368 0224 8346     		mov	fp, r0
 5369              	.LVL842:
 5370              	.L697:
 5371              		.loc 1 836 0 discriminator 1
 5372 0226 4B45     		cmp	r3, r9
 5373 0228 80F00481 		bcs	.L726
 5374              	.LVL843:
 5375              		.loc 1 848 0
 5376 022c A3EB0903 		sub	r3, r3, r9
 5377              	.LBB224:
 5378              	.LBB225:
 5379              		.loc 1 419 0
 5380 0230 4FEAD40A 		lsr	r10, r4, #3
 5381              	.LBE225:
 5382              	.LBE224:
 5383              		.loc 1 848 0
 5384 0234 002B     		cmp	r3, #0
 5385 0236 B8BF     		it	lt
 5386 0238 5B42     		rsblt	r3, r3, #0
 5387              		.loc 1 846 0
 5388 023a B288     		ldrh	r2, [r6, #4]	@ unaligned
 5389 023c 3068     		ldr	r0, [r6]	@ unaligned
 5390 023e ADF85020 		strh	r2, [sp, #80]	@ unaligned
 5391              	.LBB234:
 5392              	.LBB226:
 5393              		.loc 1 422 0
 5394 0242 BAF1050F 		cmp	r10, #5
 5395              	.LBE226:
 5396              	.LBE234:
 5397              		.loc 1 848 0
 5398 0246 0593     		str	r3, [sp, #20]
 5399              	.LVL844:
 5400              		.loc 1 846 0
 5401 0248 1390     		str	r0, [sp, #76]
 5402              	.LBB235:
 5403              	.LBB227:
 5404              		.loc 1 420 0
 5405 024a 04F00704 		and	r4, r4, #7
 5406              	.LVL845:
 5407              		.loc 1 422 0
 5408 024e 00F2DB80 		bhi	.L702
 5409              	.LBE227:
 5410              	.LBE235:
 5411              		.loc 1 844 0
 5412 0252 0323     		movs	r3, #3
 5413              	.LBB236:
 5414              	.LBB237:
 5415              		.loc 1 456 0
ARM GAS  C:\Users\mathi\AppData\Local\Temp\ccVwcWGw.s 			page 96


 5416 0254 274F     		ldr	r7, .L759+4
 5417              	.LBE237:
 5418              	.LBE236:
 5419              		.loc 1 844 0
 5420 0256 0493     		str	r3, [sp, #16]
 5421              	.LVL846:
 5422              	.L718:
 5423 0258 069B     		ldr	r3, [sp, #24]
 5424 025a 0AF1FF3C 		add	ip, r10, #-1
 5425 025e 9C44     		add	ip, ip, r3
 5426              	.LBB239:
 5427              	.LBB228:
 5428              		.loc 1 441 0
 5429 0260 5046     		mov	r0, r10
 5430              	.LVL847:
 5431              		.loc 1 427 0
 5432 0262 5045     		cmp	r0, r10
 5433              		.loc 1 441 0
 5434 0264 04F1010B 		add	fp, r4, #1
 5435              		.loc 1 425 0
 5436 0268 1CF8013F 		ldrb	r3, [ip, #1]!	@ zero_extendqisi2
 5437              	.LVL848:
 5438              		.loc 1 427 0
 5439 026c 34D0     		beq	.L704
 5440              	.LVL849:
 5441              	.L757:
 5442              		.loc 1 435 0
 5443 026e 13F00101 		ands	r1, r3, #1
 5444 0272 40F0C780 		bne	.L756
 5445              		.loc 1 440 0
 5446 0276 4FEA530E 		lsr	lr, r3, #1
 5447              	.LVL850:
 5448              		.loc 1 441 0
 5449 027a 0122     		movs	r2, #1
 5450              	.LVL851:
 5451              	.L719:
 5452              		.loc 1 435 0
 5453 027c 1EF0010F 		tst	lr, #1
 5454 0280 3BD1     		bne	.L705
 5455              	.LVL852:
 5456              		.loc 1 441 0
 5457 0282 8A1C     		adds	r2, r1, #2
 5458              	.LVL853:
 5459              		.loc 1 434 0
 5460 0284 082A     		cmp	r2, #8
 5461 0286 1FD0     		beq	.L751
 5462              		.loc 1 435 0
 5463 0288 13F0040F 		tst	r3, #4
 5464 028c 35D1     		bne	.L705
 5465              	.LVL854:
 5466              		.loc 1 441 0
 5467 028e CA1C     		adds	r2, r1, #3
 5468              	.LVL855:
 5469              		.loc 1 434 0
 5470 0290 082A     		cmp	r2, #8
 5471 0292 19D0     		beq	.L751
 5472              		.loc 1 435 0
ARM GAS  C:\Users\mathi\AppData\Local\Temp\ccVwcWGw.s 			page 97


 5473 0294 13F0080F 		tst	r3, #8
 5474 0298 2FD1     		bne	.L705
 5475              	.LVL856:
 5476              		.loc 1 441 0
 5477 029a 0A1D     		adds	r2, r1, #4
 5478              	.LVL857:
 5479              		.loc 1 434 0
 5480 029c 082A     		cmp	r2, #8
 5481 029e 13D0     		beq	.L751
 5482              		.loc 1 435 0
 5483 02a0 13F0100F 		tst	r3, #16
 5484 02a4 29D1     		bne	.L705
 5485              	.LVL858:
 5486              		.loc 1 441 0
 5487 02a6 4A1D     		adds	r2, r1, #5
 5488              	.LVL859:
 5489              		.loc 1 434 0
 5490 02a8 082A     		cmp	r2, #8
 5491 02aa 0DD0     		beq	.L751
 5492              		.loc 1 435 0
 5493 02ac 13F0200F 		tst	r3, #32
 5494 02b0 23D1     		bne	.L705
 5495              	.LVL860:
 5496              		.loc 1 441 0
 5497 02b2 8A1D     		adds	r2, r1, #6
 5498              	.LVL861:
 5499              		.loc 1 434 0
 5500 02b4 082A     		cmp	r2, #8
 5501 02b6 07D0     		beq	.L751
 5502              		.loc 1 435 0
 5503 02b8 13F0400F 		tst	r3, #64
 5504 02bc 1DD1     		bne	.L705
 5505              		.loc 1 440 0
 5506 02be DB09     		lsrs	r3, r3, #7
 5507              	.LVL862:
 5508              		.loc 1 434 0
 5509 02c0 11B9     		cbnz	r1, .L751
 5510              		.loc 1 435 0
 5511 02c2 002B     		cmp	r3, #0
 5512 02c4 40F0B880 		bne	.L729
 5513              	.LVL863:
 5514              	.L751:
 5515              		.loc 1 422 0
 5516 02c8 0528     		cmp	r0, #5
 5517 02ca 00F09D80 		beq	.L702
 5518              	.LVL864:
 5519 02ce 0130     		adds	r0, r0, #1
 5520              	.LVL865:
 5521              		.loc 1 427 0
 5522 02d0 5045     		cmp	r0, r10
 5523              		.loc 1 425 0
 5524 02d2 1CF8013F 		ldrb	r3, [ip, #1]!	@ zero_extendqisi2
 5525              	.LVL866:
 5526              		.loc 1 427 0
 5527 02d6 CAD1     		bne	.L757
 5528              	.LVL867:
 5529              	.L704:
ARM GAS  C:\Users\mathi\AppData\Local\Temp\ccVwcWGw.s 			page 98


 5530              		.loc 1 430 0
 5531 02d8 2341     		asrs	r3, r3, r4
 5532              	.LVL868:
 5533 02da DBB2     		uxtb	r3, r3
 5534              	.LVL869:
 5535              		.loc 1 435 0
 5536 02dc DA07     		lsls	r2, r3, #31
 5537 02de 0BD4     		bmi	.L728
 5538              	.LVL870:
 5539              		.loc 1 434 0
 5540 02e0 BBF1080F 		cmp	fp, #8
 5541 02e4 F0D0     		beq	.L751
 5542              		.loc 1 440 0
 5543 02e6 4FEA530E 		lsr	lr, r3, #1
 5544 02ea 2146     		mov	r1, r4
 5545 02ec 5A46     		mov	r2, fp
 5546 02ee C5E7     		b	.L719
 5547              	.L760:
 5548              		.align	2
 5549              	.L759:
 5550 02f0 00000000 		.word	__stack_chk_guard
 5551 02f4 00000000 		.word	.LANCHOR0
 5552              	.LVL871:
 5553              	.L728:
 5554              		.loc 1 435 0
 5555 02f8 2246     		mov	r2, r4
 5556              	.LVL872:
 5557              	.L705:
 5558              		.loc 1 437 0
 5559 02fa 02EBC004 		add	r4, r2, r0, lsl #3
 5560              	.LVL873:
 5561              	.LBE228:
 5562              	.LBE239:
 5563              		.loc 1 866 0
 5564 02fe 04F1B403 		add	r3, r4, #180
 5565              	.LBB240:
 5566              	.LBB238:
 5567              		.loc 1 455 0
 5568 0302 9B09     		lsrs	r3, r3, #6
 5569              		.loc 1 456 0
 5570 0304 57F82330 		ldr	r3, [r7, r3, lsl #2]
 5571 0308 0033     		adds	r3, r3, #0
 5572 030a 18BF     		it	ne
 5573 030c 0123     		movne	r3, #1
 5574              	.LBE238:
 5575              	.LBE240:
 5576              		.loc 1 866 0
 5577 030e 4345     		cmp	r3, r8
 5578 0310 40F08D80 		bne	.L731
 5579              	.LBB241:
 5580              	.LBB242:
 5581              		.loc 1 471 0
 5582 0314 E208     		lsrs	r2, r4, #3
 5583              		.loc 1 472 0
 5584 0316 04F00703 		and	r3, r4, #7
 5585              		.loc 1 476 0
 5586 031a B15C     		ldrb	r1, [r6, r2]	@ zero_extendqisi2
ARM GAS  C:\Users\mathi\AppData\Local\Temp\ccVwcWGw.s 			page 99


 5587 031c 0120     		movs	r0, #1
 5588 031e 00FA03F3 		lsl	r3, r0, r3
 5589 0322 0B43     		orrs	r3, r3, r1
 5590 0324 B354     		strb	r3, [r6, r2]
 5591              	.LBE242:
 5592              	.LBE241:
 5593              	.LBB243:
 5594              	.LBB244:
 5595              		.loc 1 541 0
 5596 0326 B021     		movs	r1, #176
 5597 0328 0623     		movs	r3, #6
 5598 032a 3246     		mov	r2, r6
 5599 032c 2846     		mov	r0, r5
 5600 032e FFF7FEFF 		bl	VL53L0X_WriteMulti
 5601              	.LVL874:
 5602              	.LBE244:
 5603              	.LBE243:
 5604              		.loc 1 875 0
 5605 0332 049B     		ldr	r3, [sp, #16]
 5606              		.loc 1 883 0
 5607 0334 0134     		adds	r4, r4, #1
 5608              	.LVL875:
 5609              		.loc 1 875 0
 5610 0336 03F1010B 		add	fp, r3, #1
 5611              	.LVL876:
 5612              		.loc 1 890 0
 5613 033a 0028     		cmp	r0, #0
 5614 033c 7FF46DAF 		bne	.L749
 5615              	.LVL877:
 5616              	.LBB245:
 5617              	.LBB246:
 5618              		.loc 1 647 0
 5619 0340 C022     		movs	r2, #192
 5620 0342 0121     		movs	r1, #1
 5621 0344 2846     		mov	r0, r5
 5622              	.LVL878:
 5623              		.loc 1 641 0
 5624 0346 95F830A1 		ldrb	r10, [r5, #304]	@ zero_extendqisi2
 5625              	.LVL879:
 5626              		.loc 1 647 0
 5627 034a FFF7FEFF 		bl	VL53L0X_WrByte
 5628              	.LVL880:
 5629              		.loc 1 650 0
 5630 034e 0028     		cmp	r0, #0
 5631 0350 7FF463AF 		bne	.L749
 5632              		.loc 1 651 0
 5633 0354 0CA9     		add	r1, sp, #48
 5634 0356 2846     		mov	r0, r5
 5635              	.LVL881:
 5636 0358 FFF7FEFF 		bl	VL53L0X_PerformSingleRangingMeasurement
 5637              	.LVL882:
 5638              		.loc 1 654 0
 5639 035c 0028     		cmp	r0, #0
 5640 035e 7FF45CAF 		bne	.L749
 5641              		.loc 1 655 0
 5642 0362 0122     		movs	r2, #1
 5643 0364 FF21     		movs	r1, #255
ARM GAS  C:\Users\mathi\AppData\Local\Temp\ccVwcWGw.s 			page 100


 5644 0366 2846     		mov	r0, r5
 5645              	.LVL883:
 5646 0368 FFF7FEFF 		bl	VL53L0X_WrByte
 5647              	.LVL884:
 5648              		.loc 1 657 0
 5649 036c 0028     		cmp	r0, #0
 5650 036e 7FF454AF 		bne	.L749
 5651              		.loc 1 658 0
 5652 0372 0DF12A02 		add	r2, sp, #42
 5653              	.LVL885:
 5654 0376 B621     		movs	r1, #182
 5655 0378 2846     		mov	r0, r5
 5656              	.LVL886:
 5657 037a FFF7FEFF 		bl	VL53L0X_RdWord
 5658              	.LVL887:
 5659              		.loc 1 663 0
 5660 037e 0246     		mov	r2, r0
 5661              		.loc 1 662 0
 5662 0380 0028     		cmp	r0, #0
 5663 0382 7FF458AE 		bne	.L695
 5664              		.loc 1 663 0
 5665 0386 FF21     		movs	r1, #255
 5666 0388 2846     		mov	r0, r5
 5667              	.LVL888:
 5668 038a FFF7FEFF 		bl	VL53L0X_WrByte
 5669              	.LVL889:
 5670              		.loc 1 665 0
 5671 038e 0028     		cmp	r0, #0
 5672 0390 7FF443AF 		bne	.L749
 5673              		.loc 1 667 0
 5674 0394 5246     		mov	r2, r10
 5675 0396 0121     		movs	r1, #1
 5676 0398 2846     		mov	r0, r5
 5677              	.LVL890:
 5678 039a FFF7FEFF 		bl	VL53L0X_WrByte
 5679              	.LVL891:
 5680              		.loc 1 669 0
 5681 039e 0028     		cmp	r0, #0
 5682 03a0 7FF43BAF 		bne	.L749
 5683              	.LBE246:
 5684              	.LBE245:
 5685              		.loc 1 899 0
 5686 03a4 BDF82A20 		ldrh	r2, [sp, #42]
 5687              	.LBB248:
 5688              	.LBB247:
 5689              		.loc 1 670 0
 5690 03a8 85F830A1 		strb	r10, [r5, #304]
 5691              	.LVL892:
 5692              	.LBE247:
 5693              	.LBE248:
 5694              		.loc 1 899 0
 5695 03ac A2EB0903 		sub	r3, r2, r9
 5696 03b0 002B     		cmp	r3, #0
 5697 03b2 B8BF     		it	lt
 5698 03b4 5B42     		rsblt	r3, r3, #0
 5699              	.LVL893:
 5700              		.loc 1 901 0
ARM GAS  C:\Users\mathi\AppData\Local\Temp\ccVwcWGw.s 			page 101


 5701 03b6 4A45     		cmp	r2, r9
 5702 03b8 14D9     		bls	.L717
 5703              		.loc 1 906 0
 5704 03ba 059A     		ldr	r2, [sp, #20]
 5705 03bc 9342     		cmp	r3, r2
 5706 03be 26D8     		bhi	.L758
 5707              	.LVL894:
 5708              	.L701:
 5709              		.loc 1 930 0
 5710 03c0 079A     		ldr	r2, [sp, #28]
 5711              		.loc 1 931 0
 5712 03c2 0899     		ldr	r1, [sp, #32]
 5713 03c4 9DF82440 		ldrb	r4, [sp, #36]	@ zero_extendqisi2
 5714              		.loc 1 930 0
 5715 03c8 C2F800B0 		str	fp, [r2]
 5716              		.loc 1 933 0
 5717 03cc 0123     		movs	r3, #1
 5718              		.loc 1 931 0
 5719 03ce 0C70     		strb	r4, [r1]
 5720              		.loc 1 933 0
 5721 03d0 85F81531 		strb	r3, [r5, #277]
 5722              		.loc 1 934 0
 5723 03d4 1368     		ldr	r3, [r2]
 5724 03d6 85F81331 		strb	r3, [r5, #275]
 5725              		.loc 1 936 0
 5726 03da 0B78     		ldrb	r3, [r1]	@ zero_extendqisi2
 5727 03dc 85F81431 		strb	r3, [r5, #276]
 5728 03e0 0022     		movs	r2, #0
 5729 03e2 28E6     		b	.L695
 5730              	.LVL895:
 5731              	.L717:
 5732              	.LBB249:
 5733              	.LBB229:
 5734              		.loc 1 419 0
 5735 03e4 4FEAD40A 		lsr	r10, r4, #3
 5736              	.LBE229:
 5737              	.LBE249:
 5738              		.loc 1 921 0
 5739 03e8 3068     		ldr	r0, [r6]	@ unaligned
 5740 03ea B288     		ldrh	r2, [r6, #4]	@ unaligned
 5741 03ec 1390     		str	r0, [sp, #76]
 5742              	.LBB250:
 5743              	.LBB230:
 5744              		.loc 1 422 0
 5745 03ee BAF1060F 		cmp	r10, #6
 5746              	.LBE230:
 5747              	.LBE250:
 5748              		.loc 1 899 0
 5749 03f2 0593     		str	r3, [sp, #20]
 5750              		.loc 1 921 0
 5751 03f4 ADF85020 		strh	r2, [sp, #80]	@ unaligned
 5752              	.LVL896:
 5753              	.LBB251:
 5754              	.LBB231:
 5755              		.loc 1 420 0
 5756 03f8 04F00704 		and	r4, r4, #7
 5757              	.LVL897:
ARM GAS  C:\Users\mathi\AppData\Local\Temp\ccVwcWGw.s 			page 102


 5758              		.loc 1 422 0
 5759 03fc 04D0     		beq	.L702
 5760              	.LBE231:
 5761              	.LBE251:
 5762              		.loc 1 875 0
 5763 03fe CDF810B0 		str	fp, [sp, #16]
 5764 0402 29E7     		b	.L718
 5765              	.LVL898:
 5766              	.L756:
 5767              	.LBB252:
 5768              	.LBB232:
 5769              		.loc 1 424 0
 5770 0404 0022     		movs	r2, #0
 5771 0406 78E7     		b	.L705
 5772              	.LVL899:
 5773              	.L702:
 5774              	.LBE232:
 5775              	.LBE252:
 5776              		.loc 1 936 0
 5777 0408 6FF03102 		mvn	r2, #49
 5778 040c 13E6     		b	.L695
 5779              	.LVL900:
 5780              	.L758:
 5781              	.LBB253:
 5782              	.LBB254:
 5783              		.loc 1 541 0
 5784 040e 0623     		movs	r3, #6
 5785              	.LVL901:
 5786 0410 13AA     		add	r2, sp, #76
 5787              	.LVL902:
 5788 0412 B021     		movs	r1, #176
 5789 0414 2846     		mov	r0, r5
 5790 0416 FFF7FEFF 		bl	VL53L0X_WriteMulti
 5791              	.LVL903:
 5792              	.LBE254:
 5793              	.LBE253:
 5794              		.loc 1 911 0
 5795 041a BDF85030 		ldrh	r3, [sp, #80]	@ unaligned
 5796              	.LBB256:
 5797              	.LBB255:
 5798              		.loc 1 541 0
 5799 041e 0246     		mov	r2, r0
 5800              	.LVL904:
 5801              	.LBE255:
 5802              	.LBE256:
 5803              		.loc 1 911 0
 5804 0420 1398     		ldr	r0, [sp, #76]
 5805 0422 C5F82401 		str	r0, [r5, #292]	@ unaligned
 5806 0426 B380     		strh	r3, [r6, #4]	@ unaligned
 5807              	.LVL905:
 5808              		.loc 1 929 0
 5809 0428 002A     		cmp	r2, #0
 5810 042a 7FF404AE 		bne	.L695
 5811              	.LVL906:
 5812              	.L731:
 5813 042e DDF810B0 		ldr	fp, [sp, #16]
 5814 0432 C5E7     		b	.L701
ARM GAS  C:\Users\mathi\AppData\Local\Temp\ccVwcWGw.s 			page 103


 5815              	.LVL907:
 5816              	.L726:
 5817 0434 0992     		str	r2, [sp, #36]
 5818 0436 C3E7     		b	.L701
 5819              	.LVL908:
 5820              	.L729:
 5821              	.LBB257:
 5822              	.LBB233:
 5823              		.loc 1 435 0
 5824 0438 0722     		movs	r2, #7
 5825 043a 5EE7     		b	.L705
 5826              	.LVL909:
 5827              	.L724:
 5828              	.LBE233:
 5829              	.LBE257:
 5830              		.loc 1 798 0
 5831 043c 2246     		mov	r2, r4
 5832 043e 9AE6     		b	.L698
 5833              	.LVL910:
 5834              	.L725:
 5835 0440 0121     		movs	r1, #1
 5836 0442 0991     		str	r1, [sp, #36]
 5837              		.loc 1 698 0
 5838 0444 8346     		mov	fp, r0
 5839              		.loc 1 802 0
 5840 0446 8846     		mov	r8, r1
 5841 0448 EDE6     		b	.L697
 5842              	.LVL911:
 5843              	.L754:
 5844              		.loc 1 941 0
 5845 044a FFF7FEFF 		bl	__stack_chk_fail
 5846              	.LVL912:
 5847              		.cfi_endproc
 5848              	.LFE16:
 5849              		.size	VL53L0X_perform_ref_spad_management, .-VL53L0X_perform_ref_spad_management
 5850 044e 00BF     		.section	.text.VL53L0X_set_ref_calibration,"ax",%progbits
 5851              		.align	1
 5852              		.p2align 4,,15
 5853              		.global	VL53L0X_set_ref_calibration
 5854              		.syntax unified
 5855              		.thumb
 5856              		.thumb_func
 5857              		.fpu fpv4-sp-d16
 5858              		.type	VL53L0X_set_ref_calibration, %function
 5859              	VL53L0X_set_ref_calibration:
 5860              	.LFB24:
 5861              		.loc 1 1250 0
 5862              		.cfi_startproc
 5863              		@ args = 0, pretend = 0, frame = 8
 5864              		@ frame_needed = 0, uses_anonymous_args = 0
 5865              	.LVL913:
 5866 0000 2DE9F041 		push	{r4, r5, r6, r7, r8, lr}
 5867              		.cfi_def_cfa_offset 24
 5868              		.cfi_offset 4, -24
 5869              		.cfi_offset 5, -20
 5870              		.cfi_offset 6, -16
 5871              		.cfi_offset 7, -12
ARM GAS  C:\Users\mathi\AppData\Local\Temp\ccVwcWGw.s 			page 104


 5872              		.cfi_offset 8, -8
 5873              		.cfi_offset 14, -4
 5874 0004 234D     		ldr	r5, .L765
 5875 0006 82B0     		sub	sp, sp, #8
 5876              		.cfi_def_cfa_offset 32
 5877              		.loc 1 1250 0
 5878 0008 2B68     		ldr	r3, [r5]
 5879 000a 0193     		str	r3, [sp, #4]
 5880              	.LVL914:
 5881 000c 8846     		mov	r8, r1
 5882 000e 1746     		mov	r7, r2
 5883              	.LBB260:
 5884              	.LBB261:
 5885              		.loc 1 1097 0
 5886 0010 FF21     		movs	r1, #255
 5887              	.LVL915:
 5888 0012 0122     		movs	r2, #1
 5889              	.LVL916:
 5890              	.LBE261:
 5891              	.LBE260:
 5892              		.loc 1 1250 0
 5893 0014 0646     		mov	r6, r0
 5894              	.LVL917:
 5895              	.LBB265:
 5896              	.LBB262:
 5897              		.loc 1 1097 0
 5898 0016 FFF7FEFF 		bl	VL53L0X_WrByte
 5899              	.LVL918:
 5900              		.loc 1 1098 0
 5901 001a 0022     		movs	r2, #0
 5902 001c 1146     		mov	r1, r2
 5903              		.loc 1 1097 0
 5904 001e 0446     		mov	r4, r0
 5905              	.LVL919:
 5906              		.loc 1 1098 0
 5907 0020 3046     		mov	r0, r6
 5908 0022 FFF7FEFF 		bl	VL53L0X_WrByte
 5909              	.LVL920:
 5910              		.loc 1 1099 0
 5911 0026 0022     		movs	r2, #0
 5912              		.loc 1 1098 0
 5913 0028 0443     		orrs	r4, r4, r0
 5914              	.LVL921:
 5915              		.loc 1 1099 0
 5916 002a FF21     		movs	r1, #255
 5917 002c 3046     		mov	r0, r6
 5918 002e FFF7FEFF 		bl	VL53L0X_WrByte
 5919              	.LVL922:
 5920              		.loc 1 1098 0
 5921 0032 64B2     		sxtb	r4, r4
 5922              	.LVL923:
 5923              		.loc 1 1108 0
 5924 0034 4246     		mov	r2, r8
 5925              		.loc 1 1099 0
 5926 0036 0443     		orrs	r4, r4, r0
 5927              	.LVL924:
 5928              		.loc 1 1108 0
ARM GAS  C:\Users\mathi\AppData\Local\Temp\ccVwcWGw.s 			page 105


 5929 0038 CB21     		movs	r1, #203
 5930 003a 3046     		mov	r0, r6
 5931 003c FFF7FEFF 		bl	VL53L0X_WrByte
 5932              	.LVL925:
 5933              		.loc 1 1099 0
 5934 0040 64B2     		sxtb	r4, r4
 5935              	.LVL926:
 5936              		.loc 1 1110 0
 5937 0042 3B46     		mov	r3, r7
 5938              		.loc 1 1108 0
 5939 0044 0443     		orrs	r4, r4, r0
 5940              	.LVL927:
 5941              		.loc 1 1110 0
 5942 0046 8022     		movs	r2, #128
 5943 0048 EE21     		movs	r1, #238
 5944 004a 3046     		mov	r0, r6
 5945 004c FFF7FEFF 		bl	VL53L0X_UpdateByte
 5946              	.LVL928:
 5947              		.loc 1 1108 0
 5948 0050 64B2     		sxtb	r4, r4
 5949              	.LVL929:
 5950              		.loc 1 1113 0
 5951 0052 0122     		movs	r2, #1
 5952              		.loc 1 1110 0
 5953 0054 0443     		orrs	r4, r4, r0
 5954              	.LVL930:
 5955              		.loc 1 1113 0
 5956 0056 FF21     		movs	r1, #255
 5957 0058 3046     		mov	r0, r6
 5958 005a FFF7FEFF 		bl	VL53L0X_WrByte
 5959              	.LVL931:
 5960              		.loc 1 1110 0
 5961 005e 64B2     		sxtb	r4, r4
 5962              	.LVL932:
 5963              		.loc 1 1114 0
 5964 0060 0122     		movs	r2, #1
 5965              		.loc 1 1113 0
 5966 0062 0443     		orrs	r4, r4, r0
 5967              	.LVL933:
 5968              		.loc 1 1114 0
 5969 0064 0021     		movs	r1, #0
 5970 0066 3046     		mov	r0, r6
 5971 0068 FFF7FEFF 		bl	VL53L0X_WrByte
 5972              	.LVL934:
 5973              		.loc 1 1113 0
 5974 006c 64B2     		sxtb	r4, r4
 5975              	.LVL935:
 5976              		.loc 1 1115 0
 5977 006e 0022     		movs	r2, #0
 5978              		.loc 1 1114 0
 5979 0070 0443     		orrs	r4, r4, r0
 5980              	.LVL936:
 5981              		.loc 1 1115 0
 5982 0072 FF21     		movs	r1, #255
 5983 0074 3046     		mov	r0, r6
 5984 0076 FFF7FEFF 		bl	VL53L0X_WrByte
 5985              	.LVL937:
ARM GAS  C:\Users\mathi\AppData\Local\Temp\ccVwcWGw.s 			page 106


 5986              	.LBE262:
 5987              	.LBE265:
 5988              		.loc 1 1261 0
 5989 007a 019A     		ldr	r2, [sp, #4]
 5990 007c 2B68     		ldr	r3, [r5]
 5991              	.LBB266:
 5992              	.LBB263:
 5993              		.loc 1 1114 0
 5994 007e 64B2     		sxtb	r4, r4
 5995              	.LVL938:
 5996              	.LBE263:
 5997              	.LBE266:
 5998              		.loc 1 1261 0
 5999 0080 9A42     		cmp	r2, r3
 6000              	.LBB267:
 6001              	.LBB264:
 6002              		.loc 1 1115 0
 6003 0082 40EA0400 		orr	r0, r0, r4
 6004              	.LBE264:
 6005              	.LBE267:
 6006              		.loc 1 1261 0
 6007 0086 03D1     		bne	.L764
 6008 0088 40B2     		sxtb	r0, r0
 6009 008a 02B0     		add	sp, sp, #8
 6010              		.cfi_remember_state
 6011              		.cfi_def_cfa_offset 24
 6012              		@ sp needed
 6013 008c BDE8F081 		pop	{r4, r5, r6, r7, r8, pc}
 6014              	.LVL939:
 6015              	.L764:
 6016              		.cfi_restore_state
 6017 0090 FFF7FEFF 		bl	__stack_chk_fail
 6018              	.LVL940:
 6019              	.L766:
 6020              		.align	2
 6021              	.L765:
 6022 0094 00000000 		.word	__stack_chk_guard
 6023              		.cfi_endproc
 6024              	.LFE24:
 6025              		.size	VL53L0X_set_ref_calibration, .-VL53L0X_set_ref_calibration
 6026              		.section	.text.VL53L0X_get_ref_calibration,"ax",%progbits
 6027              		.align	1
 6028              		.p2align 4,,15
 6029              		.global	VL53L0X_get_ref_calibration
 6030              		.syntax unified
 6031              		.thumb
 6032              		.thumb_func
 6033              		.fpu fpv4-sp-d16
 6034              		.type	VL53L0X_get_ref_calibration, %function
 6035              	VL53L0X_get_ref_calibration:
 6036              	.LFB25:
 6037              		.loc 1 1265 0
 6038              		.cfi_startproc
 6039              		@ args = 0, pretend = 0, frame = 8
 6040              		@ frame_needed = 0, uses_anonymous_args = 0
 6041              	.LVL941:
 6042 0000 2DE9F047 		push	{r4, r5, r6, r7, r8, r9, r10, lr}
ARM GAS  C:\Users\mathi\AppData\Local\Temp\ccVwcWGw.s 			page 107


 6043              		.cfi_def_cfa_offset 32
 6044              		.cfi_offset 4, -32
 6045              		.cfi_offset 5, -28
 6046              		.cfi_offset 6, -24
 6047              		.cfi_offset 7, -20
 6048              		.cfi_offset 8, -16
 6049              		.cfi_offset 9, -12
 6050              		.cfi_offset 10, -8
 6051              		.cfi_offset 14, -4
 6052 0004 284F     		ldr	r7, .L771
 6053 0006 82B0     		sub	sp, sp, #8
 6054              		.cfi_def_cfa_offset 40
 6055              	.LBB270:
 6056              	.LBB271:
 6057              		.loc 1 1094 0
 6058 0008 0DF10809 		add	r9, sp, #8
 6059              	.LBE271:
 6060              	.LBE270:
 6061              		.loc 1 1265 0
 6062 000c 3B68     		ldr	r3, [r7]
 6063 000e 0193     		str	r3, [sp, #4]
 6064              	.LVL942:
 6065              	.LBB278:
 6066              	.LBB272:
 6067              		.loc 1 1094 0
 6068 0010 0026     		movs	r6, #0
 6069              	.LBE272:
 6070              	.LBE278:
 6071              		.loc 1 1265 0
 6072 0012 8A46     		mov	r10, r1
 6073 0014 9046     		mov	r8, r2
 6074              	.LBB279:
 6075              	.LBB273:
 6076              		.loc 1 1097 0
 6077 0016 FF21     		movs	r1, #255
 6078              	.LVL943:
 6079 0018 0122     		movs	r2, #1
 6080              	.LVL944:
 6081              	.LBE273:
 6082              	.LBE279:
 6083              		.loc 1 1265 0
 6084 001a 0546     		mov	r5, r0
 6085              	.LVL945:
 6086              	.LBB280:
 6087              	.LBB274:
 6088              		.loc 1 1094 0
 6089 001c 09F8056D 		strb	r6, [r9, #-5]!
 6090              		.loc 1 1097 0
 6091 0020 FFF7FEFF 		bl	VL53L0X_WrByte
 6092              	.LVL946:
 6093              		.loc 1 1098 0
 6094 0024 3246     		mov	r2, r6
 6095              		.loc 1 1097 0
 6096 0026 0446     		mov	r4, r0
 6097              	.LVL947:
 6098              		.loc 1 1098 0
 6099 0028 3146     		mov	r1, r6
ARM GAS  C:\Users\mathi\AppData\Local\Temp\ccVwcWGw.s 			page 108


 6100 002a 2846     		mov	r0, r5
 6101 002c FFF7FEFF 		bl	VL53L0X_WrByte
 6102              	.LVL948:
 6103              		.loc 1 1099 0
 6104 0030 3246     		mov	r2, r6
 6105              		.loc 1 1098 0
 6106 0032 0443     		orrs	r4, r4, r0
 6107              	.LVL949:
 6108              		.loc 1 1099 0
 6109 0034 FF21     		movs	r1, #255
 6110 0036 2846     		mov	r0, r5
 6111 0038 FFF7FEFF 		bl	VL53L0X_WrByte
 6112              	.LVL950:
 6113              		.loc 1 1098 0
 6114 003c 64B2     		sxtb	r4, r4
 6115              	.LVL951:
 6116              		.loc 1 1103 0
 6117 003e 5246     		mov	r2, r10
 6118              		.loc 1 1099 0
 6119 0040 0443     		orrs	r4, r4, r0
 6120              	.LVL952:
 6121              		.loc 1 1103 0
 6122 0042 CB21     		movs	r1, #203
 6123 0044 2846     		mov	r0, r5
 6124 0046 FFF7FEFF 		bl	VL53L0X_RdByte
 6125              	.LVL953:
 6126              		.loc 1 1099 0
 6127 004a 64B2     		sxtb	r4, r4
 6128              	.LVL954:
 6129              		.loc 1 1105 0
 6130 004c 4A46     		mov	r2, r9
 6131              		.loc 1 1103 0
 6132 004e 0443     		orrs	r4, r4, r0
 6133              	.LVL955:
 6134              		.loc 1 1105 0
 6135 0050 EE21     		movs	r1, #238
 6136 0052 2846     		mov	r0, r5
 6137 0054 FFF7FEFF 		bl	VL53L0X_RdByte
 6138              	.LVL956:
 6139              		.loc 1 1103 0
 6140 0058 64B2     		sxtb	r4, r4
 6141              	.LVL957:
 6142              		.loc 1 1113 0
 6143 005a 0122     		movs	r2, #1
 6144              		.loc 1 1105 0
 6145 005c 0443     		orrs	r4, r4, r0
 6146              	.LVL958:
 6147              		.loc 1 1113 0
 6148 005e FF21     		movs	r1, #255
 6149 0060 2846     		mov	r0, r5
 6150 0062 FFF7FEFF 		bl	VL53L0X_WrByte
 6151              	.LVL959:
 6152              		.loc 1 1105 0
 6153 0066 64B2     		sxtb	r4, r4
 6154              	.LVL960:
 6155              		.loc 1 1114 0
 6156 0068 3146     		mov	r1, r6
ARM GAS  C:\Users\mathi\AppData\Local\Temp\ccVwcWGw.s 			page 109


 6157              		.loc 1 1113 0
 6158 006a 0443     		orrs	r4, r4, r0
 6159              	.LVL961:
 6160              		.loc 1 1114 0
 6161 006c 0122     		movs	r2, #1
 6162 006e 2846     		mov	r0, r5
 6163 0070 FFF7FEFF 		bl	VL53L0X_WrByte
 6164              	.LVL962:
 6165              		.loc 1 1113 0
 6166 0074 64B2     		sxtb	r4, r4
 6167              	.LVL963:
 6168              		.loc 1 1115 0
 6169 0076 3246     		mov	r2, r6
 6170              		.loc 1 1114 0
 6171 0078 0443     		orrs	r4, r4, r0
 6172              	.LVL964:
 6173              		.loc 1 1115 0
 6174 007a FF21     		movs	r1, #255
 6175 007c 2846     		mov	r0, r5
 6176 007e FFF7FEFF 		bl	VL53L0X_WrByte
 6177              	.LVL965:
 6178              		.loc 1 1117 0
 6179 0082 9DF80330 		ldrb	r3, [sp, #3]	@ zero_extendqisi2
 6180              	.LBE274:
 6181              	.LBE280:
 6182              		.loc 1 1276 0
 6183 0086 019A     		ldr	r2, [sp, #4]
 6184              	.LBB281:
 6185              	.LBB275:
 6186              		.loc 1 1117 0
 6187 0088 23F01003 		bic	r3, r3, #16
 6188 008c 88F80030 		strb	r3, [r8]
 6189              	.LBE275:
 6190              	.LBE281:
 6191              		.loc 1 1276 0
 6192 0090 3B68     		ldr	r3, [r7]
 6193              	.LBB282:
 6194              	.LBB276:
 6195              		.loc 1 1114 0
 6196 0092 64B2     		sxtb	r4, r4
 6197              	.LVL966:
 6198              	.LBE276:
 6199              	.LBE282:
 6200              		.loc 1 1276 0
 6201 0094 9A42     		cmp	r2, r3
 6202              	.LBB283:
 6203              	.LBB277:
 6204              		.loc 1 1115 0
 6205 0096 40EA0400 		orr	r0, r0, r4
 6206              	.LBE277:
 6207              	.LBE283:
 6208              		.loc 1 1276 0
 6209 009a 03D1     		bne	.L770
 6210 009c 40B2     		sxtb	r0, r0
 6211 009e 02B0     		add	sp, sp, #8
 6212              		.cfi_remember_state
 6213              		.cfi_def_cfa_offset 32
ARM GAS  C:\Users\mathi\AppData\Local\Temp\ccVwcWGw.s 			page 110


 6214              		@ sp needed
 6215 00a0 BDE8F087 		pop	{r4, r5, r6, r7, r8, r9, r10, pc}
 6216              	.LVL967:
 6217              	.L770:
 6218              		.cfi_restore_state
 6219 00a4 FFF7FEFF 		bl	__stack_chk_fail
 6220              	.LVL968:
 6221              	.L772:
 6222              		.align	2
 6223              	.L771:
 6224 00a8 00000000 		.word	__stack_chk_guard
 6225              		.cfi_endproc
 6226              	.LFE25:
 6227              		.size	VL53L0X_get_ref_calibration, .-VL53L0X_get_ref_calibration
 6228              		.global	refArrayQuadrants
 6229              		.section	.data.refArrayQuadrants,"aw",%progbits
 6230              		.align	2
 6231              		.set	.LANCHOR0,. + 0
 6232              		.type	refArrayQuadrants, %object
 6233              		.size	refArrayQuadrants, 16
 6234              	refArrayQuadrants:
 6235 0000 0A000000 		.word	10
 6236 0004 05000000 		.word	5
 6237 0008 00000000 		.word	0
 6238 000c 05000000 		.word	5
 6239              		.text
 6240              	.Letext0:
 6241              		.file 2 "c:\\eclipse_e-puck2\\tools\\gcc-arm-none-eabi-7-2017-q4-major-win32\\arm-none-eabi\\inclu
 6242              		.file 3 "c:\\eclipse_e-puck2\\tools\\gcc-arm-none-eabi-7-2017-q4-major-win32\\arm-none-eabi\\inclu
 6243              		.file 4 "../../lib/e-puck2_main-processor/src/sensors/VL53L0X/Api/core/src/../inc/vl53l0x_types.h"
 6244              		.file 5 "../../lib/e-puck2_main-processor/src/sensors/VL53L0X/Api/core/src/../inc/vl53l0x_device.h
 6245              		.file 6 "../../lib/e-puck2_main-processor/src/sensors/VL53L0X/Api/core/src/../inc/vl53l0x_def.h"
 6246              		.file 7 "c:\\eclipse_e-puck2\\tools\\gcc-arm-none-eabi-7-2017-q4-major-win32\\arm-none-eabi\\inclu
 6247              		.file 8 "c:\\eclipse_e-puck2\\tools\\gcc-arm-none-eabi-7-2017-q4-major-win32\\arm-none-eabi\\inclu
 6248              		.file 9 "c:\\eclipse_e-puck2\\tools\\gcc-arm-none-eabi-7-2017-q4-major-win32\\lib\\gcc\\arm-none-e
 6249              		.file 10 "c:\\eclipse_e-puck2\\tools\\gcc-arm-none-eabi-7-2017-q4-major-win32\\arm-none-eabi\\incl
 6250              		.file 11 "../../lib/e-puck2_main-processor/src/sensors/VL53L0X/Api/core/src/../inc/../../platform/
 6251              		.file 12 "c:\\eclipse_e-puck2\\tools\\gcc-arm-none-eabi-7-2017-q4-major-win32\\arm-none-eabi\\incl
 6252              		.file 13 "../../lib/e-puck2_main-processor/src/sensors/VL53L0X/Api/core/src/../inc/vl53l0x_api_cor
 6253              		.file 14 "../../lib/e-puck2_main-processor/src/sensors/VL53L0X/Api/core/src/../inc/vl53l0x_api.h"
 6254              		.section	.debug_info,"",%progbits
 6255              	.Ldebug_info0:
 6256 0000 C53D0000 		.4byte	0x3dc5
 6257 0004 0400     		.2byte	0x4
 6258 0006 00000000 		.4byte	.Ldebug_abbrev0
 6259 000a 04       		.byte	0x4
 6260 000b 01       		.uleb128 0x1
 6261 000c B10A0000 		.4byte	.LASF382
 6262 0010 0C       		.byte	0xc
 6263 0011 FD070000 		.4byte	.LASF383
 6264 0015 8B120000 		.4byte	.LASF384
 6265 0019 A8020000 		.4byte	.Ldebug_ranges0+0x2a8
 6266 001d 00000000 		.4byte	0
 6267 0021 00000000 		.4byte	.Ldebug_line0
 6268 0025 02       		.uleb128 0x2
 6269 0026 04       		.byte	0x4
 6270 0027 07       		.byte	0x7
ARM GAS  C:\Users\mathi\AppData\Local\Temp\ccVwcWGw.s 			page 111


 6271 0028 94010000 		.4byte	.LASF0
 6272 002c 03       		.uleb128 0x3
 6273 002d 810F0000 		.4byte	.LASF2
 6274 0031 02       		.byte	0x2
 6275 0032 29       		.byte	0x29
 6276 0033 37000000 		.4byte	0x37
 6277 0037 02       		.uleb128 0x2
 6278 0038 01       		.byte	0x1
 6279 0039 06       		.byte	0x6
 6280 003a 7A160000 		.4byte	.LASF1
 6281 003e 03       		.uleb128 0x3
 6282 003f 55120000 		.4byte	.LASF3
 6283 0043 02       		.byte	0x2
 6284 0044 2B       		.byte	0x2b
 6285 0045 49000000 		.4byte	0x49
 6286 0049 02       		.uleb128 0x2
 6287 004a 01       		.byte	0x1
 6288 004b 08       		.byte	0x8
 6289 004c AE140000 		.4byte	.LASF4
 6290 0050 03       		.uleb128 0x3
 6291 0051 F20D0000 		.4byte	.LASF5
 6292 0055 02       		.byte	0x2
 6293 0056 37       		.byte	0x37
 6294 0057 5B000000 		.4byte	0x5b
 6295 005b 02       		.uleb128 0x2
 6296 005c 02       		.byte	0x2
 6297 005d 05       		.byte	0x5
 6298 005e D7100000 		.4byte	.LASF6
 6299 0062 03       		.uleb128 0x3
 6300 0063 64060000 		.4byte	.LASF7
 6301 0067 02       		.byte	0x2
 6302 0068 39       		.byte	0x39
 6303 0069 6D000000 		.4byte	0x6d
 6304 006d 02       		.uleb128 0x2
 6305 006e 02       		.byte	0x2
 6306 006f 07       		.byte	0x7
 6307 0070 9B160000 		.4byte	.LASF8
 6308 0074 03       		.uleb128 0x3
 6309 0075 48020000 		.4byte	.LASF9
 6310 0079 02       		.byte	0x2
 6311 007a 4D       		.byte	0x4d
 6312 007b 7F000000 		.4byte	0x7f
 6313 007f 02       		.uleb128 0x2
 6314 0080 04       		.byte	0x4
 6315 0081 05       		.byte	0x5
 6316 0082 0E110000 		.4byte	.LASF10
 6317 0086 03       		.uleb128 0x3
 6318 0087 E2140000 		.4byte	.LASF11
 6319 008b 02       		.byte	0x2
 6320 008c 4F       		.byte	0x4f
 6321 008d 91000000 		.4byte	0x91
 6322 0091 02       		.uleb128 0x2
 6323 0092 04       		.byte	0x4
 6324 0093 07       		.byte	0x7
 6325 0094 C8130000 		.4byte	.LASF12
 6326 0098 02       		.uleb128 0x2
 6327 0099 08       		.byte	0x8
ARM GAS  C:\Users\mathi\AppData\Local\Temp\ccVwcWGw.s 			page 112


 6328 009a 05       		.byte	0x5
 6329 009b EF0C0000 		.4byte	.LASF13
 6330 009f 02       		.uleb128 0x2
 6331 00a0 08       		.byte	0x8
 6332 00a1 07       		.byte	0x7
 6333 00a2 D9050000 		.4byte	.LASF14
 6334 00a6 04       		.uleb128 0x4
 6335 00a7 04       		.byte	0x4
 6336 00a8 05       		.byte	0x5
 6337 00a9 696E7400 		.ascii	"int\000"
 6338 00ad 03       		.uleb128 0x3
 6339 00ae 80040000 		.4byte	.LASF15
 6340 00b2 03       		.byte	0x3
 6341 00b3 14       		.byte	0x14
 6342 00b4 2C000000 		.4byte	0x2c
 6343 00b8 03       		.uleb128 0x3
 6344 00b9 0A0C0000 		.4byte	.LASF16
 6345 00bd 03       		.byte	0x3
 6346 00be 18       		.byte	0x18
 6347 00bf 3E000000 		.4byte	0x3e
 6348 00c3 05       		.uleb128 0x5
 6349 00c4 B8000000 		.4byte	0xb8
 6350 00c8 03       		.uleb128 0x3
 6351 00c9 53050000 		.4byte	.LASF17
 6352 00cd 03       		.byte	0x3
 6353 00ce 20       		.byte	0x20
 6354 00cf 50000000 		.4byte	0x50
 6355 00d3 03       		.uleb128 0x3
 6356 00d4 FD0F0000 		.4byte	.LASF18
 6357 00d8 03       		.byte	0x3
 6358 00d9 24       		.byte	0x24
 6359 00da 62000000 		.4byte	0x62
 6360 00de 03       		.uleb128 0x3
 6361 00df 37140000 		.4byte	.LASF19
 6362 00e3 03       		.byte	0x3
 6363 00e4 2C       		.byte	0x2c
 6364 00e5 74000000 		.4byte	0x74
 6365 00e9 03       		.uleb128 0x3
 6366 00ea 77040000 		.4byte	.LASF20
 6367 00ee 03       		.byte	0x3
 6368 00ef 30       		.byte	0x30
 6369 00f0 86000000 		.4byte	0x86
 6370 00f4 02       		.uleb128 0x2
 6371 00f5 08       		.byte	0x8
 6372 00f6 04       		.byte	0x4
 6373 00f7 DA0F0000 		.4byte	.LASF21
 6374 00fb 03       		.uleb128 0x3
 6375 00fc 45040000 		.4byte	.LASF22
 6376 0100 04       		.byte	0x4
 6377 0101 6D       		.byte	0x6d
 6378 0102 E9000000 		.4byte	0xe9
 6379 0106 03       		.uleb128 0x3
 6380 0107 15050000 		.4byte	.LASF23
 6381 010b 05       		.byte	0x5
 6382 010c 36       		.byte	0x36
 6383 010d B8000000 		.4byte	0xb8
 6384 0111 03       		.uleb128 0x3
ARM GAS  C:\Users\mathi\AppData\Local\Temp\ccVwcWGw.s 			page 113


 6385 0112 190C0000 		.4byte	.LASF24
 6386 0116 05       		.byte	0x5
 6387 0117 64       		.byte	0x64
 6388 0118 B8000000 		.4byte	0xb8
 6389 011c 06       		.uleb128 0x6
 6390 011d 63       		.byte	0x63
 6391 011e 06       		.byte	0x6
 6392 011f 6E       		.byte	0x6e
 6393 0120 6D010000 		.4byte	0x16d
 6394 0124 07       		.uleb128 0x7
 6395 0125 B2060000 		.4byte	.LASF25
 6396 0129 06       		.byte	0x6
 6397 012a 6F       		.byte	0x6f
 6398 012b 6D010000 		.4byte	0x16d
 6399 012f 00       		.byte	0
 6400 0130 07       		.uleb128 0x7
 6401 0131 5E0C0000 		.4byte	.LASF26
 6402 0135 06       		.byte	0x6
 6403 0136 71       		.byte	0x71
 6404 0137 6D010000 		.4byte	0x16d
 6405 013b 20       		.byte	0x20
 6406 013c 07       		.uleb128 0x7
 6407 013d F0010000 		.4byte	.LASF27
 6408 0141 06       		.byte	0x6
 6409 0142 73       		.byte	0x73
 6410 0143 6D010000 		.4byte	0x16d
 6411 0147 40       		.byte	0x40
 6412 0148 07       		.uleb128 0x7
 6413 0149 93150000 		.4byte	.LASF28
 6414 014d 06       		.byte	0x6
 6415 014e 75       		.byte	0x75
 6416 014f B8000000 		.4byte	0xb8
 6417 0153 60       		.byte	0x60
 6418 0154 07       		.uleb128 0x7
 6419 0155 A1000000 		.4byte	.LASF29
 6420 0159 06       		.byte	0x6
 6421 015a 77       		.byte	0x77
 6422 015b B8000000 		.4byte	0xb8
 6423 015f 61       		.byte	0x61
 6424 0160 07       		.uleb128 0x7
 6425 0161 63050000 		.4byte	.LASF30
 6426 0165 06       		.byte	0x6
 6427 0166 79       		.byte	0x79
 6428 0167 B8000000 		.4byte	0xb8
 6429 016b 62       		.byte	0x62
 6430 016c 00       		.byte	0
 6431 016d 08       		.uleb128 0x8
 6432 016e 7D010000 		.4byte	0x17d
 6433 0172 7D010000 		.4byte	0x17d
 6434 0176 09       		.uleb128 0x9
 6435 0177 25000000 		.4byte	0x25
 6436 017b 1F       		.byte	0x1f
 6437 017c 00       		.byte	0
 6438 017d 02       		.uleb128 0x2
 6439 017e 01       		.byte	0x1
 6440 017f 08       		.byte	0x8
 6441 0180 D6090000 		.4byte	.LASF31
ARM GAS  C:\Users\mathi\AppData\Local\Temp\ccVwcWGw.s 			page 114


 6442 0184 05       		.uleb128 0x5
 6443 0185 7D010000 		.4byte	0x17d
 6444 0189 03       		.uleb128 0x3
 6445 018a E5030000 		.4byte	.LASF32
 6446 018e 06       		.byte	0x6
 6447 018f 7B       		.byte	0x7b
 6448 0190 1C010000 		.4byte	0x11c
 6449 0194 03       		.uleb128 0x3
 6450 0195 02130000 		.4byte	.LASF33
 6451 0199 06       		.byte	0x6
 6452 019a 83       		.byte	0x83
 6453 019b AD000000 		.4byte	0xad
 6454 019f 03       		.uleb128 0x3
 6455 01a0 2F0D0000 		.4byte	.LASF34
 6456 01a4 06       		.byte	0x6
 6457 01a5 B5       		.byte	0xb5
 6458 01a6 B8000000 		.4byte	0xb8
 6459 01aa 03       		.uleb128 0x3
 6460 01ab 980C0000 		.4byte	.LASF35
 6461 01af 06       		.byte	0x6
 6462 01b0 C7       		.byte	0xc7
 6463 01b1 B8000000 		.4byte	0xb8
 6464 01b5 03       		.uleb128 0x3
 6465 01b6 DD010000 		.4byte	.LASF36
 6466 01ba 06       		.byte	0x6
 6467 01bb DA       		.byte	0xda
 6468 01bc B8000000 		.4byte	0xb8
 6469 01c0 06       		.uleb128 0x6
 6470 01c1 40       		.byte	0x40
 6471 01c2 06       		.byte	0x6
 6472 01c3 EA       		.byte	0xea
 6473 01c4 5C020000 		.4byte	0x25c
 6474 01c8 07       		.uleb128 0x7
 6475 01c9 B20F0000 		.4byte	.LASF37
 6476 01cd 06       		.byte	0x6
 6477 01ce EB       		.byte	0xeb
 6478 01cf 9F010000 		.4byte	0x19f
 6479 01d3 00       		.byte	0
 6480 01d4 07       		.uleb128 0x7
 6481 01d5 D0000000 		.4byte	.LASF38
 6482 01d9 06       		.byte	0x6
 6483 01da ED       		.byte	0xed
 6484 01db AA010000 		.4byte	0x1aa
 6485 01df 01       		.byte	0x1
 6486 01e0 07       		.uleb128 0x7
 6487 01e1 2B0A0000 		.4byte	.LASF39
 6488 01e5 06       		.byte	0x6
 6489 01e6 F0       		.byte	0xf0
 6490 01e7 E9000000 		.4byte	0xe9
 6491 01eb 04       		.byte	0x4
 6492 01ec 07       		.uleb128 0x7
 6493 01ed 90070000 		.4byte	.LASF40
 6494 01f1 06       		.byte	0x6
 6495 01f2 F2       		.byte	0xf2
 6496 01f3 E9000000 		.4byte	0xe9
 6497 01f7 08       		.byte	0x8
 6498 01f8 07       		.uleb128 0x7
ARM GAS  C:\Users\mathi\AppData\Local\Temp\ccVwcWGw.s 			page 115


 6499 01f9 15010000 		.4byte	.LASF41
 6500 01fd 06       		.byte	0x6
 6501 01fe F5       		.byte	0xf5
 6502 01ff B8000000 		.4byte	0xb8
 6503 0203 0C       		.byte	0xc
 6504 0204 07       		.uleb128 0x7
 6505 0205 A1010000 		.4byte	.LASF42
 6506 0209 06       		.byte	0x6
 6507 020a F7       		.byte	0xf7
 6508 020b D3000000 		.4byte	0xd3
 6509 020f 0E       		.byte	0xe
 6510 0210 07       		.uleb128 0x7
 6511 0211 BD0F0000 		.4byte	.LASF43
 6512 0215 06       		.byte	0x6
 6513 0216 F9       		.byte	0xf9
 6514 0217 FB000000 		.4byte	0xfb
 6515 021b 10       		.byte	0x10
 6516 021c 07       		.uleb128 0x7
 6517 021d D5080000 		.4byte	.LASF44
 6518 0221 06       		.byte	0x6
 6519 0222 FC       		.byte	0xfc
 6520 0223 DE000000 		.4byte	0xde
 6521 0227 14       		.byte	0x14
 6522 0228 07       		.uleb128 0x7
 6523 0229 07020000 		.4byte	.LASF45
 6524 022d 06       		.byte	0x6
 6525 022e FF       		.byte	0xff
 6526 022f 5C020000 		.4byte	0x25c
 6527 0233 18       		.byte	0x18
 6528 0234 0A       		.uleb128 0xa
 6529 0235 89030000 		.4byte	.LASF46
 6530 0239 06       		.byte	0x6
 6531 023a 0101     		.2byte	0x101
 6532 023c 5C020000 		.4byte	0x25c
 6533 0240 1E       		.byte	0x1e
 6534 0241 0A       		.uleb128 0xa
 6535 0242 67080000 		.4byte	.LASF47
 6536 0246 06       		.byte	0x6
 6537 0247 0401     		.2byte	0x104
 6538 0249 6C020000 		.4byte	0x26c
 6539 024d 24       		.byte	0x24
 6540 024e 0A       		.uleb128 0xa
 6541 024f 42030000 		.4byte	.LASF48
 6542 0253 06       		.byte	0x6
 6543 0254 0701     		.2byte	0x107
 6544 0256 B8000000 		.4byte	0xb8
 6545 025a 3C       		.byte	0x3c
 6546 025b 00       		.byte	0
 6547 025c 08       		.uleb128 0x8
 6548 025d B8000000 		.4byte	0xb8
 6549 0261 6C020000 		.4byte	0x26c
 6550 0265 09       		.uleb128 0x9
 6551 0266 25000000 		.4byte	0x25
 6552 026a 05       		.byte	0x5
 6553 026b 00       		.byte	0
 6554 026c 08       		.uleb128 0x8
 6555 026d FB000000 		.4byte	0xfb
ARM GAS  C:\Users\mathi\AppData\Local\Temp\ccVwcWGw.s 			page 116


 6556 0271 7C020000 		.4byte	0x27c
 6557 0275 09       		.uleb128 0x9
 6558 0276 25000000 		.4byte	0x25
 6559 027a 05       		.byte	0x5
 6560 027b 00       		.byte	0
 6561 027c 0B       		.uleb128 0xb
 6562 027d F3040000 		.4byte	.LASF49
 6563 0281 06       		.byte	0x6
 6564 0282 0901     		.2byte	0x109
 6565 0284 C0010000 		.4byte	0x1c0
 6566 0288 0B       		.uleb128 0xb
 6567 0289 600F0000 		.4byte	.LASF50
 6568 028d 06       		.byte	0x6
 6569 028e 1101     		.2byte	0x111
 6570 0290 B8000000 		.4byte	0xb8
 6571 0294 0C       		.uleb128 0xc
 6572 0295 08       		.byte	0x8
 6573 0296 06       		.byte	0x6
 6574 0297 2701     		.2byte	0x127
 6575 0299 B8020000 		.4byte	0x2b8
 6576 029d 0A       		.uleb128 0xa
 6577 029e F0050000 		.4byte	.LASF51
 6578 02a2 06       		.byte	0x6
 6579 02a3 2801     		.2byte	0x128
 6580 02a5 DE000000 		.4byte	0xde
 6581 02a9 00       		.byte	0
 6582 02aa 0A       		.uleb128 0xa
 6583 02ab 480E0000 		.4byte	.LASF52
 6584 02af 06       		.byte	0x6
 6585 02b0 2A01     		.2byte	0x12a
 6586 02b2 DE000000 		.4byte	0xde
 6587 02b6 04       		.byte	0x4
 6588 02b7 00       		.byte	0
 6589 02b8 0B       		.uleb128 0xb
 6590 02b9 6E0F0000 		.4byte	.LASF53
 6591 02bd 06       		.byte	0x6
 6592 02be 2C01     		.2byte	0x12c
 6593 02c0 94020000 		.4byte	0x294
 6594 02c4 0C       		.uleb128 0xc
 6595 02c5 1C       		.byte	0x1c
 6596 02c6 06       		.byte	0x6
 6597 02c7 3201     		.2byte	0x132
 6598 02c9 50030000 		.4byte	0x350
 6599 02cd 0A       		.uleb128 0xa
 6600 02ce 1F180000 		.4byte	.LASF54
 6601 02d2 06       		.byte	0x6
 6602 02d3 3301     		.2byte	0x133
 6603 02d5 E9000000 		.4byte	0xe9
 6604 02d9 00       		.byte	0
 6605 02da 0A       		.uleb128 0xa
 6606 02db 91090000 		.4byte	.LASF55
 6607 02df 06       		.byte	0x6
 6608 02e0 3401     		.2byte	0x134
 6609 02e2 E9000000 		.4byte	0xe9
 6610 02e6 04       		.byte	0x4
 6611 02e7 0A       		.uleb128 0xa
 6612 02e8 E1160000 		.4byte	.LASF56
ARM GAS  C:\Users\mathi\AppData\Local\Temp\ccVwcWGw.s 			page 117


 6613 02ec 06       		.byte	0x6
 6614 02ed 3901     		.2byte	0x139
 6615 02ef D3000000 		.4byte	0xd3
 6616 02f3 08       		.byte	0x8
 6617 02f4 0A       		.uleb128 0xa
 6618 02f5 9B030000 		.4byte	.LASF57
 6619 02f9 06       		.byte	0x6
 6620 02fa 3B01     		.2byte	0x13b
 6621 02fc D3000000 		.4byte	0xd3
 6622 0300 0A       		.byte	0xa
 6623 0301 0A       		.uleb128 0xa
 6624 0302 6C000000 		.4byte	.LASF58
 6625 0306 06       		.byte	0x6
 6626 0307 4001     		.2byte	0x140
 6627 0309 FB000000 		.4byte	0xfb
 6628 030d 0C       		.byte	0xc
 6629 030e 0A       		.uleb128 0xa
 6630 030f 32020000 		.4byte	.LASF59
 6631 0313 06       		.byte	0x6
 6632 0314 4401     		.2byte	0x144
 6633 0316 FB000000 		.4byte	0xfb
 6634 031a 10       		.byte	0x10
 6635 031b 0A       		.uleb128 0xa
 6636 031c 1F070000 		.4byte	.LASF60
 6637 0320 06       		.byte	0x6
 6638 0321 4901     		.2byte	0x149
 6639 0323 D3000000 		.4byte	0xd3
 6640 0327 14       		.byte	0x14
 6641 0328 0A       		.uleb128 0xa
 6642 0329 27120000 		.4byte	.LASF61
 6643 032d 06       		.byte	0x6
 6644 032e 4D01     		.2byte	0x14d
 6645 0330 B8000000 		.4byte	0xb8
 6646 0334 16       		.byte	0x16
 6647 0335 0A       		.uleb128 0xa
 6648 0336 16170000 		.4byte	.LASF62
 6649 033a 06       		.byte	0x6
 6650 033b 5001     		.2byte	0x150
 6651 033d B8000000 		.4byte	0xb8
 6652 0341 17       		.byte	0x17
 6653 0342 0A       		.uleb128 0xa
 6654 0343 DA0C0000 		.4byte	.LASF63
 6655 0347 06       		.byte	0x6
 6656 0348 5301     		.2byte	0x153
 6657 034a B8000000 		.4byte	0xb8
 6658 034e 18       		.byte	0x18
 6659 034f 00       		.byte	0
 6660 0350 0B       		.uleb128 0xb
 6661 0351 06100000 		.4byte	.LASF64
 6662 0355 06       		.byte	0x6
 6663 0356 5701     		.2byte	0x157
 6664 0358 C4020000 		.4byte	0x2c4
 6665 035c 0C       		.uleb128 0xc
 6666 035d 68       		.byte	0x68
 6667 035e 06       		.byte	0x6
 6668 035f 6001     		.2byte	0x160
 6669 0361 B4030000 		.4byte	0x3b4
ARM GAS  C:\Users\mathi\AppData\Local\Temp\ccVwcWGw.s 			page 118


 6670 0365 0A       		.uleb128 0xa
 6671 0366 59080000 		.4byte	.LASF65
 6672 036a 06       		.byte	0x6
 6673 036b 6201     		.2byte	0x162
 6674 036d B4030000 		.4byte	0x3b4
 6675 0371 00       		.byte	0
 6676 0372 0A       		.uleb128 0xa
 6677 0373 CE040000 		.4byte	.LASF66
 6678 0377 06       		.byte	0x6
 6679 0378 6401     		.2byte	0x164
 6680 037a B8000000 		.4byte	0xb8
 6681 037e 60       		.byte	0x60
 6682 037f 0A       		.uleb128 0xa
 6683 0380 E60C0000 		.4byte	.LASF67
 6684 0384 06       		.byte	0x6
 6685 0385 6601     		.2byte	0x166
 6686 0387 B8000000 		.4byte	0xb8
 6687 038b 61       		.byte	0x61
 6688 038c 0A       		.uleb128 0xa
 6689 038d 710A0000 		.4byte	.LASF68
 6690 0391 06       		.byte	0x6
 6691 0392 6701     		.2byte	0x167
 6692 0394 B8000000 		.4byte	0xb8
 6693 0398 62       		.byte	0x62
 6694 0399 0A       		.uleb128 0xa
 6695 039a BC140000 		.4byte	.LASF69
 6696 039e 06       		.byte	0x6
 6697 039f 6801     		.2byte	0x168
 6698 03a1 B8000000 		.4byte	0xb8
 6699 03a5 63       		.byte	0x63
 6700 03a6 0A       		.uleb128 0xa
 6701 03a7 26020000 		.4byte	.LASF70
 6702 03ab 06       		.byte	0x6
 6703 03ac 6B01     		.2byte	0x16b
 6704 03ae 06010000 		.4byte	0x106
 6705 03b2 64       		.byte	0x64
 6706 03b3 00       		.byte	0
 6707 03b4 08       		.uleb128 0x8
 6708 03b5 E9000000 		.4byte	0xe9
 6709 03b9 C4030000 		.4byte	0x3c4
 6710 03bd 09       		.uleb128 0x9
 6711 03be 25000000 		.4byte	0x25
 6712 03c2 17       		.byte	0x17
 6713 03c3 00       		.byte	0
 6714 03c4 0B       		.uleb128 0xb
 6715 03c5 3A180000 		.4byte	.LASF71
 6716 03c9 06       		.byte	0x6
 6717 03ca 6E01     		.2byte	0x16e
 6718 03cc 5C030000 		.4byte	0x35c
 6719 03d0 0C       		.uleb128 0xc
 6720 03d1 0C       		.byte	0xc
 6721 03d2 06       		.byte	0x6
 6722 03d3 7601     		.2byte	0x176
 6723 03d5 F4030000 		.4byte	0x3f4
 6724 03d9 0A       		.uleb128 0xa
 6725 03da A3060000 		.4byte	.LASF72
 6726 03de 06       		.byte	0x6
ARM GAS  C:\Users\mathi\AppData\Local\Temp\ccVwcWGw.s 			page 119


 6727 03df 7701     		.2byte	0x177
 6728 03e1 5C020000 		.4byte	0x25c
 6729 03e5 00       		.byte	0
 6730 03e6 0A       		.uleb128 0xa
 6731 03e7 E9120000 		.4byte	.LASF73
 6732 03eb 06       		.byte	0x6
 6733 03ec 7901     		.2byte	0x179
 6734 03ee 5C020000 		.4byte	0x25c
 6735 03f2 06       		.byte	0x6
 6736 03f3 00       		.byte	0
 6737 03f4 0B       		.uleb128 0xb
 6738 03f5 FF130000 		.4byte	.LASF74
 6739 03f9 06       		.byte	0x6
 6740 03fa 7B01     		.2byte	0x17b
 6741 03fc D0030000 		.4byte	0x3d0
 6742 0400 0C       		.uleb128 0xc
 6743 0401 50       		.byte	0x50
 6744 0402 06       		.byte	0x6
 6745 0403 7D01     		.2byte	0x17d
 6746 0405 0E050000 		.4byte	0x50e
 6747 0409 0A       		.uleb128 0xa
 6748 040a 4B060000 		.4byte	.LASF75
 6749 040e 06       		.byte	0x6
 6750 040f 7E01     		.2byte	0x17e
 6751 0411 FB000000 		.4byte	0xfb
 6752 0415 00       		.byte	0
 6753 0416 0A       		.uleb128 0xa
 6754 0417 4D170000 		.4byte	.LASF76
 6755 041b 06       		.byte	0x6
 6756 041c 8001     		.2byte	0x180
 6757 041e D3000000 		.4byte	0xd3
 6758 0422 04       		.byte	0x4
 6759 0423 0A       		.uleb128 0xa
 6760 0424 E9150000 		.4byte	.LASF77
 6761 0428 06       		.byte	0x6
 6762 0429 8301     		.2byte	0x183
 6763 042b 11010000 		.4byte	0x111
 6764 042f 06       		.byte	0x6
 6765 0430 0A       		.uleb128 0xa
 6766 0431 02120000 		.4byte	.LASF78
 6767 0435 06       		.byte	0x6
 6768 0436 8601     		.2byte	0x186
 6769 0438 E9000000 		.4byte	0xe9
 6770 043c 08       		.byte	0x8
 6771 043d 0A       		.uleb128 0xa
 6772 043e 09150000 		.4byte	.LASF79
 6773 0442 06       		.byte	0x6
 6774 0443 8801     		.2byte	0x188
 6775 0445 B8000000 		.4byte	0xb8
 6776 0449 0C       		.byte	0xc
 6777 044a 0A       		.uleb128 0xa
 6778 044b C9140000 		.4byte	.LASF80
 6779 044f 06       		.byte	0x6
 6780 0450 8A01     		.2byte	0x18a
 6781 0452 E9000000 		.4byte	0xe9
 6782 0456 10       		.byte	0x10
 6783 0457 0A       		.uleb128 0xa
ARM GAS  C:\Users\mathi\AppData\Local\Temp\ccVwcWGw.s 			page 120


 6784 0458 2D010000 		.4byte	.LASF81
 6785 045c 06       		.byte	0x6
 6786 045d 8C01     		.2byte	0x18c
 6787 045f B8000000 		.4byte	0xb8
 6788 0463 14       		.byte	0x14
 6789 0464 0A       		.uleb128 0xa
 6790 0465 FF160000 		.4byte	.LASF82
 6791 0469 06       		.byte	0x6
 6792 046a 8F01     		.2byte	0x18f
 6793 046c D3000000 		.4byte	0xd3
 6794 0470 16       		.byte	0x16
 6795 0471 0A       		.uleb128 0xa
 6796 0472 3F090000 		.4byte	.LASF83
 6797 0476 06       		.byte	0x6
 6798 0477 9101     		.2byte	0x191
 6799 0479 D3000000 		.4byte	0xd3
 6800 047d 18       		.byte	0x18
 6801 047e 0A       		.uleb128 0xa
 6802 047f 61140000 		.4byte	.LASF84
 6803 0483 06       		.byte	0x6
 6804 0484 9401     		.2byte	0x194
 6805 0486 D3000000 		.4byte	0xd3
 6806 048a 1A       		.byte	0x1a
 6807 048b 0A       		.uleb128 0xa
 6808 048c 140A0000 		.4byte	.LASF85
 6809 0490 06       		.byte	0x6
 6810 0491 9901     		.2byte	0x199
 6811 0493 B8000000 		.4byte	0xb8
 6812 0497 1C       		.byte	0x1c
 6813 0498 0A       		.uleb128 0xa
 6814 0499 F4070000 		.4byte	.LASF86
 6815 049d 06       		.byte	0x6
 6816 049e 9B01     		.2byte	0x19b
 6817 04a0 B8000000 		.4byte	0xb8
 6818 04a4 1D       		.byte	0x1d
 6819 04a5 0A       		.uleb128 0xa
 6820 04a6 D4030000 		.4byte	.LASF87
 6821 04aa 06       		.byte	0x6
 6822 04ab 9C01     		.2byte	0x19c
 6823 04ad B8000000 		.4byte	0xb8
 6824 04b1 1E       		.byte	0x1e
 6825 04b2 0A       		.uleb128 0xa
 6826 04b3 F0010000 		.4byte	.LASF27
 6827 04b7 06       		.byte	0x6
 6828 04b8 9D01     		.2byte	0x19d
 6829 04ba 6D010000 		.4byte	0x16d
 6830 04be 1F       		.byte	0x1f
 6831 04bf 0A       		.uleb128 0xa
 6832 04c0 B3070000 		.4byte	.LASF88
 6833 04c4 06       		.byte	0x6
 6834 04c5 9F01     		.2byte	0x19f
 6835 04c7 B8000000 		.4byte	0xb8
 6836 04cb 3F       		.byte	0x3f
 6837 04cc 0A       		.uleb128 0xa
 6838 04cd 5A000000 		.4byte	.LASF89
 6839 04d1 06       		.byte	0x6
 6840 04d2 A001     		.2byte	0x1a0
ARM GAS  C:\Users\mathi\AppData\Local\Temp\ccVwcWGw.s 			page 121


 6841 04d4 B8000000 		.4byte	0xb8
 6842 04d8 40       		.byte	0x40
 6843 04d9 0A       		.uleb128 0xa
 6844 04da 950D0000 		.4byte	.LASF90
 6845 04de 06       		.byte	0x6
 6846 04df A101     		.2byte	0x1a1
 6847 04e1 B8000000 		.4byte	0xb8
 6848 04e5 41       		.byte	0x41
 6849 04e6 0A       		.uleb128 0xa
 6850 04e7 3D110000 		.4byte	.LASF91
 6851 04eb 06       		.byte	0x6
 6852 04ec A201     		.2byte	0x1a2
 6853 04ee E9000000 		.4byte	0xe9
 6854 04f2 44       		.byte	0x44
 6855 04f3 0A       		.uleb128 0xa
 6856 04f4 89000000 		.4byte	.LASF92
 6857 04f8 06       		.byte	0x6
 6858 04f9 A301     		.2byte	0x1a3
 6859 04fb E9000000 		.4byte	0xe9
 6860 04ff 48       		.byte	0x48
 6861 0500 0A       		.uleb128 0xa
 6862 0501 AF180000 		.4byte	.LASF93
 6863 0505 06       		.byte	0x6
 6864 0506 A401     		.2byte	0x1a4
 6865 0508 FB000000 		.4byte	0xfb
 6866 050c 4C       		.byte	0x4c
 6867 050d 00       		.byte	0
 6868 050e 0B       		.uleb128 0xb
 6869 050f 54040000 		.4byte	.LASF94
 6870 0513 06       		.byte	0x6
 6871 0514 A701     		.2byte	0x1a7
 6872 0516 00040000 		.4byte	0x400
 6873 051a 0D       		.uleb128 0xd
 6874 051b 5C01     		.2byte	0x15c
 6875 051d 06       		.byte	0x6
 6876 051e B101     		.2byte	0x1b1
 6877 0520 7C060000 		.4byte	0x67c
 6878 0524 0A       		.uleb128 0xa
 6879 0525 88090000 		.4byte	.LASF95
 6880 0529 06       		.byte	0x6
 6881 052a B201     		.2byte	0x1b2
 6882 052c B8020000 		.4byte	0x2b8
 6883 0530 00       		.byte	0
 6884 0531 0A       		.uleb128 0xa
 6885 0532 FA030000 		.4byte	.LASF96
 6886 0536 06       		.byte	0x6
 6887 0537 B401     		.2byte	0x1b4
 6888 0539 DE000000 		.4byte	0xde
 6889 053d 08       		.byte	0x8
 6890 053e 0A       		.uleb128 0xa
 6891 053f B2050000 		.4byte	.LASF97
 6892 0543 06       		.byte	0x6
 6893 0544 B601     		.2byte	0x1b6
 6894 0546 DE000000 		.4byte	0xde
 6895 054a 0C       		.byte	0xc
 6896 054b 0A       		.uleb128 0xa
 6897 054c B6130000 		.4byte	.LASF98
ARM GAS  C:\Users\mathi\AppData\Local\Temp\ccVwcWGw.s 			page 122


 6898 0550 06       		.byte	0x6
 6899 0551 B801     		.2byte	0x1b8
 6900 0553 7C020000 		.4byte	0x27c
 6901 0557 10       		.byte	0x10
 6902 0558 0A       		.uleb128 0xa
 6903 0559 4F0A0000 		.4byte	.LASF99
 6904 055d 06       		.byte	0x6
 6905 055e BA01     		.2byte	0x1ba
 6906 0560 50030000 		.4byte	0x350
 6907 0564 50       		.byte	0x50
 6908 0565 0A       		.uleb128 0xa
 6909 0566 86160000 		.4byte	.LASF100
 6910 056a 06       		.byte	0x6
 6911 056b BC01     		.2byte	0x1bc
 6912 056d C4030000 		.4byte	0x3c4
 6913 0571 6C       		.byte	0x6c
 6914 0572 0A       		.uleb128 0xa
 6915 0573 E6130000 		.4byte	.LASF101
 6916 0577 06       		.byte	0x6
 6917 0578 BE01     		.2byte	0x1be
 6918 057a 0E050000 		.4byte	0x50e
 6919 057e D4       		.byte	0xd4
 6920 057f 0E       		.uleb128 0xe
 6921 0580 80070000 		.4byte	.LASF102
 6922 0584 06       		.byte	0x6
 6923 0585 C001     		.2byte	0x1c0
 6924 0587 F4030000 		.4byte	0x3f4
 6925 058b 2401     		.2byte	0x124
 6926 058d 0E       		.uleb128 0xe
 6927 058e 76100000 		.4byte	.LASF103
 6928 0592 06       		.byte	0x6
 6929 0593 C201     		.2byte	0x1c2
 6930 0595 B8000000 		.4byte	0xb8
 6931 0599 3001     		.2byte	0x130
 6932 059b 0E       		.uleb128 0xe
 6933 059c AE160000 		.4byte	.LASF104
 6934 05a0 06       		.byte	0x6
 6935 05a1 C401     		.2byte	0x1c4
 6936 05a3 B8000000 		.4byte	0xb8
 6937 05a7 3101     		.2byte	0x131
 6938 05a9 0E       		.uleb128 0xe
 6939 05aa 16180000 		.4byte	.LASF105
 6940 05ae 06       		.byte	0x6
 6941 05af C601     		.2byte	0x1c6
 6942 05b1 88020000 		.4byte	0x288
 6943 05b5 3201     		.2byte	0x132
 6944 05b7 0E       		.uleb128 0xe
 6945 05b8 58030000 		.4byte	.LASF106
 6946 05bc 06       		.byte	0x6
 6947 05bd C801     		.2byte	0x1c8
 6948 05bf B5010000 		.4byte	0x1b5
 6949 05c3 3301     		.2byte	0x133
 6950 05c5 0E       		.uleb128 0xe
 6951 05c6 FF160000 		.4byte	.LASF82
 6952 05ca 06       		.byte	0x6
 6953 05cb CA01     		.2byte	0x1ca
 6954 05cd D3000000 		.4byte	0xd3
ARM GAS  C:\Users\mathi\AppData\Local\Temp\ccVwcWGw.s 			page 123


 6955 05d1 3401     		.2byte	0x134
 6956 05d3 0E       		.uleb128 0xe
 6957 05d4 3F090000 		.4byte	.LASF83
 6958 05d8 06       		.byte	0x6
 6959 05d9 CC01     		.2byte	0x1cc
 6960 05db D3000000 		.4byte	0xd3
 6961 05df 3601     		.2byte	0x136
 6962 05e1 0E       		.uleb128 0xe
 6963 05e2 61140000 		.4byte	.LASF84
 6964 05e6 06       		.byte	0x6
 6965 05e7 CF01     		.2byte	0x1cf
 6966 05e9 D3000000 		.4byte	0xd3
 6967 05ed 3801     		.2byte	0x138
 6968 05ef 0E       		.uleb128 0xe
 6969 05f0 71090000 		.4byte	.LASF107
 6970 05f4 06       		.byte	0x6
 6971 05f5 D201     		.2byte	0x1d2
 6972 05f7 B8000000 		.4byte	0xb8
 6973 05fb 3A01     		.2byte	0x13a
 6974 05fd 0E       		.uleb128 0xe
 6975 05fe 45050000 		.4byte	.LASF108
 6976 0602 06       		.byte	0x6
 6977 0603 D401     		.2byte	0x1d4
 6978 0605 D3000000 		.4byte	0xd3
 6979 0609 3C01     		.2byte	0x13c
 6980 060b 0E       		.uleb128 0xe
 6981 060c F1160000 		.4byte	.LASF109
 6982 0610 06       		.byte	0x6
 6983 0611 D601     		.2byte	0x1d6
 6984 0613 FB000000 		.4byte	0xfb
 6985 0617 4001     		.2byte	0x140
 6986 0619 0E       		.uleb128 0xe
 6987 061a 4A110000 		.4byte	.LASF110
 6988 061e 06       		.byte	0x6
 6989 061f D901     		.2byte	0x1d9
 6990 0621 FB000000 		.4byte	0xfb
 6991 0625 4401     		.2byte	0x144
 6992 0627 0E       		.uleb128 0xe
 6993 0628 D6110000 		.4byte	.LASF111
 6994 062c 06       		.byte	0x6
 6995 062d DB01     		.2byte	0x1db
 6996 062f FB000000 		.4byte	0xfb
 6997 0633 4801     		.2byte	0x148
 6998 0635 0E       		.uleb128 0xe
 6999 0636 20140000 		.4byte	.LASF112
 7000 063a 06       		.byte	0x6
 7001 063b DD01     		.2byte	0x1dd
 7002 063d 7C060000 		.4byte	0x67c
 7003 0641 4C01     		.2byte	0x14c
 7004 0643 0E       		.uleb128 0xe
 7005 0644 B7060000 		.4byte	.LASF113
 7006 0648 06       		.byte	0x6
 7007 0649 DF01     		.2byte	0x1df
 7008 064b B8000000 		.4byte	0xb8
 7009 064f 5001     		.2byte	0x150
 7010 0651 0E       		.uleb128 0xe
 7011 0652 07070000 		.4byte	.LASF114
ARM GAS  C:\Users\mathi\AppData\Local\Temp\ccVwcWGw.s 			page 124


 7012 0656 06       		.byte	0x6
 7013 0657 E101     		.2byte	0x1e1
 7014 0659 D3000000 		.4byte	0xd3
 7015 065d 5201     		.2byte	0x152
 7016 065f 0E       		.uleb128 0xe
 7017 0660 17090000 		.4byte	.LASF115
 7018 0664 06       		.byte	0x6
 7019 0665 E301     		.2byte	0x1e3
 7020 0667 D3000000 		.4byte	0xd3
 7021 066b 5401     		.2byte	0x154
 7022 066d 0E       		.uleb128 0xe
 7023 066e ED140000 		.4byte	.LASF116
 7024 0672 06       		.byte	0x6
 7025 0673 E501     		.2byte	0x1e5
 7026 0675 FB000000 		.4byte	0xfb
 7027 0679 5801     		.2byte	0x158
 7028 067b 00       		.byte	0
 7029 067c 0F       		.uleb128 0xf
 7030 067d 04       		.byte	0x4
 7031 067e B8000000 		.4byte	0xb8
 7032 0682 0B       		.uleb128 0xb
 7033 0683 4D150000 		.4byte	.LASF117
 7034 0687 06       		.byte	0x6
 7035 0688 E801     		.2byte	0x1e8
 7036 068a 1A050000 		.4byte	0x51a
 7037 068e 0B       		.uleb128 0xb
 7038 068f 5E160000 		.4byte	.LASF118
 7039 0693 06       		.byte	0x6
 7040 0694 FE01     		.2byte	0x1fe
 7041 0696 B8000000 		.4byte	0xb8
 7042 069a 10       		.uleb128 0x10
 7043 069b 04       		.byte	0x4
 7044 069c 03       		.uleb128 0x3
 7045 069d F50F0000 		.4byte	.LASF119
 7046 06a1 07       		.byte	0x7
 7047 06a2 22       		.byte	0x22
 7048 06a3 A7060000 		.4byte	0x6a7
 7049 06a7 0F       		.uleb128 0xf
 7050 06a8 04       		.byte	0x4
 7051 06a9 AD060000 		.4byte	0x6ad
 7052 06ad 11       		.uleb128 0x11
 7053 06ae 5A140000 		.4byte	.LASF225
 7054 06b2 03       		.uleb128 0x3
 7055 06b3 46170000 		.4byte	.LASF120
 7056 06b7 08       		.byte	0x8
 7057 06b8 2C       		.byte	0x2c
 7058 06b9 7F000000 		.4byte	0x7f
 7059 06bd 03       		.uleb128 0x3
 7060 06be BB030000 		.4byte	.LASF121
 7061 06c2 08       		.byte	0x8
 7062 06c3 72       		.byte	0x72
 7063 06c4 7F000000 		.4byte	0x7f
 7064 06c8 0B       		.uleb128 0xb
 7065 06c9 19140000 		.4byte	.LASF122
 7066 06cd 09       		.byte	0x9
 7067 06ce 6501     		.2byte	0x165
 7068 06d0 25000000 		.4byte	0x25
ARM GAS  C:\Users\mathi\AppData\Local\Temp\ccVwcWGw.s 			page 125


 7069 06d4 12       		.uleb128 0x12
 7070 06d5 04       		.byte	0x4
 7071 06d6 08       		.byte	0x8
 7072 06d7 A6       		.byte	0xa6
 7073 06d8 F3060000 		.4byte	0x6f3
 7074 06dc 13       		.uleb128 0x13
 7075 06dd FE0B0000 		.4byte	.LASF123
 7076 06e1 08       		.byte	0x8
 7077 06e2 A8       		.byte	0xa8
 7078 06e3 C8060000 		.4byte	0x6c8
 7079 06e7 13       		.uleb128 0x13
 7080 06e8 E8110000 		.4byte	.LASF124
 7081 06ec 08       		.byte	0x8
 7082 06ed A9       		.byte	0xa9
 7083 06ee F3060000 		.4byte	0x6f3
 7084 06f2 00       		.byte	0
 7085 06f3 08       		.uleb128 0x8
 7086 06f4 49000000 		.4byte	0x49
 7087 06f8 03070000 		.4byte	0x703
 7088 06fc 09       		.uleb128 0x9
 7089 06fd 25000000 		.4byte	0x25
 7090 0701 03       		.byte	0x3
 7091 0702 00       		.byte	0
 7092 0703 06       		.uleb128 0x6
 7093 0704 08       		.byte	0x8
 7094 0705 08       		.byte	0x8
 7095 0706 A3       		.byte	0xa3
 7096 0707 24070000 		.4byte	0x724
 7097 070b 07       		.uleb128 0x7
 7098 070c B4040000 		.4byte	.LASF125
 7099 0710 08       		.byte	0x8
 7100 0711 A5       		.byte	0xa5
 7101 0712 A6000000 		.4byte	0xa6
 7102 0716 00       		.byte	0
 7103 0717 07       		.uleb128 0x7
 7104 0718 37090000 		.4byte	.LASF126
 7105 071c 08       		.byte	0x8
 7106 071d AA       		.byte	0xaa
 7107 071e D4060000 		.4byte	0x6d4
 7108 0722 04       		.byte	0x4
 7109 0723 00       		.byte	0
 7110 0724 03       		.uleb128 0x3
 7111 0725 290E0000 		.4byte	.LASF127
 7112 0729 08       		.byte	0x8
 7113 072a AB       		.byte	0xab
 7114 072b 03070000 		.4byte	0x703
 7115 072f 03       		.uleb128 0x3
 7116 0730 970A0000 		.4byte	.LASF128
 7117 0734 08       		.byte	0x8
 7118 0735 AF       		.byte	0xaf
 7119 0736 9C060000 		.4byte	0x69c
 7120 073a 03       		.uleb128 0x3
 7121 073b 8D0D0000 		.4byte	.LASF129
 7122 073f 0A       		.byte	0xa
 7123 0740 16       		.byte	0x16
 7124 0741 91000000 		.4byte	0x91
 7125 0745 14       		.uleb128 0x14
ARM GAS  C:\Users\mathi\AppData\Local\Temp\ccVwcWGw.s 			page 126


 7126 0746 2B040000 		.4byte	.LASF134
 7127 074a 18       		.byte	0x18
 7128 074b 0A       		.byte	0xa
 7129 074c 2F       		.byte	0x2f
 7130 074d 98070000 		.4byte	0x798
 7131 0751 07       		.uleb128 0x7
 7132 0752 A0080000 		.4byte	.LASF130
 7133 0756 0A       		.byte	0xa
 7134 0757 31       		.byte	0x31
 7135 0758 98070000 		.4byte	0x798
 7136 075c 00       		.byte	0
 7137 075d 15       		.uleb128 0x15
 7138 075e 5F6B00   		.ascii	"_k\000"
 7139 0761 0A       		.byte	0xa
 7140 0762 32       		.byte	0x32
 7141 0763 A6000000 		.4byte	0xa6
 7142 0767 04       		.byte	0x4
 7143 0768 07       		.uleb128 0x7
 7144 0769 81000000 		.4byte	.LASF131
 7145 076d 0A       		.byte	0xa
 7146 076e 32       		.byte	0x32
 7147 076f A6000000 		.4byte	0xa6
 7148 0773 08       		.byte	0x8
 7149 0774 07       		.uleb128 0x7
 7150 0775 7A110000 		.4byte	.LASF132
 7151 0779 0A       		.byte	0xa
 7152 077a 32       		.byte	0x32
 7153 077b A6000000 		.4byte	0xa6
 7154 077f 0C       		.byte	0xc
 7155 0780 07       		.uleb128 0x7
 7156 0781 1D060000 		.4byte	.LASF133
 7157 0785 0A       		.byte	0xa
 7158 0786 32       		.byte	0x32
 7159 0787 A6000000 		.4byte	0xa6
 7160 078b 10       		.byte	0x10
 7161 078c 15       		.uleb128 0x15
 7162 078d 5F7800   		.ascii	"_x\000"
 7163 0790 0A       		.byte	0xa
 7164 0791 33       		.byte	0x33
 7165 0792 9E070000 		.4byte	0x79e
 7166 0796 14       		.byte	0x14
 7167 0797 00       		.byte	0
 7168 0798 0F       		.uleb128 0xf
 7169 0799 04       		.byte	0x4
 7170 079a 45070000 		.4byte	0x745
 7171 079e 08       		.uleb128 0x8
 7172 079f 3A070000 		.4byte	0x73a
 7173 07a3 AE070000 		.4byte	0x7ae
 7174 07a7 09       		.uleb128 0x9
 7175 07a8 25000000 		.4byte	0x25
 7176 07ac 00       		.byte	0
 7177 07ad 00       		.byte	0
 7178 07ae 14       		.uleb128 0x14
 7179 07af 8A130000 		.4byte	.LASF135
 7180 07b3 24       		.byte	0x24
 7181 07b4 0A       		.byte	0xa
 7182 07b5 37       		.byte	0x37
ARM GAS  C:\Users\mathi\AppData\Local\Temp\ccVwcWGw.s 			page 127


 7183 07b6 27080000 		.4byte	0x827
 7184 07ba 07       		.uleb128 0x7
 7185 07bb 7F010000 		.4byte	.LASF136
 7186 07bf 0A       		.byte	0xa
 7187 07c0 39       		.byte	0x39
 7188 07c1 A6000000 		.4byte	0xa6
 7189 07c5 00       		.byte	0
 7190 07c6 07       		.uleb128 0x7
 7191 07c7 EA040000 		.4byte	.LASF137
 7192 07cb 0A       		.byte	0xa
 7193 07cc 3A       		.byte	0x3a
 7194 07cd A6000000 		.4byte	0xa6
 7195 07d1 04       		.byte	0x4
 7196 07d2 07       		.uleb128 0x7
 7197 07d3 87040000 		.4byte	.LASF138
 7198 07d7 0A       		.byte	0xa
 7199 07d8 3B       		.byte	0x3b
 7200 07d9 A6000000 		.4byte	0xa6
 7201 07dd 08       		.byte	0x8
 7202 07de 07       		.uleb128 0x7
 7203 07df DB090000 		.4byte	.LASF139
 7204 07e3 0A       		.byte	0xa
 7205 07e4 3C       		.byte	0x3c
 7206 07e5 A6000000 		.4byte	0xa6
 7207 07e9 0C       		.byte	0xc
 7208 07ea 07       		.uleb128 0x7
 7209 07eb A90F0000 		.4byte	.LASF140
 7210 07ef 0A       		.byte	0xa
 7211 07f0 3D       		.byte	0x3d
 7212 07f1 A6000000 		.4byte	0xa6
 7213 07f5 10       		.byte	0x10
 7214 07f6 07       		.uleb128 0x7
 7215 07f7 1D120000 		.4byte	.LASF141
 7216 07fb 0A       		.byte	0xa
 7217 07fc 3E       		.byte	0x3e
 7218 07fd A6000000 		.4byte	0xa6
 7219 0801 14       		.byte	0x14
 7220 0802 07       		.uleb128 0x7
 7221 0803 33040000 		.4byte	.LASF142
 7222 0807 0A       		.byte	0xa
 7223 0808 3F       		.byte	0x3f
 7224 0809 A6000000 		.4byte	0xa6
 7225 080d 18       		.byte	0x18
 7226 080e 07       		.uleb128 0x7
 7227 080f D0070000 		.4byte	.LASF143
 7228 0813 0A       		.byte	0xa
 7229 0814 40       		.byte	0x40
 7230 0815 A6000000 		.4byte	0xa6
 7231 0819 1C       		.byte	0x1c
 7232 081a 07       		.uleb128 0x7
 7233 081b 6C0E0000 		.4byte	.LASF144
 7234 081f 0A       		.byte	0xa
 7235 0820 41       		.byte	0x41
 7236 0821 A6000000 		.4byte	0xa6
 7237 0825 20       		.byte	0x20
 7238 0826 00       		.byte	0
 7239 0827 16       		.uleb128 0x16
ARM GAS  C:\Users\mathi\AppData\Local\Temp\ccVwcWGw.s 			page 128


 7240 0828 C2000000 		.4byte	.LASF145
 7241 082c 0801     		.2byte	0x108
 7242 082e 0A       		.byte	0xa
 7243 082f 4A       		.byte	0x4a
 7244 0830 67080000 		.4byte	0x867
 7245 0834 07       		.uleb128 0x7
 7246 0835 72160000 		.4byte	.LASF146
 7247 0839 0A       		.byte	0xa
 7248 083a 4B       		.byte	0x4b
 7249 083b 67080000 		.4byte	0x867
 7250 083f 00       		.byte	0
 7251 0840 07       		.uleb128 0x7
 7252 0841 3F140000 		.4byte	.LASF147
 7253 0845 0A       		.byte	0xa
 7254 0846 4C       		.byte	0x4c
 7255 0847 67080000 		.4byte	0x867
 7256 084b 80       		.byte	0x80
 7257 084c 17       		.uleb128 0x17
 7258 084d 5F150000 		.4byte	.LASF148
 7259 0851 0A       		.byte	0xa
 7260 0852 4E       		.byte	0x4e
 7261 0853 3A070000 		.4byte	0x73a
 7262 0857 0001     		.2byte	0x100
 7263 0859 17       		.uleb128 0x17
 7264 085a E6170000 		.4byte	.LASF149
 7265 085e 0A       		.byte	0xa
 7266 085f 51       		.byte	0x51
 7267 0860 3A070000 		.4byte	0x73a
 7268 0864 0401     		.2byte	0x104
 7269 0866 00       		.byte	0
 7270 0867 08       		.uleb128 0x8
 7271 0868 9A060000 		.4byte	0x69a
 7272 086c 77080000 		.4byte	0x877
 7273 0870 09       		.uleb128 0x9
 7274 0871 25000000 		.4byte	0x25
 7275 0875 1F       		.byte	0x1f
 7276 0876 00       		.byte	0
 7277 0877 16       		.uleb128 0x16
 7278 0878 85100000 		.4byte	.LASF150
 7279 087c 9001     		.2byte	0x190
 7280 087e 0A       		.byte	0xa
 7281 087f 5D       		.byte	0x5d
 7282 0880 B5080000 		.4byte	0x8b5
 7283 0884 07       		.uleb128 0x7
 7284 0885 A0080000 		.4byte	.LASF130
 7285 0889 0A       		.byte	0xa
 7286 088a 5E       		.byte	0x5e
 7287 088b B5080000 		.4byte	0x8b5
 7288 088f 00       		.byte	0
 7289 0890 07       		.uleb128 0x7
 7290 0891 DF070000 		.4byte	.LASF151
 7291 0895 0A       		.byte	0xa
 7292 0896 5F       		.byte	0x5f
 7293 0897 A6000000 		.4byte	0xa6
 7294 089b 04       		.byte	0x4
 7295 089c 07       		.uleb128 0x7
 7296 089d CF030000 		.4byte	.LASF152
ARM GAS  C:\Users\mathi\AppData\Local\Temp\ccVwcWGw.s 			page 129


 7297 08a1 0A       		.byte	0xa
 7298 08a2 61       		.byte	0x61
 7299 08a3 BB080000 		.4byte	0x8bb
 7300 08a7 08       		.byte	0x8
 7301 08a8 07       		.uleb128 0x7
 7302 08a9 C2000000 		.4byte	.LASF145
 7303 08ad 0A       		.byte	0xa
 7304 08ae 62       		.byte	0x62
 7305 08af 27080000 		.4byte	0x827
 7306 08b3 88       		.byte	0x88
 7307 08b4 00       		.byte	0
 7308 08b5 0F       		.uleb128 0xf
 7309 08b6 04       		.byte	0x4
 7310 08b7 77080000 		.4byte	0x877
 7311 08bb 08       		.uleb128 0x8
 7312 08bc CB080000 		.4byte	0x8cb
 7313 08c0 CB080000 		.4byte	0x8cb
 7314 08c4 09       		.uleb128 0x9
 7315 08c5 25000000 		.4byte	0x25
 7316 08c9 1F       		.byte	0x1f
 7317 08ca 00       		.byte	0
 7318 08cb 0F       		.uleb128 0xf
 7319 08cc 04       		.byte	0x4
 7320 08cd D1080000 		.4byte	0x8d1
 7321 08d1 18       		.uleb128 0x18
 7322 08d2 14       		.uleb128 0x14
 7323 08d3 B3150000 		.4byte	.LASF153
 7324 08d7 08       		.byte	0x8
 7325 08d8 0A       		.byte	0xa
 7326 08d9 75       		.byte	0x75
 7327 08da F7080000 		.4byte	0x8f7
 7328 08de 07       		.uleb128 0x7
 7329 08df 430D0000 		.4byte	.LASF154
 7330 08e3 0A       		.byte	0xa
 7331 08e4 76       		.byte	0x76
 7332 08e5 F7080000 		.4byte	0x8f7
 7333 08e9 00       		.byte	0
 7334 08ea 07       		.uleb128 0x7
 7335 08eb 10170000 		.4byte	.LASF155
 7336 08ef 0A       		.byte	0xa
 7337 08f0 77       		.byte	0x77
 7338 08f1 A6000000 		.4byte	0xa6
 7339 08f5 04       		.byte	0x4
 7340 08f6 00       		.byte	0
 7341 08f7 0F       		.uleb128 0xf
 7342 08f8 04       		.byte	0x4
 7343 08f9 49000000 		.4byte	0x49
 7344 08fd 14       		.uleb128 0x14
 7345 08fe 15060000 		.4byte	.LASF156
 7346 0902 68       		.byte	0x68
 7347 0903 0A       		.byte	0xa
 7348 0904 B5       		.byte	0xb5
 7349 0905 270A0000 		.4byte	0xa27
 7350 0909 15       		.uleb128 0x15
 7351 090a 5F7000   		.ascii	"_p\000"
 7352 090d 0A       		.byte	0xa
 7353 090e B6       		.byte	0xb6
ARM GAS  C:\Users\mathi\AppData\Local\Temp\ccVwcWGw.s 			page 130


 7354 090f F7080000 		.4byte	0x8f7
 7355 0913 00       		.byte	0
 7356 0914 15       		.uleb128 0x15
 7357 0915 5F7200   		.ascii	"_r\000"
 7358 0918 0A       		.byte	0xa
 7359 0919 B7       		.byte	0xb7
 7360 091a A6000000 		.4byte	0xa6
 7361 091e 04       		.byte	0x4
 7362 091f 15       		.uleb128 0x15
 7363 0920 5F7700   		.ascii	"_w\000"
 7364 0923 0A       		.byte	0xa
 7365 0924 B8       		.byte	0xb8
 7366 0925 A6000000 		.4byte	0xa6
 7367 0929 08       		.byte	0x8
 7368 092a 07       		.uleb128 0x7
 7369 092b 19020000 		.4byte	.LASF157
 7370 092f 0A       		.byte	0xa
 7371 0930 B9       		.byte	0xb9
 7372 0931 5B000000 		.4byte	0x5b
 7373 0935 0C       		.byte	0xc
 7374 0936 07       		.uleb128 0x7
 7375 0937 E00D0000 		.4byte	.LASF158
 7376 093b 0A       		.byte	0xa
 7377 093c BA       		.byte	0xba
 7378 093d 5B000000 		.4byte	0x5b
 7379 0941 0E       		.byte	0xe
 7380 0942 15       		.uleb128 0x15
 7381 0943 5F626600 		.ascii	"_bf\000"
 7382 0947 0A       		.byte	0xa
 7383 0948 BB       		.byte	0xbb
 7384 0949 D2080000 		.4byte	0x8d2
 7385 094d 10       		.byte	0x10
 7386 094e 07       		.uleb128 0x7
 7387 094f 31150000 		.4byte	.LASF159
 7388 0953 0A       		.byte	0xa
 7389 0954 BC       		.byte	0xbc
 7390 0955 A6000000 		.4byte	0xa6
 7391 0959 18       		.byte	0x18
 7392 095a 07       		.uleb128 0x7
 7393 095b DD030000 		.4byte	.LASF160
 7394 095f 0A       		.byte	0xa
 7395 0960 C3       		.byte	0xc3
 7396 0961 9A060000 		.4byte	0x69a
 7397 0965 1C       		.byte	0x1c
 7398 0966 07       		.uleb128 0x7
 7399 0967 17030000 		.4byte	.LASF161
 7400 096b 0A       		.byte	0xa
 7401 096c C5       		.byte	0xc5
 7402 096d 880B0000 		.4byte	0xb88
 7403 0971 20       		.byte	0x20
 7404 0972 07       		.uleb128 0x7
 7405 0973 27100000 		.4byte	.LASF162
 7406 0977 0A       		.byte	0xa
 7407 0978 C7       		.byte	0xc7
 7408 0979 B20B0000 		.4byte	0xbb2
 7409 097d 24       		.byte	0x24
 7410 097e 07       		.uleb128 0x7
ARM GAS  C:\Users\mathi\AppData\Local\Temp\ccVwcWGw.s 			page 131


 7411 097f 62180000 		.4byte	.LASF163
 7412 0983 0A       		.byte	0xa
 7413 0984 CA       		.byte	0xca
 7414 0985 D60B0000 		.4byte	0xbd6
 7415 0989 28       		.byte	0x28
 7416 098a 07       		.uleb128 0x7
 7417 098b 440C0000 		.4byte	.LASF164
 7418 098f 0A       		.byte	0xa
 7419 0990 CB       		.byte	0xcb
 7420 0991 F00B0000 		.4byte	0xbf0
 7421 0995 2C       		.byte	0x2c
 7422 0996 15       		.uleb128 0x15
 7423 0997 5F756200 		.ascii	"_ub\000"
 7424 099b 0A       		.byte	0xa
 7425 099c CE       		.byte	0xce
 7426 099d D2080000 		.4byte	0x8d2
 7427 09a1 30       		.byte	0x30
 7428 09a2 15       		.uleb128 0x15
 7429 09a3 5F757000 		.ascii	"_up\000"
 7430 09a7 0A       		.byte	0xa
 7431 09a8 CF       		.byte	0xcf
 7432 09a9 F7080000 		.4byte	0x8f7
 7433 09ad 38       		.byte	0x38
 7434 09ae 15       		.uleb128 0x15
 7435 09af 5F757200 		.ascii	"_ur\000"
 7436 09b3 0A       		.byte	0xa
 7437 09b4 D0       		.byte	0xd0
 7438 09b5 A6000000 		.4byte	0xa6
 7439 09b9 3C       		.byte	0x3c
 7440 09ba 07       		.uleb128 0x7
 7441 09bb 87180000 		.4byte	.LASF165
 7442 09bf 0A       		.byte	0xa
 7443 09c0 D3       		.byte	0xd3
 7444 09c1 F60B0000 		.4byte	0xbf6
 7445 09c5 40       		.byte	0x40
 7446 09c6 07       		.uleb128 0x7
 7447 09c7 60170000 		.4byte	.LASF166
 7448 09cb 0A       		.byte	0xa
 7449 09cc D4       		.byte	0xd4
 7450 09cd 060C0000 		.4byte	0xc06
 7451 09d1 43       		.byte	0x43
 7452 09d2 15       		.uleb128 0x15
 7453 09d3 5F6C6200 		.ascii	"_lb\000"
 7454 09d7 0A       		.byte	0xa
 7455 09d8 D7       		.byte	0xd7
 7456 09d9 D2080000 		.4byte	0x8d2
 7457 09dd 44       		.byte	0x44
 7458 09de 07       		.uleb128 0x7
 7459 09df 81130000 		.4byte	.LASF167
 7460 09e3 0A       		.byte	0xa
 7461 09e4 DA       		.byte	0xda
 7462 09e5 A6000000 		.4byte	0xa6
 7463 09e9 4C       		.byte	0x4c
 7464 09ea 07       		.uleb128 0x7
 7465 09eb 84060000 		.4byte	.LASF168
 7466 09ef 0A       		.byte	0xa
 7467 09f0 DB       		.byte	0xdb
ARM GAS  C:\Users\mathi\AppData\Local\Temp\ccVwcWGw.s 			page 132


 7468 09f1 B2060000 		.4byte	0x6b2
 7469 09f5 50       		.byte	0x50
 7470 09f6 07       		.uleb128 0x7
 7471 09f7 D0110000 		.4byte	.LASF169
 7472 09fb 0A       		.byte	0xa
 7473 09fc DE       		.byte	0xde
 7474 09fd 450A0000 		.4byte	0xa45
 7475 0a01 54       		.byte	0x54
 7476 0a02 07       		.uleb128 0x7
 7477 0a03 8F130000 		.4byte	.LASF170
 7478 0a07 0A       		.byte	0xa
 7479 0a08 E2       		.byte	0xe2
 7480 0a09 2F070000 		.4byte	0x72f
 7481 0a0d 58       		.byte	0x58
 7482 0a0e 07       		.uleb128 0x7
 7483 0a0f 0E030000 		.4byte	.LASF171
 7484 0a13 0A       		.byte	0xa
 7485 0a14 E4       		.byte	0xe4
 7486 0a15 24070000 		.4byte	0x724
 7487 0a19 5C       		.byte	0x5c
 7488 0a1a 07       		.uleb128 0x7
 7489 0a1b DE170000 		.4byte	.LASF172
 7490 0a1f 0A       		.byte	0xa
 7491 0a20 E5       		.byte	0xe5
 7492 0a21 A6000000 		.4byte	0xa6
 7493 0a25 64       		.byte	0x64
 7494 0a26 00       		.byte	0
 7495 0a27 19       		.uleb128 0x19
 7496 0a28 A6000000 		.4byte	0xa6
 7497 0a2c 450A0000 		.4byte	0xa45
 7498 0a30 1A       		.uleb128 0x1a
 7499 0a31 450A0000 		.4byte	0xa45
 7500 0a35 1A       		.uleb128 0x1a
 7501 0a36 9A060000 		.4byte	0x69a
 7502 0a3a 1A       		.uleb128 0x1a
 7503 0a3b 820B0000 		.4byte	0xb82
 7504 0a3f 1A       		.uleb128 0x1a
 7505 0a40 A6000000 		.4byte	0xa6
 7506 0a44 00       		.byte	0
 7507 0a45 0F       		.uleb128 0xf
 7508 0a46 04       		.byte	0x4
 7509 0a47 500A0000 		.4byte	0xa50
 7510 0a4b 05       		.uleb128 0x5
 7511 0a4c 450A0000 		.4byte	0xa45
 7512 0a50 1B       		.uleb128 0x1b
 7513 0a51 8D100000 		.4byte	.LASF173
 7514 0a55 2804     		.2byte	0x428
 7515 0a57 0A       		.byte	0xa
 7516 0a58 3902     		.2byte	0x239
 7517 0a5a 820B0000 		.4byte	0xb82
 7518 0a5e 0A       		.uleb128 0xa
 7519 0a5f 52020000 		.4byte	.LASF174
 7520 0a63 0A       		.byte	0xa
 7521 0a64 3B02     		.2byte	0x23b
 7522 0a66 A6000000 		.4byte	0xa6
 7523 0a6a 00       		.byte	0
 7524 0a6b 0A       		.uleb128 0xa
ARM GAS  C:\Users\mathi\AppData\Local\Temp\ccVwcWGw.s 			page 133


 7525 0a6c C40C0000 		.4byte	.LASF175
 7526 0a70 0A       		.byte	0xa
 7527 0a71 4002     		.2byte	0x240
 7528 0a73 5D0C0000 		.4byte	0xc5d
 7529 0a77 04       		.byte	0x4
 7530 0a78 0A       		.uleb128 0xa
 7531 0a79 91140000 		.4byte	.LASF176
 7532 0a7d 0A       		.byte	0xa
 7533 0a7e 4002     		.2byte	0x240
 7534 0a80 5D0C0000 		.4byte	0xc5d
 7535 0a84 08       		.byte	0x8
 7536 0a85 0A       		.uleb128 0xa
 7537 0a86 76180000 		.4byte	.LASF177
 7538 0a8a 0A       		.byte	0xa
 7539 0a8b 4002     		.2byte	0x240
 7540 0a8d 5D0C0000 		.4byte	0xc5d
 7541 0a91 0C       		.byte	0xc
 7542 0a92 0A       		.uleb128 0xa
 7543 0a93 DA070000 		.4byte	.LASF178
 7544 0a97 0A       		.byte	0xa
 7545 0a98 4202     		.2byte	0x242
 7546 0a9a A6000000 		.4byte	0xa6
 7547 0a9e 10       		.byte	0x10
 7548 0a9f 0A       		.uleb128 0xa
 7549 0aa0 D1060000 		.4byte	.LASF179
 7550 0aa4 0A       		.byte	0xa
 7551 0aa5 4302     		.2byte	0x243
 7552 0aa7 3F0E0000 		.4byte	0xe3f
 7553 0aab 14       		.byte	0x14
 7554 0aac 0A       		.uleb128 0xa
 7555 0aad C5170000 		.4byte	.LASF180
 7556 0ab1 0A       		.byte	0xa
 7557 0ab2 4602     		.2byte	0x246
 7558 0ab4 A6000000 		.4byte	0xa6
 7559 0ab8 30       		.byte	0x30
 7560 0ab9 0A       		.uleb128 0xa
 7561 0aba 56160000 		.4byte	.LASF181
 7562 0abe 0A       		.byte	0xa
 7563 0abf 4702     		.2byte	0x247
 7564 0ac1 540E0000 		.4byte	0xe54
 7565 0ac5 34       		.byte	0x34
 7566 0ac6 0A       		.uleb128 0xa
 7567 0ac7 530C0000 		.4byte	.LASF182
 7568 0acb 0A       		.byte	0xa
 7569 0acc 4902     		.2byte	0x249
 7570 0ace A6000000 		.4byte	0xa6
 7571 0ad2 38       		.byte	0x38
 7572 0ad3 0A       		.uleb128 0xa
 7573 0ad4 1F0E0000 		.4byte	.LASF183
 7574 0ad8 0A       		.byte	0xa
 7575 0ad9 4B02     		.2byte	0x24b
 7576 0adb 650E0000 		.4byte	0xe65
 7577 0adf 3C       		.byte	0x3c
 7578 0ae0 0A       		.uleb128 0xa
 7579 0ae1 3D040000 		.4byte	.LASF184
 7580 0ae5 0A       		.byte	0xa
 7581 0ae6 4E02     		.2byte	0x24e
ARM GAS  C:\Users\mathi\AppData\Local\Temp\ccVwcWGw.s 			page 134


 7582 0ae8 98070000 		.4byte	0x798
 7583 0aec 40       		.byte	0x40
 7584 0aed 0A       		.uleb128 0xa
 7585 0aee A8050000 		.4byte	.LASF185
 7586 0af2 0A       		.byte	0xa
 7587 0af3 4F02     		.2byte	0x24f
 7588 0af5 A6000000 		.4byte	0xa6
 7589 0af9 44       		.byte	0x44
 7590 0afa 0A       		.uleb128 0xa
 7591 0afb 66090000 		.4byte	.LASF186
 7592 0aff 0A       		.byte	0xa
 7593 0b00 5002     		.2byte	0x250
 7594 0b02 98070000 		.4byte	0x798
 7595 0b06 48       		.byte	0x48
 7596 0b07 0A       		.uleb128 0xa
 7597 0b08 490D0000 		.4byte	.LASF187
 7598 0b0c 0A       		.byte	0xa
 7599 0b0d 5102     		.2byte	0x251
 7600 0b0f 6B0E0000 		.4byte	0xe6b
 7601 0b13 4C       		.byte	0x4c
 7602 0b14 0A       		.uleb128 0xa
 7603 0b15 E1120000 		.4byte	.LASF188
 7604 0b19 0A       		.byte	0xa
 7605 0b1a 5402     		.2byte	0x254
 7606 0b1c A6000000 		.4byte	0xa6
 7607 0b20 50       		.byte	0x50
 7608 0b21 0A       		.uleb128 0xa
 7609 0b22 99140000 		.4byte	.LASF189
 7610 0b26 0A       		.byte	0xa
 7611 0b27 5502     		.2byte	0x255
 7612 0b29 820B0000 		.4byte	0xb82
 7613 0b2d 54       		.byte	0x54
 7614 0b2e 0A       		.uleb128 0xa
 7615 0b2f 86120000 		.4byte	.LASF190
 7616 0b33 0A       		.byte	0xa
 7617 0b34 7802     		.2byte	0x278
 7618 0b36 1D0E0000 		.4byte	0xe1d
 7619 0b3a 58       		.byte	0x58
 7620 0b3b 0E       		.uleb128 0xe
 7621 0b3c 85100000 		.4byte	.LASF150
 7622 0b40 0A       		.byte	0xa
 7623 0b41 7C02     		.2byte	0x27c
 7624 0b43 B5080000 		.4byte	0x8b5
 7625 0b47 4801     		.2byte	0x148
 7626 0b49 0E       		.uleb128 0xe
 7627 0b4a FE090000 		.4byte	.LASF191
 7628 0b4e 0A       		.byte	0xa
 7629 0b4f 7D02     		.2byte	0x27d
 7630 0b51 77080000 		.4byte	0x877
 7631 0b55 4C01     		.2byte	0x14c
 7632 0b57 0E       		.uleb128 0xe
 7633 0b58 E5090000 		.4byte	.LASF192
 7634 0b5c 0A       		.byte	0xa
 7635 0b5d 8102     		.2byte	0x281
 7636 0b5f 7C0E0000 		.4byte	0xe7c
 7637 0b63 DC02     		.2byte	0x2dc
 7638 0b65 0E       		.uleb128 0xe
ARM GAS  C:\Users\mathi\AppData\Local\Temp\ccVwcWGw.s 			page 135


 7639 0b66 1B160000 		.4byte	.LASF193
 7640 0b6a 0A       		.byte	0xa
 7641 0b6b 8602     		.2byte	0x286
 7642 0b6d 220C0000 		.4byte	0xc22
 7643 0b71 E002     		.2byte	0x2e0
 7644 0b73 0E       		.uleb128 0xe
 7645 0b74 75110000 		.4byte	.LASF194
 7646 0b78 0A       		.byte	0xa
 7647 0b79 8802     		.2byte	0x288
 7648 0b7b 880E0000 		.4byte	0xe88
 7649 0b7f EC02     		.2byte	0x2ec
 7650 0b81 00       		.byte	0
 7651 0b82 0F       		.uleb128 0xf
 7652 0b83 04       		.byte	0x4
 7653 0b84 7D010000 		.4byte	0x17d
 7654 0b88 0F       		.uleb128 0xf
 7655 0b89 04       		.byte	0x4
 7656 0b8a 270A0000 		.4byte	0xa27
 7657 0b8e 19       		.uleb128 0x19
 7658 0b8f A6000000 		.4byte	0xa6
 7659 0b93 AC0B0000 		.4byte	0xbac
 7660 0b97 1A       		.uleb128 0x1a
 7661 0b98 450A0000 		.4byte	0xa45
 7662 0b9c 1A       		.uleb128 0x1a
 7663 0b9d 9A060000 		.4byte	0x69a
 7664 0ba1 1A       		.uleb128 0x1a
 7665 0ba2 AC0B0000 		.4byte	0xbac
 7666 0ba6 1A       		.uleb128 0x1a
 7667 0ba7 A6000000 		.4byte	0xa6
 7668 0bab 00       		.byte	0
 7669 0bac 0F       		.uleb128 0xf
 7670 0bad 04       		.byte	0x4
 7671 0bae 84010000 		.4byte	0x184
 7672 0bb2 0F       		.uleb128 0xf
 7673 0bb3 04       		.byte	0x4
 7674 0bb4 8E0B0000 		.4byte	0xb8e
 7675 0bb8 19       		.uleb128 0x19
 7676 0bb9 BD060000 		.4byte	0x6bd
 7677 0bbd D60B0000 		.4byte	0xbd6
 7678 0bc1 1A       		.uleb128 0x1a
 7679 0bc2 450A0000 		.4byte	0xa45
 7680 0bc6 1A       		.uleb128 0x1a
 7681 0bc7 9A060000 		.4byte	0x69a
 7682 0bcb 1A       		.uleb128 0x1a
 7683 0bcc BD060000 		.4byte	0x6bd
 7684 0bd0 1A       		.uleb128 0x1a
 7685 0bd1 A6000000 		.4byte	0xa6
 7686 0bd5 00       		.byte	0
 7687 0bd6 0F       		.uleb128 0xf
 7688 0bd7 04       		.byte	0x4
 7689 0bd8 B80B0000 		.4byte	0xbb8
 7690 0bdc 19       		.uleb128 0x19
 7691 0bdd A6000000 		.4byte	0xa6
 7692 0be1 F00B0000 		.4byte	0xbf0
 7693 0be5 1A       		.uleb128 0x1a
 7694 0be6 450A0000 		.4byte	0xa45
 7695 0bea 1A       		.uleb128 0x1a
ARM GAS  C:\Users\mathi\AppData\Local\Temp\ccVwcWGw.s 			page 136


 7696 0beb 9A060000 		.4byte	0x69a
 7697 0bef 00       		.byte	0
 7698 0bf0 0F       		.uleb128 0xf
 7699 0bf1 04       		.byte	0x4
 7700 0bf2 DC0B0000 		.4byte	0xbdc
 7701 0bf6 08       		.uleb128 0x8
 7702 0bf7 49000000 		.4byte	0x49
 7703 0bfb 060C0000 		.4byte	0xc06
 7704 0bff 09       		.uleb128 0x9
 7705 0c00 25000000 		.4byte	0x25
 7706 0c04 02       		.byte	0x2
 7707 0c05 00       		.byte	0
 7708 0c06 08       		.uleb128 0x8
 7709 0c07 49000000 		.4byte	0x49
 7710 0c0b 160C0000 		.4byte	0xc16
 7711 0c0f 09       		.uleb128 0x9
 7712 0c10 25000000 		.4byte	0x25
 7713 0c14 00       		.byte	0
 7714 0c15 00       		.byte	0
 7715 0c16 0B       		.uleb128 0xb
 7716 0c17 6F060000 		.4byte	.LASF195
 7717 0c1b 0A       		.byte	0xa
 7718 0c1c 1F01     		.2byte	0x11f
 7719 0c1e FD080000 		.4byte	0x8fd
 7720 0c22 1C       		.uleb128 0x1c
 7721 0c23 FF150000 		.4byte	.LASF196
 7722 0c27 0C       		.byte	0xc
 7723 0c28 0A       		.byte	0xa
 7724 0c29 2301     		.2byte	0x123
 7725 0c2b 570C0000 		.4byte	0xc57
 7726 0c2f 0A       		.uleb128 0xa
 7727 0c30 A0080000 		.4byte	.LASF130
 7728 0c34 0A       		.byte	0xa
 7729 0c35 2501     		.2byte	0x125
 7730 0c37 570C0000 		.4byte	0xc57
 7731 0c3b 00       		.byte	0
 7732 0c3c 0A       		.uleb128 0xa
 7733 0c3d 12140000 		.4byte	.LASF197
 7734 0c41 0A       		.byte	0xa
 7735 0c42 2601     		.2byte	0x126
 7736 0c44 A6000000 		.4byte	0xa6
 7737 0c48 04       		.byte	0x4
 7738 0c49 0A       		.uleb128 0xa
 7739 0c4a 040C0000 		.4byte	.LASF198
 7740 0c4e 0A       		.byte	0xa
 7741 0c4f 2701     		.2byte	0x127
 7742 0c51 5D0C0000 		.4byte	0xc5d
 7743 0c55 08       		.byte	0x8
 7744 0c56 00       		.byte	0
 7745 0c57 0F       		.uleb128 0xf
 7746 0c58 04       		.byte	0x4
 7747 0c59 220C0000 		.4byte	0xc22
 7748 0c5d 0F       		.uleb128 0xf
 7749 0c5e 04       		.byte	0x4
 7750 0c5f 160C0000 		.4byte	0xc16
 7751 0c63 1C       		.uleb128 0x1c
 7752 0c64 5B050000 		.4byte	.LASF199
ARM GAS  C:\Users\mathi\AppData\Local\Temp\ccVwcWGw.s 			page 137


 7753 0c68 0E       		.byte	0xe
 7754 0c69 0A       		.byte	0xa
 7755 0c6a 3F01     		.2byte	0x13f
 7756 0c6c 980C0000 		.4byte	0xc98
 7757 0c70 0A       		.uleb128 0xa
 7758 0c71 29180000 		.4byte	.LASF200
 7759 0c75 0A       		.byte	0xa
 7760 0c76 4001     		.2byte	0x140
 7761 0c78 980C0000 		.4byte	0xc98
 7762 0c7c 00       		.byte	0
 7763 0c7d 0A       		.uleb128 0xa
 7764 0c7e 690D0000 		.4byte	.LASF201
 7765 0c82 0A       		.byte	0xa
 7766 0c83 4101     		.2byte	0x141
 7767 0c85 980C0000 		.4byte	0xc98
 7768 0c89 06       		.byte	0x6
 7769 0c8a 0A       		.uleb128 0xa
 7770 0c8b 68150000 		.4byte	.LASF202
 7771 0c8f 0A       		.byte	0xa
 7772 0c90 4201     		.2byte	0x142
 7773 0c92 6D000000 		.4byte	0x6d
 7774 0c96 0C       		.byte	0xc
 7775 0c97 00       		.byte	0
 7776 0c98 08       		.uleb128 0x8
 7777 0c99 6D000000 		.4byte	0x6d
 7778 0c9d A80C0000 		.4byte	0xca8
 7779 0ca1 09       		.uleb128 0x9
 7780 0ca2 25000000 		.4byte	0x25
 7781 0ca6 02       		.byte	0x2
 7782 0ca7 00       		.byte	0
 7783 0ca8 0C       		.uleb128 0xc
 7784 0ca9 D0       		.byte	0xd0
 7785 0caa 0A       		.byte	0xa
 7786 0cab 5902     		.2byte	0x259
 7787 0cad A90D0000 		.4byte	0xda9
 7788 0cb1 0A       		.uleb128 0xa
 7789 0cb2 66170000 		.4byte	.LASF203
 7790 0cb6 0A       		.byte	0xa
 7791 0cb7 5B02     		.2byte	0x25b
 7792 0cb9 25000000 		.4byte	0x25
 7793 0cbd 00       		.byte	0
 7794 0cbe 0A       		.uleb128 0xa
 7795 0cbf 2F160000 		.4byte	.LASF204
 7796 0cc3 0A       		.byte	0xa
 7797 0cc4 5C02     		.2byte	0x25c
 7798 0cc6 820B0000 		.4byte	0xb82
 7799 0cca 04       		.byte	0x4
 7800 0ccb 0A       		.uleb128 0xa
 7801 0ccc 08060000 		.4byte	.LASF205
 7802 0cd0 0A       		.byte	0xa
 7803 0cd1 5D02     		.2byte	0x25d
 7804 0cd3 A90D0000 		.4byte	0xda9
 7805 0cd7 08       		.byte	0x8
 7806 0cd8 0A       		.uleb128 0xa
 7807 0cd9 2E120000 		.4byte	.LASF206
 7808 0cdd 0A       		.byte	0xa
 7809 0cde 5E02     		.2byte	0x25e
ARM GAS  C:\Users\mathi\AppData\Local\Temp\ccVwcWGw.s 			page 138


 7810 0ce0 AE070000 		.4byte	0x7ae
 7811 0ce4 24       		.byte	0x24
 7812 0ce5 0A       		.uleb128 0xa
 7813 0ce6 CB0C0000 		.4byte	.LASF207
 7814 0cea 0A       		.byte	0xa
 7815 0ceb 5F02     		.2byte	0x25f
 7816 0ced A6000000 		.4byte	0xa6
 7817 0cf1 48       		.byte	0x48
 7818 0cf2 0A       		.uleb128 0xa
 7819 0cf3 2F180000 		.4byte	.LASF208
 7820 0cf7 0A       		.byte	0xa
 7821 0cf8 6002     		.2byte	0x260
 7822 0cfa 9F000000 		.4byte	0x9f
 7823 0cfe 50       		.byte	0x50
 7824 0cff 0A       		.uleb128 0xa
 7825 0d00 46010000 		.4byte	.LASF209
 7826 0d04 0A       		.byte	0xa
 7827 0d05 6102     		.2byte	0x261
 7828 0d07 630C0000 		.4byte	0xc63
 7829 0d0b 58       		.byte	0x58
 7830 0d0c 0A       		.uleb128 0xa
 7831 0d0d A5090000 		.4byte	.LASF210
 7832 0d11 0A       		.byte	0xa
 7833 0d12 6202     		.2byte	0x262
 7834 0d14 24070000 		.4byte	0x724
 7835 0d18 68       		.byte	0x68
 7836 0d19 0A       		.uleb128 0xa
 7837 0d1a 3C160000 		.4byte	.LASF211
 7838 0d1e 0A       		.byte	0xa
 7839 0d1f 6302     		.2byte	0x263
 7840 0d21 24070000 		.4byte	0x724
 7841 0d25 70       		.byte	0x70
 7842 0d26 0A       		.uleb128 0xa
 7843 0d27 FC000000 		.4byte	.LASF212
 7844 0d2b 0A       		.byte	0xa
 7845 0d2c 6402     		.2byte	0x264
 7846 0d2e 24070000 		.4byte	0x724
 7847 0d32 78       		.byte	0x78
 7848 0d33 0A       		.uleb128 0xa
 7849 0d34 F8120000 		.4byte	.LASF213
 7850 0d38 0A       		.byte	0xa
 7851 0d39 6502     		.2byte	0x265
 7852 0d3b B90D0000 		.4byte	0xdb9
 7853 0d3f 80       		.byte	0x80
 7854 0d40 0A       		.uleb128 0xa
 7855 0d41 88010000 		.4byte	.LASF214
 7856 0d45 0A       		.byte	0xa
 7857 0d46 6602     		.2byte	0x266
 7858 0d48 C90D0000 		.4byte	0xdc9
 7859 0d4c 88       		.byte	0x88
 7860 0d4d 0A       		.uleb128 0xa
 7861 0d4e 24150000 		.4byte	.LASF215
 7862 0d52 0A       		.byte	0xa
 7863 0d53 6702     		.2byte	0x267
 7864 0d55 A6000000 		.4byte	0xa6
 7865 0d59 A0       		.byte	0xa0
 7866 0d5a 0A       		.uleb128 0xa
ARM GAS  C:\Users\mathi\AppData\Local\Temp\ccVwcWGw.s 			page 139


 7867 0d5b 26030000 		.4byte	.LASF216
 7868 0d5f 0A       		.byte	0xa
 7869 0d60 6802     		.2byte	0x268
 7870 0d62 24070000 		.4byte	0x724
 7871 0d66 A4       		.byte	0xa4
 7872 0d67 0A       		.uleb128 0xa
 7873 0d68 EF090000 		.4byte	.LASF217
 7874 0d6c 0A       		.byte	0xa
 7875 0d6d 6902     		.2byte	0x269
 7876 0d6f 24070000 		.4byte	0x724
 7877 0d73 AC       		.byte	0xac
 7878 0d74 0A       		.uleb128 0xa
 7879 0d75 B7080000 		.4byte	.LASF218
 7880 0d79 0A       		.byte	0xa
 7881 0d7a 6A02     		.2byte	0x26a
 7882 0d7c 24070000 		.4byte	0x724
 7883 0d80 B4       		.byte	0xb4
 7884 0d81 0A       		.uleb128 0xa
 7885 0d82 C00D0000 		.4byte	.LASF219
 7886 0d86 0A       		.byte	0xa
 7887 0d87 6B02     		.2byte	0x26b
 7888 0d89 24070000 		.4byte	0x724
 7889 0d8d BC       		.byte	0xbc
 7890 0d8e 0A       		.uleb128 0xa
 7891 0d8f D90E0000 		.4byte	.LASF220
 7892 0d93 0A       		.byte	0xa
 7893 0d94 6C02     		.2byte	0x26c
 7894 0d96 24070000 		.4byte	0x724
 7895 0d9a C4       		.byte	0xc4
 7896 0d9b 0A       		.uleb128 0xa
 7897 0d9c 190F0000 		.4byte	.LASF221
 7898 0da0 0A       		.byte	0xa
 7899 0da1 6D02     		.2byte	0x26d
 7900 0da3 A6000000 		.4byte	0xa6
 7901 0da7 CC       		.byte	0xcc
 7902 0da8 00       		.byte	0
 7903 0da9 08       		.uleb128 0x8
 7904 0daa 7D010000 		.4byte	0x17d
 7905 0dae B90D0000 		.4byte	0xdb9
 7906 0db2 09       		.uleb128 0x9
 7907 0db3 25000000 		.4byte	0x25
 7908 0db7 19       		.byte	0x19
 7909 0db8 00       		.byte	0
 7910 0db9 08       		.uleb128 0x8
 7911 0dba 7D010000 		.4byte	0x17d
 7912 0dbe C90D0000 		.4byte	0xdc9
 7913 0dc2 09       		.uleb128 0x9
 7914 0dc3 25000000 		.4byte	0x25
 7915 0dc7 07       		.byte	0x7
 7916 0dc8 00       		.byte	0
 7917 0dc9 08       		.uleb128 0x8
 7918 0dca 7D010000 		.4byte	0x17d
 7919 0dce D90D0000 		.4byte	0xdd9
 7920 0dd2 09       		.uleb128 0x9
 7921 0dd3 25000000 		.4byte	0x25
 7922 0dd7 17       		.byte	0x17
 7923 0dd8 00       		.byte	0
ARM GAS  C:\Users\mathi\AppData\Local\Temp\ccVwcWGw.s 			page 140


 7924 0dd9 0C       		.uleb128 0xc
 7925 0dda F0       		.byte	0xf0
 7926 0ddb 0A       		.byte	0xa
 7927 0ddc 7202     		.2byte	0x272
 7928 0dde FD0D0000 		.4byte	0xdfd
 7929 0de2 0A       		.uleb128 0xa
 7930 0de3 0E050000 		.4byte	.LASF222
 7931 0de7 0A       		.byte	0xa
 7932 0de8 7502     		.2byte	0x275
 7933 0dea FD0D0000 		.4byte	0xdfd
 7934 0dee 00       		.byte	0
 7935 0def 0A       		.uleb128 0xa
 7936 0df0 7E180000 		.4byte	.LASF223
 7937 0df4 0A       		.byte	0xa
 7938 0df5 7602     		.2byte	0x276
 7939 0df7 0D0E0000 		.4byte	0xe0d
 7940 0dfb 78       		.byte	0x78
 7941 0dfc 00       		.byte	0
 7942 0dfd 08       		.uleb128 0x8
 7943 0dfe F7080000 		.4byte	0x8f7
 7944 0e02 0D0E0000 		.4byte	0xe0d
 7945 0e06 09       		.uleb128 0x9
 7946 0e07 25000000 		.4byte	0x25
 7947 0e0b 1D       		.byte	0x1d
 7948 0e0c 00       		.byte	0
 7949 0e0d 08       		.uleb128 0x8
 7950 0e0e 25000000 		.4byte	0x25
 7951 0e12 1D0E0000 		.4byte	0xe1d
 7952 0e16 09       		.uleb128 0x9
 7953 0e17 25000000 		.4byte	0x25
 7954 0e1b 1D       		.byte	0x1d
 7955 0e1c 00       		.byte	0
 7956 0e1d 1D       		.uleb128 0x1d
 7957 0e1e F0       		.byte	0xf0
 7958 0e1f 0A       		.byte	0xa
 7959 0e20 5702     		.2byte	0x257
 7960 0e22 3F0E0000 		.4byte	0xe3f
 7961 0e26 1E       		.uleb128 0x1e
 7962 0e27 8D100000 		.4byte	.LASF173
 7963 0e2b 0A       		.byte	0xa
 7964 0e2c 6E02     		.2byte	0x26e
 7965 0e2e A80C0000 		.4byte	0xca8
 7966 0e32 1E       		.uleb128 0x1e
 7967 0e33 4D120000 		.4byte	.LASF224
 7968 0e37 0A       		.byte	0xa
 7969 0e38 7702     		.2byte	0x277
 7970 0e3a D90D0000 		.4byte	0xdd9
 7971 0e3e 00       		.byte	0
 7972 0e3f 08       		.uleb128 0x8
 7973 0e40 7D010000 		.4byte	0x17d
 7974 0e44 4F0E0000 		.4byte	0xe4f
 7975 0e48 09       		.uleb128 0x9
 7976 0e49 25000000 		.4byte	0x25
 7977 0e4d 18       		.byte	0x18
 7978 0e4e 00       		.byte	0
 7979 0e4f 11       		.uleb128 0x11
 7980 0e50 03030000 		.4byte	.LASF226
ARM GAS  C:\Users\mathi\AppData\Local\Temp\ccVwcWGw.s 			page 141


 7981 0e54 0F       		.uleb128 0xf
 7982 0e55 04       		.byte	0x4
 7983 0e56 4F0E0000 		.4byte	0xe4f
 7984 0e5a 1F       		.uleb128 0x1f
 7985 0e5b 650E0000 		.4byte	0xe65
 7986 0e5f 1A       		.uleb128 0x1a
 7987 0e60 450A0000 		.4byte	0xa45
 7988 0e64 00       		.byte	0
 7989 0e65 0F       		.uleb128 0xf
 7990 0e66 04       		.byte	0x4
 7991 0e67 5A0E0000 		.4byte	0xe5a
 7992 0e6b 0F       		.uleb128 0xf
 7993 0e6c 04       		.byte	0x4
 7994 0e6d 98070000 		.4byte	0x798
 7995 0e71 1F       		.uleb128 0x1f
 7996 0e72 7C0E0000 		.4byte	0xe7c
 7997 0e76 1A       		.uleb128 0x1a
 7998 0e77 A6000000 		.4byte	0xa6
 7999 0e7b 00       		.byte	0
 8000 0e7c 0F       		.uleb128 0xf
 8001 0e7d 04       		.byte	0x4
 8002 0e7e 820E0000 		.4byte	0xe82
 8003 0e82 0F       		.uleb128 0xf
 8004 0e83 04       		.byte	0x4
 8005 0e84 710E0000 		.4byte	0xe71
 8006 0e88 08       		.uleb128 0x8
 8007 0e89 160C0000 		.4byte	0xc16
 8008 0e8d 980E0000 		.4byte	0xe98
 8009 0e91 09       		.uleb128 0x9
 8010 0e92 25000000 		.4byte	0x25
 8011 0e96 02       		.byte	0x2
 8012 0e97 00       		.byte	0
 8013 0e98 20       		.uleb128 0x20
 8014 0e99 C3030000 		.4byte	.LASF227
 8015 0e9d 0A       		.byte	0xa
 8016 0e9e 0703     		.2byte	0x307
 8017 0ea0 450A0000 		.4byte	0xa45
 8018 0ea4 20       		.uleb128 0x20
 8019 0ea5 EF110000 		.4byte	.LASF228
 8020 0ea9 0A       		.byte	0xa
 8021 0eaa 0803     		.2byte	0x308
 8022 0eac 4B0A0000 		.4byte	0xa4b
 8023 0eb0 21       		.uleb128 0x21
 8024 0eb1 C001     		.2byte	0x1c0
 8025 0eb3 0B       		.byte	0xb
 8026 0eb4 44       		.byte	0x44
 8027 0eb5 E00E0000 		.4byte	0xee0
 8028 0eb9 07       		.uleb128 0x7
 8029 0eba 5D180000 		.4byte	.LASF229
 8030 0ebe 0B       		.byte	0xb
 8031 0ebf 45       		.byte	0x45
 8032 0ec0 82060000 		.4byte	0x682
 8033 0ec4 00       		.byte	0
 8034 0ec5 17       		.uleb128 0x17
 8035 0ec6 0A010000 		.4byte	.LASF230
 8036 0eca 0B       		.byte	0xb
 8037 0ecb 48       		.byte	0x48
ARM GAS  C:\Users\mathi\AppData\Local\Temp\ccVwcWGw.s 			page 142


 8038 0ecc 89010000 		.4byte	0x189
 8039 0ed0 5C01     		.2byte	0x15c
 8040 0ed2 17       		.uleb128 0x17
 8041 0ed3 6A110000 		.4byte	.LASF231
 8042 0ed7 0B       		.byte	0xb
 8043 0ed8 49       		.byte	0x49
 8044 0ed9 B8000000 		.4byte	0xb8
 8045 0edd BF01     		.2byte	0x1bf
 8046 0edf 00       		.byte	0
 8047 0ee0 03       		.uleb128 0x3
 8048 0ee1 34030000 		.4byte	.LASF232
 8049 0ee5 0B       		.byte	0xb
 8050 0ee6 4B       		.byte	0x4b
 8051 0ee7 B00E0000 		.4byte	0xeb0
 8052 0eeb 03       		.uleb128 0x3
 8053 0eec B6000000 		.4byte	.LASF233
 8054 0ef0 0B       		.byte	0xb
 8055 0ef1 52       		.byte	0x52
 8056 0ef2 F60E0000 		.4byte	0xef6
 8057 0ef6 0F       		.uleb128 0xf
 8058 0ef7 04       		.byte	0x4
 8059 0ef8 E00E0000 		.4byte	0xee0
 8060 0efc 22       		.uleb128 0x22
 8061 0efd C6070000 		.4byte	.LASF234
 8062 0f01 0C       		.byte	0xc
 8063 0f02 63       		.byte	0x63
 8064 0f03 820B0000 		.4byte	0xb82
 8065 0f07 08       		.uleb128 0x8
 8066 0f08 E9000000 		.4byte	0xe9
 8067 0f0c 170F0000 		.4byte	0xf17
 8068 0f10 09       		.uleb128 0x9
 8069 0f11 25000000 		.4byte	0x25
 8070 0f15 03       		.byte	0x3
 8071 0f16 00       		.byte	0
 8072 0f17 23       		.uleb128 0x23
 8073 0f18 770E0000 		.4byte	.LASF235
 8074 0f1c 01       		.byte	0x1
 8075 0f1d 30       		.byte	0x30
 8076 0f1e 070F0000 		.4byte	0xf07
 8077 0f22 05       		.uleb128 0x5
 8078 0f23 03       		.byte	0x3
 8079 0f24 00000000 		.4byte	refArrayQuadrants
 8080 0f28 24       		.uleb128 0x24
 8081 0f29 DC060000 		.4byte	.LASF241
 8082 0f2d 01       		.byte	0x1
 8083 0f2e EF04     		.2byte	0x4ef
 8084 0f30 94010000 		.4byte	0x194
 8085 0f34 00000000 		.4byte	.LFB25
 8086 0f38 AC000000 		.4byte	.LFE25-.LFB25
 8087 0f3c 01       		.uleb128 0x1
 8088 0f3d 9C       		.byte	0x9c
 8089 0f3e 0C110000 		.4byte	0x110c
 8090 0f42 25       		.uleb128 0x25
 8091 0f43 44657600 		.ascii	"Dev\000"
 8092 0f47 01       		.byte	0x1
 8093 0f48 EF04     		.2byte	0x4ef
 8094 0f4a EB0E0000 		.4byte	0xeeb
ARM GAS  C:\Users\mathi\AppData\Local\Temp\ccVwcWGw.s 			page 143


 8095 0f4e 00000000 		.4byte	.LLST274
 8096 0f52 26       		.uleb128 0x26
 8097 0f53 070A0000 		.4byte	.LASF236
 8098 0f57 01       		.byte	0x1
 8099 0f58 F004     		.2byte	0x4f0
 8100 0f5a 7C060000 		.4byte	0x67c
 8101 0f5e 1E000000 		.4byte	.LLST275
 8102 0f62 26       		.uleb128 0x26
 8103 0f63 21040000 		.4byte	.LASF237
 8104 0f67 01       		.byte	0x1
 8105 0f68 F004     		.2byte	0x4f0
 8106 0f6a 7C060000 		.4byte	0x67c
 8107 0f6e 3C000000 		.4byte	.LLST276
 8108 0f72 27       		.uleb128 0x27
 8109 0f73 C7010000 		.4byte	.LASF238
 8110 0f77 01       		.byte	0x1
 8111 0f78 F204     		.2byte	0x4f2
 8112 0f7a 94010000 		.4byte	0x194
 8113 0f7e 5A000000 		.4byte	.LLST277
 8114 0f82 28       		.uleb128 0x28
 8115 0f83 5F120000 		.4byte	.LASF239
 8116 0f87 01       		.byte	0x1
 8117 0f88 F304     		.2byte	0x4f3
 8118 0f8a B8000000 		.4byte	0xb8
 8119 0f8e 00       		.byte	0
 8120 0f8f 28       		.uleb128 0x28
 8121 0f90 3B0C0000 		.4byte	.LASF240
 8122 0f94 01       		.byte	0x1
 8123 0f95 F404     		.2byte	0x4f4
 8124 0f97 B8000000 		.4byte	0xb8
 8125 0f9b 00       		.byte	0
 8126 0f9c 29       		.uleb128 0x29
 8127 0f9d 9B190000 		.4byte	0x199b
 8128 0fa1 08000000 		.4byte	.LBB270
 8129 0fa5 68020000 		.4byte	.Ldebug_ranges0+0x268
 8130 0fa9 01       		.byte	0x1
 8131 0faa F604     		.2byte	0x4f6
 8132 0fac 02110000 		.4byte	0x1102
 8133 0fb0 2A       		.uleb128 0x2a
 8134 0fb1 001A0000 		.4byte	0x1a00
 8135 0fb5 6E000000 		.4byte	.LLST278
 8136 0fb9 2A       		.uleb128 0x2a
 8137 0fba F4190000 		.4byte	0x19f4
 8138 0fbe 6E000000 		.4byte	.LLST278
 8139 0fc2 2A       		.uleb128 0x2a
 8140 0fc3 E8190000 		.4byte	0x19e8
 8141 0fc7 82000000 		.4byte	.LLST280
 8142 0fcb 2A       		.uleb128 0x2a
 8143 0fcc DC190000 		.4byte	0x19dc
 8144 0fd0 95000000 		.4byte	.LLST281
 8145 0fd4 2A       		.uleb128 0x2a
 8146 0fd5 D0190000 		.4byte	0x19d0
 8147 0fd9 A8000000 		.4byte	.LLST282
 8148 0fdd 2A       		.uleb128 0x2a
 8149 0fde C4190000 		.4byte	0x19c4
 8150 0fe2 A8000000 		.4byte	.LLST282
 8151 0fe6 2A       		.uleb128 0x2a
ARM GAS  C:\Users\mathi\AppData\Local\Temp\ccVwcWGw.s 			page 144


 8152 0fe7 B8190000 		.4byte	0x19b8
 8153 0feb 6E000000 		.4byte	.LLST278
 8154 0fef 2A       		.uleb128 0x2a
 8155 0ff0 AC190000 		.4byte	0x19ac
 8156 0ff4 BC000000 		.4byte	.LLST285
 8157 0ff8 2B       		.uleb128 0x2b
 8158 0ff9 68020000 		.4byte	.Ldebug_ranges0+0x268
 8159 0ffd 2C       		.uleb128 0x2c
 8160 0ffe F8350000 		.4byte	0x35f8
 8161 1002 2C       		.uleb128 0x2c
 8162 1003 01360000 		.4byte	0x3601
 8163 1007 2D       		.uleb128 0x2d
 8164 1008 24000000 		.4byte	.LVL946
 8165 100c F13C0000 		.4byte	0x3cf1
 8166 1010 26100000 		.4byte	0x1026
 8167 1014 2E       		.uleb128 0x2e
 8168 1015 01       		.uleb128 0x1
 8169 1016 50       		.byte	0x50
 8170 1017 02       		.uleb128 0x2
 8171 1018 75       		.byte	0x75
 8172 1019 00       		.sleb128 0
 8173 101a 2E       		.uleb128 0x2e
 8174 101b 01       		.uleb128 0x1
 8175 101c 51       		.byte	0x51
 8176 101d 02       		.uleb128 0x2
 8177 101e 09       		.byte	0x9
 8178 101f FF       		.byte	0xff
 8179 1020 2E       		.uleb128 0x2e
 8180 1021 01       		.uleb128 0x1
 8181 1022 52       		.byte	0x52
 8182 1023 01       		.uleb128 0x1
 8183 1024 31       		.byte	0x31
 8184 1025 00       		.byte	0
 8185 1026 2D       		.uleb128 0x2d
 8186 1027 30000000 		.4byte	.LVL948
 8187 102b F13C0000 		.4byte	0x3cf1
 8188 102f 46100000 		.4byte	0x1046
 8189 1033 2E       		.uleb128 0x2e
 8190 1034 01       		.uleb128 0x1
 8191 1035 50       		.byte	0x50
 8192 1036 02       		.uleb128 0x2
 8193 1037 75       		.byte	0x75
 8194 1038 00       		.sleb128 0
 8195 1039 2E       		.uleb128 0x2e
 8196 103a 01       		.uleb128 0x1
 8197 103b 51       		.byte	0x51
 8198 103c 02       		.uleb128 0x2
 8199 103d 76       		.byte	0x76
 8200 103e 00       		.sleb128 0
 8201 103f 2E       		.uleb128 0x2e
 8202 1040 01       		.uleb128 0x1
 8203 1041 52       		.byte	0x52
 8204 1042 02       		.uleb128 0x2
 8205 1043 76       		.byte	0x76
 8206 1044 00       		.sleb128 0
 8207 1045 00       		.byte	0
 8208 1046 2D       		.uleb128 0x2d
ARM GAS  C:\Users\mathi\AppData\Local\Temp\ccVwcWGw.s 			page 145


 8209 1047 3C000000 		.4byte	.LVL950
 8210 104b F13C0000 		.4byte	0x3cf1
 8211 104f 66100000 		.4byte	0x1066
 8212 1053 2E       		.uleb128 0x2e
 8213 1054 01       		.uleb128 0x1
 8214 1055 50       		.byte	0x50
 8215 1056 02       		.uleb128 0x2
 8216 1057 75       		.byte	0x75
 8217 1058 00       		.sleb128 0
 8218 1059 2E       		.uleb128 0x2e
 8219 105a 01       		.uleb128 0x1
 8220 105b 51       		.byte	0x51
 8221 105c 02       		.uleb128 0x2
 8222 105d 09       		.byte	0x9
 8223 105e FF       		.byte	0xff
 8224 105f 2E       		.uleb128 0x2e
 8225 1060 01       		.uleb128 0x1
 8226 1061 52       		.byte	0x52
 8227 1062 02       		.uleb128 0x2
 8228 1063 76       		.byte	0x76
 8229 1064 00       		.sleb128 0
 8230 1065 00       		.byte	0
 8231 1066 2D       		.uleb128 0x2d
 8232 1067 4A000000 		.4byte	.LVL953
 8233 106b FC3C0000 		.4byte	0x3cfc
 8234 106f 86100000 		.4byte	0x1086
 8235 1073 2E       		.uleb128 0x2e
 8236 1074 01       		.uleb128 0x1
 8237 1075 50       		.byte	0x50
 8238 1076 02       		.uleb128 0x2
 8239 1077 75       		.byte	0x75
 8240 1078 00       		.sleb128 0
 8241 1079 2E       		.uleb128 0x2e
 8242 107a 01       		.uleb128 0x1
 8243 107b 51       		.byte	0x51
 8244 107c 02       		.uleb128 0x2
 8245 107d 09       		.byte	0x9
 8246 107e CB       		.byte	0xcb
 8247 107f 2E       		.uleb128 0x2e
 8248 1080 01       		.uleb128 0x1
 8249 1081 52       		.byte	0x52
 8250 1082 02       		.uleb128 0x2
 8251 1083 7A       		.byte	0x7a
 8252 1084 00       		.sleb128 0
 8253 1085 00       		.byte	0
 8254 1086 2D       		.uleb128 0x2d
 8255 1087 58000000 		.4byte	.LVL956
 8256 108b FC3C0000 		.4byte	0x3cfc
 8257 108f A6100000 		.4byte	0x10a6
 8258 1093 2E       		.uleb128 0x2e
 8259 1094 01       		.uleb128 0x1
 8260 1095 50       		.byte	0x50
 8261 1096 02       		.uleb128 0x2
 8262 1097 75       		.byte	0x75
 8263 1098 00       		.sleb128 0
 8264 1099 2E       		.uleb128 0x2e
 8265 109a 01       		.uleb128 0x1
ARM GAS  C:\Users\mathi\AppData\Local\Temp\ccVwcWGw.s 			page 146


 8266 109b 51       		.byte	0x51
 8267 109c 02       		.uleb128 0x2
 8268 109d 09       		.byte	0x9
 8269 109e EE       		.byte	0xee
 8270 109f 2E       		.uleb128 0x2e
 8271 10a0 01       		.uleb128 0x1
 8272 10a1 52       		.byte	0x52
 8273 10a2 02       		.uleb128 0x2
 8274 10a3 79       		.byte	0x79
 8275 10a4 00       		.sleb128 0
 8276 10a5 00       		.byte	0
 8277 10a6 2D       		.uleb128 0x2d
 8278 10a7 66000000 		.4byte	.LVL959
 8279 10ab F13C0000 		.4byte	0x3cf1
 8280 10af C5100000 		.4byte	0x10c5
 8281 10b3 2E       		.uleb128 0x2e
 8282 10b4 01       		.uleb128 0x1
 8283 10b5 50       		.byte	0x50
 8284 10b6 02       		.uleb128 0x2
 8285 10b7 75       		.byte	0x75
 8286 10b8 00       		.sleb128 0
 8287 10b9 2E       		.uleb128 0x2e
 8288 10ba 01       		.uleb128 0x1
 8289 10bb 51       		.byte	0x51
 8290 10bc 02       		.uleb128 0x2
 8291 10bd 09       		.byte	0x9
 8292 10be FF       		.byte	0xff
 8293 10bf 2E       		.uleb128 0x2e
 8294 10c0 01       		.uleb128 0x1
 8295 10c1 52       		.byte	0x52
 8296 10c2 01       		.uleb128 0x1
 8297 10c3 31       		.byte	0x31
 8298 10c4 00       		.byte	0
 8299 10c5 2D       		.uleb128 0x2d
 8300 10c6 74000000 		.4byte	.LVL962
 8301 10ca F13C0000 		.4byte	0x3cf1
 8302 10ce E4100000 		.4byte	0x10e4
 8303 10d2 2E       		.uleb128 0x2e
 8304 10d3 01       		.uleb128 0x1
 8305 10d4 50       		.byte	0x50
 8306 10d5 02       		.uleb128 0x2
 8307 10d6 75       		.byte	0x75
 8308 10d7 00       		.sleb128 0
 8309 10d8 2E       		.uleb128 0x2e
 8310 10d9 01       		.uleb128 0x1
 8311 10da 51       		.byte	0x51
 8312 10db 02       		.uleb128 0x2
 8313 10dc 76       		.byte	0x76
 8314 10dd 00       		.sleb128 0
 8315 10de 2E       		.uleb128 0x2e
 8316 10df 01       		.uleb128 0x1
 8317 10e0 52       		.byte	0x52
 8318 10e1 01       		.uleb128 0x1
 8319 10e2 31       		.byte	0x31
 8320 10e3 00       		.byte	0
 8321 10e4 2F       		.uleb128 0x2f
 8322 10e5 82000000 		.4byte	.LVL965
ARM GAS  C:\Users\mathi\AppData\Local\Temp\ccVwcWGw.s 			page 147


 8323 10e9 F13C0000 		.4byte	0x3cf1
 8324 10ed 2E       		.uleb128 0x2e
 8325 10ee 01       		.uleb128 0x1
 8326 10ef 50       		.byte	0x50
 8327 10f0 02       		.uleb128 0x2
 8328 10f1 75       		.byte	0x75
 8329 10f2 00       		.sleb128 0
 8330 10f3 2E       		.uleb128 0x2e
 8331 10f4 01       		.uleb128 0x1
 8332 10f5 51       		.byte	0x51
 8333 10f6 02       		.uleb128 0x2
 8334 10f7 09       		.byte	0x9
 8335 10f8 FF       		.byte	0xff
 8336 10f9 2E       		.uleb128 0x2e
 8337 10fa 01       		.uleb128 0x1
 8338 10fb 52       		.byte	0x52
 8339 10fc 02       		.uleb128 0x2
 8340 10fd 76       		.byte	0x76
 8341 10fe 00       		.sleb128 0
 8342 10ff 00       		.byte	0
 8343 1100 00       		.byte	0
 8344 1101 00       		.byte	0
 8345 1102 30       		.uleb128 0x30
 8346 1103 A8000000 		.4byte	.LVL968
 8347 1107 073D0000 		.4byte	0x3d07
 8348 110b 00       		.byte	0
 8349 110c 24       		.uleb128 0x24
 8350 110d 2E100000 		.4byte	.LASF242
 8351 1111 01       		.byte	0x1
 8352 1112 E004     		.2byte	0x4e0
 8353 1114 94010000 		.4byte	0x194
 8354 1118 00000000 		.4byte	.LFB24
 8355 111c 98000000 		.4byte	.LFE24-.LFB24
 8356 1120 01       		.uleb128 0x1
 8357 1121 9C       		.byte	0x9c
 8358 1122 EF120000 		.4byte	0x12ef
 8359 1126 25       		.uleb128 0x25
 8360 1127 44657600 		.ascii	"Dev\000"
 8361 112b 01       		.byte	0x1
 8362 112c E004     		.2byte	0x4e0
 8363 112e EB0E0000 		.4byte	0xeeb
 8364 1132 DA000000 		.4byte	.LLST262
 8365 1136 26       		.uleb128 0x26
 8366 1137 5F120000 		.4byte	.LASF239
 8367 113b 01       		.byte	0x1
 8368 113c E104     		.2byte	0x4e1
 8369 113e B8000000 		.4byte	0xb8
 8370 1142 F8000000 		.4byte	.LLST263
 8371 1146 26       		.uleb128 0x26
 8372 1147 3B0C0000 		.4byte	.LASF240
 8373 114b 01       		.byte	0x1
 8374 114c E104     		.2byte	0x4e1
 8375 114e B8000000 		.4byte	0xb8
 8376 1152 19010000 		.4byte	.LLST264
 8377 1156 27       		.uleb128 0x27
 8378 1157 C7010000 		.4byte	.LASF238
 8379 115b 01       		.byte	0x1
ARM GAS  C:\Users\mathi\AppData\Local\Temp\ccVwcWGw.s 			page 148


 8380 115c E304     		.2byte	0x4e3
 8381 115e 94010000 		.4byte	0x194
 8382 1162 3A010000 		.4byte	.LLST265
 8383 1166 31       		.uleb128 0x31
 8384 1167 070A0000 		.4byte	.LASF236
 8385 116b 01       		.byte	0x1
 8386 116c E404     		.2byte	0x4e4
 8387 116e B8000000 		.4byte	0xb8
 8388 1172 31       		.uleb128 0x31
 8389 1173 21040000 		.4byte	.LASF237
 8390 1177 01       		.byte	0x1
 8391 1178 E504     		.2byte	0x4e5
 8392 117a B8000000 		.4byte	0xb8
 8393 117e 29       		.uleb128 0x29
 8394 117f 9B190000 		.4byte	0x199b
 8395 1183 10000000 		.4byte	.LBB260
 8396 1187 40020000 		.4byte	.Ldebug_ranges0+0x240
 8397 118b 01       		.byte	0x1
 8398 118c E704     		.2byte	0x4e7
 8399 118e E5120000 		.4byte	0x12e5
 8400 1192 2A       		.uleb128 0x2a
 8401 1193 001A0000 		.4byte	0x1a00
 8402 1197 4E010000 		.4byte	.LLST266
 8403 119b 2A       		.uleb128 0x2a
 8404 119c F4190000 		.4byte	0x19f4
 8405 11a0 4E010000 		.4byte	.LLST266
 8406 11a4 2A       		.uleb128 0x2a
 8407 11a5 E8190000 		.4byte	0x19e8
 8408 11a9 62010000 		.4byte	.LLST268
 8409 11ad 2A       		.uleb128 0x2a
 8410 11ae DC190000 		.4byte	0x19dc
 8411 11b2 7A010000 		.4byte	.LLST269
 8412 11b6 2A       		.uleb128 0x2a
 8413 11b7 D0190000 		.4byte	0x19d0
 8414 11bb 92010000 		.4byte	.LLST270
 8415 11bf 2A       		.uleb128 0x2a
 8416 11c0 C4190000 		.4byte	0x19c4
 8417 11c4 A5010000 		.4byte	.LLST271
 8418 11c8 2A       		.uleb128 0x2a
 8419 11c9 B8190000 		.4byte	0x19b8
 8420 11cd B8010000 		.4byte	.LLST272
 8421 11d1 2A       		.uleb128 0x2a
 8422 11d2 AC190000 		.4byte	0x19ac
 8423 11d6 CC010000 		.4byte	.LLST273
 8424 11da 2B       		.uleb128 0x2b
 8425 11db 40020000 		.4byte	.Ldebug_ranges0+0x240
 8426 11df 2C       		.uleb128 0x2c
 8427 11e0 F8350000 		.4byte	0x35f8
 8428 11e4 2C       		.uleb128 0x2c
 8429 11e5 01360000 		.4byte	0x3601
 8430 11e9 2D       		.uleb128 0x2d
 8431 11ea 1A000000 		.4byte	.LVL918
 8432 11ee F13C0000 		.4byte	0x3cf1
 8433 11f2 08120000 		.4byte	0x1208
 8434 11f6 2E       		.uleb128 0x2e
 8435 11f7 01       		.uleb128 0x1
 8436 11f8 50       		.byte	0x50
ARM GAS  C:\Users\mathi\AppData\Local\Temp\ccVwcWGw.s 			page 149


 8437 11f9 02       		.uleb128 0x2
 8438 11fa 76       		.byte	0x76
 8439 11fb 00       		.sleb128 0
 8440 11fc 2E       		.uleb128 0x2e
 8441 11fd 01       		.uleb128 0x1
 8442 11fe 51       		.byte	0x51
 8443 11ff 02       		.uleb128 0x2
 8444 1200 09       		.byte	0x9
 8445 1201 FF       		.byte	0xff
 8446 1202 2E       		.uleb128 0x2e
 8447 1203 01       		.uleb128 0x1
 8448 1204 52       		.byte	0x52
 8449 1205 01       		.uleb128 0x1
 8450 1206 31       		.byte	0x31
 8451 1207 00       		.byte	0
 8452 1208 2D       		.uleb128 0x2d
 8453 1209 26000000 		.4byte	.LVL920
 8454 120d F13C0000 		.4byte	0x3cf1
 8455 1211 26120000 		.4byte	0x1226
 8456 1215 2E       		.uleb128 0x2e
 8457 1216 01       		.uleb128 0x1
 8458 1217 50       		.byte	0x50
 8459 1218 02       		.uleb128 0x2
 8460 1219 76       		.byte	0x76
 8461 121a 00       		.sleb128 0
 8462 121b 2E       		.uleb128 0x2e
 8463 121c 01       		.uleb128 0x1
 8464 121d 51       		.byte	0x51
 8465 121e 01       		.uleb128 0x1
 8466 121f 30       		.byte	0x30
 8467 1220 2E       		.uleb128 0x2e
 8468 1221 01       		.uleb128 0x1
 8469 1222 52       		.byte	0x52
 8470 1223 01       		.uleb128 0x1
 8471 1224 30       		.byte	0x30
 8472 1225 00       		.byte	0
 8473 1226 2D       		.uleb128 0x2d
 8474 1227 32000000 		.4byte	.LVL922
 8475 122b F13C0000 		.4byte	0x3cf1
 8476 122f 45120000 		.4byte	0x1245
 8477 1233 2E       		.uleb128 0x2e
 8478 1234 01       		.uleb128 0x1
 8479 1235 50       		.byte	0x50
 8480 1236 02       		.uleb128 0x2
 8481 1237 76       		.byte	0x76
 8482 1238 00       		.sleb128 0
 8483 1239 2E       		.uleb128 0x2e
 8484 123a 01       		.uleb128 0x1
 8485 123b 51       		.byte	0x51
 8486 123c 02       		.uleb128 0x2
 8487 123d 09       		.byte	0x9
 8488 123e FF       		.byte	0xff
 8489 123f 2E       		.uleb128 0x2e
 8490 1240 01       		.uleb128 0x1
 8491 1241 52       		.byte	0x52
 8492 1242 01       		.uleb128 0x1
 8493 1243 30       		.byte	0x30
ARM GAS  C:\Users\mathi\AppData\Local\Temp\ccVwcWGw.s 			page 150


 8494 1244 00       		.byte	0
 8495 1245 2D       		.uleb128 0x2d
 8496 1246 40000000 		.4byte	.LVL925
 8497 124a F13C0000 		.4byte	0x3cf1
 8498 124e 65120000 		.4byte	0x1265
 8499 1252 2E       		.uleb128 0x2e
 8500 1253 01       		.uleb128 0x1
 8501 1254 50       		.byte	0x50
 8502 1255 02       		.uleb128 0x2
 8503 1256 76       		.byte	0x76
 8504 1257 00       		.sleb128 0
 8505 1258 2E       		.uleb128 0x2e
 8506 1259 01       		.uleb128 0x1
 8507 125a 51       		.byte	0x51
 8508 125b 02       		.uleb128 0x2
 8509 125c 09       		.byte	0x9
 8510 125d CB       		.byte	0xcb
 8511 125e 2E       		.uleb128 0x2e
 8512 125f 01       		.uleb128 0x1
 8513 1260 52       		.byte	0x52
 8514 1261 02       		.uleb128 0x2
 8515 1262 78       		.byte	0x78
 8516 1263 00       		.sleb128 0
 8517 1264 00       		.byte	0
 8518 1265 2D       		.uleb128 0x2d
 8519 1266 50000000 		.4byte	.LVL928
 8520 126a 103D0000 		.4byte	0x3d10
 8521 126e 8B120000 		.4byte	0x128b
 8522 1272 2E       		.uleb128 0x2e
 8523 1273 01       		.uleb128 0x1
 8524 1274 50       		.byte	0x50
 8525 1275 02       		.uleb128 0x2
 8526 1276 76       		.byte	0x76
 8527 1277 00       		.sleb128 0
 8528 1278 2E       		.uleb128 0x2e
 8529 1279 01       		.uleb128 0x1
 8530 127a 51       		.byte	0x51
 8531 127b 02       		.uleb128 0x2
 8532 127c 09       		.byte	0x9
 8533 127d EE       		.byte	0xee
 8534 127e 2E       		.uleb128 0x2e
 8535 127f 01       		.uleb128 0x1
 8536 1280 52       		.byte	0x52
 8537 1281 02       		.uleb128 0x2
 8538 1282 09       		.byte	0x9
 8539 1283 80       		.byte	0x80
 8540 1284 2E       		.uleb128 0x2e
 8541 1285 01       		.uleb128 0x1
 8542 1286 53       		.byte	0x53
 8543 1287 02       		.uleb128 0x2
 8544 1288 77       		.byte	0x77
 8545 1289 00       		.sleb128 0
 8546 128a 00       		.byte	0
 8547 128b 2D       		.uleb128 0x2d
 8548 128c 5E000000 		.4byte	.LVL931
 8549 1290 F13C0000 		.4byte	0x3cf1
 8550 1294 AA120000 		.4byte	0x12aa
ARM GAS  C:\Users\mathi\AppData\Local\Temp\ccVwcWGw.s 			page 151


 8551 1298 2E       		.uleb128 0x2e
 8552 1299 01       		.uleb128 0x1
 8553 129a 50       		.byte	0x50
 8554 129b 02       		.uleb128 0x2
 8555 129c 76       		.byte	0x76
 8556 129d 00       		.sleb128 0
 8557 129e 2E       		.uleb128 0x2e
 8558 129f 01       		.uleb128 0x1
 8559 12a0 51       		.byte	0x51
 8560 12a1 02       		.uleb128 0x2
 8561 12a2 09       		.byte	0x9
 8562 12a3 FF       		.byte	0xff
 8563 12a4 2E       		.uleb128 0x2e
 8564 12a5 01       		.uleb128 0x1
 8565 12a6 52       		.byte	0x52
 8566 12a7 01       		.uleb128 0x1
 8567 12a8 31       		.byte	0x31
 8568 12a9 00       		.byte	0
 8569 12aa 2D       		.uleb128 0x2d
 8570 12ab 6C000000 		.4byte	.LVL934
 8571 12af F13C0000 		.4byte	0x3cf1
 8572 12b3 C8120000 		.4byte	0x12c8
 8573 12b7 2E       		.uleb128 0x2e
 8574 12b8 01       		.uleb128 0x1
 8575 12b9 50       		.byte	0x50
 8576 12ba 02       		.uleb128 0x2
 8577 12bb 76       		.byte	0x76
 8578 12bc 00       		.sleb128 0
 8579 12bd 2E       		.uleb128 0x2e
 8580 12be 01       		.uleb128 0x1
 8581 12bf 51       		.byte	0x51
 8582 12c0 01       		.uleb128 0x1
 8583 12c1 30       		.byte	0x30
 8584 12c2 2E       		.uleb128 0x2e
 8585 12c3 01       		.uleb128 0x1
 8586 12c4 52       		.byte	0x52
 8587 12c5 01       		.uleb128 0x1
 8588 12c6 31       		.byte	0x31
 8589 12c7 00       		.byte	0
 8590 12c8 2F       		.uleb128 0x2f
 8591 12c9 7A000000 		.4byte	.LVL937
 8592 12cd F13C0000 		.4byte	0x3cf1
 8593 12d1 2E       		.uleb128 0x2e
 8594 12d2 01       		.uleb128 0x1
 8595 12d3 50       		.byte	0x50
 8596 12d4 02       		.uleb128 0x2
 8597 12d5 76       		.byte	0x76
 8598 12d6 00       		.sleb128 0
 8599 12d7 2E       		.uleb128 0x2e
 8600 12d8 01       		.uleb128 0x1
 8601 12d9 51       		.byte	0x51
 8602 12da 02       		.uleb128 0x2
 8603 12db 09       		.byte	0x9
 8604 12dc FF       		.byte	0xff
 8605 12dd 2E       		.uleb128 0x2e
 8606 12de 01       		.uleb128 0x1
 8607 12df 52       		.byte	0x52
ARM GAS  C:\Users\mathi\AppData\Local\Temp\ccVwcWGw.s 			page 152


 8608 12e0 01       		.uleb128 0x1
 8609 12e1 30       		.byte	0x30
 8610 12e2 00       		.byte	0
 8611 12e3 00       		.byte	0
 8612 12e4 00       		.byte	0
 8613 12e5 30       		.uleb128 0x30
 8614 12e6 94000000 		.4byte	.LVL940
 8615 12ea 073D0000 		.4byte	0x3d07
 8616 12ee 00       		.byte	0
 8617 12ef 24       		.uleb128 0x24
 8618 12f0 C8180000 		.4byte	.LASF243
 8619 12f4 01       		.byte	0x1
 8620 12f5 BD04     		.2byte	0x4bd
 8621 12f7 94010000 		.4byte	0x194
 8622 12fb 00000000 		.4byte	.LFB23
 8623 12ff DC010000 		.4byte	.LFE23-.LFB23
 8624 1303 01       		.uleb128 0x1
 8625 1304 9C       		.byte	0x9c
 8626 1305 9F180000 		.4byte	0x189f
 8627 1309 25       		.uleb128 0x25
 8628 130a 44657600 		.ascii	"Dev\000"
 8629 130e 01       		.byte	0x1
 8630 130f BD04     		.2byte	0x4bd
 8631 1311 EB0E0000 		.4byte	0xeeb
 8632 1315 EA010000 		.4byte	.LLST196
 8633 1319 26       		.uleb128 0x26
 8634 131a 070A0000 		.4byte	.LASF236
 8635 131e 01       		.byte	0x1
 8636 131f BE04     		.2byte	0x4be
 8637 1321 7C060000 		.4byte	0x67c
 8638 1325 08020000 		.4byte	.LLST197
 8639 1329 26       		.uleb128 0x26
 8640 132a 21040000 		.4byte	.LASF237
 8641 132e 01       		.byte	0x1
 8642 132f BE04     		.2byte	0x4be
 8643 1331 7C060000 		.4byte	0x67c
 8644 1335 66020000 		.4byte	.LLST198
 8645 1339 26       		.uleb128 0x26
 8646 133a 3D120000 		.4byte	.LASF244
 8647 133e 01       		.byte	0x1
 8648 133f BE04     		.2byte	0x4be
 8649 1341 B8000000 		.4byte	0xb8
 8650 1345 84020000 		.4byte	.LLST199
 8651 1349 27       		.uleb128 0x27
 8652 134a C7010000 		.4byte	.LASF238
 8653 134e 01       		.byte	0x1
 8654 134f C004     		.2byte	0x4c0
 8655 1351 94010000 		.4byte	0x194
 8656 1355 A5020000 		.4byte	.LLST200
 8657 1359 32       		.uleb128 0x32
 8658 135a 76100000 		.4byte	.LASF103
 8659 135e 01       		.byte	0x1
 8660 135f C104     		.2byte	0x4c1
 8661 1361 B8000000 		.4byte	0xb8
 8662 1365 01       		.uleb128 0x1
 8663 1366 59       		.byte	0x59
 8664 1367 29       		.uleb128 0x29
ARM GAS  C:\Users\mathi\AppData\Local\Temp\ccVwcWGw.s 			page 153


 8665 1368 1D190000 		.4byte	0x191d
 8666 136c 10000000 		.4byte	.LBB158
 8667 1370 F0000000 		.4byte	.Ldebug_ranges0+0xf0
 8668 1374 01       		.byte	0x1
 8669 1375 CB04     		.2byte	0x4cb
 8670 1377 EF150000 		.4byte	0x15ef
 8671 137b 2A       		.uleb128 0x2a
 8672 137c 52190000 		.4byte	0x1952
 8673 1380 FE020000 		.4byte	.LLST201
 8674 1384 2A       		.uleb128 0x2a
 8675 1385 46190000 		.4byte	0x1946
 8676 1389 2A030000 		.4byte	.LLST202
 8677 138d 2A       		.uleb128 0x2a
 8678 138e 3A190000 		.4byte	0x193a
 8679 1392 53030000 		.4byte	.LLST203
 8680 1396 2A       		.uleb128 0x2a
 8681 1397 2E190000 		.4byte	0x192e
 8682 139b 7C030000 		.4byte	.LLST204
 8683 139f 2B       		.uleb128 0x2b
 8684 13a0 F0000000 		.4byte	.Ldebug_ranges0+0xf0
 8685 13a4 2C       		.uleb128 0x2c
 8686 13a5 92370000 		.4byte	0x3792
 8687 13a9 2C       		.uleb128 0x2c
 8688 13aa 9B370000 		.4byte	0x379b
 8689 13ae 2C       		.uleb128 0x2c
 8690 13af A4370000 		.4byte	0x37a4
 8691 13b3 2C       		.uleb128 0x2c
 8692 13b4 AA370000 		.4byte	0x37aa
 8693 13b8 2C       		.uleb128 0x2c
 8694 13b9 B0370000 		.4byte	0x37b0
 8695 13bd 33       		.uleb128 0x33
 8696 13be 251A0000 		.4byte	0x1a25
 8697 13c2 3C000000 		.4byte	.LBB160
 8698 13c6 34000000 		.4byte	.LBE160-.LBB160
 8699 13ca 01       		.byte	0x1
 8700 13cb 7804     		.2byte	0x478
 8701 13cd 8C140000 		.4byte	0x148c
 8702 13d1 2A       		.uleb128 0x2a
 8703 13d2 421A0000 		.4byte	0x1a42
 8704 13d6 B0030000 		.4byte	.LLST205
 8705 13da 2A       		.uleb128 0x2a
 8706 13db 361A0000 		.4byte	0x1a36
 8707 13df C5030000 		.4byte	.LLST206
 8708 13e3 34       		.uleb128 0x34
 8709 13e4 3C000000 		.4byte	.LBB161
 8710 13e8 34000000 		.4byte	.LBE161-.LBB161
 8711 13ec 2C       		.uleb128 0x2c
 8712 13ed 11350000 		.4byte	0x3511
 8713 13f1 35       		.uleb128 0x35
 8714 13f2 251A0000 		.4byte	0x1a25
 8715 13f6 66000000 		.4byte	.LBB162
 8716 13fa 0A000000 		.4byte	.LBE162-.LBB162
 8717 13fe 40140000 		.4byte	0x1440
 8718 1402 2A       		.uleb128 0x2a
 8719 1403 421A0000 		.4byte	0x1a42
 8720 1407 D8030000 		.4byte	.LLST207
 8721 140b 2A       		.uleb128 0x2a
ARM GAS  C:\Users\mathi\AppData\Local\Temp\ccVwcWGw.s 			page 154


 8722 140c 361A0000 		.4byte	0x1a36
 8723 1410 ED030000 		.4byte	.LLST208
 8724 1414 34       		.uleb128 0x34
 8725 1415 66000000 		.4byte	.LBB163
 8726 1419 0A000000 		.4byte	.LBE163-.LBB163
 8727 141d 2C       		.uleb128 0x2c
 8728 141e 11350000 		.4byte	0x3511
 8729 1422 2F       		.uleb128 0x2f
 8730 1423 70000000 		.4byte	.LVL714
 8731 1427 F13C0000 		.4byte	0x3cf1
 8732 142b 2E       		.uleb128 0x2e
 8733 142c 01       		.uleb128 0x1
 8734 142d 50       		.byte	0x50
 8735 142e 02       		.uleb128 0x2
 8736 142f 75       		.byte	0x75
 8737 1430 00       		.sleb128 0
 8738 1431 2E       		.uleb128 0x2e
 8739 1432 01       		.uleb128 0x1
 8740 1433 51       		.byte	0x51
 8741 1434 02       		.uleb128 0x2
 8742 1435 74       		.byte	0x74
 8743 1436 00       		.sleb128 0
 8744 1437 2E       		.uleb128 0x2e
 8745 1438 01       		.uleb128 0x1
 8746 1439 52       		.byte	0x52
 8747 143a 02       		.uleb128 0x2
 8748 143b 74       		.byte	0x74
 8749 143c 00       		.sleb128 0
 8750 143d 00       		.byte	0
 8751 143e 00       		.byte	0
 8752 143f 00       		.byte	0
 8753 1440 2D       		.uleb128 0x2d
 8754 1441 46000000 		.4byte	.LVL707
 8755 1445 F13C0000 		.4byte	0x3cf1
 8756 1449 60140000 		.4byte	0x1460
 8757 144d 2E       		.uleb128 0x2e
 8758 144e 01       		.uleb128 0x1
 8759 144f 50       		.byte	0x50
 8760 1450 02       		.uleb128 0x2
 8761 1451 75       		.byte	0x75
 8762 1452 00       		.sleb128 0
 8763 1453 2E       		.uleb128 0x2e
 8764 1454 01       		.uleb128 0x1
 8765 1455 51       		.byte	0x51
 8766 1456 02       		.uleb128 0x2
 8767 1457 74       		.byte	0x74
 8768 1458 00       		.sleb128 0
 8769 1459 2E       		.uleb128 0x2e
 8770 145a 01       		.uleb128 0x1
 8771 145b 52       		.byte	0x52
 8772 145c 02       		.uleb128 0x2
 8773 145d 08       		.byte	0x8
 8774 145e 41       		.byte	0x41
 8775 145f 00       		.byte	0
 8776 1460 2D       		.uleb128 0x2d
 8777 1461 52000000 		.4byte	.LVL709
 8778 1465 1B3D0000 		.4byte	0x3d1b
ARM GAS  C:\Users\mathi\AppData\Local\Temp\ccVwcWGw.s 			page 155


 8779 1469 74140000 		.4byte	0x1474
 8780 146d 2E       		.uleb128 0x2e
 8781 146e 01       		.uleb128 0x1
 8782 146f 50       		.byte	0x50
 8783 1470 02       		.uleb128 0x2
 8784 1471 75       		.byte	0x75
 8785 1472 00       		.sleb128 0
 8786 1473 00       		.byte	0
 8787 1474 2F       		.uleb128 0x2f
 8788 1475 60000000 		.4byte	.LVL711
 8789 1479 263D0000 		.4byte	0x3d26
 8790 147d 2E       		.uleb128 0x2e
 8791 147e 01       		.uleb128 0x1
 8792 147f 50       		.byte	0x50
 8793 1480 02       		.uleb128 0x2
 8794 1481 75       		.byte	0x75
 8795 1482 00       		.sleb128 0
 8796 1483 2E       		.uleb128 0x2e
 8797 1484 01       		.uleb128 0x1
 8798 1485 51       		.byte	0x51
 8799 1486 02       		.uleb128 0x2
 8800 1487 74       		.byte	0x74
 8801 1488 00       		.sleb128 0
 8802 1489 00       		.byte	0
 8803 148a 00       		.byte	0
 8804 148b 00       		.byte	0
 8805 148c 33       		.uleb128 0x33
 8806 148d 9B190000 		.4byte	0x199b
 8807 1491 F0000000 		.4byte	.LBB164
 8808 1495 62000000 		.4byte	.LBE164-.LBB164
 8809 1499 01       		.byte	0x1
 8810 149a 7C04     		.2byte	0x47c
 8811 149c D3150000 		.4byte	0x15d3
 8812 14a0 2A       		.uleb128 0x2a
 8813 14a1 001A0000 		.4byte	0x1a00
 8814 14a5 00040000 		.4byte	.LLST209
 8815 14a9 2A       		.uleb128 0x2a
 8816 14aa F4190000 		.4byte	0x19f4
 8817 14ae 14040000 		.4byte	.LLST210
 8818 14b2 2A       		.uleb128 0x2a
 8819 14b3 E8190000 		.4byte	0x19e8
 8820 14b7 28040000 		.4byte	.LLST211
 8821 14bb 2A       		.uleb128 0x2a
 8822 14bc DC190000 		.4byte	0x19dc
 8823 14c0 40040000 		.4byte	.LLST212
 8824 14c4 2A       		.uleb128 0x2a
 8825 14c5 D0190000 		.4byte	0x19d0
 8826 14c9 00040000 		.4byte	.LLST209
 8827 14cd 2A       		.uleb128 0x2a
 8828 14ce C4190000 		.4byte	0x19c4
 8829 14d2 00040000 		.4byte	.LLST209
 8830 14d6 2A       		.uleb128 0x2a
 8831 14d7 B8190000 		.4byte	0x19b8
 8832 14db 14040000 		.4byte	.LLST210
 8833 14df 2A       		.uleb128 0x2a
 8834 14e0 AC190000 		.4byte	0x19ac
 8835 14e4 53040000 		.4byte	.LLST216
ARM GAS  C:\Users\mathi\AppData\Local\Temp\ccVwcWGw.s 			page 156


 8836 14e8 34       		.uleb128 0x34
 8837 14e9 F0000000 		.4byte	.LBB165
 8838 14ed 62000000 		.4byte	.LBE165-.LBB165
 8839 14f1 2C       		.uleb128 0x2c
 8840 14f2 F8350000 		.4byte	0x35f8
 8841 14f6 2C       		.uleb128 0x2c
 8842 14f7 01360000 		.4byte	0x3601
 8843 14fb 2D       		.uleb128 0x2d
 8844 14fc FA000000 		.4byte	.LVL733
 8845 1500 F13C0000 		.4byte	0x3cf1
 8846 1504 1B150000 		.4byte	0x151b
 8847 1508 2E       		.uleb128 0x2e
 8848 1509 01       		.uleb128 0x1
 8849 150a 50       		.byte	0x50
 8850 150b 02       		.uleb128 0x2
 8851 150c 75       		.byte	0x75
 8852 150d 00       		.sleb128 0
 8853 150e 2E       		.uleb128 0x2e
 8854 150f 01       		.uleb128 0x1
 8855 1510 51       		.byte	0x51
 8856 1511 02       		.uleb128 0x2
 8857 1512 09       		.byte	0x9
 8858 1513 FF       		.byte	0xff
 8859 1514 2E       		.uleb128 0x2e
 8860 1515 01       		.uleb128 0x1
 8861 1516 52       		.byte	0x52
 8862 1517 02       		.uleb128 0x2
 8863 1518 78       		.byte	0x78
 8864 1519 00       		.sleb128 0
 8865 151a 00       		.byte	0
 8866 151b 2D       		.uleb128 0x2d
 8867 151c 06010000 		.4byte	.LVL735
 8868 1520 F13C0000 		.4byte	0x3cf1
 8869 1524 3B150000 		.4byte	0x153b
 8870 1528 2E       		.uleb128 0x2e
 8871 1529 01       		.uleb128 0x1
 8872 152a 50       		.byte	0x50
 8873 152b 02       		.uleb128 0x2
 8874 152c 75       		.byte	0x75
 8875 152d 00       		.sleb128 0
 8876 152e 2E       		.uleb128 0x2e
 8877 152f 01       		.uleb128 0x1
 8878 1530 51       		.byte	0x51
 8879 1531 02       		.uleb128 0x2
 8880 1532 74       		.byte	0x74
 8881 1533 00       		.sleb128 0
 8882 1534 2E       		.uleb128 0x2e
 8883 1535 01       		.uleb128 0x1
 8884 1536 52       		.byte	0x52
 8885 1537 02       		.uleb128 0x2
 8886 1538 74       		.byte	0x74
 8887 1539 00       		.sleb128 0
 8888 153a 00       		.byte	0
 8889 153b 2D       		.uleb128 0x2d
 8890 153c 12010000 		.4byte	.LVL737
 8891 1540 F13C0000 		.4byte	0x3cf1
 8892 1544 5B150000 		.4byte	0x155b
ARM GAS  C:\Users\mathi\AppData\Local\Temp\ccVwcWGw.s 			page 157


 8893 1548 2E       		.uleb128 0x2e
 8894 1549 01       		.uleb128 0x1
 8895 154a 50       		.byte	0x50
 8896 154b 02       		.uleb128 0x2
 8897 154c 75       		.byte	0x75
 8898 154d 00       		.sleb128 0
 8899 154e 2E       		.uleb128 0x2e
 8900 154f 01       		.uleb128 0x1
 8901 1550 51       		.byte	0x51
 8902 1551 02       		.uleb128 0x2
 8903 1552 09       		.byte	0x9
 8904 1553 FF       		.byte	0xff
 8905 1554 2E       		.uleb128 0x2e
 8906 1555 01       		.uleb128 0x1
 8907 1556 52       		.byte	0x52
 8908 1557 02       		.uleb128 0x2
 8909 1558 74       		.byte	0x74
 8910 1559 00       		.sleb128 0
 8911 155a 00       		.byte	0
 8912 155b 2D       		.uleb128 0x2d
 8913 155c 20010000 		.4byte	.LVL740
 8914 1560 FC3C0000 		.4byte	0x3cfc
 8915 1564 7B150000 		.4byte	0x157b
 8916 1568 2E       		.uleb128 0x2e
 8917 1569 01       		.uleb128 0x1
 8918 156a 50       		.byte	0x50
 8919 156b 02       		.uleb128 0x2
 8920 156c 75       		.byte	0x75
 8921 156d 00       		.sleb128 0
 8922 156e 2E       		.uleb128 0x2e
 8923 156f 01       		.uleb128 0x1
 8924 1570 51       		.byte	0x51
 8925 1571 02       		.uleb128 0x2
 8926 1572 09       		.byte	0x9
 8927 1573 CB       		.byte	0xcb
 8928 1574 2E       		.uleb128 0x2e
 8929 1575 01       		.uleb128 0x1
 8930 1576 52       		.byte	0x52
 8931 1577 02       		.uleb128 0x2
 8932 1578 7B       		.byte	0x7b
 8933 1579 00       		.sleb128 0
 8934 157a 00       		.byte	0
 8935 157b 2D       		.uleb128 0x2d
 8936 157c 2E010000 		.4byte	.LVL743
 8937 1580 F13C0000 		.4byte	0x3cf1
 8938 1584 9B150000 		.4byte	0x159b
 8939 1588 2E       		.uleb128 0x2e
 8940 1589 01       		.uleb128 0x1
 8941 158a 50       		.byte	0x50
 8942 158b 02       		.uleb128 0x2
 8943 158c 75       		.byte	0x75
 8944 158d 00       		.sleb128 0
 8945 158e 2E       		.uleb128 0x2e
 8946 158f 01       		.uleb128 0x1
 8947 1590 51       		.byte	0x51
 8948 1591 02       		.uleb128 0x2
 8949 1592 09       		.byte	0x9
ARM GAS  C:\Users\mathi\AppData\Local\Temp\ccVwcWGw.s 			page 158


 8950 1593 FF       		.byte	0xff
 8951 1594 2E       		.uleb128 0x2e
 8952 1595 01       		.uleb128 0x1
 8953 1596 52       		.byte	0x52
 8954 1597 02       		.uleb128 0x2
 8955 1598 78       		.byte	0x78
 8956 1599 00       		.sleb128 0
 8957 159a 00       		.byte	0
 8958 159b 2D       		.uleb128 0x2d
 8959 159c 3C010000 		.4byte	.LVL746
 8960 15a0 F13C0000 		.4byte	0x3cf1
 8961 15a4 BB150000 		.4byte	0x15bb
 8962 15a8 2E       		.uleb128 0x2e
 8963 15a9 01       		.uleb128 0x1
 8964 15aa 50       		.byte	0x50
 8965 15ab 02       		.uleb128 0x2
 8966 15ac 75       		.byte	0x75
 8967 15ad 00       		.sleb128 0
 8968 15ae 2E       		.uleb128 0x2e
 8969 15af 01       		.uleb128 0x1
 8970 15b0 51       		.byte	0x51
 8971 15b1 02       		.uleb128 0x2
 8972 15b2 74       		.byte	0x74
 8973 15b3 00       		.sleb128 0
 8974 15b4 2E       		.uleb128 0x2e
 8975 15b5 01       		.uleb128 0x1
 8976 15b6 52       		.byte	0x52
 8977 15b7 02       		.uleb128 0x2
 8978 15b8 78       		.byte	0x78
 8979 15b9 00       		.sleb128 0
 8980 15ba 00       		.byte	0
 8981 15bb 2F       		.uleb128 0x2f
 8982 15bc 4C010000 		.4byte	.LVL748
 8983 15c0 F13C0000 		.4byte	0x3cf1
 8984 15c4 2E       		.uleb128 0x2e
 8985 15c5 01       		.uleb128 0x1
 8986 15c6 50       		.byte	0x50
 8987 15c7 02       		.uleb128 0x2
 8988 15c8 75       		.byte	0x75
 8989 15c9 00       		.sleb128 0
 8990 15ca 2E       		.uleb128 0x2e
 8991 15cb 01       		.uleb128 0x1
 8992 15cc 51       		.byte	0x51
 8993 15cd 02       		.uleb128 0x2
 8994 15ce 09       		.byte	0x9
 8995 15cf FF       		.byte	0xff
 8996 15d0 00       		.byte	0
 8997 15d1 00       		.byte	0
 8998 15d2 00       		.byte	0
 8999 15d3 2F       		.uleb128 0x2f
 9000 15d4 20000000 		.4byte	.LVL702
 9001 15d8 F13C0000 		.4byte	0x3cf1
 9002 15dc 2E       		.uleb128 0x2e
 9003 15dd 01       		.uleb128 0x1
 9004 15de 50       		.byte	0x50
 9005 15df 02       		.uleb128 0x2
 9006 15e0 75       		.byte	0x75
ARM GAS  C:\Users\mathi\AppData\Local\Temp\ccVwcWGw.s 			page 159


 9007 15e1 00       		.sleb128 0
 9008 15e2 2E       		.uleb128 0x2e
 9009 15e3 01       		.uleb128 0x1
 9010 15e4 51       		.byte	0x51
 9011 15e5 01       		.uleb128 0x1
 9012 15e6 31       		.byte	0x31
 9013 15e7 2E       		.uleb128 0x2e
 9014 15e8 01       		.uleb128 0x1
 9015 15e9 52       		.byte	0x52
 9016 15ea 01       		.uleb128 0x1
 9017 15eb 31       		.byte	0x31
 9018 15ec 00       		.byte	0
 9019 15ed 00       		.byte	0
 9020 15ee 00       		.byte	0
 9021 15ef 29       		.uleb128 0x29
 9022 15f0 9F180000 		.4byte	0x189f
 9023 15f4 80000000 		.4byte	.LBB173
 9024 15f8 20010000 		.4byte	.Ldebug_ranges0+0x120
 9025 15fc 01       		.byte	0x1
 9026 15fd D004     		.2byte	0x4d0
 9027 15ff 76180000 		.4byte	0x1876
 9028 1603 2A       		.uleb128 0x2a
 9029 1604 D4180000 		.4byte	0x18d4
 9030 1608 66040000 		.4byte	.LLST217
 9031 160c 2A       		.uleb128 0x2a
 9032 160d C8180000 		.4byte	0x18c8
 9033 1611 86040000 		.4byte	.LLST218
 9034 1615 2A       		.uleb128 0x2a
 9035 1616 BC180000 		.4byte	0x18bc
 9036 161a A4040000 		.4byte	.LLST219
 9037 161e 2A       		.uleb128 0x2a
 9038 161f B0180000 		.4byte	0x18b0
 9039 1623 C2040000 		.4byte	.LLST220
 9040 1627 2B       		.uleb128 0x2b
 9041 1628 20010000 		.4byte	.Ldebug_ranges0+0x120
 9042 162c 2C       		.uleb128 0x2c
 9043 162d 6B3A0000 		.4byte	0x3a6b
 9044 1631 2C       		.uleb128 0x2c
 9045 1632 743A0000 		.4byte	0x3a74
 9046 1636 2C       		.uleb128 0x2c
 9047 1637 7D3A0000 		.4byte	0x3a7d
 9048 163b 2C       		.uleb128 0x2c
 9049 163c 833A0000 		.4byte	0x3a83
 9050 1640 2C       		.uleb128 0x2c
 9051 1641 893A0000 		.4byte	0x3a89
 9052 1645 33       		.uleb128 0x33
 9053 1646 251A0000 		.4byte	0x1a25
 9054 164a 96000000 		.4byte	.LBB175
 9055 164e 34000000 		.4byte	.LBE175-.LBB175
 9056 1652 01       		.byte	0x1
 9057 1653 A504     		.2byte	0x4a5
 9058 1655 13170000 		.4byte	0x1713
 9059 1659 2A       		.uleb128 0x2a
 9060 165a 421A0000 		.4byte	0x1a42
 9061 165e E0040000 		.4byte	.LLST221
 9062 1662 2A       		.uleb128 0x2a
 9063 1663 361A0000 		.4byte	0x1a36
ARM GAS  C:\Users\mathi\AppData\Local\Temp\ccVwcWGw.s 			page 160


 9064 1667 00050000 		.4byte	.LLST222
 9065 166b 34       		.uleb128 0x34
 9066 166c 96000000 		.4byte	.LBB176
 9067 1670 34000000 		.4byte	.LBE176-.LBB176
 9068 1674 2C       		.uleb128 0x2c
 9069 1675 11350000 		.4byte	0x3511
 9070 1679 35       		.uleb128 0x35
 9071 167a 251A0000 		.4byte	0x1a25
 9072 167e C0000000 		.4byte	.LBB177
 9073 1682 0A000000 		.4byte	.LBE177-.LBB177
 9074 1686 C8160000 		.4byte	0x16c8
 9075 168a 2A       		.uleb128 0x2a
 9076 168b 421A0000 		.4byte	0x1a42
 9077 168f 1E050000 		.4byte	.LLST223
 9078 1693 2A       		.uleb128 0x2a
 9079 1694 361A0000 		.4byte	0x1a36
 9080 1698 32050000 		.4byte	.LLST224
 9081 169c 34       		.uleb128 0x34
 9082 169d C0000000 		.4byte	.LBB178
 9083 16a1 0A000000 		.4byte	.LBE178-.LBB178
 9084 16a5 2C       		.uleb128 0x2c
 9085 16a6 11350000 		.4byte	0x3511
 9086 16aa 2F       		.uleb128 0x2f
 9087 16ab CA000000 		.4byte	.LVL728
 9088 16af F13C0000 		.4byte	0x3cf1
 9089 16b3 2E       		.uleb128 0x2e
 9090 16b4 01       		.uleb128 0x1
 9091 16b5 50       		.byte	0x50
 9092 16b6 02       		.uleb128 0x2
 9093 16b7 75       		.byte	0x75
 9094 16b8 00       		.sleb128 0
 9095 16b9 2E       		.uleb128 0x2e
 9096 16ba 01       		.uleb128 0x1
 9097 16bb 51       		.byte	0x51
 9098 16bc 02       		.uleb128 0x2
 9099 16bd 74       		.byte	0x74
 9100 16be 00       		.sleb128 0
 9101 16bf 2E       		.uleb128 0x2e
 9102 16c0 01       		.uleb128 0x1
 9103 16c1 52       		.byte	0x52
 9104 16c2 02       		.uleb128 0x2
 9105 16c3 74       		.byte	0x74
 9106 16c4 00       		.sleb128 0
 9107 16c5 00       		.byte	0
 9108 16c6 00       		.byte	0
 9109 16c7 00       		.byte	0
 9110 16c8 2D       		.uleb128 0x2d
 9111 16c9 A0000000 		.4byte	.LVL721
 9112 16cd F13C0000 		.4byte	0x3cf1
 9113 16d1 E7160000 		.4byte	0x16e7
 9114 16d5 2E       		.uleb128 0x2e
 9115 16d6 01       		.uleb128 0x1
 9116 16d7 50       		.byte	0x50
 9117 16d8 02       		.uleb128 0x2
 9118 16d9 75       		.byte	0x75
 9119 16da 00       		.sleb128 0
 9120 16db 2E       		.uleb128 0x2e
ARM GAS  C:\Users\mathi\AppData\Local\Temp\ccVwcWGw.s 			page 161


 9121 16dc 01       		.uleb128 0x1
 9122 16dd 51       		.byte	0x51
 9123 16de 02       		.uleb128 0x2
 9124 16df 74       		.byte	0x74
 9125 16e0 00       		.sleb128 0
 9126 16e1 2E       		.uleb128 0x2e
 9127 16e2 01       		.uleb128 0x1
 9128 16e3 52       		.byte	0x52
 9129 16e4 01       		.uleb128 0x1
 9130 16e5 31       		.byte	0x31
 9131 16e6 00       		.byte	0
 9132 16e7 2D       		.uleb128 0x2d
 9133 16e8 AC000000 		.4byte	.LVL723
 9134 16ec 1B3D0000 		.4byte	0x3d1b
 9135 16f0 FB160000 		.4byte	0x16fb
 9136 16f4 2E       		.uleb128 0x2e
 9137 16f5 01       		.uleb128 0x1
 9138 16f6 50       		.byte	0x50
 9139 16f7 02       		.uleb128 0x2
 9140 16f8 75       		.byte	0x75
 9141 16f9 00       		.sleb128 0
 9142 16fa 00       		.byte	0
 9143 16fb 2F       		.uleb128 0x2f
 9144 16fc BA000000 		.4byte	.LVL725
 9145 1700 263D0000 		.4byte	0x3d26
 9146 1704 2E       		.uleb128 0x2e
 9147 1705 01       		.uleb128 0x1
 9148 1706 50       		.byte	0x50
 9149 1707 02       		.uleb128 0x2
 9150 1708 75       		.byte	0x75
 9151 1709 00       		.sleb128 0
 9152 170a 2E       		.uleb128 0x2e
 9153 170b 01       		.uleb128 0x1
 9154 170c 51       		.byte	0x51
 9155 170d 02       		.uleb128 0x2
 9156 170e 74       		.byte	0x74
 9157 170f 00       		.sleb128 0
 9158 1710 00       		.byte	0
 9159 1711 00       		.byte	0
 9160 1712 00       		.byte	0
 9161 1713 33       		.uleb128 0x33
 9162 1714 9B190000 		.4byte	0x199b
 9163 1718 58010000 		.4byte	.LBB179
 9164 171c 76000000 		.4byte	.LBE179-.LBB179
 9165 1720 01       		.byte	0x1
 9166 1721 A904     		.2byte	0x4a9
 9167 1723 5A180000 		.4byte	0x185a
 9168 1727 2A       		.uleb128 0x2a
 9169 1728 001A0000 		.4byte	0x1a00
 9170 172c 45050000 		.4byte	.LLST225
 9171 1730 2A       		.uleb128 0x2a
 9172 1731 F4190000 		.4byte	0x19f4
 9173 1735 59050000 		.4byte	.LLST226
 9174 1739 2A       		.uleb128 0x2a
 9175 173a E8190000 		.4byte	0x19e8
 9176 173e 6D050000 		.4byte	.LLST227
 9177 1742 2A       		.uleb128 0x2a
ARM GAS  C:\Users\mathi\AppData\Local\Temp\ccVwcWGw.s 			page 162


 9178 1743 DC190000 		.4byte	0x19dc
 9179 1747 80050000 		.4byte	.LLST228
 9180 174b 2A       		.uleb128 0x2a
 9181 174c D0190000 		.4byte	0x19d0
 9182 1750 59050000 		.4byte	.LLST226
 9183 1754 2A       		.uleb128 0x2a
 9184 1755 C4190000 		.4byte	0x19c4
 9185 1759 59050000 		.4byte	.LLST226
 9186 175d 2A       		.uleb128 0x2a
 9187 175e B8190000 		.4byte	0x19b8
 9188 1762 45050000 		.4byte	.LLST225
 9189 1766 2A       		.uleb128 0x2a
 9190 1767 AC190000 		.4byte	0x19ac
 9191 176b 98050000 		.4byte	.LLST232
 9192 176f 34       		.uleb128 0x34
 9193 1770 58010000 		.4byte	.LBB180
 9194 1774 76000000 		.4byte	.LBE180-.LBB180
 9195 1778 2C       		.uleb128 0x2c
 9196 1779 F8350000 		.4byte	0x35f8
 9197 177d 2C       		.uleb128 0x2c
 9198 177e 01360000 		.4byte	0x3601
 9199 1782 2D       		.uleb128 0x2d
 9200 1783 6A010000 		.4byte	.LVL755
 9201 1787 F13C0000 		.4byte	0x3cf1
 9202 178b A2170000 		.4byte	0x17a2
 9203 178f 2E       		.uleb128 0x2e
 9204 1790 01       		.uleb128 0x1
 9205 1791 50       		.byte	0x50
 9206 1792 02       		.uleb128 0x2
 9207 1793 75       		.byte	0x75
 9208 1794 00       		.sleb128 0
 9209 1795 2E       		.uleb128 0x2e
 9210 1796 01       		.uleb128 0x1
 9211 1797 51       		.byte	0x51
 9212 1798 02       		.uleb128 0x2
 9213 1799 09       		.byte	0x9
 9214 179a FF       		.byte	0xff
 9215 179b 2E       		.uleb128 0x2e
 9216 179c 01       		.uleb128 0x1
 9217 179d 52       		.byte	0x52
 9218 179e 02       		.uleb128 0x2
 9219 179f 78       		.byte	0x78
 9220 17a0 00       		.sleb128 0
 9221 17a1 00       		.byte	0
 9222 17a2 2D       		.uleb128 0x2d
 9223 17a3 76010000 		.4byte	.LVL757
 9224 17a7 F13C0000 		.4byte	0x3cf1
 9225 17ab C2170000 		.4byte	0x17c2
 9226 17af 2E       		.uleb128 0x2e
 9227 17b0 01       		.uleb128 0x1
 9228 17b1 50       		.byte	0x50
 9229 17b2 02       		.uleb128 0x2
 9230 17b3 75       		.byte	0x75
 9231 17b4 00       		.sleb128 0
 9232 17b5 2E       		.uleb128 0x2e
 9233 17b6 01       		.uleb128 0x1
 9234 17b7 51       		.byte	0x51
ARM GAS  C:\Users\mathi\AppData\Local\Temp\ccVwcWGw.s 			page 163


 9235 17b8 02       		.uleb128 0x2
 9236 17b9 74       		.byte	0x74
 9237 17ba 00       		.sleb128 0
 9238 17bb 2E       		.uleb128 0x2e
 9239 17bc 01       		.uleb128 0x1
 9240 17bd 52       		.byte	0x52
 9241 17be 02       		.uleb128 0x2
 9242 17bf 74       		.byte	0x74
 9243 17c0 00       		.sleb128 0
 9244 17c1 00       		.byte	0
 9245 17c2 2D       		.uleb128 0x2d
 9246 17c3 82010000 		.4byte	.LVL759
 9247 17c7 F13C0000 		.4byte	0x3cf1
 9248 17cb E2170000 		.4byte	0x17e2
 9249 17cf 2E       		.uleb128 0x2e
 9250 17d0 01       		.uleb128 0x1
 9251 17d1 50       		.byte	0x50
 9252 17d2 02       		.uleb128 0x2
 9253 17d3 75       		.byte	0x75
 9254 17d4 00       		.sleb128 0
 9255 17d5 2E       		.uleb128 0x2e
 9256 17d6 01       		.uleb128 0x1
 9257 17d7 51       		.byte	0x51
 9258 17d8 02       		.uleb128 0x2
 9259 17d9 09       		.byte	0x9
 9260 17da FF       		.byte	0xff
 9261 17db 2E       		.uleb128 0x2e
 9262 17dc 01       		.uleb128 0x1
 9263 17dd 52       		.byte	0x52
 9264 17de 02       		.uleb128 0x2
 9265 17df 74       		.byte	0x74
 9266 17e0 00       		.sleb128 0
 9267 17e1 00       		.byte	0
 9268 17e2 2D       		.uleb128 0x2d
 9269 17e3 90010000 		.4byte	.LVL762
 9270 17e7 FC3C0000 		.4byte	0x3cfc
 9271 17eb 02180000 		.4byte	0x1802
 9272 17ef 2E       		.uleb128 0x2e
 9273 17f0 01       		.uleb128 0x1
 9274 17f1 50       		.byte	0x50
 9275 17f2 02       		.uleb128 0x2
 9276 17f3 75       		.byte	0x75
 9277 17f4 00       		.sleb128 0
 9278 17f5 2E       		.uleb128 0x2e
 9279 17f6 01       		.uleb128 0x1
 9280 17f7 51       		.byte	0x51
 9281 17f8 02       		.uleb128 0x2
 9282 17f9 09       		.byte	0x9
 9283 17fa EE       		.byte	0xee
 9284 17fb 2E       		.uleb128 0x2e
 9285 17fc 01       		.uleb128 0x1
 9286 17fd 52       		.byte	0x52
 9287 17fe 02       		.uleb128 0x2
 9288 17ff 7B       		.byte	0x7b
 9289 1800 00       		.sleb128 0
 9290 1801 00       		.byte	0
 9291 1802 2D       		.uleb128 0x2d
ARM GAS  C:\Users\mathi\AppData\Local\Temp\ccVwcWGw.s 			page 164


 9292 1803 9E010000 		.4byte	.LVL765
 9293 1807 F13C0000 		.4byte	0x3cf1
 9294 180b 22180000 		.4byte	0x1822
 9295 180f 2E       		.uleb128 0x2e
 9296 1810 01       		.uleb128 0x1
 9297 1811 50       		.byte	0x50
 9298 1812 02       		.uleb128 0x2
 9299 1813 75       		.byte	0x75
 9300 1814 00       		.sleb128 0
 9301 1815 2E       		.uleb128 0x2e
 9302 1816 01       		.uleb128 0x1
 9303 1817 51       		.byte	0x51
 9304 1818 02       		.uleb128 0x2
 9305 1819 09       		.byte	0x9
 9306 181a FF       		.byte	0xff
 9307 181b 2E       		.uleb128 0x2e
 9308 181c 01       		.uleb128 0x1
 9309 181d 52       		.byte	0x52
 9310 181e 02       		.uleb128 0x2
 9311 181f 78       		.byte	0x78
 9312 1820 00       		.sleb128 0
 9313 1821 00       		.byte	0
 9314 1822 2D       		.uleb128 0x2d
 9315 1823 AC010000 		.4byte	.LVL768
 9316 1827 F13C0000 		.4byte	0x3cf1
 9317 182b 42180000 		.4byte	0x1842
 9318 182f 2E       		.uleb128 0x2e
 9319 1830 01       		.uleb128 0x1
 9320 1831 50       		.byte	0x50
 9321 1832 02       		.uleb128 0x2
 9322 1833 75       		.byte	0x75
 9323 1834 00       		.sleb128 0
 9324 1835 2E       		.uleb128 0x2e
 9325 1836 01       		.uleb128 0x1
 9326 1837 51       		.byte	0x51
 9327 1838 02       		.uleb128 0x2
 9328 1839 74       		.byte	0x74
 9329 183a 00       		.sleb128 0
 9330 183b 2E       		.uleb128 0x2e
 9331 183c 01       		.uleb128 0x1
 9332 183d 52       		.byte	0x52
 9333 183e 02       		.uleb128 0x2
 9334 183f 78       		.byte	0x78
 9335 1840 00       		.sleb128 0
 9336 1841 00       		.byte	0
 9337 1842 2F       		.uleb128 0x2f
 9338 1843 BC010000 		.4byte	.LVL770
 9339 1847 F13C0000 		.4byte	0x3cf1
 9340 184b 2E       		.uleb128 0x2e
 9341 184c 01       		.uleb128 0x1
 9342 184d 50       		.byte	0x50
 9343 184e 02       		.uleb128 0x2
 9344 184f 75       		.byte	0x75
 9345 1850 00       		.sleb128 0
 9346 1851 2E       		.uleb128 0x2e
 9347 1852 01       		.uleb128 0x1
 9348 1853 51       		.byte	0x51
ARM GAS  C:\Users\mathi\AppData\Local\Temp\ccVwcWGw.s 			page 165


 9349 1854 02       		.uleb128 0x2
 9350 1855 09       		.byte	0x9
 9351 1856 FF       		.byte	0xff
 9352 1857 00       		.byte	0
 9353 1858 00       		.byte	0
 9354 1859 00       		.byte	0
 9355 185a 2F       		.uleb128 0x2f
 9356 185b 8A000000 		.4byte	.LVL716
 9357 185f F13C0000 		.4byte	0x3cf1
 9358 1863 2E       		.uleb128 0x2e
 9359 1864 01       		.uleb128 0x1
 9360 1865 50       		.byte	0x50
 9361 1866 02       		.uleb128 0x2
 9362 1867 75       		.byte	0x75
 9363 1868 00       		.sleb128 0
 9364 1869 2E       		.uleb128 0x2e
 9365 186a 01       		.uleb128 0x1
 9366 186b 51       		.byte	0x51
 9367 186c 01       		.uleb128 0x1
 9368 186d 31       		.byte	0x31
 9369 186e 2E       		.uleb128 0x2e
 9370 186f 01       		.uleb128 0x1
 9371 1870 52       		.byte	0x52
 9372 1871 01       		.uleb128 0x1
 9373 1872 32       		.byte	0x32
 9374 1873 00       		.byte	0
 9375 1874 00       		.byte	0
 9376 1875 00       		.byte	0
 9377 1876 2D       		.uleb128 0x2d
 9378 1877 E4000000 		.4byte	.LVL730
 9379 187b F13C0000 		.4byte	0x3cf1
 9380 187f 95180000 		.4byte	0x1895
 9381 1883 2E       		.uleb128 0x2e
 9382 1884 01       		.uleb128 0x1
 9383 1885 50       		.byte	0x50
 9384 1886 02       		.uleb128 0x2
 9385 1887 75       		.byte	0x75
 9386 1888 00       		.sleb128 0
 9387 1889 2E       		.uleb128 0x2e
 9388 188a 01       		.uleb128 0x1
 9389 188b 51       		.byte	0x51
 9390 188c 01       		.uleb128 0x1
 9391 188d 31       		.byte	0x31
 9392 188e 2E       		.uleb128 0x2e
 9393 188f 01       		.uleb128 0x1
 9394 1890 52       		.byte	0x52
 9395 1891 02       		.uleb128 0x2
 9396 1892 79       		.byte	0x79
 9397 1893 00       		.sleb128 0
 9398 1894 00       		.byte	0
 9399 1895 30       		.uleb128 0x30
 9400 1896 D8010000 		.4byte	.LVL776
 9401 189a 073D0000 		.4byte	0x3d07
 9402 189e 00       		.byte	0
 9403 189f 36       		.uleb128 0x36
 9404 18a0 20000000 		.4byte	.LASF247
 9405 18a4 01       		.byte	0x1
ARM GAS  C:\Users\mathi\AppData\Local\Temp\ccVwcWGw.s 			page 166


 9406 18a5 9004     		.2byte	0x490
 9407 18a7 94010000 		.4byte	0x194
 9408 18ab 01       		.byte	0x1
 9409 18ac 1D190000 		.4byte	0x191d
 9410 18b0 37       		.uleb128 0x37
 9411 18b1 44657600 		.ascii	"Dev\000"
 9412 18b5 01       		.byte	0x1
 9413 18b6 9004     		.2byte	0x490
 9414 18b8 EB0E0000 		.4byte	0xeeb
 9415 18bc 38       		.uleb128 0x38
 9416 18bd 21040000 		.4byte	.LASF237
 9417 18c1 01       		.byte	0x1
 9418 18c2 9104     		.2byte	0x491
 9419 18c4 7C060000 		.4byte	0x67c
 9420 18c8 38       		.uleb128 0x38
 9421 18c9 3D120000 		.4byte	.LASF244
 9422 18cd 01       		.byte	0x1
 9423 18ce 9104     		.2byte	0x491
 9424 18d0 C3000000 		.4byte	0xc3
 9425 18d4 38       		.uleb128 0x38
 9426 18d5 F8060000 		.4byte	.LASF245
 9427 18d9 01       		.byte	0x1
 9428 18da 9204     		.2byte	0x492
 9429 18dc C3000000 		.4byte	0xc3
 9430 18e0 31       		.uleb128 0x31
 9431 18e1 C7010000 		.4byte	.LASF238
 9432 18e5 01       		.byte	0x1
 9433 18e6 9404     		.2byte	0x494
 9434 18e8 94010000 		.4byte	0x194
 9435 18ec 31       		.uleb128 0x31
 9436 18ed 76100000 		.4byte	.LASF103
 9437 18f1 01       		.byte	0x1
 9438 18f2 9504     		.2byte	0x495
 9439 18f4 B8000000 		.4byte	0xb8
 9440 18f8 31       		.uleb128 0x31
 9441 18f9 5F120000 		.4byte	.LASF239
 9442 18fd 01       		.byte	0x1
 9443 18fe 9604     		.2byte	0x496
 9444 1900 B8000000 		.4byte	0xb8
 9445 1904 31       		.uleb128 0x31
 9446 1905 3B0C0000 		.4byte	.LASF240
 9447 1909 01       		.byte	0x1
 9448 190a 9704     		.2byte	0x497
 9449 190c B8000000 		.4byte	0xb8
 9450 1910 31       		.uleb128 0x31
 9451 1911 85020000 		.4byte	.LASF246
 9452 1915 01       		.byte	0x1
 9453 1916 9804     		.2byte	0x498
 9454 1918 B8000000 		.4byte	0xb8
 9455 191c 00       		.byte	0
 9456 191d 36       		.uleb128 0x36
 9457 191e B90E0000 		.4byte	.LASF248
 9458 1922 01       		.byte	0x1
 9459 1923 6304     		.2byte	0x463
 9460 1925 94010000 		.4byte	0x194
 9461 1929 01       		.byte	0x1
 9462 192a 9B190000 		.4byte	0x199b
ARM GAS  C:\Users\mathi\AppData\Local\Temp\ccVwcWGw.s 			page 167


 9463 192e 37       		.uleb128 0x37
 9464 192f 44657600 		.ascii	"Dev\000"
 9465 1933 01       		.byte	0x1
 9466 1934 6304     		.2byte	0x463
 9467 1936 EB0E0000 		.4byte	0xeeb
 9468 193a 38       		.uleb128 0x38
 9469 193b 070A0000 		.4byte	.LASF236
 9470 193f 01       		.byte	0x1
 9471 1940 6404     		.2byte	0x464
 9472 1942 7C060000 		.4byte	0x67c
 9473 1946 38       		.uleb128 0x38
 9474 1947 3D120000 		.4byte	.LASF244
 9475 194b 01       		.byte	0x1
 9476 194c 6404     		.2byte	0x464
 9477 194e C3000000 		.4byte	0xc3
 9478 1952 38       		.uleb128 0x38
 9479 1953 F8060000 		.4byte	.LASF245
 9480 1957 01       		.byte	0x1
 9481 1958 6504     		.2byte	0x465
 9482 195a C3000000 		.4byte	0xc3
 9483 195e 31       		.uleb128 0x31
 9484 195f C7010000 		.4byte	.LASF238
 9485 1963 01       		.byte	0x1
 9486 1964 6704     		.2byte	0x467
 9487 1966 94010000 		.4byte	0x194
 9488 196a 31       		.uleb128 0x31
 9489 196b 76100000 		.4byte	.LASF103
 9490 196f 01       		.byte	0x1
 9491 1970 6804     		.2byte	0x468
 9492 1972 B8000000 		.4byte	0xb8
 9493 1976 31       		.uleb128 0x31
 9494 1977 5F120000 		.4byte	.LASF239
 9495 197b 01       		.byte	0x1
 9496 197c 6904     		.2byte	0x469
 9497 197e B8000000 		.4byte	0xb8
 9498 1982 31       		.uleb128 0x31
 9499 1983 3B0C0000 		.4byte	.LASF240
 9500 1987 01       		.byte	0x1
 9501 1988 6A04     		.2byte	0x46a
 9502 198a B8000000 		.4byte	0xb8
 9503 198e 31       		.uleb128 0x31
 9504 198f 4A160000 		.4byte	.LASF249
 9505 1993 01       		.byte	0x1
 9506 1994 6B04     		.2byte	0x46b
 9507 1996 B8000000 		.4byte	0xb8
 9508 199a 00       		.byte	0
 9509 199b 36       		.uleb128 0x36
 9510 199c 6B120000 		.4byte	.LASF250
 9511 19a0 01       		.byte	0x1
 9512 19a1 4004     		.2byte	0x440
 9513 19a3 94010000 		.4byte	0x194
 9514 19a7 01       		.byte	0x1
 9515 19a8 251A0000 		.4byte	0x1a25
 9516 19ac 37       		.uleb128 0x37
 9517 19ad 44657600 		.ascii	"Dev\000"
 9518 19b1 01       		.byte	0x1
 9519 19b2 4004     		.2byte	0x440
ARM GAS  C:\Users\mathi\AppData\Local\Temp\ccVwcWGw.s 			page 168


 9520 19b4 EB0E0000 		.4byte	0xeeb
 9521 19b8 38       		.uleb128 0x38
 9522 19b9 CE010000 		.4byte	.LASF251
 9523 19bd 01       		.byte	0x1
 9524 19be 4004     		.2byte	0x440
 9525 19c0 B8000000 		.4byte	0xb8
 9526 19c4 38       		.uleb128 0x38
 9527 19c5 5F120000 		.4byte	.LASF239
 9528 19c9 01       		.byte	0x1
 9529 19ca 4104     		.2byte	0x441
 9530 19cc B8000000 		.4byte	0xb8
 9531 19d0 38       		.uleb128 0x38
 9532 19d1 3B0C0000 		.4byte	.LASF240
 9533 19d5 01       		.byte	0x1
 9534 19d6 4104     		.2byte	0x441
 9535 19d8 B8000000 		.4byte	0xb8
 9536 19dc 38       		.uleb128 0x38
 9537 19dd 070A0000 		.4byte	.LASF236
 9538 19e1 01       		.byte	0x1
 9539 19e2 4204     		.2byte	0x442
 9540 19e4 7C060000 		.4byte	0x67c
 9541 19e8 38       		.uleb128 0x38
 9542 19e9 21040000 		.4byte	.LASF237
 9543 19ed 01       		.byte	0x1
 9544 19ee 4204     		.2byte	0x442
 9545 19f0 7C060000 		.4byte	0x67c
 9546 19f4 38       		.uleb128 0x38
 9547 19f5 BB100000 		.4byte	.LASF252
 9548 19f9 01       		.byte	0x1
 9549 19fa 4304     		.2byte	0x443
 9550 19fc C3000000 		.4byte	0xc3
 9551 1a00 38       		.uleb128 0x38
 9552 1a01 FA010000 		.4byte	.LASF253
 9553 1a05 01       		.byte	0x1
 9554 1a06 4304     		.2byte	0x443
 9555 1a08 C3000000 		.4byte	0xc3
 9556 1a0c 31       		.uleb128 0x31
 9557 1a0d C7010000 		.4byte	.LASF238
 9558 1a11 01       		.byte	0x1
 9559 1a12 4504     		.2byte	0x445
 9560 1a14 94010000 		.4byte	0x194
 9561 1a18 31       		.uleb128 0x31
 9562 1a19 460F0000 		.4byte	.LASF254
 9563 1a1d 01       		.byte	0x1
 9564 1a1e 4604     		.2byte	0x446
 9565 1a20 B8000000 		.4byte	0xb8
 9566 1a24 00       		.byte	0
 9567 1a25 36       		.uleb128 0x36
 9568 1a26 94100000 		.4byte	.LASF255
 9569 1a2a 01       		.byte	0x1
 9570 1a2b 2904     		.2byte	0x429
 9571 1a2d 94010000 		.4byte	0x194
 9572 1a31 01       		.byte	0x1
 9573 1a32 5B1A0000 		.4byte	0x1a5b
 9574 1a36 37       		.uleb128 0x37
 9575 1a37 44657600 		.ascii	"Dev\000"
 9576 1a3b 01       		.byte	0x1
ARM GAS  C:\Users\mathi\AppData\Local\Temp\ccVwcWGw.s 			page 169


 9577 1a3c 2904     		.2byte	0x429
 9578 1a3e EB0E0000 		.4byte	0xeeb
 9579 1a42 38       		.uleb128 0x38
 9580 1a43 DC040000 		.4byte	.LASF256
 9581 1a47 01       		.byte	0x1
 9582 1a48 2A04     		.2byte	0x42a
 9583 1a4a B8000000 		.4byte	0xb8
 9584 1a4e 31       		.uleb128 0x31
 9585 1a4f C7010000 		.4byte	.LASF238
 9586 1a53 01       		.byte	0x1
 9587 1a54 2C04     		.2byte	0x42c
 9588 1a56 94010000 		.4byte	0x194
 9589 1a5a 00       		.byte	0
 9590 1a5b 24       		.uleb128 0x24
 9591 1a5c 73170000 		.4byte	.LASF257
 9592 1a60 01       		.byte	0x1
 9593 1a61 F203     		.2byte	0x3f2
 9594 1a63 94010000 		.4byte	0x194
 9595 1a67 00000000 		.4byte	.LFB18
 9596 1a6b 9C020000 		.4byte	.LFE18-.LFB18
 9597 1a6f 01       		.uleb128 0x1
 9598 1a70 9C       		.byte	0x9c
 9599 1a71 CD1B0000 		.4byte	0x1bcd
 9600 1a75 25       		.uleb128 0x25
 9601 1a76 44657600 		.ascii	"Dev\000"
 9602 1a7a 01       		.byte	0x1
 9603 1a7b F203     		.2byte	0x3f2
 9604 1a7d EB0E0000 		.4byte	0xeeb
 9605 1a81 AB050000 		.4byte	.LLST137
 9606 1a85 26       		.uleb128 0x26
 9607 1a86 EC080000 		.4byte	.LASF258
 9608 1a8a 01       		.byte	0x1
 9609 1a8b F303     		.2byte	0x3f3
 9610 1a8d CD1B0000 		.4byte	0x1bcd
 9611 1a91 07060000 		.4byte	.LLST138
 9612 1a95 26       		.uleb128 0x26
 9613 1a96 55090000 		.4byte	.LASF259
 9614 1a9a 01       		.byte	0x1
 9615 1a9b F303     		.2byte	0x3f3
 9616 1a9d 7C060000 		.4byte	0x67c
 9617 1aa1 4A060000 		.4byte	.LLST139
 9618 1aa5 27       		.uleb128 0x27
 9619 1aa6 C7010000 		.4byte	.LASF238
 9620 1aaa 01       		.byte	0x1
 9621 1aab F503     		.2byte	0x3f5
 9622 1aad 94010000 		.4byte	0x194
 9623 1ab1 82060000 		.4byte	.LLST140
 9624 1ab5 27       		.uleb128 0x27
 9625 1ab6 7F150000 		.4byte	.LASF260
 9626 1aba 01       		.byte	0x1
 9627 1abb F603     		.2byte	0x3f6
 9628 1abd B8000000 		.4byte	0xb8
 9629 1ac1 B8060000 		.4byte	.LLST141
 9630 1ac5 32       		.uleb128 0x32
 9631 1ac6 A1140000 		.4byte	.LASF261
 9632 1aca 01       		.byte	0x1
 9633 1acb F703     		.2byte	0x3f7
ARM GAS  C:\Users\mathi\AppData\Local\Temp\ccVwcWGw.s 			page 170


 9634 1acd 5C020000 		.4byte	0x25c
 9635 1ad1 02       		.uleb128 0x2
 9636 1ad2 91       		.byte	0x91
 9637 1ad3 4C       		.sleb128 -52
 9638 1ad4 28       		.uleb128 0x28
 9639 1ad5 68180000 		.4byte	.LASF262
 9640 1ad9 01       		.byte	0x1
 9641 1ada F803     		.2byte	0x3f8
 9642 1adc E9000000 		.4byte	0xe9
 9643 1ae0 2C       		.byte	0x2c
 9644 1ae1 28       		.uleb128 0x28
 9645 1ae2 8A0F0000 		.4byte	.LASF263
 9646 1ae6 01       		.byte	0x1
 9647 1ae7 F903     		.2byte	0x3f9
 9648 1ae9 E9000000 		.4byte	0xe9
 9649 1aed 06       		.byte	0x6
 9650 1aee 27       		.uleb128 0x27
 9651 1aef C8080000 		.4byte	.LASF264
 9652 1af3 01       		.byte	0x1
 9653 1af4 FA03     		.2byte	0x3fa
 9654 1af6 E9000000 		.4byte	0xe9
 9655 1afa DA060000 		.4byte	.LLST142
 9656 1afe 27       		.uleb128 0x27
 9657 1aff 990F0000 		.4byte	.LASF265
 9658 1b03 01       		.byte	0x1
 9659 1b04 FB03     		.2byte	0x3fb
 9660 1b06 B8000000 		.4byte	0xb8
 9661 1b0a D6070000 		.4byte	.LLST143
 9662 1b0e 33       		.uleb128 0x33
 9663 1b0f CB250000 		.4byte	0x25cb
 9664 1b13 1E000000 		.4byte	.LBB106
 9665 1b17 0A000000 		.4byte	.LBE106-.LBB106
 9666 1b1b 01       		.byte	0x1
 9667 1b1c 0904     		.2byte	0x409
 9668 1b1e 671B0000 		.4byte	0x1b67
 9669 1b22 2A       		.uleb128 0x2a
 9670 1b23 E8250000 		.4byte	0x25e8
 9671 1b27 92080000 		.4byte	.LLST144
 9672 1b2b 2A       		.uleb128 0x2a
 9673 1b2c DC250000 		.4byte	0x25dc
 9674 1b30 BF080000 		.4byte	.LLST145
 9675 1b34 34       		.uleb128 0x34
 9676 1b35 1E000000 		.4byte	.LBB107
 9677 1b39 0A000000 		.4byte	.LBE107-.LBB107
 9678 1b3d 39       		.uleb128 0x39
 9679 1b3e 94310000 		.4byte	0x3194
 9680 1b42 01       		.uleb128 0x1
 9681 1b43 50       		.byte	0x50
 9682 1b44 2F       		.uleb128 0x2f
 9683 1b45 28000000 		.4byte	.LVL437
 9684 1b49 323D0000 		.4byte	0x3d32
 9685 1b4d 2E       		.uleb128 0x2e
 9686 1b4e 01       		.uleb128 0x1
 9687 1b4f 50       		.byte	0x50
 9688 1b50 02       		.uleb128 0x2
 9689 1b51 74       		.byte	0x74
 9690 1b52 00       		.sleb128 0
ARM GAS  C:\Users\mathi\AppData\Local\Temp\ccVwcWGw.s 			page 171


 9691 1b53 2E       		.uleb128 0x2e
 9692 1b54 01       		.uleb128 0x1
 9693 1b55 51       		.byte	0x51
 9694 1b56 02       		.uleb128 0x2
 9695 1b57 09       		.byte	0x9
 9696 1b58 B0       		.byte	0xb0
 9697 1b59 2E       		.uleb128 0x2e
 9698 1b5a 01       		.uleb128 0x1
 9699 1b5b 52       		.byte	0x52
 9700 1b5c 02       		.uleb128 0x2
 9701 1b5d 91       		.byte	0x91
 9702 1b5e 4C       		.sleb128 -52
 9703 1b5f 2E       		.uleb128 0x2e
 9704 1b60 01       		.uleb128 0x1
 9705 1b61 53       		.byte	0x53
 9706 1b62 01       		.uleb128 0x1
 9707 1b63 36       		.byte	0x36
 9708 1b64 00       		.byte	0
 9709 1b65 00       		.byte	0
 9710 1b66 00       		.byte	0
 9711 1b67 29       		.uleb128 0x29
 9712 1b68 37260000 		.4byte	0x2637
 9713 1b6c 4C000000 		.4byte	.LBB108
 9714 1b70 C0000000 		.4byte	.Ldebug_ranges0+0xc0
 9715 1b74 01       		.byte	0x1
 9716 1b75 0F04     		.2byte	0x40f
 9717 1b77 C31B0000 		.4byte	0x1bc3
 9718 1b7b 3A       		.uleb128 0x3a
 9719 1b7c 78260000 		.4byte	0x2678
 9720 1b80 3A       		.uleb128 0x3a
 9721 1b81 6C260000 		.4byte	0x266c
 9722 1b85 3A       		.uleb128 0x3a
 9723 1b86 60260000 		.4byte	0x2660
 9724 1b8a 3A       		.uleb128 0x3a
 9725 1b8b 54260000 		.4byte	0x2654
 9726 1b8f 3A       		.uleb128 0x3a
 9727 1b90 48260000 		.4byte	0x2648
 9728 1b94 2B       		.uleb128 0x2b
 9729 1b95 C0000000 		.4byte	.Ldebug_ranges0+0xc0
 9730 1b99 2C       		.uleb128 0x2c
 9731 1b9a C6300000 		.4byte	0x30c6
 9732 1b9e 2C       		.uleb128 0x2c
 9733 1b9f CF300000 		.4byte	0x30cf
 9734 1ba3 2C       		.uleb128 0x2c
 9735 1ba4 D5300000 		.4byte	0x30d5
 9736 1ba8 2C       		.uleb128 0x2c
 9737 1ba9 DE300000 		.4byte	0x30de
 9738 1bad 2C       		.uleb128 0x2c
 9739 1bae E6300000 		.4byte	0x30e6
 9740 1bb2 2C       		.uleb128 0x2c
 9741 1bb3 EF300000 		.4byte	0x30ef
 9742 1bb7 2C       		.uleb128 0x2c
 9743 1bb8 F8300000 		.4byte	0x30f8
 9744 1bbc 2C       		.uleb128 0x2c
 9745 1bbd 01310000 		.4byte	0x3101
 9746 1bc1 00       		.byte	0
 9747 1bc2 00       		.byte	0
ARM GAS  C:\Users\mathi\AppData\Local\Temp\ccVwcWGw.s 			page 172


 9748 1bc3 30       		.uleb128 0x30
 9749 1bc4 96020000 		.4byte	.LVL550
 9750 1bc8 073D0000 		.4byte	0x3d07
 9751 1bcc 00       		.byte	0
 9752 1bcd 0F       		.uleb128 0xf
 9753 1bce 04       		.byte	0x4
 9754 1bcf E9000000 		.4byte	0xe9
 9755 1bd3 24       		.uleb128 0x24
 9756 1bd4 8C050000 		.4byte	.LASF266
 9757 1bd8 01       		.byte	0x1
 9758 1bd9 AF03     		.2byte	0x3af
 9759 1bdb 94010000 		.4byte	0x194
 9760 1bdf 00000000 		.4byte	.LFB17
 9761 1be3 C0000000 		.4byte	.LFE17-.LFB17
 9762 1be7 01       		.uleb128 0x1
 9763 1be8 9C       		.byte	0x9c
 9764 1be9 8D1D0000 		.4byte	0x1d8d
 9765 1bed 25       		.uleb128 0x25
 9766 1bee 44657600 		.ascii	"Dev\000"
 9767 1bf2 01       		.byte	0x1
 9768 1bf3 AF03     		.2byte	0x3af
 9769 1bf5 EB0E0000 		.4byte	0xeeb
 9770 1bf9 DD080000 		.4byte	.LLST128
 9771 1bfd 26       		.uleb128 0x26
 9772 1bfe 6B090000 		.4byte	.LASF267
 9773 1c02 01       		.byte	0x1
 9774 1c03 B003     		.2byte	0x3b0
 9775 1c05 E9000000 		.4byte	0xe9
 9776 1c09 FB080000 		.4byte	.LLST129
 9777 1c0d 26       		.uleb128 0x26
 9778 1c0e 990F0000 		.4byte	.LASF265
 9779 1c12 01       		.byte	0x1
 9780 1c13 B003     		.2byte	0x3b0
 9781 1c15 B8000000 		.4byte	0xb8
 9782 1c19 19090000 		.4byte	.LLST130
 9783 1c1d 27       		.uleb128 0x27
 9784 1c1e C7010000 		.4byte	.LASF238
 9785 1c22 01       		.byte	0x1
 9786 1c23 B203     		.2byte	0x3b2
 9787 1c25 94010000 		.4byte	0x194
 9788 1c29 3A090000 		.4byte	.LLST131
 9789 1c2d 27       		.uleb128 0x27
 9790 1c2e 6E010000 		.4byte	.LASF268
 9791 1c32 01       		.byte	0x1
 9792 1c33 B303     		.2byte	0x3b3
 9793 1c35 E9000000 		.4byte	0xe9
 9794 1c39 9B090000 		.4byte	.LLST132
 9795 1c3d 3B       		.uleb128 0x3b
 9796 1c3e 60070000 		.4byte	.LASF269
 9797 1c42 01       		.byte	0x1
 9798 1c43 B403     		.2byte	0x3b4
 9799 1c45 B8000000 		.4byte	0xb8
 9800 1c49 B47F     		.sleb128 -76
 9801 1c4b 28       		.uleb128 0x28
 9802 1c4c 520F0000 		.4byte	.LASF270
 9803 1c50 01       		.byte	0x1
 9804 1c51 B503     		.2byte	0x3b5
ARM GAS  C:\Users\mathi\AppData\Local\Temp\ccVwcWGw.s 			page 173


 9805 1c53 E9000000 		.4byte	0xe9
 9806 1c57 06       		.byte	0x6
 9807 1c58 28       		.uleb128 0x28
 9808 1c59 95130000 		.4byte	.LASF271
 9809 1c5d 01       		.byte	0x1
 9810 1c5e B603     		.2byte	0x3b6
 9811 1c60 E9000000 		.4byte	0xe9
 9812 1c64 2C       		.byte	0x2c
 9813 1c65 32       		.uleb128 0x32
 9814 1c66 BA150000 		.4byte	.LASF272
 9815 1c6a 01       		.byte	0x1
 9816 1c6b B703     		.2byte	0x3b7
 9817 1c6d E9000000 		.4byte	0xe9
 9818 1c71 02       		.uleb128 0x2
 9819 1c72 91       		.byte	0x91
 9820 1c73 60       		.sleb128 -32
 9821 1c74 27       		.uleb128 0x27
 9822 1c75 20020000 		.4byte	.LASF273
 9823 1c79 01       		.byte	0x1
 9824 1c7a B803     		.2byte	0x3b8
 9825 1c7c E9000000 		.4byte	0xe9
 9826 1c80 F3090000 		.4byte	.LLST133
 9827 1c84 29       		.uleb128 0x29
 9828 1c85 4B270000 		.4byte	0x274b
 9829 1c89 26000000 		.4byte	.LBB94
 9830 1c8d 98000000 		.4byte	.Ldebug_ranges0+0x98
 9831 1c91 01       		.byte	0x1
 9832 1c92 D803     		.2byte	0x3d8
 9833 1c94 BA1C0000 		.4byte	0x1cba
 9834 1c98 2A       		.uleb128 0x2a
 9835 1c99 5C270000 		.4byte	0x275c
 9836 1c9d 1F0A0000 		.4byte	.LLST134
 9837 1ca1 2B       		.uleb128 0x2b
 9838 1ca2 98000000 		.4byte	.Ldebug_ranges0+0x98
 9839 1ca6 3C       		.uleb128 0x3c
 9840 1ca7 19300000 		.4byte	0x3019
 9841 1cab 420A0000 		.4byte	.LLST135
 9842 1caf 3C       		.uleb128 0x3c
 9843 1cb0 1E300000 		.4byte	0x301e
 9844 1cb4 660A0000 		.4byte	.LLST136
 9845 1cb8 00       		.byte	0
 9846 1cb9 00       		.byte	0
 9847 1cba 2D       		.uleb128 0x2d
 9848 1cbb 18000000 		.4byte	.LVL410
 9849 1cbf F13C0000 		.4byte	0x3cf1
 9850 1cc3 D91C0000 		.4byte	0x1cd9
 9851 1cc7 2E       		.uleb128 0x2e
 9852 1cc8 01       		.uleb128 0x1
 9853 1cc9 50       		.byte	0x50
 9854 1cca 02       		.uleb128 0x2
 9855 1ccb 74       		.byte	0x74
 9856 1ccc 00       		.sleb128 0
 9857 1ccd 2E       		.uleb128 0x2e
 9858 1cce 01       		.uleb128 0x1
 9859 1ccf 51       		.byte	0x51
 9860 1cd0 02       		.uleb128 0x2
 9861 1cd1 09       		.byte	0x9
ARM GAS  C:\Users\mathi\AppData\Local\Temp\ccVwcWGw.s 			page 174


 9862 1cd2 FF       		.byte	0xff
 9863 1cd3 2E       		.uleb128 0x2e
 9864 1cd4 01       		.uleb128 0x1
 9865 1cd5 52       		.byte	0x52
 9866 1cd6 01       		.uleb128 0x1
 9867 1cd7 31       		.byte	0x31
 9868 1cd8 00       		.byte	0
 9869 1cd9 2D       		.uleb128 0x2d
 9870 1cda 46000000 		.4byte	.LVL416
 9871 1cde 342D0000 		.4byte	0x2d34
 9872 1ce2 0F1D0000 		.4byte	0x1d0f
 9873 1ce6 2E       		.uleb128 0x2e
 9874 1ce7 01       		.uleb128 0x1
 9875 1ce8 50       		.byte	0x50
 9876 1ce9 02       		.uleb128 0x2
 9877 1cea 74       		.byte	0x74
 9878 1ceb 00       		.sleb128 0
 9879 1cec 2E       		.uleb128 0x2e
 9880 1ced 01       		.uleb128 0x1
 9881 1cee 51       		.byte	0x51
 9882 1cef 02       		.uleb128 0x2
 9883 1cf0 75       		.byte	0x75
 9884 1cf1 00       		.sleb128 0
 9885 1cf2 2E       		.uleb128 0x2e
 9886 1cf3 01       		.uleb128 0x1
 9887 1cf4 52       		.byte	0x52
 9888 1cf5 03       		.uleb128 0x3
 9889 1cf6 74       		.byte	0x74
 9890 1cf7 AA02     		.sleb128 298
 9891 1cf9 2E       		.uleb128 0x2e
 9892 1cfa 01       		.uleb128 0x1
 9893 1cfb 53       		.byte	0x53
 9894 1cfc 03       		.uleb128 0x3
 9895 1cfd 74       		.byte	0x74
 9896 1cfe A402     		.sleb128 292
 9897 1d00 2E       		.uleb128 0x2e
 9898 1d01 02       		.uleb128 0x2
 9899 1d02 7D       		.byte	0x7d
 9900 1d03 04       		.sleb128 4
 9901 1d04 02       		.uleb128 0x2
 9902 1d05 77       		.byte	0x77
 9903 1d06 00       		.sleb128 0
 9904 1d07 2E       		.uleb128 0x2e
 9905 1d08 02       		.uleb128 0x2
 9906 1d09 7D       		.byte	0x7d
 9907 1d0a 08       		.sleb128 8
 9908 1d0b 02       		.uleb128 0x2
 9909 1d0c 91       		.byte	0x91
 9910 1d0d 60       		.sleb128 -32
 9911 1d0e 00       		.byte	0
 9912 1d0f 2D       		.uleb128 0x2d
 9913 1d10 88000000 		.4byte	.LVL423
 9914 1d14 F13C0000 		.4byte	0x3cf1
 9915 1d18 291D0000 		.4byte	0x1d29
 9916 1d1c 2E       		.uleb128 0x2e
 9917 1d1d 01       		.uleb128 0x1
 9918 1d1e 50       		.byte	0x50
ARM GAS  C:\Users\mathi\AppData\Local\Temp\ccVwcWGw.s 			page 175


 9919 1d1f 02       		.uleb128 0x2
 9920 1d20 74       		.byte	0x74
 9921 1d21 00       		.sleb128 0
 9922 1d22 2E       		.uleb128 0x2e
 9923 1d23 01       		.uleb128 0x1
 9924 1d24 51       		.byte	0x51
 9925 1d25 02       		.uleb128 0x2
 9926 1d26 08       		.byte	0x8
 9927 1d27 4F       		.byte	0x4f
 9928 1d28 00       		.byte	0
 9929 1d29 2D       		.uleb128 0x2d
 9930 1d2a 96000000 		.4byte	.LVL425
 9931 1d2e F13C0000 		.4byte	0x3cf1
 9932 1d32 491D0000 		.4byte	0x1d49
 9933 1d36 2E       		.uleb128 0x2e
 9934 1d37 01       		.uleb128 0x1
 9935 1d38 50       		.byte	0x50
 9936 1d39 02       		.uleb128 0x2
 9937 1d3a 74       		.byte	0x74
 9938 1d3b 00       		.sleb128 0
 9939 1d3c 2E       		.uleb128 0x2e
 9940 1d3d 01       		.uleb128 0x1
 9941 1d3e 51       		.byte	0x51
 9942 1d3f 02       		.uleb128 0x2
 9943 1d40 08       		.byte	0x8
 9944 1d41 4E       		.byte	0x4e
 9945 1d42 2E       		.uleb128 0x2e
 9946 1d43 01       		.uleb128 0x1
 9947 1d44 52       		.byte	0x52
 9948 1d45 02       		.uleb128 0x2
 9949 1d46 08       		.byte	0x8
 9950 1d47 2C       		.byte	0x2c
 9951 1d48 00       		.byte	0
 9952 1d49 2D       		.uleb128 0x2d
 9953 1d4a A4000000 		.4byte	.LVL427
 9954 1d4e F13C0000 		.4byte	0x3cf1
 9955 1d52 631D0000 		.4byte	0x1d63
 9956 1d56 2E       		.uleb128 0x2e
 9957 1d57 01       		.uleb128 0x1
 9958 1d58 50       		.byte	0x50
 9959 1d59 02       		.uleb128 0x2
 9960 1d5a 74       		.byte	0x74
 9961 1d5b 00       		.sleb128 0
 9962 1d5c 2E       		.uleb128 0x2e
 9963 1d5d 01       		.uleb128 0x1
 9964 1d5e 51       		.byte	0x51
 9965 1d5f 02       		.uleb128 0x2
 9966 1d60 09       		.byte	0x9
 9967 1d61 FF       		.byte	0xff
 9968 1d62 00       		.byte	0
 9969 1d63 2D       		.uleb128 0x2d
 9970 1d64 B2000000 		.4byte	.LVL429
 9971 1d68 F13C0000 		.4byte	0x3cf1
 9972 1d6c 831D0000 		.4byte	0x1d83
 9973 1d70 2E       		.uleb128 0x2e
 9974 1d71 01       		.uleb128 0x1
 9975 1d72 50       		.byte	0x50
ARM GAS  C:\Users\mathi\AppData\Local\Temp\ccVwcWGw.s 			page 176


 9976 1d73 02       		.uleb128 0x2
 9977 1d74 74       		.byte	0x74
 9978 1d75 00       		.sleb128 0
 9979 1d76 2E       		.uleb128 0x2e
 9980 1d77 01       		.uleb128 0x1
 9981 1d78 51       		.byte	0x51
 9982 1d79 02       		.uleb128 0x2
 9983 1d7a 09       		.byte	0x9
 9984 1d7b B6       		.byte	0xb6
 9985 1d7c 2E       		.uleb128 0x2e
 9986 1d7d 01       		.uleb128 0x1
 9987 1d7e 52       		.byte	0x52
 9988 1d7f 02       		.uleb128 0x2
 9989 1d80 09       		.byte	0x9
 9990 1d81 B4       		.byte	0xb4
 9991 1d82 00       		.byte	0
 9992 1d83 30       		.uleb128 0x30
 9993 1d84 B8000000 		.4byte	.LVL431
 9994 1d88 073D0000 		.4byte	0x3d07
 9995 1d8c 00       		.byte	0
 9996 1d8d 24       		.uleb128 0x24
 9997 1d8e 220F0000 		.4byte	.LASF274
 9998 1d92 01       		.byte	0x1
 9999 1d93 A402     		.2byte	0x2a4
 10000 1d95 94010000 		.4byte	0x194
 10001 1d99 00000000 		.4byte	.LFB16
 10002 1d9d 4E040000 		.4byte	.LFE16-.LFB16
 10003 1da1 01       		.uleb128 0x1
 10004 1da2 9C       		.byte	0x9c
 10005 1da3 B3240000 		.4byte	0x24b3
 10006 1da7 25       		.uleb128 0x25
 10007 1da8 44657600 		.ascii	"Dev\000"
 10008 1dac 01       		.byte	0x1
 10009 1dad A402     		.2byte	0x2a4
 10010 1daf EB0E0000 		.4byte	0xeeb
 10011 1db3 860A0000 		.4byte	.LLST233
 10012 1db7 26       		.uleb128 0x26
 10013 1db8 8A0A0000 		.4byte	.LASF275
 10014 1dbc 01       		.byte	0x1
 10015 1dbd A502     		.2byte	0x2a5
 10016 1dbf CD1B0000 		.4byte	0x1bcd
 10017 1dc3 A40A0000 		.4byte	.LLST234
 10018 1dc7 26       		.uleb128 0x26
 10019 1dc8 990F0000 		.4byte	.LASF265
 10020 1dcc 01       		.byte	0x1
 10021 1dcd A602     		.2byte	0x2a6
 10022 1dcf 7C060000 		.4byte	0x67c
 10023 1dd3 C40A0000 		.4byte	.LLST235
 10024 1dd7 27       		.uleb128 0x27
 10025 1dd8 C7010000 		.4byte	.LASF238
 10026 1ddc 01       		.byte	0x1
 10027 1ddd A802     		.2byte	0x2a8
 10028 1ddf 94010000 		.4byte	0x194
 10029 1de3 E40A0000 		.4byte	.LLST236
 10030 1de7 32       		.uleb128 0x32
 10031 1de8 3D060000 		.4byte	.LASF276
 10032 1dec 01       		.byte	0x1
ARM GAS  C:\Users\mathi\AppData\Local\Temp\ccVwcWGw.s 			page 177


 10033 1ded A902     		.2byte	0x2a9
 10034 1def 5C020000 		.4byte	0x25c
 10035 1df3 02       		.uleb128 0x2
 10036 1df4 91       		.byte	0x91
 10037 1df5 4C       		.sleb128 -52
 10038 1df6 3B       		.uleb128 0x3b
 10039 1df7 60070000 		.4byte	.LASF269
 10040 1dfb 01       		.byte	0x1
 10041 1dfc AA02     		.2byte	0x2aa
 10042 1dfe B8000000 		.4byte	0xb8
 10043 1e02 B47F     		.sleb128 -76
 10044 1e04 28       		.uleb128 0x28
 10045 1e05 62030000 		.4byte	.LASF277
 10046 1e09 01       		.byte	0x1
 10047 1e0a AB02     		.2byte	0x2ab
 10048 1e0c E9000000 		.4byte	0xe9
 10049 1e10 03       		.byte	0x3
 10050 1e11 28       		.uleb128 0x28
 10051 1e12 95130000 		.4byte	.LASF271
 10052 1e16 01       		.byte	0x1
 10053 1e17 AC02     		.2byte	0x2ac
 10054 1e19 E9000000 		.4byte	0xe9
 10055 1e1d 2C       		.byte	0x2c
 10056 1e1e 27       		.uleb128 0x27
 10057 1e1f 6E010000 		.4byte	.LASF268
 10058 1e23 01       		.byte	0x1
 10059 1e24 AD02     		.2byte	0x2ad
 10060 1e26 E9000000 		.4byte	0xe9
 10061 1e2a AD0B0000 		.4byte	.LLST237
 10062 1e2e 32       		.uleb128 0x32
 10063 1e2f BA150000 		.4byte	.LASF272
 10064 1e33 01       		.byte	0x1
 10065 1e34 AE02     		.2byte	0x2ae
 10066 1e36 E9000000 		.4byte	0xe9
 10067 1e3a 03       		.uleb128 0x3
 10068 1e3b 91       		.byte	0x91
 10069 1e3c AC7F     		.sleb128 -84
 10070 1e3e 27       		.uleb128 0x27
 10071 1e3f 84140000 		.4byte	.LASF278
 10072 1e43 01       		.byte	0x1
 10073 1e44 AF02     		.2byte	0x2af
 10074 1e46 DE000000 		.4byte	0xde
 10075 1e4a 460C0000 		.4byte	.LLST238
 10076 1e4e 27       		.uleb128 0x27
 10077 1e4f 45050000 		.4byte	.LASF108
 10078 1e53 01       		.byte	0x1
 10079 1e54 B002     		.2byte	0x2b0
 10080 1e56 D3000000 		.4byte	0xd3
 10081 1e5a E30C0000 		.4byte	.LLST239
 10082 1e5e 32       		.uleb128 0x32
 10083 1e5f 6D150000 		.4byte	.LASF279
 10084 1e63 01       		.byte	0x1
 10085 1e64 B102     		.2byte	0x2b1
 10086 1e66 D3000000 		.4byte	0xd3
 10087 1e6a 03       		.uleb128 0x3
 10088 1e6b 91       		.byte	0x91
 10089 1e6c AA7F     		.sleb128 -86
ARM GAS  C:\Users\mathi\AppData\Local\Temp\ccVwcWGw.s 			page 178


 10090 1e6e 27       		.uleb128 0x27
 10091 1e6f C6020000 		.4byte	.LASF280
 10092 1e73 01       		.byte	0x1
 10093 1e74 B202     		.2byte	0x2b2
 10094 1e76 E9000000 		.4byte	0xe9
 10095 1e7a 040D0000 		.4byte	.LLST240
 10096 1e7e 27       		.uleb128 0x27
 10097 1e7f 20020000 		.4byte	.LASF273
 10098 1e83 01       		.byte	0x1
 10099 1e84 B302     		.2byte	0x2b3
 10100 1e86 E9000000 		.4byte	0xe9
 10101 1e8a 540D0000 		.4byte	.LLST241
 10102 1e8e 28       		.uleb128 0x28
 10103 1e8f 520F0000 		.4byte	.LASF270
 10104 1e93 01       		.byte	0x1
 10105 1e94 B402     		.2byte	0x2b4
 10106 1e96 E9000000 		.4byte	0xe9
 10107 1e9a 06       		.byte	0x6
 10108 1e9b 27       		.uleb128 0x27
 10109 1e9c 4B140000 		.4byte	.LASF281
 10110 1ea0 01       		.byte	0x1
 10111 1ea1 B502     		.2byte	0x2b5
 10112 1ea3 E9000000 		.4byte	0xe9
 10113 1ea7 8C0D0000 		.4byte	.LLST242
 10114 1eab 27       		.uleb128 0x27
 10115 1eac 3A150000 		.4byte	.LASF282
 10116 1eb0 01       		.byte	0x1
 10117 1eb1 B602     		.2byte	0x2b6
 10118 1eb3 E9000000 		.4byte	0xe9
 10119 1eb7 270E0000 		.4byte	.LLST243
 10120 1ebb 27       		.uleb128 0x27
 10121 1ebc 2E090000 		.4byte	.LASF283
 10122 1ec0 01       		.byte	0x1
 10123 1ec1 B702     		.2byte	0x2b7
 10124 1ec3 B8000000 		.4byte	0xb8
 10125 1ec7 760E0000 		.4byte	.LLST244
 10126 1ecb 32       		.uleb128 0x32
 10127 1ecc 5F120000 		.4byte	.LASF239
 10128 1ed0 01       		.byte	0x1
 10129 1ed1 B802     		.2byte	0x2b8
 10130 1ed3 B8000000 		.4byte	0xb8
 10131 1ed7 03       		.uleb128 0x3
 10132 1ed8 91       		.byte	0x91
 10133 1ed9 A87F     		.sleb128 -88
 10134 1edb 32       		.uleb128 0x32
 10135 1edc 3B0C0000 		.4byte	.LASF240
 10136 1ee0 01       		.byte	0x1
 10137 1ee1 B902     		.2byte	0x2b9
 10138 1ee3 B8000000 		.4byte	0xb8
 10139 1ee7 03       		.uleb128 0x3
 10140 1ee8 91       		.byte	0x91
 10141 1ee9 A97F     		.sleb128 -87
 10142 1eeb 27       		.uleb128 0x27
 10143 1eec 600A0000 		.4byte	.LASF284
 10144 1ef0 01       		.byte	0x1
 10145 1ef1 BA02     		.2byte	0x2ba
 10146 1ef3 E9000000 		.4byte	0xe9
ARM GAS  C:\Users\mathi\AppData\Local\Temp\ccVwcWGw.s 			page 179


 10147 1ef7 BA0E0000 		.4byte	.LLST245
 10148 1efb 27       		.uleb128 0x27
 10149 1efc 9F150000 		.4byte	.LASF285
 10150 1f00 01       		.byte	0x1
 10151 1f01 BB02     		.2byte	0x2bb
 10152 1f03 B8000000 		.4byte	0xb8
 10153 1f07 380F0000 		.4byte	.LLST246
 10154 1f0b 29       		.uleb128 0x29
 10155 1f0c B3240000 		.4byte	0x24b3
 10156 1f10 D2000000 		.4byte	.LBB202
 10157 1f14 38010000 		.4byte	.Ldebug_ranges0+0x138
 10158 1f18 01       		.byte	0x1
 10159 1f19 1103     		.2byte	0x311
 10160 1f1b F61F0000 		.4byte	0x1ff6
 10161 1f1f 2A       		.uleb128 0x2a
 10162 1f20 D0240000 		.4byte	0x24d0
 10163 1f24 9D0F0000 		.4byte	.LLST247
 10164 1f28 2A       		.uleb128 0x2a
 10165 1f29 C4240000 		.4byte	0x24c4
 10166 1f2d CC0F0000 		.4byte	.LLST248
 10167 1f31 2B       		.uleb128 0x2b
 10168 1f32 38010000 		.4byte	.Ldebug_ranges0+0x138
 10169 1f36 2C       		.uleb128 0x2c
 10170 1f37 19340000 		.4byte	0x3419
 10171 1f3b 2C       		.uleb128 0x2c
 10172 1f3c 22340000 		.4byte	0x3422
 10173 1f40 2C       		.uleb128 0x2c
 10174 1f41 2A340000 		.4byte	0x342a
 10175 1f45 2D       		.uleb128 0x2d
 10176 1f46 E2000000 		.4byte	.LVL803
 10177 1f4a F13C0000 		.4byte	0x3cf1
 10178 1f4e 641F0000 		.4byte	0x1f64
 10179 1f52 2E       		.uleb128 0x2e
 10180 1f53 01       		.uleb128 0x1
 10181 1f54 50       		.byte	0x50
 10182 1f55 02       		.uleb128 0x2
 10183 1f56 75       		.byte	0x75
 10184 1f57 00       		.sleb128 0
 10185 1f58 2E       		.uleb128 0x2e
 10186 1f59 01       		.uleb128 0x1
 10187 1f5a 51       		.byte	0x51
 10188 1f5b 01       		.uleb128 0x1
 10189 1f5c 31       		.byte	0x31
 10190 1f5d 2E       		.uleb128 0x2e
 10191 1f5e 01       		.uleb128 0x1
 10192 1f5f 52       		.byte	0x52
 10193 1f60 02       		.uleb128 0x2
 10194 1f61 09       		.byte	0x9
 10195 1f62 C0       		.byte	0xc0
 10196 1f63 00       		.byte	0
 10197 1f64 2D       		.uleb128 0x2d
 10198 1f65 F0000000 		.4byte	.LVL805
 10199 1f69 3D3D0000 		.4byte	0x3d3d
 10200 1f6d 7F1F0000 		.4byte	0x1f7f
 10201 1f71 2E       		.uleb128 0x2e
 10202 1f72 01       		.uleb128 0x1
 10203 1f73 50       		.byte	0x50
ARM GAS  C:\Users\mathi\AppData\Local\Temp\ccVwcWGw.s 			page 180


 10204 1f74 02       		.uleb128 0x2
 10205 1f75 75       		.byte	0x75
 10206 1f76 00       		.sleb128 0
 10207 1f77 2E       		.uleb128 0x2e
 10208 1f78 01       		.uleb128 0x1
 10209 1f79 51       		.byte	0x51
 10210 1f7a 03       		.uleb128 0x3
 10211 1f7b 91       		.byte	0x91
 10212 1f7c B07F     		.sleb128 -80
 10213 1f7e 00       		.byte	0
 10214 1f7f 2D       		.uleb128 0x2d
 10215 1f80 00010000 		.4byte	.LVL807
 10216 1f84 F13C0000 		.4byte	0x3cf1
 10217 1f88 9E1F0000 		.4byte	0x1f9e
 10218 1f8c 2E       		.uleb128 0x2e
 10219 1f8d 01       		.uleb128 0x1
 10220 1f8e 50       		.byte	0x50
 10221 1f8f 02       		.uleb128 0x2
 10222 1f90 75       		.byte	0x75
 10223 1f91 00       		.sleb128 0
 10224 1f92 2E       		.uleb128 0x2e
 10225 1f93 01       		.uleb128 0x1
 10226 1f94 51       		.byte	0x51
 10227 1f95 02       		.uleb128 0x2
 10228 1f96 09       		.byte	0x9
 10229 1f97 FF       		.byte	0xff
 10230 1f98 2E       		.uleb128 0x2e
 10231 1f99 01       		.uleb128 0x1
 10232 1f9a 52       		.byte	0x52
 10233 1f9b 01       		.uleb128 0x1
 10234 1f9c 31       		.byte	0x31
 10235 1f9d 00       		.byte	0
 10236 1f9e 2D       		.uleb128 0x2d
 10237 1f9f 12010000 		.4byte	.LVL810
 10238 1fa3 493D0000 		.4byte	0x3d49
 10239 1fa7 BF1F0000 		.4byte	0x1fbf
 10240 1fab 2E       		.uleb128 0x2e
 10241 1fac 01       		.uleb128 0x1
 10242 1fad 50       		.byte	0x50
 10243 1fae 02       		.uleb128 0x2
 10244 1faf 75       		.byte	0x75
 10245 1fb0 00       		.sleb128 0
 10246 1fb1 2E       		.uleb128 0x2e
 10247 1fb2 01       		.uleb128 0x1
 10248 1fb3 51       		.byte	0x51
 10249 1fb4 02       		.uleb128 0x2
 10250 1fb5 09       		.byte	0x9
 10251 1fb6 B6       		.byte	0xb6
 10252 1fb7 2E       		.uleb128 0x2e
 10253 1fb8 01       		.uleb128 0x1
 10254 1fb9 52       		.byte	0x52
 10255 1fba 03       		.uleb128 0x3
 10256 1fbb 91       		.byte	0x91
 10257 1fbc AA7F     		.sleb128 -86
 10258 1fbe 00       		.byte	0
 10259 1fbf 2D       		.uleb128 0x2d
 10260 1fc0 20010000 		.4byte	.LVL812
ARM GAS  C:\Users\mathi\AppData\Local\Temp\ccVwcWGw.s 			page 181


 10261 1fc4 F13C0000 		.4byte	0x3cf1
 10262 1fc8 D91F0000 		.4byte	0x1fd9
 10263 1fcc 2E       		.uleb128 0x2e
 10264 1fcd 01       		.uleb128 0x1
 10265 1fce 50       		.byte	0x50
 10266 1fcf 02       		.uleb128 0x2
 10267 1fd0 75       		.byte	0x75
 10268 1fd1 00       		.sleb128 0
 10269 1fd2 2E       		.uleb128 0x2e
 10270 1fd3 01       		.uleb128 0x1
 10271 1fd4 51       		.byte	0x51
 10272 1fd5 02       		.uleb128 0x2
 10273 1fd6 09       		.byte	0x9
 10274 1fd7 FF       		.byte	0xff
 10275 1fd8 00       		.byte	0
 10276 1fd9 2F       		.uleb128 0x2f
 10277 1fda 30010000 		.4byte	.LVL814
 10278 1fde F13C0000 		.4byte	0x3cf1
 10279 1fe2 2E       		.uleb128 0x2e
 10280 1fe3 01       		.uleb128 0x1
 10281 1fe4 50       		.byte	0x50
 10282 1fe5 02       		.uleb128 0x2
 10283 1fe6 75       		.byte	0x75
 10284 1fe7 00       		.sleb128 0
 10285 1fe8 2E       		.uleb128 0x2e
 10286 1fe9 01       		.uleb128 0x1
 10287 1fea 51       		.byte	0x51
 10288 1feb 01       		.uleb128 0x1
 10289 1fec 31       		.byte	0x31
 10290 1fed 2E       		.uleb128 0x2e
 10291 1fee 01       		.uleb128 0x1
 10292 1fef 52       		.byte	0x52
 10293 1ff0 02       		.uleb128 0x2
 10294 1ff1 78       		.byte	0x78
 10295 1ff2 00       		.sleb128 0
 10296 1ff3 00       		.byte	0
 10297 1ff4 00       		.byte	0
 10298 1ff5 00       		.byte	0
 10299 1ff6 29       		.uleb128 0x29
 10300 1ff7 4B270000 		.4byte	0x274b
 10301 1ffb 44010000 		.4byte	.LBB208
 10302 1fff 58010000 		.4byte	.Ldebug_ranges0+0x158
 10303 2003 01       		.byte	0x1
 10304 2004 1D03     		.2byte	0x31d
 10305 2006 2C200000 		.4byte	0x202c
 10306 200a 2A       		.uleb128 0x2a
 10307 200b 5C270000 		.4byte	0x275c
 10308 200f DF0F0000 		.4byte	.LLST249
 10309 2013 2B       		.uleb128 0x2b
 10310 2014 58010000 		.4byte	.Ldebug_ranges0+0x158
 10311 2018 3C       		.uleb128 0x3c
 10312 2019 19300000 		.4byte	0x3019
 10313 201d 03100000 		.4byte	.LLST250
 10314 2021 3C       		.uleb128 0x3c
 10315 2022 1E300000 		.4byte	0x301e
 10316 2026 2B100000 		.4byte	.LLST251
 10317 202a 00       		.byte	0
ARM GAS  C:\Users\mathi\AppData\Local\Temp\ccVwcWGw.s 			page 182


 10318 202b 00       		.byte	0
 10319 202c 29       		.uleb128 0x29
 10320 202d B3240000 		.4byte	0x24b3
 10321 2031 94010000 		.4byte	.LBB218
 10322 2035 88010000 		.4byte	.Ldebug_ranges0+0x188
 10323 2039 01       		.byte	0x1
 10324 203a 3003     		.2byte	0x330
 10325 203c 17210000 		.4byte	0x2117
 10326 2040 2A       		.uleb128 0x2a
 10327 2041 D0240000 		.4byte	0x24d0
 10328 2045 4B100000 		.4byte	.LLST252
 10329 2049 2A       		.uleb128 0x2a
 10330 204a C4240000 		.4byte	0x24c4
 10331 204e 7A100000 		.4byte	.LLST253
 10332 2052 2B       		.uleb128 0x2b
 10333 2053 88010000 		.4byte	.Ldebug_ranges0+0x188
 10334 2057 2C       		.uleb128 0x2c
 10335 2058 19340000 		.4byte	0x3419
 10336 205c 2C       		.uleb128 0x2c
 10337 205d 22340000 		.4byte	0x3422
 10338 2061 2C       		.uleb128 0x2c
 10339 2062 2A340000 		.4byte	0x342a
 10340 2066 2D       		.uleb128 0x2d
 10341 2067 A4010000 		.4byte	.LVL827
 10342 206b F13C0000 		.4byte	0x3cf1
 10343 206f 85200000 		.4byte	0x2085
 10344 2073 2E       		.uleb128 0x2e
 10345 2074 01       		.uleb128 0x1
 10346 2075 50       		.byte	0x50
 10347 2076 02       		.uleb128 0x2
 10348 2077 75       		.byte	0x75
 10349 2078 00       		.sleb128 0
 10350 2079 2E       		.uleb128 0x2e
 10351 207a 01       		.uleb128 0x1
 10352 207b 51       		.byte	0x51
 10353 207c 01       		.uleb128 0x1
 10354 207d 31       		.byte	0x31
 10355 207e 2E       		.uleb128 0x2e
 10356 207f 01       		.uleb128 0x1
 10357 2080 52       		.byte	0x52
 10358 2081 02       		.uleb128 0x2
 10359 2082 09       		.byte	0x9
 10360 2083 C0       		.byte	0xc0
 10361 2084 00       		.byte	0
 10362 2085 2D       		.uleb128 0x2d
 10363 2086 B4010000 		.4byte	.LVL829
 10364 208a 3D3D0000 		.4byte	0x3d3d
 10365 208e A0200000 		.4byte	0x20a0
 10366 2092 2E       		.uleb128 0x2e
 10367 2093 01       		.uleb128 0x1
 10368 2094 50       		.byte	0x50
 10369 2095 02       		.uleb128 0x2
 10370 2096 75       		.byte	0x75
 10371 2097 00       		.sleb128 0
 10372 2098 2E       		.uleb128 0x2e
 10373 2099 01       		.uleb128 0x1
 10374 209a 51       		.byte	0x51
ARM GAS  C:\Users\mathi\AppData\Local\Temp\ccVwcWGw.s 			page 183


 10375 209b 03       		.uleb128 0x3
 10376 209c 91       		.byte	0x91
 10377 209d B07F     		.sleb128 -80
 10378 209f 00       		.byte	0
 10379 20a0 2D       		.uleb128 0x2d
 10380 20a1 C6010000 		.4byte	.LVL831
 10381 20a5 F13C0000 		.4byte	0x3cf1
 10382 20a9 BF200000 		.4byte	0x20bf
 10383 20ad 2E       		.uleb128 0x2e
 10384 20ae 01       		.uleb128 0x1
 10385 20af 50       		.byte	0x50
 10386 20b0 02       		.uleb128 0x2
 10387 20b1 75       		.byte	0x75
 10388 20b2 00       		.sleb128 0
 10389 20b3 2E       		.uleb128 0x2e
 10390 20b4 01       		.uleb128 0x1
 10391 20b5 51       		.byte	0x51
 10392 20b6 02       		.uleb128 0x2
 10393 20b7 09       		.byte	0x9
 10394 20b8 FF       		.byte	0xff
 10395 20b9 2E       		.uleb128 0x2e
 10396 20ba 01       		.uleb128 0x1
 10397 20bb 52       		.byte	0x52
 10398 20bc 01       		.uleb128 0x1
 10399 20bd 31       		.byte	0x31
 10400 20be 00       		.byte	0
 10401 20bf 2D       		.uleb128 0x2d
 10402 20c0 DA010000 		.4byte	.LVL834
 10403 20c4 493D0000 		.4byte	0x3d49
 10404 20c8 E0200000 		.4byte	0x20e0
 10405 20cc 2E       		.uleb128 0x2e
 10406 20cd 01       		.uleb128 0x1
 10407 20ce 50       		.byte	0x50
 10408 20cf 02       		.uleb128 0x2
 10409 20d0 75       		.byte	0x75
 10410 20d1 00       		.sleb128 0
 10411 20d2 2E       		.uleb128 0x2e
 10412 20d3 01       		.uleb128 0x1
 10413 20d4 51       		.byte	0x51
 10414 20d5 02       		.uleb128 0x2
 10415 20d6 09       		.byte	0x9
 10416 20d7 B6       		.byte	0xb6
 10417 20d8 2E       		.uleb128 0x2e
 10418 20d9 01       		.uleb128 0x1
 10419 20da 52       		.byte	0x52
 10420 20db 03       		.uleb128 0x3
 10421 20dc 91       		.byte	0x91
 10422 20dd AA7F     		.sleb128 -86
 10423 20df 00       		.byte	0
 10424 20e0 2D       		.uleb128 0x2d
 10425 20e1 EA010000 		.4byte	.LVL836
 10426 20e5 F13C0000 		.4byte	0x3cf1
 10427 20e9 FA200000 		.4byte	0x20fa
 10428 20ed 2E       		.uleb128 0x2e
 10429 20ee 01       		.uleb128 0x1
 10430 20ef 50       		.byte	0x50
 10431 20f0 02       		.uleb128 0x2
ARM GAS  C:\Users\mathi\AppData\Local\Temp\ccVwcWGw.s 			page 184


 10432 20f1 75       		.byte	0x75
 10433 20f2 00       		.sleb128 0
 10434 20f3 2E       		.uleb128 0x2e
 10435 20f4 01       		.uleb128 0x1
 10436 20f5 51       		.byte	0x51
 10437 20f6 02       		.uleb128 0x2
 10438 20f7 09       		.byte	0x9
 10439 20f8 FF       		.byte	0xff
 10440 20f9 00       		.byte	0
 10441 20fa 2F       		.uleb128 0x2f
 10442 20fb FC010000 		.4byte	.LVL838
 10443 20ff F13C0000 		.4byte	0x3cf1
 10444 2103 2E       		.uleb128 0x2e
 10445 2104 01       		.uleb128 0x1
 10446 2105 50       		.byte	0x50
 10447 2106 02       		.uleb128 0x2
 10448 2107 75       		.byte	0x75
 10449 2108 00       		.sleb128 0
 10450 2109 2E       		.uleb128 0x2e
 10451 210a 01       		.uleb128 0x1
 10452 210b 51       		.byte	0x51
 10453 210c 01       		.uleb128 0x1
 10454 210d 31       		.byte	0x31
 10455 210e 2E       		.uleb128 0x2e
 10456 210f 01       		.uleb128 0x1
 10457 2110 52       		.byte	0x52
 10458 2111 02       		.uleb128 0x2
 10459 2112 77       		.byte	0x77
 10460 2113 00       		.sleb128 0
 10461 2114 00       		.byte	0
 10462 2115 00       		.byte	0
 10463 2116 00       		.byte	0
 10464 2117 29       		.uleb128 0x29
 10465 2118 81270000 		.4byte	0x2781
 10466 211c 30020000 		.4byte	.LBB224
 10467 2120 A8010000 		.4byte	.Ldebug_ranges0+0x1a8
 10468 2124 01       		.byte	0x1
 10469 2125 5503     		.2byte	0x355
 10470 2127 79210000 		.4byte	0x2179
 10471 212b 2A       		.uleb128 0x2a
 10472 212c B2270000 		.4byte	0x27b2
 10473 2130 8D100000 		.4byte	.LLST254
 10474 2134 2A       		.uleb128 0x2a
 10475 2135 A6270000 		.4byte	0x27a6
 10476 2139 C5100000 		.4byte	.LLST255
 10477 213d 2A       		.uleb128 0x2a
 10478 213e 9A270000 		.4byte	0x279a
 10479 2142 E3100000 		.4byte	.LLST256
 10480 2146 2A       		.uleb128 0x2a
 10481 2147 8E270000 		.4byte	0x278e
 10482 214b 0F110000 		.4byte	.LLST257
 10483 214f 2B       		.uleb128 0x2b
 10484 2150 A8010000 		.4byte	.Ldebug_ranges0+0x1a8
 10485 2154 2C       		.uleb128 0x2c
 10486 2155 B72F0000 		.4byte	0x2fb7
 10487 2159 2C       		.uleb128 0x2c
 10488 215a C02F0000 		.4byte	0x2fc0
ARM GAS  C:\Users\mathi\AppData\Local\Temp\ccVwcWGw.s 			page 185


 10489 215e 2C       		.uleb128 0x2c
 10490 215f C92F0000 		.4byte	0x2fc9
 10491 2163 2C       		.uleb128 0x2c
 10492 2164 CF2F0000 		.4byte	0x2fcf
 10493 2168 2C       		.uleb128 0x2c
 10494 2169 D82F0000 		.4byte	0x2fd8
 10495 216d 2C       		.uleb128 0x2c
 10496 216e E12F0000 		.4byte	0x2fe1
 10497 2172 2C       		.uleb128 0x2c
 10498 2173 EA2F0000 		.4byte	0x2fea
 10499 2177 00       		.byte	0
 10500 2178 00       		.byte	0
 10501 2179 29       		.uleb128 0x29
 10502 217a 4B270000 		.4byte	0x274b
 10503 217e 54020000 		.4byte	.LBB236
 10504 2182 F8010000 		.4byte	.Ldebug_ranges0+0x1f8
 10505 2186 01       		.byte	0x1
 10506 2187 6203     		.2byte	0x362
 10507 2189 A3210000 		.4byte	0x21a3
 10508 218d 3A       		.uleb128 0x3a
 10509 218e 5C270000 		.4byte	0x275c
 10510 2192 2B       		.uleb128 0x2b
 10511 2193 F8010000 		.4byte	.Ldebug_ranges0+0x1f8
 10512 2197 2C       		.uleb128 0x2c
 10513 2198 19300000 		.4byte	0x3019
 10514 219c 2C       		.uleb128 0x2c
 10515 219d 1E300000 		.4byte	0x301e
 10516 21a1 00       		.byte	0
 10517 21a2 00       		.byte	0
 10518 21a3 33       		.uleb128 0x33
 10519 21a4 E5260000 		.4byte	0x26e5
 10520 21a8 14030000 		.4byte	.LBB241
 10521 21ac 12000000 		.4byte	.LBE241-.LBB241
 10522 21b0 01       		.byte	0x1
 10523 21b1 6E03     		.2byte	0x36e
 10524 21b3 E5210000 		.4byte	0x21e5
 10525 21b7 3A       		.uleb128 0x3a
 10526 21b8 0E270000 		.4byte	0x270e
 10527 21bc 3A       		.uleb128 0x3a
 10528 21bd 02270000 		.4byte	0x2702
 10529 21c1 3A       		.uleb128 0x3a
 10530 21c2 F6260000 		.4byte	0x26f6
 10531 21c6 34       		.uleb128 0x34
 10532 21c7 14030000 		.4byte	.LBB242
 10533 21cb 12000000 		.4byte	.LBE242-.LBB242
 10534 21cf 2C       		.uleb128 0x2c
 10535 21d0 5B300000 		.4byte	0x305b
 10536 21d4 2C       		.uleb128 0x2c
 10537 21d5 64300000 		.4byte	0x3064
 10538 21d9 2C       		.uleb128 0x2c
 10539 21da 6A300000 		.4byte	0x306a
 10540 21de 2C       		.uleb128 0x2c
 10541 21df 73300000 		.4byte	0x3073
 10542 21e3 00       		.byte	0
 10543 21e4 00       		.byte	0
 10544 21e5 33       		.uleb128 0x33
 10545 21e6 01260000 		.4byte	0x2601
ARM GAS  C:\Users\mathi\AppData\Local\Temp\ccVwcWGw.s 			page 186


 10546 21ea 26030000 		.4byte	.LBB243
 10547 21ee 0C000000 		.4byte	.LBE243-.LBB243
 10548 21f2 01       		.byte	0x1
 10549 21f3 7603     		.2byte	0x376
 10550 21f5 36220000 		.4byte	0x2236
 10551 21f9 3A       		.uleb128 0x3a
 10552 21fa 1E260000 		.4byte	0x261e
 10553 21fe 3A       		.uleb128 0x3a
 10554 21ff 12260000 		.4byte	0x2612
 10555 2203 34       		.uleb128 0x34
 10556 2204 26030000 		.4byte	.LBB244
 10557 2208 0C000000 		.4byte	.LBE244-.LBB244
 10558 220c 39       		.uleb128 0x39
 10559 220d 39310000 		.4byte	0x3139
 10560 2211 01       		.uleb128 0x1
 10561 2212 52       		.byte	0x52
 10562 2213 2F       		.uleb128 0x2f
 10563 2214 32030000 		.4byte	.LVL874
 10564 2218 543D0000 		.4byte	0x3d54
 10565 221c 2E       		.uleb128 0x2e
 10566 221d 01       		.uleb128 0x1
 10567 221e 50       		.byte	0x50
 10568 221f 02       		.uleb128 0x2
 10569 2220 75       		.byte	0x75
 10570 2221 00       		.sleb128 0
 10571 2222 2E       		.uleb128 0x2e
 10572 2223 01       		.uleb128 0x1
 10573 2224 51       		.byte	0x51
 10574 2225 02       		.uleb128 0x2
 10575 2226 09       		.byte	0x9
 10576 2227 B0       		.byte	0xb0
 10577 2228 2E       		.uleb128 0x2e
 10578 2229 01       		.uleb128 0x1
 10579 222a 52       		.byte	0x52
 10580 222b 02       		.uleb128 0x2
 10581 222c 76       		.byte	0x76
 10582 222d 00       		.sleb128 0
 10583 222e 2E       		.uleb128 0x2e
 10584 222f 01       		.uleb128 0x1
 10585 2230 53       		.byte	0x53
 10586 2231 01       		.uleb128 0x1
 10587 2232 36       		.byte	0x36
 10588 2233 00       		.byte	0
 10589 2234 00       		.byte	0
 10590 2235 00       		.byte	0
 10591 2236 29       		.uleb128 0x29
 10592 2237 B3240000 		.4byte	0x24b3
 10593 223b 40030000 		.4byte	.LBB245
 10594 223f 10020000 		.4byte	.Ldebug_ranges0+0x210
 10595 2243 01       		.byte	0x1
 10596 2244 7D03     		.2byte	0x37d
 10597 2246 21230000 		.4byte	0x2321
 10598 224a 2A       		.uleb128 0x2a
 10599 224b D0240000 		.4byte	0x24d0
 10600 224f 3E110000 		.4byte	.LLST258
 10601 2253 2A       		.uleb128 0x2a
 10602 2254 C4240000 		.4byte	0x24c4
ARM GAS  C:\Users\mathi\AppData\Local\Temp\ccVwcWGw.s 			page 187


 10603 2258 6D110000 		.4byte	.LLST259
 10604 225c 2B       		.uleb128 0x2b
 10605 225d 10020000 		.4byte	.Ldebug_ranges0+0x210
 10606 2261 2C       		.uleb128 0x2c
 10607 2262 19340000 		.4byte	0x3419
 10608 2266 2C       		.uleb128 0x2c
 10609 2267 22340000 		.4byte	0x3422
 10610 226b 2C       		.uleb128 0x2c
 10611 226c 2A340000 		.4byte	0x342a
 10612 2270 2D       		.uleb128 0x2d
 10613 2271 4E030000 		.4byte	.LVL880
 10614 2275 F13C0000 		.4byte	0x3cf1
 10615 2279 8F220000 		.4byte	0x228f
 10616 227d 2E       		.uleb128 0x2e
 10617 227e 01       		.uleb128 0x1
 10618 227f 50       		.byte	0x50
 10619 2280 02       		.uleb128 0x2
 10620 2281 75       		.byte	0x75
 10621 2282 00       		.sleb128 0
 10622 2283 2E       		.uleb128 0x2e
 10623 2284 01       		.uleb128 0x1
 10624 2285 51       		.byte	0x51
 10625 2286 01       		.uleb128 0x1
 10626 2287 31       		.byte	0x31
 10627 2288 2E       		.uleb128 0x2e
 10628 2289 01       		.uleb128 0x1
 10629 228a 52       		.byte	0x52
 10630 228b 02       		.uleb128 0x2
 10631 228c 09       		.byte	0x9
 10632 228d C0       		.byte	0xc0
 10633 228e 00       		.byte	0
 10634 228f 2D       		.uleb128 0x2d
 10635 2290 5C030000 		.4byte	.LVL882
 10636 2294 3D3D0000 		.4byte	0x3d3d
 10637 2298 AA220000 		.4byte	0x22aa
 10638 229c 2E       		.uleb128 0x2e
 10639 229d 01       		.uleb128 0x1
 10640 229e 50       		.byte	0x50
 10641 229f 02       		.uleb128 0x2
 10642 22a0 75       		.byte	0x75
 10643 22a1 00       		.sleb128 0
 10644 22a2 2E       		.uleb128 0x2e
 10645 22a3 01       		.uleb128 0x1
 10646 22a4 51       		.byte	0x51
 10647 22a5 03       		.uleb128 0x3
 10648 22a6 91       		.byte	0x91
 10649 22a7 B07F     		.sleb128 -80
 10650 22a9 00       		.byte	0
 10651 22aa 2D       		.uleb128 0x2d
 10652 22ab 6C030000 		.4byte	.LVL884
 10653 22af F13C0000 		.4byte	0x3cf1
 10654 22b3 C9220000 		.4byte	0x22c9
 10655 22b7 2E       		.uleb128 0x2e
 10656 22b8 01       		.uleb128 0x1
 10657 22b9 50       		.byte	0x50
 10658 22ba 02       		.uleb128 0x2
 10659 22bb 75       		.byte	0x75
ARM GAS  C:\Users\mathi\AppData\Local\Temp\ccVwcWGw.s 			page 188


 10660 22bc 00       		.sleb128 0
 10661 22bd 2E       		.uleb128 0x2e
 10662 22be 01       		.uleb128 0x1
 10663 22bf 51       		.byte	0x51
 10664 22c0 02       		.uleb128 0x2
 10665 22c1 09       		.byte	0x9
 10666 22c2 FF       		.byte	0xff
 10667 22c3 2E       		.uleb128 0x2e
 10668 22c4 01       		.uleb128 0x1
 10669 22c5 52       		.byte	0x52
 10670 22c6 01       		.uleb128 0x1
 10671 22c7 31       		.byte	0x31
 10672 22c8 00       		.byte	0
 10673 22c9 2D       		.uleb128 0x2d
 10674 22ca 7E030000 		.4byte	.LVL887
 10675 22ce 493D0000 		.4byte	0x3d49
 10676 22d2 EA220000 		.4byte	0x22ea
 10677 22d6 2E       		.uleb128 0x2e
 10678 22d7 01       		.uleb128 0x1
 10679 22d8 50       		.byte	0x50
 10680 22d9 02       		.uleb128 0x2
 10681 22da 75       		.byte	0x75
 10682 22db 00       		.sleb128 0
 10683 22dc 2E       		.uleb128 0x2e
 10684 22dd 01       		.uleb128 0x1
 10685 22de 51       		.byte	0x51
 10686 22df 02       		.uleb128 0x2
 10687 22e0 09       		.byte	0x9
 10688 22e1 B6       		.byte	0xb6
 10689 22e2 2E       		.uleb128 0x2e
 10690 22e3 01       		.uleb128 0x1
 10691 22e4 52       		.byte	0x52
 10692 22e5 03       		.uleb128 0x3
 10693 22e6 91       		.byte	0x91
 10694 22e7 AA7F     		.sleb128 -86
 10695 22e9 00       		.byte	0
 10696 22ea 2D       		.uleb128 0x2d
 10697 22eb 8E030000 		.4byte	.LVL889
 10698 22ef F13C0000 		.4byte	0x3cf1
 10699 22f3 04230000 		.4byte	0x2304
 10700 22f7 2E       		.uleb128 0x2e
 10701 22f8 01       		.uleb128 0x1
 10702 22f9 50       		.byte	0x50
 10703 22fa 02       		.uleb128 0x2
 10704 22fb 75       		.byte	0x75
 10705 22fc 00       		.sleb128 0
 10706 22fd 2E       		.uleb128 0x2e
 10707 22fe 01       		.uleb128 0x1
 10708 22ff 51       		.byte	0x51
 10709 2300 02       		.uleb128 0x2
 10710 2301 09       		.byte	0x9
 10711 2302 FF       		.byte	0xff
 10712 2303 00       		.byte	0
 10713 2304 2F       		.uleb128 0x2f
 10714 2305 9E030000 		.4byte	.LVL891
 10715 2309 F13C0000 		.4byte	0x3cf1
 10716 230d 2E       		.uleb128 0x2e
ARM GAS  C:\Users\mathi\AppData\Local\Temp\ccVwcWGw.s 			page 189


 10717 230e 01       		.uleb128 0x1
 10718 230f 50       		.byte	0x50
 10719 2310 02       		.uleb128 0x2
 10720 2311 75       		.byte	0x75
 10721 2312 00       		.sleb128 0
 10722 2313 2E       		.uleb128 0x2e
 10723 2314 01       		.uleb128 0x1
 10724 2315 51       		.byte	0x51
 10725 2316 01       		.uleb128 0x1
 10726 2317 31       		.byte	0x31
 10727 2318 2E       		.uleb128 0x2e
 10728 2319 01       		.uleb128 0x1
 10729 231a 52       		.byte	0x52
 10730 231b 02       		.uleb128 0x2
 10731 231c 7A       		.byte	0x7a
 10732 231d 00       		.sleb128 0
 10733 231e 00       		.byte	0
 10734 231f 00       		.byte	0
 10735 2320 00       		.byte	0
 10736 2321 29       		.uleb128 0x29
 10737 2322 01260000 		.4byte	0x2601
 10738 2326 0E040000 		.4byte	.LBB253
 10739 232a 28020000 		.4byte	.Ldebug_ranges0+0x228
 10740 232e 01       		.byte	0x1
 10741 232f 8D03     		.2byte	0x38d
 10742 2331 76230000 		.4byte	0x2376
 10743 2335 2A       		.uleb128 0x2a
 10744 2336 1E260000 		.4byte	0x261e
 10745 233a 80110000 		.4byte	.LLST260
 10746 233e 2A       		.uleb128 0x2a
 10747 233f 12260000 		.4byte	0x2612
 10748 2343 AD110000 		.4byte	.LLST261
 10749 2347 2B       		.uleb128 0x2b
 10750 2348 28020000 		.4byte	.Ldebug_ranges0+0x228
 10751 234c 39       		.uleb128 0x39
 10752 234d 39310000 		.4byte	0x3139
 10753 2351 01       		.uleb128 0x1
 10754 2352 52       		.byte	0x52
 10755 2353 2F       		.uleb128 0x2f
 10756 2354 1A040000 		.4byte	.LVL903
 10757 2358 543D0000 		.4byte	0x3d54
 10758 235c 2E       		.uleb128 0x2e
 10759 235d 01       		.uleb128 0x1
 10760 235e 50       		.byte	0x50
 10761 235f 02       		.uleb128 0x2
 10762 2360 75       		.byte	0x75
 10763 2361 00       		.sleb128 0
 10764 2362 2E       		.uleb128 0x2e
 10765 2363 01       		.uleb128 0x1
 10766 2364 51       		.byte	0x51
 10767 2365 02       		.uleb128 0x2
 10768 2366 09       		.byte	0x9
 10769 2367 B0       		.byte	0xb0
 10770 2368 2E       		.uleb128 0x2e
 10771 2369 01       		.uleb128 0x1
 10772 236a 52       		.byte	0x52
 10773 236b 02       		.uleb128 0x2
ARM GAS  C:\Users\mathi\AppData\Local\Temp\ccVwcWGw.s 			page 190


 10774 236c 91       		.byte	0x91
 10775 236d 4C       		.sleb128 -52
 10776 236e 2E       		.uleb128 0x2e
 10777 236f 01       		.uleb128 0x1
 10778 2370 53       		.byte	0x53
 10779 2371 01       		.uleb128 0x1
 10780 2372 36       		.byte	0x36
 10781 2373 00       		.byte	0
 10782 2374 00       		.byte	0
 10783 2375 00       		.byte	0
 10784 2376 2D       		.uleb128 0x2d
 10785 2377 32000000 		.4byte	.LVL783
 10786 237b F13C0000 		.4byte	0x3cf1
 10787 237f 95230000 		.4byte	0x2395
 10788 2383 2E       		.uleb128 0x2e
 10789 2384 01       		.uleb128 0x1
 10790 2385 50       		.byte	0x50
 10791 2386 02       		.uleb128 0x2
 10792 2387 75       		.byte	0x75
 10793 2388 00       		.sleb128 0
 10794 2389 2E       		.uleb128 0x2e
 10795 238a 01       		.uleb128 0x1
 10796 238b 51       		.byte	0x51
 10797 238c 02       		.uleb128 0x2
 10798 238d 09       		.byte	0x9
 10799 238e FF       		.byte	0xff
 10800 238f 2E       		.uleb128 0x2e
 10801 2390 01       		.uleb128 0x1
 10802 2391 52       		.byte	0x52
 10803 2392 01       		.uleb128 0x1
 10804 2393 31       		.byte	0x31
 10805 2394 00       		.byte	0
 10806 2395 2D       		.uleb128 0x2d
 10807 2396 52000000 		.4byte	.LVL787
 10808 239a F13C0000 		.4byte	0x3cf1
 10809 239e AF230000 		.4byte	0x23af
 10810 23a2 2E       		.uleb128 0x2e
 10811 23a3 01       		.uleb128 0x1
 10812 23a4 50       		.byte	0x50
 10813 23a5 02       		.uleb128 0x2
 10814 23a6 75       		.byte	0x75
 10815 23a7 00       		.sleb128 0
 10816 23a8 2E       		.uleb128 0x2e
 10817 23a9 01       		.uleb128 0x1
 10818 23aa 51       		.byte	0x51
 10819 23ab 02       		.uleb128 0x2
 10820 23ac 08       		.byte	0x8
 10821 23ad 4F       		.byte	0x4f
 10822 23ae 00       		.byte	0
 10823 23af 2D       		.uleb128 0x2d
 10824 23b0 62000000 		.4byte	.LVL789
 10825 23b4 F13C0000 		.4byte	0x3cf1
 10826 23b8 CF230000 		.4byte	0x23cf
 10827 23bc 2E       		.uleb128 0x2e
 10828 23bd 01       		.uleb128 0x1
 10829 23be 50       		.byte	0x50
 10830 23bf 02       		.uleb128 0x2
ARM GAS  C:\Users\mathi\AppData\Local\Temp\ccVwcWGw.s 			page 191


 10831 23c0 75       		.byte	0x75
 10832 23c1 00       		.sleb128 0
 10833 23c2 2E       		.uleb128 0x2e
 10834 23c3 01       		.uleb128 0x1
 10835 23c4 51       		.byte	0x51
 10836 23c5 02       		.uleb128 0x2
 10837 23c6 08       		.byte	0x8
 10838 23c7 4E       		.byte	0x4e
 10839 23c8 2E       		.uleb128 0x2e
 10840 23c9 01       		.uleb128 0x1
 10841 23ca 52       		.byte	0x52
 10842 23cb 02       		.uleb128 0x2
 10843 23cc 08       		.byte	0x8
 10844 23cd 2C       		.byte	0x2c
 10845 23ce 00       		.byte	0
 10846 23cf 2D       		.uleb128 0x2d
 10847 23d0 70000000 		.4byte	.LVL791
 10848 23d4 F13C0000 		.4byte	0x3cf1
 10849 23d8 E9230000 		.4byte	0x23e9
 10850 23dc 2E       		.uleb128 0x2e
 10851 23dd 01       		.uleb128 0x1
 10852 23de 50       		.byte	0x50
 10853 23df 02       		.uleb128 0x2
 10854 23e0 75       		.byte	0x75
 10855 23e1 00       		.sleb128 0
 10856 23e2 2E       		.uleb128 0x2e
 10857 23e3 01       		.uleb128 0x1
 10858 23e4 51       		.byte	0x51
 10859 23e5 02       		.uleb128 0x2
 10860 23e6 09       		.byte	0x9
 10861 23e7 FF       		.byte	0xff
 10862 23e8 00       		.byte	0
 10863 23e9 2D       		.uleb128 0x2d
 10864 23ea 80000000 		.4byte	.LVL793
 10865 23ee F13C0000 		.4byte	0x3cf1
 10866 23f2 09240000 		.4byte	0x2409
 10867 23f6 2E       		.uleb128 0x2e
 10868 23f7 01       		.uleb128 0x1
 10869 23f8 50       		.byte	0x50
 10870 23f9 02       		.uleb128 0x2
 10871 23fa 75       		.byte	0x75
 10872 23fb 00       		.sleb128 0
 10873 23fc 2E       		.uleb128 0x2e
 10874 23fd 01       		.uleb128 0x1
 10875 23fe 51       		.byte	0x51
 10876 23ff 02       		.uleb128 0x2
 10877 2400 09       		.byte	0x9
 10878 2401 B6       		.byte	0xb6
 10879 2402 2E       		.uleb128 0x2e
 10880 2403 01       		.uleb128 0x1
 10881 2404 52       		.byte	0x52
 10882 2405 02       		.uleb128 0x2
 10883 2406 09       		.byte	0x9
 10884 2407 B4       		.byte	0xb4
 10885 2408 00       		.byte	0
 10886 2409 2D       		.uleb128 0x2d
 10887 240a 8E000000 		.4byte	.LVL795
ARM GAS  C:\Users\mathi\AppData\Local\Temp\ccVwcWGw.s 			page 192


 10888 240e F13C0000 		.4byte	0x3cf1
 10889 2412 23240000 		.4byte	0x2423
 10890 2416 2E       		.uleb128 0x2e
 10891 2417 01       		.uleb128 0x1
 10892 2418 50       		.byte	0x50
 10893 2419 02       		.uleb128 0x2
 10894 241a 75       		.byte	0x75
 10895 241b 00       		.sleb128 0
 10896 241c 2E       		.uleb128 0x2e
 10897 241d 01       		.uleb128 0x1
 10898 241e 51       		.byte	0x51
 10899 241f 02       		.uleb128 0x2
 10900 2420 09       		.byte	0x9
 10901 2421 80       		.byte	0x80
 10902 2422 00       		.byte	0
 10903 2423 2D       		.uleb128 0x2d
 10904 2424 A2000000 		.4byte	.LVL797
 10905 2428 EF120000 		.4byte	0x12ef
 10906 242c 45240000 		.4byte	0x2445
 10907 2430 2E       		.uleb128 0x2e
 10908 2431 01       		.uleb128 0x1
 10909 2432 50       		.byte	0x50
 10910 2433 02       		.uleb128 0x2
 10911 2434 75       		.byte	0x75
 10912 2435 00       		.sleb128 0
 10913 2436 2E       		.uleb128 0x2e
 10914 2437 01       		.uleb128 0x1
 10915 2438 51       		.byte	0x51
 10916 2439 03       		.uleb128 0x3
 10917 243a 91       		.byte	0x91
 10918 243b A87F     		.sleb128 -88
 10919 243d 2E       		.uleb128 0x2e
 10920 243e 01       		.uleb128 0x1
 10921 243f 52       		.byte	0x52
 10922 2440 03       		.uleb128 0x3
 10923 2441 91       		.byte	0x91
 10924 2442 A97F     		.sleb128 -87
 10925 2444 00       		.byte	0
 10926 2445 2D       		.uleb128 0x2d
 10927 2446 CC000000 		.4byte	.LVL799
 10928 244a 342D0000 		.4byte	0x2d34
 10929 244e 74240000 		.4byte	0x2474
 10930 2452 2E       		.uleb128 0x2e
 10931 2453 01       		.uleb128 0x1
 10932 2454 50       		.byte	0x50
 10933 2455 02       		.uleb128 0x2
 10934 2456 75       		.byte	0x75
 10935 2457 00       		.sleb128 0
 10936 2458 2E       		.uleb128 0x2e
 10937 2459 01       		.uleb128 0x1
 10938 245a 52       		.byte	0x52
 10939 245b 04       		.uleb128 0x4
 10940 245c 91       		.byte	0x91
 10941 245d 987F     		.sleb128 -104
 10942 245f 06       		.byte	0x6
 10943 2460 2E       		.uleb128 0x2e
 10944 2461 01       		.uleb128 0x1
ARM GAS  C:\Users\mathi\AppData\Local\Temp\ccVwcWGw.s 			page 193


 10945 2462 53       		.byte	0x53
 10946 2463 02       		.uleb128 0x2
 10947 2464 76       		.byte	0x76
 10948 2465 00       		.sleb128 0
 10949 2466 2E       		.uleb128 0x2e
 10950 2467 02       		.uleb128 0x2
 10951 2468 7D       		.byte	0x7d
 10952 2469 04       		.sleb128 4
 10953 246a 01       		.uleb128 0x1
 10954 246b 33       		.byte	0x33
 10955 246c 2E       		.uleb128 0x2e
 10956 246d 02       		.uleb128 0x2
 10957 246e 7D       		.byte	0x7d
 10958 246f 08       		.sleb128 8
 10959 2470 02       		.uleb128 0x2
 10960 2471 77       		.byte	0x77
 10961 2472 00       		.sleb128 0
 10962 2473 00       		.byte	0
 10963 2474 2D       		.uleb128 0x2d
 10964 2475 8C010000 		.4byte	.LVL823
 10965 2479 342D0000 		.4byte	0x2d34
 10966 247d A9240000 		.4byte	0x24a9
 10967 2481 2E       		.uleb128 0x2e
 10968 2482 01       		.uleb128 0x1
 10969 2483 50       		.byte	0x50
 10970 2484 02       		.uleb128 0x2
 10971 2485 75       		.byte	0x75
 10972 2486 00       		.sleb128 0
 10973 2487 2E       		.uleb128 0x2e
 10974 2488 01       		.uleb128 0x1
 10975 2489 51       		.byte	0x51
 10976 248a 01       		.uleb128 0x1
 10977 248b 31       		.byte	0x31
 10978 248c 2E       		.uleb128 0x2e
 10979 248d 01       		.uleb128 0x1
 10980 248e 52       		.byte	0x52
 10981 248f 04       		.uleb128 0x4
 10982 2490 91       		.byte	0x91
 10983 2491 987F     		.sleb128 -104
 10984 2493 06       		.byte	0x6
 10985 2494 2E       		.uleb128 0x2e
 10986 2495 01       		.uleb128 0x1
 10987 2496 53       		.byte	0x53
 10988 2497 02       		.uleb128 0x2
 10989 2498 76       		.byte	0x76
 10990 2499 00       		.sleb128 0
 10991 249a 2E       		.uleb128 0x2e
 10992 249b 02       		.uleb128 0x2
 10993 249c 7D       		.byte	0x7d
 10994 249d 04       		.sleb128 4
 10995 249e 02       		.uleb128 0x2
 10996 249f 7B       		.byte	0x7b
 10997 24a0 00       		.sleb128 0
 10998 24a1 2E       		.uleb128 0x2e
 10999 24a2 02       		.uleb128 0x2
 11000 24a3 7D       		.byte	0x7d
 11001 24a4 08       		.sleb128 8
ARM GAS  C:\Users\mathi\AppData\Local\Temp\ccVwcWGw.s 			page 194


 11002 24a5 02       		.uleb128 0x2
 11003 24a6 77       		.byte	0x77
 11004 24a7 00       		.sleb128 0
 11005 24a8 00       		.byte	0
 11006 24a9 30       		.uleb128 0x30
 11007 24aa 4E040000 		.4byte	.LVL912
 11008 24ae 073D0000 		.4byte	0x3d07
 11009 24b2 00       		.byte	0
 11010 24b3 36       		.uleb128 0x36
 11011 24b4 E1100000 		.4byte	.LASF286
 11012 24b8 01       		.byte	0x1
 11013 24b9 7502     		.2byte	0x275
 11014 24bb 94010000 		.4byte	0x194
 11015 24bf 01       		.byte	0x1
 11016 24c0 01250000 		.4byte	0x2501
 11017 24c4 37       		.uleb128 0x37
 11018 24c5 44657600 		.ascii	"Dev\000"
 11019 24c9 01       		.byte	0x1
 11020 24ca 7502     		.2byte	0x275
 11021 24cc EB0E0000 		.4byte	0xeeb
 11022 24d0 38       		.uleb128 0x38
 11023 24d1 0B0F0000 		.4byte	.LASF287
 11024 24d5 01       		.byte	0x1
 11025 24d6 7602     		.2byte	0x276
 11026 24d8 01250000 		.4byte	0x2501
 11027 24dc 31       		.uleb128 0x31
 11028 24dd 120C0000 		.4byte	.LASF288
 11029 24e1 01       		.byte	0x1
 11030 24e2 7802     		.2byte	0x278
 11031 24e4 94010000 		.4byte	0x194
 11032 24e8 31       		.uleb128 0x31
 11033 24e9 2A170000 		.4byte	.LASF289
 11034 24ed 01       		.byte	0x1
 11035 24ee 7902     		.2byte	0x279
 11036 24f0 50030000 		.4byte	0x350
 11037 24f4 31       		.uleb128 0x31
 11038 24f5 76100000 		.4byte	.LASF103
 11039 24f9 01       		.byte	0x1
 11040 24fa 7B02     		.2byte	0x27b
 11041 24fc B8000000 		.4byte	0xb8
 11042 2500 00       		.byte	0
 11043 2501 0F       		.uleb128 0xf
 11044 2502 04       		.byte	0x4
 11045 2503 D3000000 		.4byte	0xd3
 11046 2507 36       		.uleb128 0x36
 11047 2508 C6100000 		.4byte	.LASF290
 11048 250c 01       		.byte	0x1
 11049 250d 2C02     		.2byte	0x22c
 11050 250f 94010000 		.4byte	0x194
 11051 2513 01       		.byte	0x1
 11052 2514 CB250000 		.4byte	0x25cb
 11053 2518 37       		.uleb128 0x37
 11054 2519 44657600 		.ascii	"Dev\000"
 11055 251d 01       		.byte	0x1
 11056 251e 2C02     		.2byte	0x22c
 11057 2520 EB0E0000 		.4byte	0xeeb
 11058 2524 38       		.uleb128 0x38
ARM GAS  C:\Users\mathi\AppData\Local\Temp\ccVwcWGw.s 			page 195


 11059 2525 7C0A0000 		.4byte	.LASF291
 11060 2529 01       		.byte	0x1
 11061 252a 2D02     		.2byte	0x22d
 11062 252c B8000000 		.4byte	0xb8
 11063 2530 38       		.uleb128 0x38
 11064 2531 B7170000 		.4byte	.LASF292
 11065 2535 01       		.byte	0x1
 11066 2536 2E02     		.2byte	0x22e
 11067 2538 7C060000 		.4byte	0x67c
 11068 253c 38       		.uleb128 0x38
 11069 253d 17040000 		.4byte	.LASF293
 11070 2541 01       		.byte	0x1
 11071 2542 2F02     		.2byte	0x22f
 11072 2544 7C060000 		.4byte	0x67c
 11073 2548 38       		.uleb128 0x38
 11074 2549 430E0000 		.4byte	.LASF294
 11075 254d 01       		.byte	0x1
 11076 254e 3002     		.2byte	0x230
 11077 2550 E9000000 		.4byte	0xe9
 11078 2554 38       		.uleb128 0x38
 11079 2555 EA0E0000 		.4byte	.LASF295
 11080 2559 01       		.byte	0x1
 11081 255a 3102     		.2byte	0x231
 11082 255c E9000000 		.4byte	0xe9
 11083 2560 38       		.uleb128 0x38
 11084 2561 89070000 		.4byte	.LASF296
 11085 2565 01       		.byte	0x1
 11086 2566 3202     		.2byte	0x232
 11087 2568 E9000000 		.4byte	0xe9
 11088 256c 38       		.uleb128 0x38
 11089 256d A2130000 		.4byte	.LASF297
 11090 2571 01       		.byte	0x1
 11091 2572 3302     		.2byte	0x233
 11092 2574 E9000000 		.4byte	0xe9
 11093 2578 38       		.uleb128 0x38
 11094 2579 12160000 		.4byte	.LASF298
 11095 257d 01       		.byte	0x1
 11096 257e 3402     		.2byte	0x234
 11097 2580 CD1B0000 		.4byte	0x1bcd
 11098 2584 31       		.uleb128 0x31
 11099 2585 120C0000 		.4byte	.LASF288
 11100 2589 01       		.byte	0x1
 11101 258a 3602     		.2byte	0x236
 11102 258c 94010000 		.4byte	0x194
 11103 2590 31       		.uleb128 0x31
 11104 2591 20020000 		.4byte	.LASF273
 11105 2595 01       		.byte	0x1
 11106 2596 3702     		.2byte	0x237
 11107 2598 E9000000 		.4byte	0xe9
 11108 259c 3D       		.uleb128 0x3d
 11109 259d 6900     		.ascii	"i\000"
 11110 259f 01       		.byte	0x1
 11111 25a0 3802     		.2byte	0x238
 11112 25a2 E9000000 		.4byte	0xe9
 11113 25a6 31       		.uleb128 0x31
 11114 25a7 84140000 		.4byte	.LASF278
 11115 25ab 01       		.byte	0x1
ARM GAS  C:\Users\mathi\AppData\Local\Temp\ccVwcWGw.s 			page 196


 11116 25ac 3902     		.2byte	0x239
 11117 25ae DE000000 		.4byte	0xde
 11118 25b2 31       		.uleb128 0x31
 11119 25b3 DA130000 		.4byte	.LASF299
 11120 25b7 01       		.byte	0x1
 11121 25b8 3A02     		.2byte	0x23a
 11122 25ba E9000000 		.4byte	0xe9
 11123 25be 31       		.uleb128 0x31
 11124 25bf 75140000 		.4byte	.LASF300
 11125 25c3 01       		.byte	0x1
 11126 25c4 3B02     		.2byte	0x23b
 11127 25c6 5C020000 		.4byte	0x25c
 11128 25ca 00       		.byte	0
 11129 25cb 36       		.uleb128 0x36
 11130 25cc CF0D0000 		.4byte	.LASF301
 11131 25d0 01       		.byte	0x1
 11132 25d1 2302     		.2byte	0x223
 11133 25d3 94010000 		.4byte	0x194
 11134 25d7 01       		.byte	0x1
 11135 25d8 01260000 		.4byte	0x2601
 11136 25dc 37       		.uleb128 0x37
 11137 25dd 44657600 		.ascii	"Dev\000"
 11138 25e1 01       		.byte	0x1
 11139 25e2 2302     		.2byte	0x223
 11140 25e4 EB0E0000 		.4byte	0xeeb
 11141 25e8 38       		.uleb128 0x38
 11142 25e9 A1140000 		.4byte	.LASF261
 11143 25ed 01       		.byte	0x1
 11144 25ee 2302     		.2byte	0x223
 11145 25f0 7C060000 		.4byte	0x67c
 11146 25f4 31       		.uleb128 0x31
 11147 25f5 120C0000 		.4byte	.LASF288
 11148 25f9 01       		.byte	0x1
 11149 25fa 2502     		.2byte	0x225
 11150 25fc 94010000 		.4byte	0x194
 11151 2600 00       		.byte	0
 11152 2601 36       		.uleb128 0x36
 11153 2602 00000000 		.4byte	.LASF302
 11154 2606 01       		.byte	0x1
 11155 2607 1B02     		.2byte	0x21b
 11156 2609 94010000 		.4byte	0x194
 11157 260d 01       		.byte	0x1
 11158 260e 37260000 		.4byte	0x2637
 11159 2612 37       		.uleb128 0x37
 11160 2613 44657600 		.ascii	"Dev\000"
 11161 2617 01       		.byte	0x1
 11162 2618 1B02     		.2byte	0x21b
 11163 261a EB0E0000 		.4byte	0xeeb
 11164 261e 38       		.uleb128 0x38
 11165 261f A1140000 		.4byte	.LASF261
 11166 2623 01       		.byte	0x1
 11167 2624 1B02     		.2byte	0x21b
 11168 2626 7C060000 		.4byte	0x67c
 11169 262a 31       		.uleb128 0x31
 11170 262b 120C0000 		.4byte	.LASF288
 11171 262f 01       		.byte	0x1
 11172 2630 1D02     		.2byte	0x21d
ARM GAS  C:\Users\mathi\AppData\Local\Temp\ccVwcWGw.s 			page 197


 11173 2632 94010000 		.4byte	0x194
 11174 2636 00       		.byte	0
 11175 2637 36       		.uleb128 0x36
 11176 2638 B2020000 		.4byte	.LASF303
 11177 263c 01       		.byte	0x1
 11178 263d E101     		.2byte	0x1e1
 11179 263f 94010000 		.4byte	0x194
 11180 2643 01       		.byte	0x1
 11181 2644 E5260000 		.4byte	0x26e5
 11182 2648 38       		.uleb128 0x38
 11183 2649 17040000 		.4byte	.LASF293
 11184 264d 01       		.byte	0x1
 11185 264e E101     		.2byte	0x1e1
 11186 2650 7C060000 		.4byte	0x67c
 11187 2654 38       		.uleb128 0x38
 11188 2655 6C070000 		.4byte	.LASF304
 11189 2659 01       		.byte	0x1
 11190 265a E201     		.2byte	0x1e2
 11191 265c E9000000 		.4byte	0xe9
 11192 2660 38       		.uleb128 0x38
 11193 2661 CD090000 		.4byte	.LASF305
 11194 2665 01       		.byte	0x1
 11195 2666 E201     		.2byte	0x1e2
 11196 2668 E9000000 		.4byte	0xe9
 11197 266c 38       		.uleb128 0x38
 11198 266d 6E130000 		.4byte	.LASF306
 11199 2671 01       		.byte	0x1
 11200 2672 E301     		.2byte	0x1e3
 11201 2674 CD1B0000 		.4byte	0x1bcd
 11202 2678 38       		.uleb128 0x38
 11203 2679 AF030000 		.4byte	.LASF307
 11204 267d 01       		.byte	0x1
 11205 267e E301     		.2byte	0x1e3
 11206 2680 7C060000 		.4byte	0x67c
 11207 2684 31       		.uleb128 0x31
 11208 2685 120C0000 		.4byte	.LASF288
 11209 2689 01       		.byte	0x1
 11210 268a E501     		.2byte	0x1e5
 11211 268c 94010000 		.4byte	0x194
 11212 2690 31       		.uleb128 0x31
 11213 2691 76060000 		.4byte	.LASF308
 11214 2695 01       		.byte	0x1
 11215 2696 E601     		.2byte	0x1e6
 11216 2698 E9000000 		.4byte	0xe9
 11217 269c 31       		.uleb128 0x31
 11218 269d 00110000 		.4byte	.LASF309
 11219 26a1 01       		.byte	0x1
 11220 26a2 E701     		.2byte	0x1e7
 11221 26a4 E9000000 		.4byte	0xe9
 11222 26a8 31       		.uleb128 0x31
 11223 26a9 4B0C0000 		.4byte	.LASF310
 11224 26ad 01       		.byte	0x1
 11225 26ae E801     		.2byte	0x1e8
 11226 26b0 E9000000 		.4byte	0xe9
 11227 26b4 31       		.uleb128 0x31
 11228 26b5 76070000 		.4byte	.LASF311
 11229 26b9 01       		.byte	0x1
ARM GAS  C:\Users\mathi\AppData\Local\Temp\ccVwcWGw.s 			page 198


 11230 26ba E901     		.2byte	0x1e9
 11231 26bc E9000000 		.4byte	0xe9
 11232 26c0 31       		.uleb128 0x31
 11233 26c1 5B060000 		.4byte	.LASF312
 11234 26c5 01       		.byte	0x1
 11235 26c6 EA01     		.2byte	0x1ea
 11236 26c8 E9000000 		.4byte	0xe9
 11237 26cc 31       		.uleb128 0x31
 11238 26cd F50B0000 		.4byte	.LASF313
 11239 26d1 01       		.byte	0x1
 11240 26d2 EB01     		.2byte	0x1eb
 11241 26d4 B8000000 		.4byte	0xb8
 11242 26d8 31       		.uleb128 0x31
 11243 26d9 FD0C0000 		.4byte	.LASF314
 11244 26dd 01       		.byte	0x1
 11245 26de EC01     		.2byte	0x1ec
 11246 26e0 B8000000 		.4byte	0xb8
 11247 26e4 00       		.byte	0
 11248 26e5 36       		.uleb128 0x36
 11249 26e6 22060000 		.4byte	.LASF315
 11250 26ea 01       		.byte	0x1
 11251 26eb CF01     		.2byte	0x1cf
 11252 26ed 94010000 		.4byte	0x194
 11253 26f1 01       		.byte	0x1
 11254 26f2 4B270000 		.4byte	0x274b
 11255 26f6 38       		.uleb128 0x38
 11256 26f7 17040000 		.4byte	.LASF293
 11257 26fb 01       		.byte	0x1
 11258 26fc CF01     		.2byte	0x1cf
 11259 26fe 7C060000 		.4byte	0x67c
 11260 2702 38       		.uleb128 0x38
 11261 2703 430E0000 		.4byte	.LASF294
 11262 2707 01       		.byte	0x1
 11263 2708 CF01     		.2byte	0x1cf
 11264 270a E9000000 		.4byte	0xe9
 11265 270e 38       		.uleb128 0x38
 11266 270f AC130000 		.4byte	.LASF316
 11267 2713 01       		.byte	0x1
 11268 2714 D001     		.2byte	0x1d0
 11269 2716 E9000000 		.4byte	0xe9
 11270 271a 31       		.uleb128 0x31
 11271 271b 120C0000 		.4byte	.LASF288
 11272 271f 01       		.byte	0x1
 11273 2720 D201     		.2byte	0x1d2
 11274 2722 94010000 		.4byte	0x194
 11275 2726 31       		.uleb128 0x31
 11276 2727 76060000 		.4byte	.LASF308
 11277 272b 01       		.byte	0x1
 11278 272c D301     		.2byte	0x1d3
 11279 272e E9000000 		.4byte	0xe9
 11280 2732 31       		.uleb128 0x31
 11281 2733 23160000 		.4byte	.LASF317
 11282 2737 01       		.byte	0x1
 11283 2738 D401     		.2byte	0x1d4
 11284 273a E9000000 		.4byte	0xe9
 11285 273e 31       		.uleb128 0x31
 11286 273f 7E090000 		.4byte	.LASF318
ARM GAS  C:\Users\mathi\AppData\Local\Temp\ccVwcWGw.s 			page 199


 11287 2743 01       		.byte	0x1
 11288 2744 D501     		.2byte	0x1d5
 11289 2746 E9000000 		.4byte	0xe9
 11290 274a 00       		.byte	0
 11291 274b 36       		.uleb128 0x36
 11292 274c 97060000 		.4byte	.LASF319
 11293 2750 01       		.byte	0x1
 11294 2751 BF01     		.2byte	0x1bf
 11295 2753 B8000000 		.4byte	0xb8
 11296 2757 01       		.byte	0x1
 11297 2758 81270000 		.4byte	0x2781
 11298 275c 38       		.uleb128 0x38
 11299 275d AC130000 		.4byte	.LASF316
 11300 2761 01       		.byte	0x1
 11301 2762 BF01     		.2byte	0x1bf
 11302 2764 E9000000 		.4byte	0xe9
 11303 2768 31       		.uleb128 0x31
 11304 2769 1D030000 		.4byte	.LASF320
 11305 276d 01       		.byte	0x1
 11306 276e C501     		.2byte	0x1c5
 11307 2770 E9000000 		.4byte	0xe9
 11308 2774 31       		.uleb128 0x31
 11309 2775 100D0000 		.4byte	.LASF321
 11310 2779 01       		.byte	0x1
 11311 277a C601     		.2byte	0x1c6
 11312 277c B8000000 		.4byte	0xb8
 11313 2780 00       		.byte	0
 11314 2781 3E       		.uleb128 0x3e
 11315 2782 78080000 		.4byte	.LASF385
 11316 2786 01       		.byte	0x1
 11317 2787 8E01     		.2byte	0x18e
 11318 2789 01       		.byte	0x1
 11319 278a 13280000 		.4byte	0x2813
 11320 278e 38       		.uleb128 0x38
 11321 278f B7170000 		.4byte	.LASF292
 11322 2793 01       		.byte	0x1
 11323 2794 8E01     		.2byte	0x18e
 11324 2796 7C060000 		.4byte	0x67c
 11325 279a 38       		.uleb128 0x38
 11326 279b 430E0000 		.4byte	.LASF294
 11327 279f 01       		.byte	0x1
 11328 27a0 8E01     		.2byte	0x18e
 11329 27a2 E9000000 		.4byte	0xe9
 11330 27a6 38       		.uleb128 0x38
 11331 27a7 09110000 		.4byte	.LASF322
 11332 27ab 01       		.byte	0x1
 11333 27ac 8F01     		.2byte	0x18f
 11334 27ae E9000000 		.4byte	0xe9
 11335 27b2 38       		.uleb128 0x38
 11336 27b3 C2010000 		.4byte	.LASF323
 11337 27b7 01       		.byte	0x1
 11338 27b8 8F01     		.2byte	0x18f
 11339 27ba 13280000 		.4byte	0x2813
 11340 27be 31       		.uleb128 0x31
 11341 27bf 8C060000 		.4byte	.LASF324
 11342 27c3 01       		.byte	0x1
 11343 27c4 9101     		.2byte	0x191
ARM GAS  C:\Users\mathi\AppData\Local\Temp\ccVwcWGw.s 			page 200


 11344 27c6 E9000000 		.4byte	0xe9
 11345 27ca 31       		.uleb128 0x31
 11346 27cb 32060000 		.4byte	.LASF325
 11347 27cf 01       		.byte	0x1
 11348 27d0 9201     		.2byte	0x192
 11349 27d2 E9000000 		.4byte	0xe9
 11350 27d6 31       		.uleb128 0x31
 11351 27d7 76060000 		.4byte	.LASF308
 11352 27db 01       		.byte	0x1
 11353 27dc 9301     		.2byte	0x193
 11354 27de E9000000 		.4byte	0xe9
 11355 27e2 31       		.uleb128 0x31
 11356 27e3 23160000 		.4byte	.LASF317
 11357 27e7 01       		.byte	0x1
 11358 27e8 9401     		.2byte	0x194
 11359 27ea E9000000 		.4byte	0xe9
 11360 27ee 31       		.uleb128 0x31
 11361 27ef 7E090000 		.4byte	.LASF318
 11362 27f3 01       		.byte	0x1
 11363 27f4 9501     		.2byte	0x195
 11364 27f6 E9000000 		.4byte	0xe9
 11365 27fa 31       		.uleb128 0x31
 11366 27fb F3000000 		.4byte	.LASF326
 11367 27ff 01       		.byte	0x1
 11368 2800 9601     		.2byte	0x196
 11369 2802 B8000000 		.4byte	0xb8
 11370 2806 31       		.uleb128 0x31
 11371 2807 330C0000 		.4byte	.LASF327
 11372 280b 01       		.byte	0x1
 11373 280c 9701     		.2byte	0x197
 11374 280e B8000000 		.4byte	0xb8
 11375 2812 00       		.byte	0
 11376 2813 0F       		.uleb128 0xf
 11377 2814 04       		.byte	0x4
 11378 2815 DE000000 		.4byte	0xde
 11379 2819 24       		.uleb128 0x24
 11380 281a F7080000 		.4byte	.LASF328
 11381 281e 01       		.byte	0x1
 11382 281f 6601     		.2byte	0x166
 11383 2821 94010000 		.4byte	0x194
 11384 2825 00000000 		.4byte	.LFB7
 11385 2829 4C000000 		.4byte	.LFE7-.LFB7
 11386 282d 01       		.uleb128 0x1
 11387 282e 9C       		.byte	0x9c
 11388 282f C9280000 		.4byte	0x28c9
 11389 2833 25       		.uleb128 0x25
 11390 2834 44657600 		.ascii	"Dev\000"
 11391 2838 01       		.byte	0x1
 11392 2839 6601     		.2byte	0x166
 11393 283b EB0E0000 		.4byte	0xeeb
 11394 283f C0110000 		.4byte	.LLST66
 11395 2843 27       		.uleb128 0x27
 11396 2844 C7010000 		.4byte	.LASF238
 11397 2848 01       		.byte	0x1
 11398 2849 6801     		.2byte	0x168
 11399 284b 94010000 		.4byte	0x194
 11400 284f DE110000 		.4byte	.LLST67
ARM GAS  C:\Users\mathi\AppData\Local\Temp\ccVwcWGw.s 			page 201


 11401 2853 27       		.uleb128 0x27
 11402 2854 F00E0000 		.4byte	.LASF329
 11403 2858 01       		.byte	0x1
 11404 2859 6901     		.2byte	0x169
 11405 285b DE000000 		.4byte	0xde
 11406 285f 13120000 		.4byte	.LLST68
 11407 2863 32       		.uleb128 0x32
 11408 2864 80110000 		.4byte	.LASF330
 11409 2868 01       		.byte	0x1
 11410 2869 6A01     		.2byte	0x16a
 11411 286b DE000000 		.4byte	0xde
 11412 286f 02       		.uleb128 0x2
 11413 2870 91       		.byte	0x91
 11414 2871 68       		.sleb128 -24
 11415 2872 2D       		.uleb128 0x2d
 11416 2873 12000000 		.4byte	.LVL155
 11417 2877 5F3D0000 		.4byte	0x3d5f
 11418 287b 8B280000 		.4byte	0x288b
 11419 287f 2E       		.uleb128 0x2e
 11420 2880 01       		.uleb128 0x1
 11421 2881 50       		.byte	0x50
 11422 2882 02       		.uleb128 0x2
 11423 2883 75       		.byte	0x75
 11424 2884 00       		.sleb128 0
 11425 2885 2E       		.uleb128 0x2e
 11426 2886 01       		.uleb128 0x1
 11427 2887 51       		.byte	0x51
 11428 2888 01       		.uleb128 0x1
 11429 2889 37       		.byte	0x37
 11430 288a 00       		.byte	0
 11431 288b 2D       		.uleb128 0x2d
 11432 288c 28000000 		.4byte	.LVL158
 11433 2890 6A3D0000 		.4byte	0x3d6a
 11434 2894 A5280000 		.4byte	0x28a5
 11435 2898 2E       		.uleb128 0x2e
 11436 2899 01       		.uleb128 0x1
 11437 289a 50       		.byte	0x50
 11438 289b 02       		.uleb128 0x2
 11439 289c 75       		.byte	0x75
 11440 289d 00       		.sleb128 0
 11441 289e 2E       		.uleb128 0x2e
 11442 289f 01       		.uleb128 0x1
 11443 28a0 51       		.byte	0x51
 11444 28a1 02       		.uleb128 0x2
 11445 28a2 7D       		.byte	0x7d
 11446 28a3 00       		.sleb128 0
 11447 28a4 00       		.byte	0
 11448 28a5 2D       		.uleb128 0x2d
 11449 28a6 3C000000 		.4byte	.LVL161
 11450 28aa 763D0000 		.4byte	0x3d76
 11451 28ae BF280000 		.4byte	0x28bf
 11452 28b2 2E       		.uleb128 0x2e
 11453 28b3 01       		.uleb128 0x1
 11454 28b4 50       		.byte	0x50
 11455 28b5 02       		.uleb128 0x2
 11456 28b6 75       		.byte	0x75
 11457 28b7 00       		.sleb128 0
ARM GAS  C:\Users\mathi\AppData\Local\Temp\ccVwcWGw.s 			page 202


 11458 28b8 2E       		.uleb128 0x2e
 11459 28b9 01       		.uleb128 0x1
 11460 28ba 51       		.byte	0x51
 11461 28bb 02       		.uleb128 0x2
 11462 28bc 76       		.byte	0x76
 11463 28bd 00       		.sleb128 0
 11464 28be 00       		.byte	0
 11465 28bf 30       		.uleb128 0x30
 11466 28c0 48000000 		.4byte	.LVL163
 11467 28c4 073D0000 		.4byte	0x3d07
 11468 28c8 00       		.byte	0
 11469 28c9 24       		.uleb128 0x24
 11470 28ca 890E0000 		.4byte	.LASF331
 11471 28ce 01       		.byte	0x1
 11472 28cf 4601     		.2byte	0x146
 11473 28d1 94010000 		.4byte	0x194
 11474 28d5 00000000 		.4byte	.LFB6
 11475 28d9 54000000 		.4byte	.LFE6-.LFB6
 11476 28dd 01       		.uleb128 0x1
 11477 28de 9C       		.byte	0x9c
 11478 28df 6A290000 		.4byte	0x296a
 11479 28e3 25       		.uleb128 0x25
 11480 28e4 44657600 		.ascii	"Dev\000"
 11481 28e8 01       		.byte	0x1
 11482 28e9 4601     		.2byte	0x146
 11483 28eb EB0E0000 		.4byte	0xeeb
 11484 28ef 26120000 		.4byte	.LLST62
 11485 28f3 26       		.uleb128 0x26
 11486 28f4 C8150000 		.4byte	.LASF332
 11487 28f8 01       		.byte	0x1
 11488 28f9 4701     		.2byte	0x147
 11489 28fb 13280000 		.4byte	0x2813
 11490 28ff 47120000 		.4byte	.LLST63
 11491 2903 27       		.uleb128 0x27
 11492 2904 C7010000 		.4byte	.LASF238
 11493 2908 01       		.byte	0x1
 11494 2909 4901     		.2byte	0x149
 11495 290b 94010000 		.4byte	0x194
 11496 290f 65120000 		.4byte	.LLST64
 11497 2913 27       		.uleb128 0x27
 11498 2914 1B0D0000 		.4byte	.LASF333
 11499 2918 01       		.byte	0x1
 11500 2919 4A01     		.2byte	0x14a
 11501 291b D3000000 		.4byte	0xd3
 11502 291f 84120000 		.4byte	.LLST65
 11503 2923 3F       		.uleb128 0x3f
 11504 2924 96000000 		.4byte	.LASF334
 11505 2928 01       		.byte	0x1
 11506 2929 4B01     		.2byte	0x14b
 11507 292b C8000000 		.4byte	0xc8
 11508 292f FF07     		.2byte	0x7ff
 11509 2931 3F       		.uleb128 0x3f
 11510 2932 05160000 		.4byte	.LASF335
 11511 2936 01       		.byte	0x1
 11512 2937 4C01     		.2byte	0x14c
 11513 2939 C8000000 		.4byte	0xc8
 11514 293d 0010     		.2byte	0x1000
ARM GAS  C:\Users\mathi\AppData\Local\Temp\ccVwcWGw.s 			page 203


 11515 293f 2D       		.uleb128 0x2d
 11516 2940 16000000 		.4byte	.LVL144
 11517 2944 493D0000 		.4byte	0x3d49
 11518 2948 60290000 		.4byte	0x2960
 11519 294c 2E       		.uleb128 0x2e
 11520 294d 01       		.uleb128 0x1
 11521 294e 50       		.byte	0x50
 11522 294f 03       		.uleb128 0x3
 11523 2950 F3       		.byte	0xf3
 11524 2951 01       		.uleb128 0x1
 11525 2952 50       		.byte	0x50
 11526 2953 2E       		.uleb128 0x2e
 11527 2954 01       		.uleb128 0x1
 11528 2955 51       		.byte	0x51
 11529 2956 02       		.uleb128 0x2
 11530 2957 08       		.byte	0x8
 11531 2958 28       		.byte	0x28
 11532 2959 2E       		.uleb128 0x2e
 11533 295a 01       		.uleb128 0x1
 11534 295b 52       		.byte	0x52
 11535 295c 02       		.uleb128 0x2
 11536 295d 91       		.byte	0x91
 11537 295e 6A       		.sleb128 -22
 11538 295f 00       		.byte	0
 11539 2960 30       		.uleb128 0x30
 11540 2961 50000000 		.4byte	.LVL152
 11541 2965 073D0000 		.4byte	0x3d07
 11542 2969 00       		.byte	0
 11543 296a 24       		.uleb128 0x24
 11544 296b D3020000 		.4byte	.LASF336
 11545 296f 01       		.byte	0x1
 11546 2970 2101     		.2byte	0x121
 11547 2972 94010000 		.4byte	0x194
 11548 2976 00000000 		.4byte	.LFB5
 11549 297a 5C000000 		.4byte	.LFE5-.LFB5
 11550 297e 01       		.uleb128 0x1
 11551 297f 9C       		.byte	0x9c
 11552 2980 082A0000 		.4byte	0x2a08
 11553 2984 25       		.uleb128 0x25
 11554 2985 44657600 		.ascii	"Dev\000"
 11555 2989 01       		.byte	0x1
 11556 298a 2101     		.2byte	0x121
 11557 298c EB0E0000 		.4byte	0xeeb
 11558 2990 E2120000 		.4byte	.LLST60
 11559 2994 26       		.uleb128 0x26
 11560 2995 630C0000 		.4byte	.LASF337
 11561 2999 01       		.byte	0x1
 11562 299a 2201     		.2byte	0x122
 11563 299c DE000000 		.4byte	0xde
 11564 29a0 1C130000 		.4byte	.LLST61
 11565 29a4 28       		.uleb128 0x28
 11566 29a5 C7010000 		.4byte	.LASF238
 11567 29a9 01       		.byte	0x1
 11568 29aa 2401     		.2byte	0x124
 11569 29ac 94010000 		.4byte	0x194
 11570 29b0 00       		.byte	0
 11571 29b1 40       		.uleb128 0x40
ARM GAS  C:\Users\mathi\AppData\Local\Temp\ccVwcWGw.s 			page 204


 11572 29b2 570E0000 		.4byte	.LASF338
 11573 29b6 01       		.byte	0x1
 11574 29b7 2501     		.2byte	0x125
 11575 29b9 DE000000 		.4byte	0xde
 11576 29bd 18CC0700 		.4byte	0x7cc18
 11577 29c1 3B       		.uleb128 0x3b
 11578 29c2 830C0000 		.4byte	.LASF339
 11579 29c6 01       		.byte	0x1
 11580 29c7 2601     		.2byte	0x126
 11581 29c9 DE000000 		.4byte	0xde
 11582 29cd 80E060   		.sleb128 -512000
 11583 29d0 3F       		.uleb128 0x3f
 11584 29d1 05160000 		.4byte	.LASF335
 11585 29d5 01       		.byte	0x1
 11586 29d6 2701     		.2byte	0x127
 11587 29d8 C8000000 		.4byte	0xc8
 11588 29dc 0010     		.2byte	0x1000
 11589 29de 31       		.uleb128 0x31
 11590 29df A00A0000 		.4byte	.LASF340
 11591 29e3 01       		.byte	0x1
 11592 29e4 2801     		.2byte	0x128
 11593 29e6 E9000000 		.4byte	0xe9
 11594 29ea 41       		.uleb128 0x41
 11595 29eb 40000000 		.4byte	.LVL137
 11596 29ef 813D0000 		.4byte	0x3d81
 11597 29f3 FE290000 		.4byte	0x29fe
 11598 29f7 2E       		.uleb128 0x2e
 11599 29f8 01       		.uleb128 0x1
 11600 29f9 51       		.byte	0x51
 11601 29fa 02       		.uleb128 0x2
 11602 29fb 08       		.byte	0x8
 11603 29fc 28       		.byte	0x28
 11604 29fd 00       		.byte	0
 11605 29fe 30       		.uleb128 0x30
 11606 29ff 50000000 		.4byte	.LVL140
 11607 2a03 073D0000 		.4byte	0x3d07
 11608 2a07 00       		.byte	0
 11609 2a08 42       		.uleb128 0x42
 11610 2a09 4B010000 		.4byte	.LASF341
 11611 2a0d 01       		.byte	0x1
 11612 2a0e BE       		.byte	0xbe
 11613 2a0f 94010000 		.4byte	0x194
 11614 2a13 00000000 		.4byte	.LFB4
 11615 2a17 E8000000 		.4byte	.LFE4-.LFB4
 11616 2a1b 01       		.uleb128 0x1
 11617 2a1c 9C       		.byte	0x9c
 11618 2a1d 8C2B0000 		.4byte	0x2b8c
 11619 2a21 43       		.uleb128 0x43
 11620 2a22 44657600 		.ascii	"Dev\000"
 11621 2a26 01       		.byte	0x1
 11622 2a27 BE       		.byte	0xbe
 11623 2a28 EB0E0000 		.4byte	0xeeb
 11624 2a2c 56130000 		.4byte	.LLST50
 11625 2a30 44       		.uleb128 0x44
 11626 2a31 73030000 		.4byte	.LASF342
 11627 2a35 01       		.byte	0x1
 11628 2a36 BF       		.byte	0xbf
ARM GAS  C:\Users\mathi\AppData\Local\Temp\ccVwcWGw.s 			page 205


 11629 2a37 FB000000 		.4byte	0xfb
 11630 2a3b 9B130000 		.4byte	.LLST51
 11631 2a3f 44       		.uleb128 0x44
 11632 2a40 59020000 		.4byte	.LASF343
 11633 2a44 01       		.byte	0x1
 11634 2a45 C0       		.byte	0xc0
 11635 2a46 13280000 		.4byte	0x2813
 11636 2a4a F9130000 		.4byte	.LLST52
 11637 2a4e 45       		.uleb128 0x45
 11638 2a4f C7010000 		.4byte	.LASF238
 11639 2a53 01       		.byte	0x1
 11640 2a54 C2       		.byte	0xc2
 11641 2a55 94010000 		.4byte	0x194
 11642 2a59 3E140000 		.4byte	.LLST53
 11643 2a5d 45       		.uleb128 0x45
 11644 2a5e 99110000 		.4byte	.LASF344
 11645 2a62 01       		.byte	0x1
 11646 2a63 C3       		.byte	0xc3
 11647 2a64 D3000000 		.4byte	0xd3
 11648 2a68 E5140000 		.4byte	.LLST54
 11649 2a6c 45       		.uleb128 0x45
 11650 2a6d E60D0000 		.4byte	.LASF345
 11651 2a71 01       		.byte	0x1
 11652 2a72 C4       		.byte	0xc4
 11653 2a73 FB000000 		.4byte	0xfb
 11654 2a77 10150000 		.4byte	.LLST55
 11655 2a7b 46       		.uleb128 0x46
 11656 2a7c A90D0000 		.4byte	.LASF346
 11657 2a80 01       		.byte	0x1
 11658 2a81 C5       		.byte	0xc5
 11659 2a82 50030000 		.4byte	0x350
 11660 2a86 02       		.uleb128 0x2
 11661 2a87 91       		.byte	0x91
 11662 2a88 40       		.sleb128 -64
 11663 2a89 45       		.uleb128 0x45
 11664 2a8a E4070000 		.4byte	.LASF347
 11665 2a8e 01       		.byte	0x1
 11666 2a8f C6       		.byte	0xc6
 11667 2a90 FB000000 		.4byte	0xfb
 11668 2a94 53150000 		.4byte	.LLST56
 11669 2a98 45       		.uleb128 0x45
 11670 2a99 8B080000 		.4byte	.LASF348
 11671 2a9d 01       		.byte	0x1
 11672 2a9e C7       		.byte	0xc7
 11673 2a9f E9000000 		.4byte	0xe9
 11674 2aa3 77150000 		.4byte	.LLST57
 11675 2aa7 45       		.uleb128 0x45
 11676 2aa8 FC0D0000 		.4byte	.LASF349
 11677 2aac 01       		.byte	0x1
 11678 2aad C8       		.byte	0xc8
 11679 2aae E9000000 		.4byte	0xe9
 11680 2ab2 A1150000 		.4byte	.LLST58
 11681 2ab6 46       		.uleb128 0x46
 11682 2ab7 78050000 		.4byte	.LASF350
 11683 2abb 01       		.byte	0x1
 11684 2abc C9       		.byte	0xc9
 11685 2abd B8000000 		.4byte	0xb8
ARM GAS  C:\Users\mathi\AppData\Local\Temp\ccVwcWGw.s 			page 206


 11686 2ac1 03       		.uleb128 0x3
 11687 2ac2 91       		.byte	0x91
 11688 2ac3 BF7F     		.sleb128 -65
 11689 2ac5 45       		.uleb128 0x45
 11690 2ac6 41170000 		.4byte	.LASF351
 11691 2aca 01       		.byte	0x1
 11692 2acb CA       		.byte	0xca
 11693 2acc A6000000 		.4byte	0xa6
 11694 2ad0 DD150000 		.4byte	.LLST59
 11695 2ad4 2D       		.uleb128 0x2d
 11696 2ad5 2C000000 		.4byte	.LVL111
 11697 2ad9 763D0000 		.4byte	0x3d76
 11698 2add ED2A0000 		.4byte	0x2aed
 11699 2ae1 2E       		.uleb128 0x2e
 11700 2ae2 01       		.uleb128 0x1
 11701 2ae3 50       		.byte	0x50
 11702 2ae4 02       		.uleb128 0x2
 11703 2ae5 75       		.byte	0x75
 11704 2ae6 00       		.sleb128 0
 11705 2ae7 2E       		.uleb128 0x2e
 11706 2ae8 01       		.uleb128 0x1
 11707 2ae9 51       		.byte	0x51
 11708 2aea 01       		.uleb128 0x1
 11709 2aeb 30       		.byte	0x30
 11710 2aec 00       		.byte	0
 11711 2aed 2D       		.uleb128 0x2d
 11712 2aee 3C000000 		.4byte	.LVL113
 11713 2af2 8C3D0000 		.4byte	0x3d8c
 11714 2af6 082B0000 		.4byte	0x2b08
 11715 2afa 2E       		.uleb128 0x2e
 11716 2afb 01       		.uleb128 0x1
 11717 2afc 50       		.byte	0x50
 11718 2afd 02       		.uleb128 0x2
 11719 2afe 75       		.byte	0x75
 11720 2aff 00       		.sleb128 0
 11721 2b00 2E       		.uleb128 0x2e
 11722 2b01 01       		.uleb128 0x1
 11723 2b02 52       		.byte	0x52
 11724 2b03 03       		.uleb128 0x3
 11725 2b04 91       		.byte	0x91
 11726 2b05 BF7F     		.sleb128 -65
 11727 2b07 00       		.byte	0
 11728 2b08 2D       		.uleb128 0x2d
 11729 2b09 4A000000 		.4byte	.LVL115
 11730 2b0d 983D0000 		.4byte	0x3d98
 11731 2b11 1C2B0000 		.4byte	0x2b1c
 11732 2b15 2E       		.uleb128 0x2e
 11733 2b16 01       		.uleb128 0x1
 11734 2b17 50       		.byte	0x50
 11735 2b18 02       		.uleb128 0x2
 11736 2b19 75       		.byte	0x75
 11737 2b1a 00       		.sleb128 0
 11738 2b1b 00       		.byte	0
 11739 2b1c 2D       		.uleb128 0x2d
 11740 2b1d 58000000 		.4byte	.LVL117
 11741 2b21 A43D0000 		.4byte	0x3da4
 11742 2b25 352B0000 		.4byte	0x2b35
ARM GAS  C:\Users\mathi\AppData\Local\Temp\ccVwcWGw.s 			page 207


 11743 2b29 2E       		.uleb128 0x2e
 11744 2b2a 01       		.uleb128 0x1
 11745 2b2b 50       		.byte	0x50
 11746 2b2c 02       		.uleb128 0x2
 11747 2b2d 75       		.byte	0x75
 11748 2b2e 00       		.sleb128 0
 11749 2b2f 2E       		.uleb128 0x2e
 11750 2b30 01       		.uleb128 0x1
 11751 2b31 51       		.byte	0x51
 11752 2b32 01       		.uleb128 0x1
 11753 2b33 33       		.byte	0x33
 11754 2b34 00       		.byte	0
 11755 2b35 2D       		.uleb128 0x2d
 11756 2b36 82000000 		.4byte	.LVL122
 11757 2b3a 3D3D0000 		.4byte	0x3d3d
 11758 2b3e 4F2B0000 		.4byte	0x2b4f
 11759 2b42 2E       		.uleb128 0x2e
 11760 2b43 01       		.uleb128 0x1
 11761 2b44 50       		.byte	0x50
 11762 2b45 02       		.uleb128 0x2
 11763 2b46 75       		.byte	0x75
 11764 2b47 00       		.sleb128 0
 11765 2b48 2E       		.uleb128 0x2e
 11766 2b49 01       		.uleb128 0x1
 11767 2b4a 51       		.byte	0x51
 11768 2b4b 02       		.uleb128 0x2
 11769 2b4c 91       		.byte	0x91
 11770 2b4d 40       		.sleb128 -64
 11771 2b4e 00       		.byte	0
 11772 2b4f 2D       		.uleb128 0x2d
 11773 2b50 C0000000 		.4byte	.LVL128
 11774 2b54 763D0000 		.4byte	0x3d76
 11775 2b58 632B0000 		.4byte	0x2b63
 11776 2b5c 2E       		.uleb128 0x2e
 11777 2b5d 01       		.uleb128 0x1
 11778 2b5e 50       		.byte	0x50
 11779 2b5f 02       		.uleb128 0x2
 11780 2b60 75       		.byte	0x75
 11781 2b61 00       		.sleb128 0
 11782 2b62 00       		.byte	0
 11783 2b63 2D       		.uleb128 0x2d
 11784 2b64 D6000000 		.4byte	.LVL130
 11785 2b68 983D0000 		.4byte	0x3d98
 11786 2b6c 822B0000 		.4byte	0x2b82
 11787 2b70 2E       		.uleb128 0x2e
 11788 2b71 01       		.uleb128 0x1
 11789 2b72 50       		.byte	0x50
 11790 2b73 02       		.uleb128 0x2
 11791 2b74 75       		.byte	0x75
 11792 2b75 00       		.sleb128 0
 11793 2b76 2E       		.uleb128 0x2e
 11794 2b77 01       		.uleb128 0x1
 11795 2b78 51       		.byte	0x51
 11796 2b79 02       		.uleb128 0x2
 11797 2b7a 74       		.byte	0x74
 11798 2b7b 00       		.sleb128 0
 11799 2b7c 2E       		.uleb128 0x2e
ARM GAS  C:\Users\mathi\AppData\Local\Temp\ccVwcWGw.s 			page 208


 11800 2b7d 01       		.uleb128 0x1
 11801 2b7e 52       		.byte	0x52
 11802 2b7f 01       		.uleb128 0x1
 11803 2b80 31       		.byte	0x31
 11804 2b81 00       		.byte	0
 11805 2b82 30       		.uleb128 0x30
 11806 2b83 E2000000 		.4byte	.LVL133
 11807 2b87 073D0000 		.4byte	0x3d07
 11808 2b8b 00       		.byte	0
 11809 2b8c 42       		.uleb128 0x42
 11810 2b8d 8D180000 		.4byte	.LASF352
 11811 2b91 01       		.byte	0x1
 11812 2b92 33       		.byte	0x33
 11813 2b93 94010000 		.4byte	0x194
 11814 2b97 00000000 		.4byte	.LFB3
 11815 2b9b F8000000 		.4byte	.LFE3-.LFB3
 11816 2b9f 01       		.uleb128 0x1
 11817 2ba0 9C       		.byte	0x9c
 11818 2ba1 2E2D0000 		.4byte	0x2d2e
 11819 2ba5 43       		.uleb128 0x43
 11820 2ba6 44657600 		.ascii	"Dev\000"
 11821 2baa 01       		.byte	0x1
 11822 2bab 33       		.byte	0x33
 11823 2bac EB0E0000 		.4byte	0xeeb
 11824 2bb0 FD150000 		.4byte	.LLST34
 11825 2bb4 44       		.uleb128 0x44
 11826 2bb5 A6080000 		.4byte	.LASF353
 11827 2bb9 01       		.byte	0x1
 11828 2bba 34       		.byte	0x34
 11829 2bbb FB000000 		.4byte	0xfb
 11830 2bbf 42160000 		.4byte	.LLST35
 11831 2bc3 44       		.uleb128 0x44
 11832 2bc4 6F0D0000 		.4byte	.LASF354
 11833 2bc8 01       		.byte	0x1
 11834 2bc9 35       		.byte	0x35
 11835 2bca 2E2D0000 		.4byte	0x2d2e
 11836 2bce 87160000 		.4byte	.LLST36
 11837 2bd2 45       		.uleb128 0x45
 11838 2bd3 C7010000 		.4byte	.LASF238
 11839 2bd7 01       		.byte	0x1
 11840 2bd8 37       		.byte	0x37
 11841 2bd9 94010000 		.4byte	0x194
 11842 2bdd BF160000 		.4byte	.LLST37
 11843 2be1 45       		.uleb128 0x45
 11844 2be2 99110000 		.4byte	.LASF344
 11845 2be6 01       		.byte	0x1
 11846 2be7 38       		.byte	0x38
 11847 2be8 D3000000 		.4byte	0xd3
 11848 2bec 50170000 		.4byte	.LLST38
 11849 2bf0 45       		.uleb128 0x45
 11850 2bf1 AF0C0000 		.4byte	.LASF355
 11851 2bf5 01       		.byte	0x1
 11852 2bf6 39       		.byte	0x39
 11853 2bf7 D3000000 		.4byte	0xd3
 11854 2bfb 86170000 		.4byte	.LLST39
 11855 2bff 45       		.uleb128 0x45
 11856 2c00 E60F0000 		.4byte	.LASF356
ARM GAS  C:\Users\mathi\AppData\Local\Temp\ccVwcWGw.s 			page 209


 11857 2c04 01       		.byte	0x1
 11858 2c05 3A       		.byte	0x3a
 11859 2c06 FB000000 		.4byte	0xfb
 11860 2c0a BC170000 		.4byte	.LLST40
 11861 2c0e 45       		.uleb128 0x45
 11862 2c0f E60D0000 		.4byte	.LASF345
 11863 2c13 01       		.byte	0x1
 11864 2c14 3B       		.byte	0x3b
 11865 2c15 FB000000 		.4byte	0xfb
 11866 2c19 E7170000 		.4byte	.LLST41
 11867 2c1d 45       		.uleb128 0x45
 11868 2c1e B90C0000 		.4byte	.LASF357
 11869 2c22 01       		.byte	0x1
 11870 2c23 3C       		.byte	0x3c
 11871 2c24 B8000000 		.4byte	0xb8
 11872 2c28 2A180000 		.4byte	.LLST42
 11873 2c2c 46       		.uleb128 0x46
 11874 2c2d A90D0000 		.4byte	.LASF346
 11875 2c31 01       		.byte	0x1
 11876 2c32 3D       		.byte	0x3d
 11877 2c33 50030000 		.4byte	0x350
 11878 2c37 03       		.uleb128 0x3
 11879 2c38 91       		.byte	0x91
 11880 2c39 B87F     		.sleb128 -72
 11881 2c3b 45       		.uleb128 0x45
 11882 2c3c 6B020000 		.4byte	.LASF358
 11883 2c40 01       		.byte	0x1
 11884 2c41 3E       		.byte	0x3e
 11885 2c42 FB000000 		.4byte	0xfb
 11886 2c46 4A180000 		.4byte	.LLST43
 11887 2c4a 45       		.uleb128 0x45
 11888 2c4b DE000000 		.4byte	.LASF359
 11889 2c4f 01       		.byte	0x1
 11890 2c50 3F       		.byte	0x3f
 11891 2c51 FB000000 		.4byte	0xfb
 11892 2c55 89180000 		.4byte	.LLST44
 11893 2c59 45       		.uleb128 0x45
 11894 2c5a 56130000 		.4byte	.LASF360
 11895 2c5e 01       		.byte	0x1
 11896 2c5f 40       		.byte	0x40
 11897 2c60 FB000000 		.4byte	0xfb
 11898 2c64 AD180000 		.4byte	.LLST45
 11899 2c68 45       		.uleb128 0x45
 11900 2c69 42000000 		.4byte	.LASF361
 11901 2c6d 01       		.byte	0x1
 11902 2c6e 41       		.byte	0x41
 11903 2c6f E9000000 		.4byte	0xe9
 11904 2c73 D1180000 		.4byte	.LLST46
 11905 2c77 45       		.uleb128 0x45
 11906 2c78 C4160000 		.4byte	.LASF362
 11907 2c7c 01       		.byte	0x1
 11908 2c7d 42       		.byte	0x42
 11909 2c7e E9000000 		.4byte	0xe9
 11910 2c82 2D190000 		.4byte	.LLST47
 11911 2c86 45       		.uleb128 0x45
 11912 2c87 530D0000 		.4byte	.LASF363
 11913 2c8b 01       		.byte	0x1
ARM GAS  C:\Users\mathi\AppData\Local\Temp\ccVwcWGw.s 			page 210


 11914 2c8c 43       		.byte	0x43
 11915 2c8d E9000000 		.4byte	0xe9
 11916 2c91 5A190000 		.4byte	.LLST48
 11917 2c95 45       		.uleb128 0x45
 11918 2c96 BD0F0000 		.4byte	.LASF43
 11919 2c9a 01       		.byte	0x1
 11920 2c9b 44       		.byte	0x44
 11921 2c9c FB000000 		.4byte	0xfb
 11922 2ca0 93190000 		.4byte	.LLST49
 11923 2ca4 2D       		.uleb128 0x2d
 11924 2ca5 32000000 		.4byte	.LVL74
 11925 2ca9 B03D0000 		.4byte	0x3db0
 11926 2cad BD2C0000 		.4byte	0x2cbd
 11927 2cb1 2E       		.uleb128 0x2e
 11928 2cb2 01       		.uleb128 0x1
 11929 2cb3 50       		.byte	0x50
 11930 2cb4 02       		.uleb128 0x2
 11931 2cb5 76       		.byte	0x76
 11932 2cb6 00       		.sleb128 0
 11933 2cb7 2E       		.uleb128 0x2e
 11934 2cb8 01       		.uleb128 0x1
 11935 2cb9 51       		.byte	0x51
 11936 2cba 01       		.uleb128 0x1
 11937 2cbb 30       		.byte	0x30
 11938 2cbc 00       		.byte	0
 11939 2cbd 2D       		.uleb128 0x2d
 11940 2cbe 40000000 		.4byte	.LVL76
 11941 2cc2 A43D0000 		.4byte	0x3da4
 11942 2cc6 D62C0000 		.4byte	0x2cd6
 11943 2cca 2E       		.uleb128 0x2e
 11944 2ccb 01       		.uleb128 0x1
 11945 2ccc 50       		.byte	0x50
 11946 2ccd 02       		.uleb128 0x2
 11947 2cce 76       		.byte	0x76
 11948 2ccf 00       		.sleb128 0
 11949 2cd0 2E       		.uleb128 0x2e
 11950 2cd1 01       		.uleb128 0x1
 11951 2cd2 51       		.byte	0x51
 11952 2cd3 01       		.uleb128 0x1
 11953 2cd4 33       		.byte	0x33
 11954 2cd5 00       		.byte	0
 11955 2cd6 2D       		.uleb128 0x2d
 11956 2cd7 82000000 		.4byte	.LVL85
 11957 2cdb 3D3D0000 		.4byte	0x3d3d
 11958 2cdf F12C0000 		.4byte	0x2cf1
 11959 2ce3 2E       		.uleb128 0x2e
 11960 2ce4 01       		.uleb128 0x1
 11961 2ce5 50       		.byte	0x50
 11962 2ce6 02       		.uleb128 0x2
 11963 2ce7 76       		.byte	0x76
 11964 2ce8 00       		.sleb128 0
 11965 2ce9 2E       		.uleb128 0x2e
 11966 2cea 01       		.uleb128 0x1
 11967 2ceb 51       		.byte	0x51
 11968 2cec 03       		.uleb128 0x3
 11969 2ced 91       		.byte	0x91
 11970 2cee B87F     		.sleb128 -72
ARM GAS  C:\Users\mathi\AppData\Local\Temp\ccVwcWGw.s 			page 211


 11971 2cf0 00       		.byte	0
 11972 2cf1 2D       		.uleb128 0x2d
 11973 2cf2 DE000000 		.4byte	.LVL99
 11974 2cf6 B03D0000 		.4byte	0x3db0
 11975 2cfa 0A2D0000 		.4byte	0x2d0a
 11976 2cfe 2E       		.uleb128 0x2e
 11977 2cff 01       		.uleb128 0x1
 11978 2d00 50       		.byte	0x50
 11979 2d01 02       		.uleb128 0x2
 11980 2d02 76       		.byte	0x76
 11981 2d03 00       		.sleb128 0
 11982 2d04 2E       		.uleb128 0x2e
 11983 2d05 01       		.uleb128 0x1
 11984 2d06 51       		.byte	0x51
 11985 2d07 01       		.uleb128 0x1
 11986 2d08 31       		.byte	0x31
 11987 2d09 00       		.byte	0
 11988 2d0a 2D       		.uleb128 0x2d
 11989 2d0b EA000000 		.4byte	.LVL101
 11990 2d0f BC3D0000 		.4byte	0x3dbc
 11991 2d13 242D0000 		.4byte	0x2d24
 11992 2d17 2E       		.uleb128 0x2e
 11993 2d18 01       		.uleb128 0x1
 11994 2d19 50       		.byte	0x50
 11995 2d1a 02       		.uleb128 0x2
 11996 2d1b 76       		.byte	0x76
 11997 2d1c 00       		.sleb128 0
 11998 2d1d 2E       		.uleb128 0x2e
 11999 2d1e 01       		.uleb128 0x1
 12000 2d1f 51       		.byte	0x51
 12001 2d20 02       		.uleb128 0x2
 12002 2d21 74       		.byte	0x74
 12003 2d22 00       		.sleb128 0
 12004 2d23 00       		.byte	0
 12005 2d24 30       		.uleb128 0x30
 12006 2d25 F4000000 		.4byte	.LVL105
 12007 2d29 073D0000 		.4byte	0x3d07
 12008 2d2d 00       		.byte	0
 12009 2d2e 0F       		.uleb128 0xf
 12010 2d2f 04       		.byte	0x4
 12011 2d30 FB000000 		.4byte	0xfb
 12012 2d34 47       		.uleb128 0x47
 12013 2d35 07250000 		.4byte	0x2507
 12014 2d39 00000000 		.4byte	.LFB27
 12015 2d3d A0010000 		.4byte	.LFE27-.LFB27
 12016 2d41 01       		.uleb128 0x1
 12017 2d42 9C       		.byte	0x9c
 12018 2d43 802F0000 		.4byte	0x2f80
 12019 2d47 2A       		.uleb128 0x2a
 12020 2d48 18250000 		.4byte	0x2518
 12021 2d4c A6190000 		.4byte	.LLST0
 12022 2d50 2A       		.uleb128 0x2a
 12023 2d51 24250000 		.4byte	0x2524
 12024 2d55 C5190000 		.4byte	.LLST1
 12025 2d59 2A       		.uleb128 0x2a
 12026 2d5a 30250000 		.4byte	0x2530
 12027 2d5e E6190000 		.4byte	.LLST2
ARM GAS  C:\Users\mathi\AppData\Local\Temp\ccVwcWGw.s 			page 212


 12028 2d62 2A       		.uleb128 0x2a
 12029 2d63 3C250000 		.4byte	0x253c
 12030 2d67 1E1A0000 		.4byte	.LLST3
 12031 2d6b 2A       		.uleb128 0x2a
 12032 2d6c 60250000 		.4byte	0x2560
 12033 2d70 3C1A0000 		.4byte	.LLST4
 12034 2d74 2A       		.uleb128 0x2a
 12035 2d75 6C250000 		.4byte	0x256c
 12036 2d79 5C1A0000 		.4byte	.LLST5
 12037 2d7d 2A       		.uleb128 0x2a
 12038 2d7e 78250000 		.4byte	0x2578
 12039 2d82 7C1A0000 		.4byte	.LLST6
 12040 2d86 3C       		.uleb128 0x3c
 12041 2d87 84250000 		.4byte	0x2584
 12042 2d8b 9C1A0000 		.4byte	.LLST7
 12043 2d8f 3C       		.uleb128 0x3c
 12044 2d90 90250000 		.4byte	0x2590
 12045 2d94 EA1A0000 		.4byte	.LLST8
 12046 2d98 3C       		.uleb128 0x3c
 12047 2d99 9C250000 		.4byte	0x259c
 12048 2d9d 2C1B0000 		.4byte	.LLST9
 12049 2da1 3C       		.uleb128 0x3c
 12050 2da2 A6250000 		.4byte	0x25a6
 12051 2da6 7C1B0000 		.4byte	.LLST10
 12052 2daa 3C       		.uleb128 0x3c
 12053 2dab B2250000 		.4byte	0x25b2
 12054 2daf CC1B0000 		.4byte	.LLST11
 12055 2db3 39       		.uleb128 0x39
 12056 2db4 BE250000 		.4byte	0x25be
 12057 2db8 02       		.uleb128 0x2
 12058 2db9 91       		.byte	0x91
 12059 2dba 4C       		.sleb128 -52
 12060 2dbb 48       		.uleb128 0x48
 12061 2dbc 54250000 		.4byte	0x2554
 12062 2dc0 B4       		.byte	0xb4
 12063 2dc1 48       		.uleb128 0x48
 12064 2dc2 48250000 		.4byte	0x2548
 12065 2dc6 06       		.byte	0x6
 12066 2dc7 29       		.uleb128 0x29
 12067 2dc8 81270000 		.4byte	0x2781
 12068 2dcc 24000000 		.4byte	.LBB42
 12069 2dd0 00000000 		.4byte	.Ldebug_ranges0+0
 12070 2dd4 01       		.byte	0x1
 12071 2dd5 4902     		.2byte	0x249
 12072 2dd7 452E0000 		.4byte	0x2e45
 12073 2ddb 2A       		.uleb128 0x2a
 12074 2ddc B2270000 		.4byte	0x27b2
 12075 2de0 001C0000 		.4byte	.LLST12
 12076 2de4 2A       		.uleb128 0x2a
 12077 2de5 A6270000 		.4byte	0x27a6
 12078 2de9 381C0000 		.4byte	.LLST13
 12079 2ded 2A       		.uleb128 0x2a
 12080 2dee 9A270000 		.4byte	0x279a
 12081 2df2 561C0000 		.4byte	.LLST14
 12082 2df6 2A       		.uleb128 0x2a
 12083 2df7 8E270000 		.4byte	0x278e
 12084 2dfb 821C0000 		.4byte	.LLST15
ARM GAS  C:\Users\mathi\AppData\Local\Temp\ccVwcWGw.s 			page 213


 12085 2dff 2B       		.uleb128 0x2b
 12086 2e00 00000000 		.4byte	.Ldebug_ranges0+0
 12087 2e04 3C       		.uleb128 0x3c
 12088 2e05 BE270000 		.4byte	0x27be
 12089 2e09 AD1C0000 		.4byte	.LLST16
 12090 2e0d 3C       		.uleb128 0x3c
 12091 2e0e CA270000 		.4byte	0x27ca
 12092 2e12 D61C0000 		.4byte	.LLST17
 12093 2e16 3C       		.uleb128 0x3c
 12094 2e17 D6270000 		.4byte	0x27d6
 12095 2e1b FF1C0000 		.4byte	.LLST18
 12096 2e1f 3C       		.uleb128 0x3c
 12097 2e20 E2270000 		.4byte	0x27e2
 12098 2e24 1F1D0000 		.4byte	.LLST19
 12099 2e28 3C       		.uleb128 0x3c
 12100 2e29 EE270000 		.4byte	0x27ee
 12101 2e2d 641D0000 		.4byte	.LLST20
 12102 2e31 3C       		.uleb128 0x3c
 12103 2e32 FA270000 		.4byte	0x27fa
 12104 2e36 E31D0000 		.4byte	.LLST21
 12105 2e3a 3C       		.uleb128 0x3c
 12106 2e3b 06280000 		.4byte	0x2806
 12107 2e3f 9E1E0000 		.4byte	.LLST22
 12108 2e43 00       		.byte	0
 12109 2e44 00       		.byte	0
 12110 2e45 29       		.uleb128 0x29
 12111 2e46 4B270000 		.4byte	0x274b
 12112 2e4a 2E000000 		.4byte	.LBB47
 12113 2e4e 28000000 		.4byte	.Ldebug_ranges0+0x28
 12114 2e52 01       		.byte	0x1
 12115 2e53 5202     		.2byte	0x252
 12116 2e55 6F2E0000 		.4byte	0x2e6f
 12117 2e59 3A       		.uleb128 0x3a
 12118 2e5a 5C270000 		.4byte	0x275c
 12119 2e5e 2B       		.uleb128 0x2b
 12120 2e5f 28000000 		.4byte	.Ldebug_ranges0+0x28
 12121 2e63 2C       		.uleb128 0x2c
 12122 2e64 68270000 		.4byte	0x2768
 12123 2e68 2C       		.uleb128 0x2c
 12124 2e69 74270000 		.4byte	0x2774
 12125 2e6d 00       		.byte	0
 12126 2e6e 00       		.byte	0
 12127 2e6f 29       		.uleb128 0x29
 12128 2e70 E5260000 		.4byte	0x26e5
 12129 2e74 D4000000 		.4byte	.LBB52
 12130 2e78 40000000 		.4byte	.Ldebug_ranges0+0x40
 12131 2e7c 01       		.byte	0x1
 12132 2e7d 5A02     		.2byte	0x25a
 12133 2e7f C92E0000 		.4byte	0x2ec9
 12134 2e83 2A       		.uleb128 0x2a
 12135 2e84 0E270000 		.4byte	0x270e
 12136 2e88 D61E0000 		.4byte	.LLST23
 12137 2e8c 2A       		.uleb128 0x2a
 12138 2e8d 02270000 		.4byte	0x2702
 12139 2e91 E91E0000 		.4byte	.LLST24
 12140 2e95 2A       		.uleb128 0x2a
 12141 2e96 F6260000 		.4byte	0x26f6
ARM GAS  C:\Users\mathi\AppData\Local\Temp\ccVwcWGw.s 			page 214


 12142 2e9a FD1E0000 		.4byte	.LLST25
 12143 2e9e 2B       		.uleb128 0x2b
 12144 2e9f 40000000 		.4byte	.Ldebug_ranges0+0x40
 12145 2ea3 3C       		.uleb128 0x3c
 12146 2ea4 1A270000 		.4byte	0x271a
 12147 2ea8 101F0000 		.4byte	.LLST26
 12148 2eac 3C       		.uleb128 0x3c
 12149 2ead 26270000 		.4byte	0x2726
 12150 2eb1 241F0000 		.4byte	.LLST27
 12151 2eb5 3C       		.uleb128 0x3c
 12152 2eb6 32270000 		.4byte	0x2732
 12153 2eba 441F0000 		.4byte	.LLST28
 12154 2ebe 3C       		.uleb128 0x3c
 12155 2ebf 3E270000 		.4byte	0x273e
 12156 2ec3 661F0000 		.4byte	.LLST29
 12157 2ec7 00       		.byte	0
 12158 2ec8 00       		.byte	0
 12159 2ec9 33       		.uleb128 0x33
 12160 2eca 01260000 		.4byte	0x2601
 12161 2ece 26010000 		.4byte	.LBB60
 12162 2ed2 0A000000 		.4byte	.LBE60-.LBB60
 12163 2ed6 01       		.byte	0x1
 12164 2ed7 6002     		.2byte	0x260
 12165 2ed9 1C2F0000 		.4byte	0x2f1c
 12166 2edd 2A       		.uleb128 0x2a
 12167 2ede 1E260000 		.4byte	0x261e
 12168 2ee2 971F0000 		.4byte	.LLST30
 12169 2ee6 2A       		.uleb128 0x2a
 12170 2ee7 12260000 		.4byte	0x2612
 12171 2eeb AA1F0000 		.4byte	.LLST31
 12172 2eef 34       		.uleb128 0x34
 12173 2ef0 26010000 		.4byte	.LBB61
 12174 2ef4 0A000000 		.4byte	.LBE61-.LBB61
 12175 2ef8 39       		.uleb128 0x39
 12176 2ef9 2A260000 		.4byte	0x262a
 12177 2efd 01       		.uleb128 0x1
 12178 2efe 50       		.byte	0x50
 12179 2eff 2F       		.uleb128 0x2f
 12180 2f00 30010000 		.4byte	.LVL56
 12181 2f04 543D0000 		.4byte	0x3d54
 12182 2f08 2E       		.uleb128 0x2e
 12183 2f09 01       		.uleb128 0x1
 12184 2f0a 51       		.byte	0x51
 12185 2f0b 02       		.uleb128 0x2
 12186 2f0c 09       		.byte	0x9
 12187 2f0d B0       		.byte	0xb0
 12188 2f0e 2E       		.uleb128 0x2e
 12189 2f0f 01       		.uleb128 0x1
 12190 2f10 52       		.byte	0x52
 12191 2f11 02       		.uleb128 0x2
 12192 2f12 78       		.byte	0x78
 12193 2f13 00       		.sleb128 0
 12194 2f14 2E       		.uleb128 0x2e
 12195 2f15 01       		.uleb128 0x1
 12196 2f16 53       		.byte	0x53
 12197 2f17 01       		.uleb128 0x1
 12198 2f18 36       		.byte	0x36
ARM GAS  C:\Users\mathi\AppData\Local\Temp\ccVwcWGw.s 			page 215


 12199 2f19 00       		.byte	0
 12200 2f1a 00       		.byte	0
 12201 2f1b 00       		.byte	0
 12202 2f1c 33       		.uleb128 0x33
 12203 2f1d CB250000 		.4byte	0x25cb
 12204 2f21 34010000 		.4byte	.LBB62
 12205 2f25 0C000000 		.4byte	.LBE62-.LBB62
 12206 2f29 01       		.byte	0x1
 12207 2f2a 6402     		.2byte	0x264
 12208 2f2c 762F0000 		.4byte	0x2f76
 12209 2f30 2A       		.uleb128 0x2a
 12210 2f31 E8250000 		.4byte	0x25e8
 12211 2f35 BE1F0000 		.4byte	.LLST32
 12212 2f39 2A       		.uleb128 0x2a
 12213 2f3a DC250000 		.4byte	0x25dc
 12214 2f3e EB1F0000 		.4byte	.LLST33
 12215 2f42 34       		.uleb128 0x34
 12216 2f43 34010000 		.4byte	.LBB63
 12217 2f47 0C000000 		.4byte	.LBE63-.LBB63
 12218 2f4b 39       		.uleb128 0x39
 12219 2f4c F4250000 		.4byte	0x25f4
 12220 2f50 01       		.uleb128 0x1
 12221 2f51 50       		.byte	0x50
 12222 2f52 2F       		.uleb128 0x2f
 12223 2f53 40010000 		.4byte	.LVL60
 12224 2f57 323D0000 		.4byte	0x3d32
 12225 2f5b 2E       		.uleb128 0x2e
 12226 2f5c 01       		.uleb128 0x1
 12227 2f5d 50       		.byte	0x50
 12228 2f5e 03       		.uleb128 0x3
 12229 2f5f 91       		.byte	0x91
 12230 2f60 44       		.sleb128 -60
 12231 2f61 06       		.byte	0x6
 12232 2f62 2E       		.uleb128 0x2e
 12233 2f63 01       		.uleb128 0x1
 12234 2f64 51       		.byte	0x51
 12235 2f65 02       		.uleb128 0x2
 12236 2f66 09       		.byte	0x9
 12237 2f67 B0       		.byte	0xb0
 12238 2f68 2E       		.uleb128 0x2e
 12239 2f69 01       		.uleb128 0x1
 12240 2f6a 52       		.byte	0x52
 12241 2f6b 02       		.uleb128 0x2
 12242 2f6c 91       		.byte	0x91
 12243 2f6d 4C       		.sleb128 -52
 12244 2f6e 2E       		.uleb128 0x2e
 12245 2f6f 01       		.uleb128 0x1
 12246 2f70 53       		.byte	0x53
 12247 2f71 01       		.uleb128 0x1
 12248 2f72 36       		.byte	0x36
 12249 2f73 00       		.byte	0
 12250 2f74 00       		.byte	0
 12251 2f75 00       		.byte	0
 12252 2f76 30       		.uleb128 0x30
 12253 2f77 98010000 		.4byte	.LVL68
 12254 2f7b 073D0000 		.4byte	0x3d07
 12255 2f7f 00       		.byte	0
ARM GAS  C:\Users\mathi\AppData\Local\Temp\ccVwcWGw.s 			page 216


 12256 2f80 47       		.uleb128 0x47
 12257 2f81 81270000 		.4byte	0x2781
 12258 2f85 00000000 		.4byte	.LFB8
 12259 2f89 24010000 		.4byte	.LFE8-.LFB8
 12260 2f8d 01       		.uleb128 0x1
 12261 2f8e 9C       		.byte	0x9c
 12262 2f8f FD2F0000 		.4byte	0x2ffd
 12263 2f93 2A       		.uleb128 0x2a
 12264 2f94 8E270000 		.4byte	0x278e
 12265 2f98 FF1F0000 		.4byte	.LLST69
 12266 2f9c 2A       		.uleb128 0x2a
 12267 2f9d 9A270000 		.4byte	0x279a
 12268 2fa1 20200000 		.4byte	.LLST70
 12269 2fa5 2A       		.uleb128 0x2a
 12270 2fa6 A6270000 		.4byte	0x27a6
 12271 2faa 4C200000 		.4byte	.LLST71
 12272 2fae 2A       		.uleb128 0x2a
 12273 2faf B2270000 		.4byte	0x27b2
 12274 2fb3 6D200000 		.4byte	.LLST72
 12275 2fb7 3C       		.uleb128 0x3c
 12276 2fb8 BE270000 		.4byte	0x27be
 12277 2fbc B2200000 		.4byte	.LLST73
 12278 2fc0 3C       		.uleb128 0x3c
 12279 2fc1 CA270000 		.4byte	0x27ca
 12280 2fc5 E0200000 		.4byte	.LLST74
 12281 2fc9 49       		.uleb128 0x49
 12282 2fca D6270000 		.4byte	0x27d6
 12283 2fce 08       		.byte	0x8
 12284 2fcf 3C       		.uleb128 0x3c
 12285 2fd0 E2270000 		.4byte	0x27e2
 12286 2fd4 38210000 		.4byte	.LLST75
 12287 2fd8 3C       		.uleb128 0x3c
 12288 2fd9 EE270000 		.4byte	0x27ee
 12289 2fdd C0210000 		.4byte	.LLST76
 12290 2fe1 3C       		.uleb128 0x3c
 12291 2fe2 FA270000 		.4byte	0x27fa
 12292 2fe6 91220000 		.4byte	.LLST77
 12293 2fea 3C       		.uleb128 0x3c
 12294 2feb 06280000 		.4byte	0x2806
 12295 2fef E3230000 		.4byte	.LLST78
 12296 2ff3 30       		.uleb128 0x30
 12297 2ff4 EE000000 		.4byte	.LVL209
 12298 2ff8 073D0000 		.4byte	0x3d07
 12299 2ffc 00       		.byte	0
 12300 2ffd 47       		.uleb128 0x47
 12301 2ffe 4B270000 		.4byte	0x274b
 12302 3002 00000000 		.4byte	.LFB9
 12303 3006 34000000 		.4byte	.LFE9-.LFB9
 12304 300a 01       		.uleb128 0x1
 12305 300b 9C       		.byte	0x9c
 12306 300c 2D300000 		.4byte	0x302d
 12307 3010 2A       		.uleb128 0x2a
 12308 3011 5C270000 		.4byte	0x275c
 12309 3015 9F240000 		.4byte	.LLST79
 12310 3019 2C       		.uleb128 0x2c
 12311 301a 68270000 		.4byte	0x2768
 12312 301e 2C       		.uleb128 0x2c
ARM GAS  C:\Users\mathi\AppData\Local\Temp\ccVwcWGw.s 			page 217


 12313 301f 74270000 		.4byte	0x2774
 12314 3023 30       		.uleb128 0x30
 12315 3024 2A000000 		.4byte	.LVL222
 12316 3028 073D0000 		.4byte	0x3d07
 12317 302c 00       		.byte	0
 12318 302d 47       		.uleb128 0x47
 12319 302e E5260000 		.4byte	0x26e5
 12320 3032 00000000 		.4byte	.LFB10
 12321 3036 3C000000 		.4byte	.LFE10-.LFB10
 12322 303a 01       		.uleb128 0x1
 12323 303b 9C       		.byte	0x9c
 12324 303c 86300000 		.4byte	0x3086
 12325 3040 2A       		.uleb128 0x2a
 12326 3041 F6260000 		.4byte	0x26f6
 12327 3045 C0240000 		.4byte	.LLST80
 12328 3049 2A       		.uleb128 0x2a
 12329 304a 02270000 		.4byte	0x2702
 12330 304e FA240000 		.4byte	.LLST81
 12331 3052 2A       		.uleb128 0x2a
 12332 3053 0E270000 		.4byte	0x270e
 12333 3057 34250000 		.4byte	.LLST82
 12334 305b 3C       		.uleb128 0x3c
 12335 305c 1A270000 		.4byte	0x271a
 12336 3060 6E250000 		.4byte	.LLST83
 12337 3064 49       		.uleb128 0x49
 12338 3065 26270000 		.4byte	0x2726
 12339 3069 08       		.byte	0x8
 12340 306a 3C       		.uleb128 0x3c
 12341 306b 32270000 		.4byte	0x2732
 12342 306f A4250000 		.4byte	.LLST84
 12343 3073 3C       		.uleb128 0x3c
 12344 3074 3E270000 		.4byte	0x273e
 12345 3078 E2250000 		.4byte	.LLST85
 12346 307c 30       		.uleb128 0x30
 12347 307d 38000000 		.4byte	.LVL234
 12348 3081 073D0000 		.4byte	0x3d07
 12349 3085 00       		.byte	0
 12350 3086 47       		.uleb128 0x47
 12351 3087 37260000 		.4byte	0x2637
 12352 308b 00000000 		.4byte	.LFB11
 12353 308f A8020000 		.4byte	.LFE11-.LFB11
 12354 3093 01       		.uleb128 0x1
 12355 3094 9C       		.byte	0x9c
 12356 3095 14310000 		.4byte	0x3114
 12357 3099 2A       		.uleb128 0x2a
 12358 309a 48260000 		.4byte	0x2648
 12359 309e 33260000 		.4byte	.LLST86
 12360 30a2 2A       		.uleb128 0x2a
 12361 30a3 54260000 		.4byte	0x2654
 12362 30a7 52260000 		.4byte	.LLST87
 12363 30ab 2A       		.uleb128 0x2a
 12364 30ac 60260000 		.4byte	0x2660
 12365 30b0 73260000 		.4byte	.LLST88
 12366 30b4 2A       		.uleb128 0x2a
 12367 30b5 6C260000 		.4byte	0x266c
 12368 30b9 94260000 		.4byte	.LLST89
 12369 30bd 2A       		.uleb128 0x2a
ARM GAS  C:\Users\mathi\AppData\Local\Temp\ccVwcWGw.s 			page 218


 12370 30be 78260000 		.4byte	0x2678
 12371 30c2 D9260000 		.4byte	.LLST90
 12372 30c6 3C       		.uleb128 0x3c
 12373 30c7 84260000 		.4byte	0x2684
 12374 30cb F9260000 		.4byte	.LLST91
 12375 30cf 49       		.uleb128 0x49
 12376 30d0 90260000 		.4byte	0x2690
 12377 30d4 08       		.byte	0x8
 12378 30d5 3C       		.uleb128 0x3c
 12379 30d6 9C260000 		.4byte	0x269c
 12380 30da 19270000 		.4byte	.LLST92
 12381 30de 39       		.uleb128 0x39
 12382 30df A8260000 		.4byte	0x26a8
 12383 30e3 02       		.uleb128 0x2
 12384 30e4 91       		.byte	0x91
 12385 30e5 4C       		.sleb128 -52
 12386 30e6 3C       		.uleb128 0x3c
 12387 30e7 B4260000 		.4byte	0x26b4
 12388 30eb 38270000 		.4byte	.LLST93
 12389 30ef 3C       		.uleb128 0x3c
 12390 30f0 C0260000 		.4byte	0x26c0
 12391 30f4 78270000 		.4byte	.LLST94
 12392 30f8 3C       		.uleb128 0x3c
 12393 30f9 CC260000 		.4byte	0x26cc
 12394 30fd E2290000 		.4byte	.LLST95
 12395 3101 3C       		.uleb128 0x3c
 12396 3102 D8260000 		.4byte	0x26d8
 12397 3106 AB2A0000 		.4byte	.LLST96
 12398 310a 30       		.uleb128 0x30
 12399 310b 9C020000 		.4byte	.LVL309
 12400 310f 073D0000 		.4byte	0x3d07
 12401 3113 00       		.byte	0
 12402 3114 47       		.uleb128 0x47
 12403 3115 01260000 		.4byte	0x2601
 12404 3119 00000000 		.4byte	.LFB12
 12405 311d 2C000000 		.4byte	.LFE12-.LFB12
 12406 3121 01       		.uleb128 0x1
 12407 3122 9C       		.byte	0x9c
 12408 3123 6F310000 		.4byte	0x316f
 12409 3127 2A       		.uleb128 0x2a
 12410 3128 12260000 		.4byte	0x2612
 12411 312c C72B0000 		.4byte	.LLST97
 12412 3130 2A       		.uleb128 0x2a
 12413 3131 1E260000 		.4byte	0x261e
 12414 3135 012C0000 		.4byte	.LLST98
 12415 3139 2C       		.uleb128 0x2c
 12416 313a 2A260000 		.4byte	0x262a
 12417 313e 41       		.uleb128 0x41
 12418 313f 22000000 		.4byte	.LVL313
 12419 3143 543D0000 		.4byte	0x3d54
 12420 3147 65310000 		.4byte	0x3165
 12421 314b 2E       		.uleb128 0x2e
 12422 314c 01       		.uleb128 0x1
 12423 314d 50       		.byte	0x50
 12424 314e 03       		.uleb128 0x3
 12425 314f F3       		.byte	0xf3
 12426 3150 01       		.uleb128 0x1
ARM GAS  C:\Users\mathi\AppData\Local\Temp\ccVwcWGw.s 			page 219


 12427 3151 50       		.byte	0x50
 12428 3152 2E       		.uleb128 0x2e
 12429 3153 01       		.uleb128 0x1
 12430 3154 51       		.byte	0x51
 12431 3155 02       		.uleb128 0x2
 12432 3156 09       		.byte	0x9
 12433 3157 B0       		.byte	0xb0
 12434 3158 2E       		.uleb128 0x2e
 12435 3159 01       		.uleb128 0x1
 12436 315a 52       		.byte	0x52
 12437 315b 03       		.uleb128 0x3
 12438 315c F3       		.byte	0xf3
 12439 315d 01       		.uleb128 0x1
 12440 315e 51       		.byte	0x51
 12441 315f 2E       		.uleb128 0x2e
 12442 3160 01       		.uleb128 0x1
 12443 3161 53       		.byte	0x53
 12444 3162 01       		.uleb128 0x1
 12445 3163 36       		.byte	0x36
 12446 3164 00       		.byte	0
 12447 3165 30       		.uleb128 0x30
 12448 3166 26000000 		.4byte	.LVL314
 12449 316a 073D0000 		.4byte	0x3d07
 12450 316e 00       		.byte	0
 12451 316f 47       		.uleb128 0x47
 12452 3170 CB250000 		.4byte	0x25cb
 12453 3174 00000000 		.4byte	.LFB13
 12454 3178 2C000000 		.4byte	.LFE13-.LFB13
 12455 317c 01       		.uleb128 0x1
 12456 317d 9C       		.byte	0x9c
 12457 317e CA310000 		.4byte	0x31ca
 12458 3182 2A       		.uleb128 0x2a
 12459 3183 DC250000 		.4byte	0x25dc
 12460 3187 462C0000 		.4byte	.LLST99
 12461 318b 2A       		.uleb128 0x2a
 12462 318c E8250000 		.4byte	0x25e8
 12463 3190 802C0000 		.4byte	.LLST100
 12464 3194 2C       		.uleb128 0x2c
 12465 3195 F4250000 		.4byte	0x25f4
 12466 3199 41       		.uleb128 0x41
 12467 319a 22000000 		.4byte	.LVL317
 12468 319e 323D0000 		.4byte	0x3d32
 12469 31a2 C0310000 		.4byte	0x31c0
 12470 31a6 2E       		.uleb128 0x2e
 12471 31a7 01       		.uleb128 0x1
 12472 31a8 50       		.byte	0x50
 12473 31a9 03       		.uleb128 0x3
 12474 31aa F3       		.byte	0xf3
 12475 31ab 01       		.uleb128 0x1
 12476 31ac 50       		.byte	0x50
 12477 31ad 2E       		.uleb128 0x2e
 12478 31ae 01       		.uleb128 0x1
 12479 31af 51       		.byte	0x51
 12480 31b0 02       		.uleb128 0x2
 12481 31b1 09       		.byte	0x9
 12482 31b2 B0       		.byte	0xb0
 12483 31b3 2E       		.uleb128 0x2e
ARM GAS  C:\Users\mathi\AppData\Local\Temp\ccVwcWGw.s 			page 220


 12484 31b4 01       		.uleb128 0x1
 12485 31b5 52       		.byte	0x52
 12486 31b6 03       		.uleb128 0x3
 12487 31b7 F3       		.byte	0xf3
 12488 31b8 01       		.uleb128 0x1
 12489 31b9 51       		.byte	0x51
 12490 31ba 2E       		.uleb128 0x2e
 12491 31bb 01       		.uleb128 0x1
 12492 31bc 53       		.byte	0x53
 12493 31bd 01       		.uleb128 0x1
 12494 31be 36       		.byte	0x36
 12495 31bf 00       		.byte	0
 12496 31c0 30       		.uleb128 0x30
 12497 31c1 26000000 		.4byte	.LVL318
 12498 31c5 073D0000 		.4byte	0x3d07
 12499 31c9 00       		.byte	0
 12500 31ca 47       		.uleb128 0x47
 12501 31cb 07250000 		.4byte	0x2507
 12502 31cf 00000000 		.4byte	.LFB14
 12503 31d3 04020000 		.4byte	.LFE14-.LFB14
 12504 31d7 01       		.uleb128 0x1
 12505 31d8 9C       		.byte	0x9c
 12506 31d9 F4330000 		.4byte	0x33f4
 12507 31dd 2A       		.uleb128 0x2a
 12508 31de 18250000 		.4byte	0x2518
 12509 31e2 C52C0000 		.4byte	.LLST101
 12510 31e6 2A       		.uleb128 0x2a
 12511 31e7 24250000 		.4byte	0x2524
 12512 31eb E42C0000 		.4byte	.LLST102
 12513 31ef 2A       		.uleb128 0x2a
 12514 31f0 30250000 		.4byte	0x2530
 12515 31f4 052D0000 		.4byte	.LLST103
 12516 31f8 2A       		.uleb128 0x2a
 12517 31f9 3C250000 		.4byte	0x253c
 12518 31fd 252D0000 		.4byte	.LLST104
 12519 3201 2A       		.uleb128 0x2a
 12520 3202 48250000 		.4byte	0x2548
 12521 3206 432D0000 		.4byte	.LLST105
 12522 320a 2A       		.uleb128 0x2a
 12523 320b 54250000 		.4byte	0x2554
 12524 320f 632D0000 		.4byte	.LLST106
 12525 3213 2A       		.uleb128 0x2a
 12526 3214 60250000 		.4byte	0x2560
 12527 3218 832D0000 		.4byte	.LLST107
 12528 321c 2A       		.uleb128 0x2a
 12529 321d 6C250000 		.4byte	0x256c
 12530 3221 A32D0000 		.4byte	.LLST108
 12531 3225 2A       		.uleb128 0x2a
 12532 3226 78250000 		.4byte	0x2578
 12533 322a C32D0000 		.4byte	.LLST109
 12534 322e 3C       		.uleb128 0x3c
 12535 322f 84250000 		.4byte	0x2584
 12536 3233 E32D0000 		.4byte	.LLST110
 12537 3237 3C       		.uleb128 0x3c
 12538 3238 90250000 		.4byte	0x2590
 12539 323c 492E0000 		.4byte	.LLST111
 12540 3240 3C       		.uleb128 0x3c
ARM GAS  C:\Users\mathi\AppData\Local\Temp\ccVwcWGw.s 			page 221


 12541 3241 9C250000 		.4byte	0x259c
 12542 3245 A12E0000 		.4byte	.LLST112
 12543 3249 3C       		.uleb128 0x3c
 12544 324a A6250000 		.4byte	0x25a6
 12545 324e F12E0000 		.4byte	.LLST113
 12546 3252 3C       		.uleb128 0x3c
 12547 3253 B2250000 		.4byte	0x25b2
 12548 3257 5B2F0000 		.4byte	.LLST114
 12549 325b 39       		.uleb128 0x39
 12550 325c BE250000 		.4byte	0x25be
 12551 3260 02       		.uleb128 0x2
 12552 3261 91       		.byte	0x91
 12553 3262 4C       		.sleb128 -52
 12554 3263 29       		.uleb128 0x29
 12555 3264 81270000 		.4byte	0x2781
 12556 3268 2A000000 		.4byte	.LBB74
 12557 326c 60000000 		.4byte	.Ldebug_ranges0+0x60
 12558 3270 01       		.byte	0x1
 12559 3271 4902     		.2byte	0x249
 12560 3273 C5320000 		.4byte	0x32c5
 12561 3277 2A       		.uleb128 0x2a
 12562 3278 B2270000 		.4byte	0x27b2
 12563 327c 8F2F0000 		.4byte	.LLST115
 12564 3280 2A       		.uleb128 0x2a
 12565 3281 A6270000 		.4byte	0x27a6
 12566 3285 E72F0000 		.4byte	.LLST116
 12567 3289 2A       		.uleb128 0x2a
 12568 328a 9A270000 		.4byte	0x279a
 12569 328e 05300000 		.4byte	.LLST117
 12570 3292 2A       		.uleb128 0x2a
 12571 3293 8E270000 		.4byte	0x278e
 12572 3297 23300000 		.4byte	.LLST118
 12573 329b 2B       		.uleb128 0x2b
 12574 329c 60000000 		.4byte	.Ldebug_ranges0+0x60
 12575 32a0 2C       		.uleb128 0x2c
 12576 32a1 B72F0000 		.4byte	0x2fb7
 12577 32a5 2C       		.uleb128 0x2c
 12578 32a6 C02F0000 		.4byte	0x2fc0
 12579 32aa 2C       		.uleb128 0x2c
 12580 32ab C92F0000 		.4byte	0x2fc9
 12581 32af 2C       		.uleb128 0x2c
 12582 32b0 CF2F0000 		.4byte	0x2fcf
 12583 32b4 2C       		.uleb128 0x2c
 12584 32b5 D82F0000 		.4byte	0x2fd8
 12585 32b9 2C       		.uleb128 0x2c
 12586 32ba E12F0000 		.4byte	0x2fe1
 12587 32be 2C       		.uleb128 0x2c
 12588 32bf EA2F0000 		.4byte	0x2fea
 12589 32c3 00       		.byte	0
 12590 32c4 00       		.byte	0
 12591 32c5 33       		.uleb128 0x33
 12592 32c6 4B270000 		.4byte	0x274b
 12593 32ca C6000000 		.4byte	.LBB83
 12594 32ce 08000000 		.4byte	.LBE83-.LBB83
 12595 32d2 01       		.byte	0x1
 12596 32d3 5202     		.2byte	0x252
 12597 32d5 F3320000 		.4byte	0x32f3
ARM GAS  C:\Users\mathi\AppData\Local\Temp\ccVwcWGw.s 			page 222


 12598 32d9 3A       		.uleb128 0x3a
 12599 32da 5C270000 		.4byte	0x275c
 12600 32de 34       		.uleb128 0x34
 12601 32df C6000000 		.4byte	.LBB84
 12602 32e3 08000000 		.4byte	.LBE84-.LBB84
 12603 32e7 2C       		.uleb128 0x2c
 12604 32e8 19300000 		.4byte	0x3019
 12605 32ec 2C       		.uleb128 0x2c
 12606 32ed 1E300000 		.4byte	0x301e
 12607 32f1 00       		.byte	0
 12608 32f2 00       		.byte	0
 12609 32f3 33       		.uleb128 0x33
 12610 32f4 E5260000 		.4byte	0x26e5
 12611 32f8 D8000000 		.4byte	.LBB85
 12612 32fc 1A000000 		.4byte	.LBE85-.LBB85
 12613 3300 01       		.byte	0x1
 12614 3301 5A02     		.2byte	0x25a
 12615 3303 3D330000 		.4byte	0x333d
 12616 3307 2A       		.uleb128 0x2a
 12617 3308 0E270000 		.4byte	0x270e
 12618 330c 77300000 		.4byte	.LLST119
 12619 3310 2A       		.uleb128 0x2a
 12620 3311 02270000 		.4byte	0x2702
 12621 3315 8A300000 		.4byte	.LLST120
 12622 3319 3A       		.uleb128 0x3a
 12623 331a F6260000 		.4byte	0x26f6
 12624 331e 34       		.uleb128 0x34
 12625 331f D8000000 		.4byte	.LBB86
 12626 3323 1A000000 		.4byte	.LBE86-.LBB86
 12627 3327 2C       		.uleb128 0x2c
 12628 3328 5B300000 		.4byte	0x305b
 12629 332c 2C       		.uleb128 0x2c
 12630 332d 64300000 		.4byte	0x3064
 12631 3331 2C       		.uleb128 0x2c
 12632 3332 6A300000 		.4byte	0x306a
 12633 3336 2C       		.uleb128 0x2c
 12634 3337 73300000 		.4byte	0x3073
 12635 333b 00       		.byte	0
 12636 333c 00       		.byte	0
 12637 333d 33       		.uleb128 0x33
 12638 333e 01260000 		.4byte	0x2601
 12639 3342 3E010000 		.4byte	.LBB88
 12640 3346 0A000000 		.4byte	.LBE88-.LBB88
 12641 334a 01       		.byte	0x1
 12642 334b 6002     		.2byte	0x260
 12643 334d 90330000 		.4byte	0x3390
 12644 3351 2A       		.uleb128 0x2a
 12645 3352 1E260000 		.4byte	0x261e
 12646 3356 9D300000 		.4byte	.LLST121
 12647 335a 2A       		.uleb128 0x2a
 12648 335b 12260000 		.4byte	0x2612
 12649 335f B0300000 		.4byte	.LLST122
 12650 3363 34       		.uleb128 0x34
 12651 3364 3E010000 		.4byte	.LBB89
 12652 3368 0A000000 		.4byte	.LBE89-.LBB89
 12653 336c 39       		.uleb128 0x39
 12654 336d 39310000 		.4byte	0x3139
ARM GAS  C:\Users\mathi\AppData\Local\Temp\ccVwcWGw.s 			page 223


 12655 3371 01       		.uleb128 0x1
 12656 3372 50       		.byte	0x50
 12657 3373 2F       		.uleb128 0x2f
 12658 3374 48010000 		.4byte	.LVL368
 12659 3378 543D0000 		.4byte	0x3d54
 12660 337c 2E       		.uleb128 0x2e
 12661 337d 01       		.uleb128 0x1
 12662 337e 51       		.byte	0x51
 12663 337f 02       		.uleb128 0x2
 12664 3380 09       		.byte	0x9
 12665 3381 B0       		.byte	0xb0
 12666 3382 2E       		.uleb128 0x2e
 12667 3383 01       		.uleb128 0x1
 12668 3384 52       		.byte	0x52
 12669 3385 02       		.uleb128 0x2
 12670 3386 78       		.byte	0x78
 12671 3387 00       		.sleb128 0
 12672 3388 2E       		.uleb128 0x2e
 12673 3389 01       		.uleb128 0x1
 12674 338a 53       		.byte	0x53
 12675 338b 01       		.uleb128 0x1
 12676 338c 36       		.byte	0x36
 12677 338d 00       		.byte	0
 12678 338e 00       		.byte	0
 12679 338f 00       		.byte	0
 12680 3390 33       		.uleb128 0x33
 12681 3391 CB250000 		.4byte	0x25cb
 12682 3395 4C010000 		.4byte	.LBB90
 12683 3399 0C000000 		.4byte	.LBE90-.LBB90
 12684 339d 01       		.byte	0x1
 12685 339e 6402     		.2byte	0x264
 12686 33a0 EA330000 		.4byte	0x33ea
 12687 33a4 2A       		.uleb128 0x2a
 12688 33a5 E8250000 		.4byte	0x25e8
 12689 33a9 C4300000 		.4byte	.LLST123
 12690 33ad 2A       		.uleb128 0x2a
 12691 33ae DC250000 		.4byte	0x25dc
 12692 33b2 F1300000 		.4byte	.LLST124
 12693 33b6 34       		.uleb128 0x34
 12694 33b7 4C010000 		.4byte	.LBB91
 12695 33bb 0C000000 		.4byte	.LBE91-.LBB91
 12696 33bf 39       		.uleb128 0x39
 12697 33c0 94310000 		.4byte	0x3194
 12698 33c4 01       		.uleb128 0x1
 12699 33c5 50       		.byte	0x50
 12700 33c6 2F       		.uleb128 0x2f
 12701 33c7 58010000 		.4byte	.LVL372
 12702 33cb 323D0000 		.4byte	0x3d32
 12703 33cf 2E       		.uleb128 0x2e
 12704 33d0 01       		.uleb128 0x1
 12705 33d1 50       		.byte	0x50
 12706 33d2 03       		.uleb128 0x3
 12707 33d3 91       		.byte	0x91
 12708 33d4 44       		.sleb128 -60
 12709 33d5 06       		.byte	0x6
 12710 33d6 2E       		.uleb128 0x2e
 12711 33d7 01       		.uleb128 0x1
ARM GAS  C:\Users\mathi\AppData\Local\Temp\ccVwcWGw.s 			page 224


 12712 33d8 51       		.byte	0x51
 12713 33d9 02       		.uleb128 0x2
 12714 33da 09       		.byte	0x9
 12715 33db B0       		.byte	0xb0
 12716 33dc 2E       		.uleb128 0x2e
 12717 33dd 01       		.uleb128 0x1
 12718 33de 52       		.byte	0x52
 12719 33df 02       		.uleb128 0x2
 12720 33e0 91       		.byte	0x91
 12721 33e1 4C       		.sleb128 -52
 12722 33e2 2E       		.uleb128 0x2e
 12723 33e3 01       		.uleb128 0x1
 12724 33e4 53       		.byte	0x53
 12725 33e5 01       		.uleb128 0x1
 12726 33e6 36       		.byte	0x36
 12727 33e7 00       		.byte	0
 12728 33e8 00       		.byte	0
 12729 33e9 00       		.byte	0
 12730 33ea 30       		.uleb128 0x30
 12731 33eb F8010000 		.4byte	.LVL389
 12732 33ef 073D0000 		.4byte	0x3d07
 12733 33f3 00       		.byte	0
 12734 33f4 47       		.uleb128 0x47
 12735 33f5 B3240000 		.4byte	0x24b3
 12736 33f9 00000000 		.4byte	.LFB15
 12737 33fd 7C000000 		.4byte	.LFE15-.LFB15
 12738 3401 01       		.uleb128 0x1
 12739 3402 9C       		.byte	0x9c
 12740 3403 EC340000 		.4byte	0x34ec
 12741 3407 2A       		.uleb128 0x2a
 12742 3408 C4240000 		.4byte	0x24c4
 12743 340c 05310000 		.4byte	.LLST125
 12744 3410 2A       		.uleb128 0x2a
 12745 3411 D0240000 		.4byte	0x24d0
 12746 3415 23310000 		.4byte	.LLST126
 12747 3419 3C       		.uleb128 0x3c
 12748 341a DC240000 		.4byte	0x24dc
 12749 341e 41310000 		.4byte	.LLST127
 12750 3422 39       		.uleb128 0x39
 12751 3423 E8240000 		.4byte	0x24e8
 12752 3427 02       		.uleb128 0x2
 12753 3428 91       		.byte	0x91
 12754 3429 48       		.sleb128 -56
 12755 342a 39       		.uleb128 0x39
 12756 342b F4240000 		.4byte	0x24f4
 12757 342f 01       		.uleb128 0x1
 12758 3430 56       		.byte	0x56
 12759 3431 2D       		.uleb128 0x2d
 12760 3432 1A000000 		.4byte	.LVL393
 12761 3436 F13C0000 		.4byte	0x3cf1
 12762 343a 50340000 		.4byte	0x3450
 12763 343e 2E       		.uleb128 0x2e
 12764 343f 01       		.uleb128 0x1
 12765 3440 50       		.byte	0x50
 12766 3441 02       		.uleb128 0x2
 12767 3442 74       		.byte	0x74
 12768 3443 00       		.sleb128 0
ARM GAS  C:\Users\mathi\AppData\Local\Temp\ccVwcWGw.s 			page 225


 12769 3444 2E       		.uleb128 0x2e
 12770 3445 01       		.uleb128 0x1
 12771 3446 51       		.byte	0x51
 12772 3447 01       		.uleb128 0x1
 12773 3448 31       		.byte	0x31
 12774 3449 2E       		.uleb128 0x2e
 12775 344a 01       		.uleb128 0x1
 12776 344b 52       		.byte	0x52
 12777 344c 02       		.uleb128 0x2
 12778 344d 09       		.byte	0x9
 12779 344e C0       		.byte	0xc0
 12780 344f 00       		.byte	0
 12781 3450 2D       		.uleb128 0x2d
 12782 3451 30000000 		.4byte	.LVL396
 12783 3455 3D3D0000 		.4byte	0x3d3d
 12784 3459 6A340000 		.4byte	0x346a
 12785 345d 2E       		.uleb128 0x2e
 12786 345e 01       		.uleb128 0x1
 12787 345f 50       		.byte	0x50
 12788 3460 02       		.uleb128 0x2
 12789 3461 74       		.byte	0x74
 12790 3462 00       		.sleb128 0
 12791 3463 2E       		.uleb128 0x2e
 12792 3464 01       		.uleb128 0x1
 12793 3465 51       		.byte	0x51
 12794 3466 02       		.uleb128 0x2
 12795 3467 7D       		.byte	0x7d
 12796 3468 00       		.sleb128 0
 12797 3469 00       		.byte	0
 12798 346a 2D       		.uleb128 0x2d
 12799 346b 3E000000 		.4byte	.LVL398
 12800 346f F13C0000 		.4byte	0x3cf1
 12801 3473 89340000 		.4byte	0x3489
 12802 3477 2E       		.uleb128 0x2e
 12803 3478 01       		.uleb128 0x1
 12804 3479 50       		.byte	0x50
 12805 347a 02       		.uleb128 0x2
 12806 347b 74       		.byte	0x74
 12807 347c 00       		.sleb128 0
 12808 347d 2E       		.uleb128 0x2e
 12809 347e 01       		.uleb128 0x1
 12810 347f 51       		.byte	0x51
 12811 3480 02       		.uleb128 0x2
 12812 3481 09       		.byte	0x9
 12813 3482 FF       		.byte	0xff
 12814 3483 2E       		.uleb128 0x2e
 12815 3484 01       		.uleb128 0x1
 12816 3485 52       		.byte	0x52
 12817 3486 01       		.uleb128 0x1
 12818 3487 31       		.byte	0x31
 12819 3488 00       		.byte	0
 12820 3489 2D       		.uleb128 0x2d
 12821 348a 4C000000 		.4byte	.LVL400
 12822 348e 493D0000 		.4byte	0x3d49
 12823 3492 A9340000 		.4byte	0x34a9
 12824 3496 2E       		.uleb128 0x2e
 12825 3497 01       		.uleb128 0x1
ARM GAS  C:\Users\mathi\AppData\Local\Temp\ccVwcWGw.s 			page 226


 12826 3498 50       		.byte	0x50
 12827 3499 02       		.uleb128 0x2
 12828 349a 74       		.byte	0x74
 12829 349b 00       		.sleb128 0
 12830 349c 2E       		.uleb128 0x2e
 12831 349d 01       		.uleb128 0x1
 12832 349e 51       		.byte	0x51
 12833 349f 02       		.uleb128 0x2
 12834 34a0 09       		.byte	0x9
 12835 34a1 B6       		.byte	0xb6
 12836 34a2 2E       		.uleb128 0x2e
 12837 34a3 01       		.uleb128 0x1
 12838 34a4 52       		.byte	0x52
 12839 34a5 02       		.uleb128 0x2
 12840 34a6 77       		.byte	0x77
 12841 34a7 00       		.sleb128 0
 12842 34a8 00       		.byte	0
 12843 34a9 2D       		.uleb128 0x2d
 12844 34aa 5A000000 		.4byte	.LVL402
 12845 34ae F13C0000 		.4byte	0x3cf1
 12846 34b2 C3340000 		.4byte	0x34c3
 12847 34b6 2E       		.uleb128 0x2e
 12848 34b7 01       		.uleb128 0x1
 12849 34b8 50       		.byte	0x50
 12850 34b9 02       		.uleb128 0x2
 12851 34ba 74       		.byte	0x74
 12852 34bb 00       		.sleb128 0
 12853 34bc 2E       		.uleb128 0x2e
 12854 34bd 01       		.uleb128 0x1
 12855 34be 51       		.byte	0x51
 12856 34bf 02       		.uleb128 0x2
 12857 34c0 09       		.byte	0x9
 12858 34c1 FF       		.byte	0xff
 12859 34c2 00       		.byte	0
 12860 34c3 2D       		.uleb128 0x2d
 12861 34c4 68000000 		.4byte	.LVL404
 12862 34c8 F13C0000 		.4byte	0x3cf1
 12863 34cc E2340000 		.4byte	0x34e2
 12864 34d0 2E       		.uleb128 0x2e
 12865 34d1 01       		.uleb128 0x1
 12866 34d2 50       		.byte	0x50
 12867 34d3 02       		.uleb128 0x2
 12868 34d4 74       		.byte	0x74
 12869 34d5 00       		.sleb128 0
 12870 34d6 2E       		.uleb128 0x2e
 12871 34d7 01       		.uleb128 0x1
 12872 34d8 51       		.byte	0x51
 12873 34d9 01       		.uleb128 0x1
 12874 34da 31       		.byte	0x31
 12875 34db 2E       		.uleb128 0x2e
 12876 34dc 01       		.uleb128 0x1
 12877 34dd 52       		.byte	0x52
 12878 34de 02       		.uleb128 0x2
 12879 34df 76       		.byte	0x76
 12880 34e0 00       		.sleb128 0
 12881 34e1 00       		.byte	0
 12882 34e2 30       		.uleb128 0x30
ARM GAS  C:\Users\mathi\AppData\Local\Temp\ccVwcWGw.s 			page 227


 12883 34e3 76000000 		.4byte	.LVL405
 12884 34e7 073D0000 		.4byte	0x3d07
 12885 34eb 00       		.byte	0
 12886 34ec 47       		.uleb128 0x47
 12887 34ed 251A0000 		.4byte	0x1a25
 12888 34f1 00000000 		.4byte	.LFB19
 12889 34f5 60000000 		.4byte	.LFE19-.LFB19
 12890 34f9 01       		.uleb128 0x1
 12891 34fa 9C       		.byte	0x9c
 12892 34fb 9D350000 		.4byte	0x359d
 12893 34ff 2A       		.uleb128 0x2a
 12894 3500 361A0000 		.4byte	0x1a36
 12895 3504 97310000 		.4byte	.LLST146
 12896 3508 2A       		.uleb128 0x2a
 12897 3509 421A0000 		.4byte	0x1a42
 12898 350d D9310000 		.4byte	.LLST147
 12899 3511 3C       		.uleb128 0x3c
 12900 3512 4E1A0000 		.4byte	0x1a4e
 12901 3516 FA310000 		.4byte	.LLST148
 12902 351a 4A       		.uleb128 0x4a
 12903 351b 251A0000 		.4byte	0x1a25
 12904 351f D8000000 		.4byte	.Ldebug_ranges0+0xd8
 12905 3523 52350000 		.4byte	0x3552
 12906 3527 3A       		.uleb128 0x3a
 12907 3528 421A0000 		.4byte	0x1a42
 12908 352c 2A       		.uleb128 0x2a
 12909 352d 361A0000 		.4byte	0x1a36
 12910 3531 45320000 		.4byte	.LLST149
 12911 3535 2B       		.uleb128 0x2b
 12912 3536 D8000000 		.4byte	.Ldebug_ranges0+0xd8
 12913 353a 2C       		.uleb128 0x2c
 12914 353b 11350000 		.4byte	0x3511
 12915 353f 4B       		.uleb128 0x4b
 12916 3540 58000000 		.4byte	.LVL564
 12917 3544 F13C0000 		.4byte	0x3cf1
 12918 3548 2E       		.uleb128 0x2e
 12919 3549 01       		.uleb128 0x1
 12920 354a 50       		.byte	0x50
 12921 354b 03       		.uleb128 0x3
 12922 354c F3       		.byte	0xf3
 12923 354d 01       		.uleb128 0x1
 12924 354e 50       		.byte	0x50
 12925 354f 00       		.byte	0
 12926 3550 00       		.byte	0
 12927 3551 00       		.byte	0
 12928 3552 2D       		.uleb128 0x2d
 12929 3553 16000000 		.4byte	.LVL554
 12930 3557 F13C0000 		.4byte	0x3cf1
 12931 355b 6B350000 		.4byte	0x356b
 12932 355f 2E       		.uleb128 0x2e
 12933 3560 01       		.uleb128 0x1
 12934 3561 50       		.byte	0x50
 12935 3562 02       		.uleb128 0x2
 12936 3563 75       		.byte	0x75
 12937 3564 00       		.sleb128 0
 12938 3565 2E       		.uleb128 0x2e
 12939 3566 01       		.uleb128 0x1
ARM GAS  C:\Users\mathi\AppData\Local\Temp\ccVwcWGw.s 			page 228


 12940 3567 51       		.byte	0x51
 12941 3568 01       		.uleb128 0x1
 12942 3569 30       		.byte	0x30
 12943 356a 00       		.byte	0
 12944 356b 2D       		.uleb128 0x2d
 12945 356c 2E000000 		.4byte	.LVL558
 12946 3570 1B3D0000 		.4byte	0x3d1b
 12947 3574 7F350000 		.4byte	0x357f
 12948 3578 2E       		.uleb128 0x2e
 12949 3579 01       		.uleb128 0x1
 12950 357a 50       		.byte	0x50
 12951 357b 02       		.uleb128 0x2
 12952 357c 75       		.byte	0x75
 12953 357d 00       		.sleb128 0
 12954 357e 00       		.byte	0
 12955 357f 2D       		.uleb128 0x2d
 12956 3580 3C000000 		.4byte	.LVL560
 12957 3584 263D0000 		.4byte	0x3d26
 12958 3588 93350000 		.4byte	0x3593
 12959 358c 2E       		.uleb128 0x2e
 12960 358d 01       		.uleb128 0x1
 12961 358e 50       		.byte	0x50
 12962 358f 02       		.uleb128 0x2
 12963 3590 75       		.byte	0x75
 12964 3591 00       		.sleb128 0
 12965 3592 00       		.byte	0
 12966 3593 30       		.uleb128 0x30
 12967 3594 5C000000 		.4byte	.LVL565
 12968 3598 073D0000 		.4byte	0x3d07
 12969 359c 00       		.byte	0
 12970 359d 47       		.uleb128 0x47
 12971 359e 9B190000 		.4byte	0x199b
 12972 35a2 00000000 		.4byte	.LFB20
 12973 35a6 08010000 		.4byte	.LFE20-.LFB20
 12974 35aa 01       		.uleb128 0x1
 12975 35ab 9C       		.byte	0x9c
 12976 35ac 5B370000 		.4byte	0x375b
 12977 35b0 2A       		.uleb128 0x2a
 12978 35b1 AC190000 		.4byte	0x19ac
 12979 35b5 71320000 		.4byte	.LLST150
 12980 35b9 2A       		.uleb128 0x2a
 12981 35ba B8190000 		.4byte	0x19b8
 12982 35be 8F320000 		.4byte	.LLST151
 12983 35c2 2A       		.uleb128 0x2a
 12984 35c3 C4190000 		.4byte	0x19c4
 12985 35c7 B0320000 		.4byte	.LLST152
 12986 35cb 2A       		.uleb128 0x2a
 12987 35cc D0190000 		.4byte	0x19d0
 12988 35d0 D1320000 		.4byte	.LLST153
 12989 35d4 2A       		.uleb128 0x2a
 12990 35d5 DC190000 		.4byte	0x19dc
 12991 35d9 F2320000 		.4byte	.LLST154
 12992 35dd 2A       		.uleb128 0x2a
 12993 35de E8190000 		.4byte	0x19e8
 12994 35e2 12330000 		.4byte	.LLST155
 12995 35e6 2A       		.uleb128 0x2a
 12996 35e7 F4190000 		.4byte	0x19f4
ARM GAS  C:\Users\mathi\AppData\Local\Temp\ccVwcWGw.s 			page 229


 12997 35eb 32330000 		.4byte	.LLST156
 12998 35ef 2A       		.uleb128 0x2a
 12999 35f0 001A0000 		.4byte	0x1a00
 13000 35f4 52330000 		.4byte	.LLST157
 13001 35f8 3C       		.uleb128 0x3c
 13002 35f9 0C1A0000 		.4byte	0x1a0c
 13003 35fd 72330000 		.4byte	.LLST158
 13004 3601 39       		.uleb128 0x39
 13005 3602 181A0000 		.4byte	0x1a18
 13006 3606 02       		.uleb128 0x2
 13007 3607 91       		.byte	0x91
 13008 3608 53       		.sleb128 -45
 13009 3609 2D       		.uleb128 0x2d
 13010 360a 32000000 		.4byte	.LVL570
 13011 360e F13C0000 		.4byte	0x3cf1
 13012 3612 28360000 		.4byte	0x3628
 13013 3616 2E       		.uleb128 0x2e
 13014 3617 01       		.uleb128 0x1
 13015 3618 50       		.byte	0x50
 13016 3619 02       		.uleb128 0x2
 13017 361a 75       		.byte	0x75
 13018 361b 00       		.sleb128 0
 13019 361c 2E       		.uleb128 0x2e
 13020 361d 01       		.uleb128 0x1
 13021 361e 51       		.byte	0x51
 13022 361f 02       		.uleb128 0x2
 13023 3620 09       		.byte	0x9
 13024 3621 FF       		.byte	0xff
 13025 3622 2E       		.uleb128 0x2e
 13026 3623 01       		.uleb128 0x1
 13027 3624 52       		.byte	0x52
 13028 3625 01       		.uleb128 0x1
 13029 3626 31       		.byte	0x31
 13030 3627 00       		.byte	0
 13031 3628 2D       		.uleb128 0x2d
 13032 3629 3E000000 		.4byte	.LVL572
 13033 362d F13C0000 		.4byte	0x3cf1
 13034 3631 48360000 		.4byte	0x3648
 13035 3635 2E       		.uleb128 0x2e
 13036 3636 01       		.uleb128 0x1
 13037 3637 50       		.byte	0x50
 13038 3638 02       		.uleb128 0x2
 13039 3639 75       		.byte	0x75
 13040 363a 00       		.sleb128 0
 13041 363b 2E       		.uleb128 0x2e
 13042 363c 01       		.uleb128 0x1
 13043 363d 51       		.byte	0x51
 13044 363e 02       		.uleb128 0x2
 13045 363f 76       		.byte	0x76
 13046 3640 00       		.sleb128 0
 13047 3641 2E       		.uleb128 0x2e
 13048 3642 01       		.uleb128 0x1
 13049 3643 52       		.byte	0x52
 13050 3644 02       		.uleb128 0x2
 13051 3645 76       		.byte	0x76
 13052 3646 00       		.sleb128 0
 13053 3647 00       		.byte	0
ARM GAS  C:\Users\mathi\AppData\Local\Temp\ccVwcWGw.s 			page 230


 13054 3648 2D       		.uleb128 0x2d
 13055 3649 4A000000 		.4byte	.LVL574
 13056 364d F13C0000 		.4byte	0x3cf1
 13057 3651 68360000 		.4byte	0x3668
 13058 3655 2E       		.uleb128 0x2e
 13059 3656 01       		.uleb128 0x1
 13060 3657 50       		.byte	0x50
 13061 3658 02       		.uleb128 0x2
 13062 3659 75       		.byte	0x75
 13063 365a 00       		.sleb128 0
 13064 365b 2E       		.uleb128 0x2e
 13065 365c 01       		.uleb128 0x1
 13066 365d 51       		.byte	0x51
 13067 365e 02       		.uleb128 0x2
 13068 365f 09       		.byte	0x9
 13069 3660 FF       		.byte	0xff
 13070 3661 2E       		.uleb128 0x2e
 13071 3662 01       		.uleb128 0x1
 13072 3663 52       		.byte	0x52
 13073 3664 02       		.uleb128 0x2
 13074 3665 76       		.byte	0x76
 13075 3666 00       		.sleb128 0
 13076 3667 00       		.byte	0
 13077 3668 2D       		.uleb128 0x2d
 13078 3669 6C000000 		.4byte	.LVL578
 13079 366d F13C0000 		.4byte	0x3cf1
 13080 3671 87360000 		.4byte	0x3687
 13081 3675 2E       		.uleb128 0x2e
 13082 3676 01       		.uleb128 0x1
 13083 3677 50       		.byte	0x50
 13084 3678 02       		.uleb128 0x2
 13085 3679 75       		.byte	0x75
 13086 367a 00       		.sleb128 0
 13087 367b 2E       		.uleb128 0x2e
 13088 367c 01       		.uleb128 0x1
 13089 367d 51       		.byte	0x51
 13090 367e 02       		.uleb128 0x2
 13091 367f 09       		.byte	0x9
 13092 3680 FF       		.byte	0xff
 13093 3681 2E       		.uleb128 0x2e
 13094 3682 01       		.uleb128 0x1
 13095 3683 52       		.byte	0x52
 13096 3684 01       		.uleb128 0x1
 13097 3685 31       		.byte	0x31
 13098 3686 00       		.byte	0
 13099 3687 2D       		.uleb128 0x2d
 13100 3688 78000000 		.4byte	.LVL580
 13101 368c F13C0000 		.4byte	0x3cf1
 13102 3690 A6360000 		.4byte	0x36a6
 13103 3694 2E       		.uleb128 0x2e
 13104 3695 01       		.uleb128 0x1
 13105 3696 50       		.byte	0x50
 13106 3697 02       		.uleb128 0x2
 13107 3698 75       		.byte	0x75
 13108 3699 00       		.sleb128 0
 13109 369a 2E       		.uleb128 0x2e
 13110 369b 01       		.uleb128 0x1
ARM GAS  C:\Users\mathi\AppData\Local\Temp\ccVwcWGw.s 			page 231


 13111 369c 51       		.byte	0x51
 13112 369d 02       		.uleb128 0x2
 13113 369e 76       		.byte	0x76
 13114 369f 00       		.sleb128 0
 13115 36a0 2E       		.uleb128 0x2e
 13116 36a1 01       		.uleb128 0x1
 13117 36a2 52       		.byte	0x52
 13118 36a3 01       		.uleb128 0x1
 13119 36a4 31       		.byte	0x31
 13120 36a5 00       		.byte	0
 13121 36a6 2D       		.uleb128 0x2d
 13122 36a7 86000000 		.4byte	.LVL583
 13123 36ab F13C0000 		.4byte	0x3cf1
 13124 36af C6360000 		.4byte	0x36c6
 13125 36b3 2E       		.uleb128 0x2e
 13126 36b4 01       		.uleb128 0x1
 13127 36b5 50       		.byte	0x50
 13128 36b6 02       		.uleb128 0x2
 13129 36b7 75       		.byte	0x75
 13130 36b8 00       		.sleb128 0
 13131 36b9 2E       		.uleb128 0x2e
 13132 36ba 01       		.uleb128 0x1
 13133 36bb 51       		.byte	0x51
 13134 36bc 02       		.uleb128 0x2
 13135 36bd 09       		.byte	0x9
 13136 36be FF       		.byte	0xff
 13137 36bf 2E       		.uleb128 0x2e
 13138 36c0 01       		.uleb128 0x1
 13139 36c1 52       		.byte	0x52
 13140 36c2 02       		.uleb128 0x2
 13141 36c3 76       		.byte	0x76
 13142 36c4 00       		.sleb128 0
 13143 36c5 00       		.byte	0
 13144 36c6 2D       		.uleb128 0x2d
 13145 36c7 BE000000 		.4byte	.LVL587
 13146 36cb 103D0000 		.4byte	0x3d10
 13147 36cf EE360000 		.4byte	0x36ee
 13148 36d3 2E       		.uleb128 0x2e
 13149 36d4 01       		.uleb128 0x1
 13150 36d5 50       		.byte	0x50
 13151 36d6 02       		.uleb128 0x2
 13152 36d7 75       		.byte	0x75
 13153 36d8 00       		.sleb128 0
 13154 36d9 2E       		.uleb128 0x2e
 13155 36da 01       		.uleb128 0x1
 13156 36db 51       		.byte	0x51
 13157 36dc 02       		.uleb128 0x2
 13158 36dd 09       		.byte	0x9
 13159 36de EE       		.byte	0xee
 13160 36df 2E       		.uleb128 0x2e
 13161 36e0 01       		.uleb128 0x1
 13162 36e1 52       		.byte	0x52
 13163 36e2 02       		.uleb128 0x2
 13164 36e3 09       		.byte	0x9
 13165 36e4 80       		.byte	0x80
 13166 36e5 2E       		.uleb128 0x2e
 13167 36e6 01       		.uleb128 0x1
ARM GAS  C:\Users\mathi\AppData\Local\Temp\ccVwcWGw.s 			page 232


 13168 36e7 53       		.byte	0x53
 13169 36e8 04       		.uleb128 0x4
 13170 36e9 91       		.byte	0x91
 13171 36ea 44       		.sleb128 -60
 13172 36eb 94       		.byte	0x94
 13173 36ec 01       		.byte	0x1
 13174 36ed 00       		.byte	0
 13175 36ee 2D       		.uleb128 0x2d
 13176 36ef CE000000 		.4byte	.LVL590
 13177 36f3 FC3C0000 		.4byte	0x3cfc
 13178 36f7 0F370000 		.4byte	0x370f
 13179 36fb 2E       		.uleb128 0x2e
 13180 36fc 01       		.uleb128 0x1
 13181 36fd 50       		.byte	0x50
 13182 36fe 02       		.uleb128 0x2
 13183 36ff 75       		.byte	0x75
 13184 3700 00       		.sleb128 0
 13185 3701 2E       		.uleb128 0x2e
 13186 3702 01       		.uleb128 0x1
 13187 3703 51       		.byte	0x51
 13188 3704 02       		.uleb128 0x2
 13189 3705 09       		.byte	0x9
 13190 3706 CB       		.byte	0xcb
 13191 3707 2E       		.uleb128 0x2e
 13192 3708 01       		.uleb128 0x1
 13193 3709 52       		.byte	0x52
 13194 370a 03       		.uleb128 0x3
 13195 370b 91       		.byte	0x91
 13196 370c 4C       		.sleb128 -52
 13197 370d 06       		.byte	0x6
 13198 370e 00       		.byte	0
 13199 370f 2D       		.uleb128 0x2d
 13200 3710 E4000000 		.4byte	.LVL593
 13201 3714 FC3C0000 		.4byte	0x3cfc
 13202 3718 2F370000 		.4byte	0x372f
 13203 371c 2E       		.uleb128 0x2e
 13204 371d 01       		.uleb128 0x1
 13205 371e 50       		.byte	0x50
 13206 371f 02       		.uleb128 0x2
 13207 3720 75       		.byte	0x75
 13208 3721 00       		.sleb128 0
 13209 3722 2E       		.uleb128 0x2e
 13210 3723 01       		.uleb128 0x1
 13211 3724 51       		.byte	0x51
 13212 3725 02       		.uleb128 0x2
 13213 3726 09       		.byte	0x9
 13214 3727 EE       		.byte	0xee
 13215 3728 2E       		.uleb128 0x2e
 13216 3729 01       		.uleb128 0x1
 13217 372a 52       		.byte	0x52
 13218 372b 02       		.uleb128 0x2
 13219 372c 91       		.byte	0x91
 13220 372d 53       		.sleb128 -45
 13221 372e 00       		.byte	0
 13222 372f 2D       		.uleb128 0x2d
 13223 3730 F4000000 		.4byte	.LVL596
 13224 3734 F13C0000 		.4byte	0x3cf1
ARM GAS  C:\Users\mathi\AppData\Local\Temp\ccVwcWGw.s 			page 233


 13225 3738 51370000 		.4byte	0x3751
 13226 373c 2E       		.uleb128 0x2e
 13227 373d 01       		.uleb128 0x1
 13228 373e 50       		.byte	0x50
 13229 373f 02       		.uleb128 0x2
 13230 3740 75       		.byte	0x75
 13231 3741 00       		.sleb128 0
 13232 3742 2E       		.uleb128 0x2e
 13233 3743 01       		.uleb128 0x1
 13234 3744 51       		.byte	0x51
 13235 3745 02       		.uleb128 0x2
 13236 3746 09       		.byte	0x9
 13237 3747 CB       		.byte	0xcb
 13238 3748 2E       		.uleb128 0x2e
 13239 3749 01       		.uleb128 0x1
 13240 374a 52       		.byte	0x52
 13241 374b 04       		.uleb128 0x4
 13242 374c 91       		.byte	0x91
 13243 374d 48       		.sleb128 -56
 13244 374e 94       		.byte	0x94
 13245 374f 01       		.byte	0x1
 13246 3750 00       		.byte	0
 13247 3751 30       		.uleb128 0x30
 13248 3752 04010000 		.4byte	.LVL600
 13249 3756 073D0000 		.4byte	0x3d07
 13250 375a 00       		.byte	0
 13251 375b 47       		.uleb128 0x47
 13252 375c 1D190000 		.4byte	0x191d
 13253 3760 00000000 		.4byte	.LFB21
 13254 3764 34010000 		.4byte	.LFE21-.LFB21
 13255 3768 01       		.uleb128 0x1
 13256 3769 9C       		.byte	0x9c
 13257 376a 343A0000 		.4byte	0x3a34
 13258 376e 2A       		.uleb128 0x2a
 13259 376f 2E190000 		.4byte	0x192e
 13260 3773 F9330000 		.4byte	.LLST159
 13261 3777 2A       		.uleb128 0x2a
 13262 3778 3A190000 		.4byte	0x193a
 13263 377c 2D340000 		.4byte	.LLST160
 13264 3780 2A       		.uleb128 0x2a
 13265 3781 46190000 		.4byte	0x1946
 13266 3785 61340000 		.4byte	.LLST161
 13267 3789 2A       		.uleb128 0x2a
 13268 378a 52190000 		.4byte	0x1952
 13269 378e 9B340000 		.4byte	.LLST162
 13270 3792 3C       		.uleb128 0x3c
 13271 3793 5E190000 		.4byte	0x195e
 13272 3797 D5340000 		.4byte	.LLST163
 13273 379b 3C       		.uleb128 0x3c
 13274 379c 6A190000 		.4byte	0x196a
 13275 37a0 42350000 		.4byte	.LLST164
 13276 37a4 49       		.uleb128 0x49
 13277 37a5 76190000 		.4byte	0x1976
 13278 37a9 00       		.byte	0
 13279 37aa 49       		.uleb128 0x49
 13280 37ab 82190000 		.4byte	0x1982
 13281 37af 00       		.byte	0
ARM GAS  C:\Users\mathi\AppData\Local\Temp\ccVwcWGw.s 			page 234


 13282 37b0 3C       		.uleb128 0x3c
 13283 37b1 8E190000 		.4byte	0x198e
 13284 37b5 78350000 		.4byte	.LLST165
 13285 37b9 33       		.uleb128 0x33
 13286 37ba 251A0000 		.4byte	0x1a25
 13287 37be 50000000 		.4byte	.LBB124
 13288 37c2 34000000 		.4byte	.LBE124-.LBB124
 13289 37c6 01       		.byte	0x1
 13290 37c7 7804     		.2byte	0x478
 13291 37c9 82380000 		.4byte	0x3882
 13292 37cd 2A       		.uleb128 0x2a
 13293 37ce 421A0000 		.4byte	0x1a42
 13294 37d2 98350000 		.4byte	.LLST166
 13295 37d6 2A       		.uleb128 0x2a
 13296 37d7 361A0000 		.4byte	0x1a36
 13297 37db AD350000 		.4byte	.LLST167
 13298 37df 34       		.uleb128 0x34
 13299 37e0 50000000 		.4byte	.LBB125
 13300 37e4 34000000 		.4byte	.LBE125-.LBB125
 13301 37e8 2C       		.uleb128 0x2c
 13302 37e9 11350000 		.4byte	0x3511
 13303 37ed 35       		.uleb128 0x35
 13304 37ee 251A0000 		.4byte	0x1a25
 13305 37f2 7A000000 		.4byte	.LBB126
 13306 37f6 0A000000 		.4byte	.LBE126-.LBB126
 13307 37fa 3C380000 		.4byte	0x383c
 13308 37fe 2A       		.uleb128 0x2a
 13309 37ff 421A0000 		.4byte	0x1a42
 13310 3803 C0350000 		.4byte	.LLST168
 13311 3807 2A       		.uleb128 0x2a
 13312 3808 361A0000 		.4byte	0x1a36
 13313 380c D5350000 		.4byte	.LLST169
 13314 3810 34       		.uleb128 0x34
 13315 3811 7A000000 		.4byte	.LBB127
 13316 3815 0A000000 		.4byte	.LBE127-.LBB127
 13317 3819 2C       		.uleb128 0x2c
 13318 381a 11350000 		.4byte	0x3511
 13319 381e 2F       		.uleb128 0x2f
 13320 381f 84000000 		.4byte	.LVL624
 13321 3823 F13C0000 		.4byte	0x3cf1
 13322 3827 2E       		.uleb128 0x2e
 13323 3828 01       		.uleb128 0x1
 13324 3829 50       		.byte	0x50
 13325 382a 02       		.uleb128 0x2
 13326 382b 75       		.byte	0x75
 13327 382c 00       		.sleb128 0
 13328 382d 2E       		.uleb128 0x2e
 13329 382e 01       		.uleb128 0x1
 13330 382f 51       		.byte	0x51
 13331 3830 02       		.uleb128 0x2
 13332 3831 74       		.byte	0x74
 13333 3832 00       		.sleb128 0
 13334 3833 2E       		.uleb128 0x2e
 13335 3834 01       		.uleb128 0x1
 13336 3835 52       		.byte	0x52
 13337 3836 02       		.uleb128 0x2
 13338 3837 74       		.byte	0x74
ARM GAS  C:\Users\mathi\AppData\Local\Temp\ccVwcWGw.s 			page 235


 13339 3838 00       		.sleb128 0
 13340 3839 00       		.byte	0
 13341 383a 00       		.byte	0
 13342 383b 00       		.byte	0
 13343 383c 2D       		.uleb128 0x2d
 13344 383d 5A000000 		.4byte	.LVL617
 13345 3841 F13C0000 		.4byte	0x3cf1
 13346 3845 56380000 		.4byte	0x3856
 13347 3849 2E       		.uleb128 0x2e
 13348 384a 01       		.uleb128 0x1
 13349 384b 50       		.byte	0x50
 13350 384c 02       		.uleb128 0x2
 13351 384d 75       		.byte	0x75
 13352 384e 00       		.sleb128 0
 13353 384f 2E       		.uleb128 0x2e
 13354 3850 01       		.uleb128 0x1
 13355 3851 52       		.byte	0x52
 13356 3852 02       		.uleb128 0x2
 13357 3853 08       		.byte	0x8
 13358 3854 41       		.byte	0x41
 13359 3855 00       		.byte	0
 13360 3856 2D       		.uleb128 0x2d
 13361 3857 66000000 		.4byte	.LVL619
 13362 385b 1B3D0000 		.4byte	0x3d1b
 13363 385f 6A380000 		.4byte	0x386a
 13364 3863 2E       		.uleb128 0x2e
 13365 3864 01       		.uleb128 0x1
 13366 3865 50       		.byte	0x50
 13367 3866 02       		.uleb128 0x2
 13368 3867 75       		.byte	0x75
 13369 3868 00       		.sleb128 0
 13370 3869 00       		.byte	0
 13371 386a 2F       		.uleb128 0x2f
 13372 386b 74000000 		.4byte	.LVL621
 13373 386f 263D0000 		.4byte	0x3d26
 13374 3873 2E       		.uleb128 0x2e
 13375 3874 01       		.uleb128 0x1
 13376 3875 50       		.byte	0x50
 13377 3876 02       		.uleb128 0x2
 13378 3877 75       		.byte	0x75
 13379 3878 00       		.sleb128 0
 13380 3879 2E       		.uleb128 0x2e
 13381 387a 01       		.uleb128 0x1
 13382 387b 51       		.byte	0x51
 13383 387c 02       		.uleb128 0x2
 13384 387d 74       		.byte	0x74
 13385 387e 00       		.sleb128 0
 13386 387f 00       		.byte	0
 13387 3880 00       		.byte	0
 13388 3881 00       		.byte	0
 13389 3882 33       		.uleb128 0x33
 13390 3883 9B190000 		.4byte	0x199b
 13391 3887 AE000000 		.4byte	.LBB128
 13392 388b 76000000 		.4byte	.LBE128-.LBB128
 13393 388f 01       		.byte	0x1
 13394 3890 7C04     		.2byte	0x47c
 13395 3892 CF390000 		.4byte	0x39cf
ARM GAS  C:\Users\mathi\AppData\Local\Temp\ccVwcWGw.s 			page 236


 13396 3896 2A       		.uleb128 0x2a
 13397 3897 001A0000 		.4byte	0x1a00
 13398 389b E8350000 		.4byte	.LLST170
 13399 389f 2A       		.uleb128 0x2a
 13400 38a0 F4190000 		.4byte	0x19f4
 13401 38a4 FC350000 		.4byte	.LLST171
 13402 38a8 2A       		.uleb128 0x2a
 13403 38a9 E8190000 		.4byte	0x19e8
 13404 38ad 10360000 		.4byte	.LLST172
 13405 38b1 2A       		.uleb128 0x2a
 13406 38b2 DC190000 		.4byte	0x19dc
 13407 38b6 28360000 		.4byte	.LLST173
 13408 38ba 2A       		.uleb128 0x2a
 13409 38bb D0190000 		.4byte	0x19d0
 13410 38bf E8350000 		.4byte	.LLST170
 13411 38c3 2A       		.uleb128 0x2a
 13412 38c4 C4190000 		.4byte	0x19c4
 13413 38c8 E8350000 		.4byte	.LLST170
 13414 38cc 2A       		.uleb128 0x2a
 13415 38cd B8190000 		.4byte	0x19b8
 13416 38d1 FC350000 		.4byte	.LLST171
 13417 38d5 2A       		.uleb128 0x2a
 13418 38d6 AC190000 		.4byte	0x19ac
 13419 38da 3B360000 		.4byte	.LLST177
 13420 38de 34       		.uleb128 0x34
 13421 38df AE000000 		.4byte	.LBB129
 13422 38e3 76000000 		.4byte	.LBE129-.LBB129
 13423 38e7 2C       		.uleb128 0x2c
 13424 38e8 F8350000 		.4byte	0x35f8
 13425 38ec 2C       		.uleb128 0x2c
 13426 38ed 01360000 		.4byte	0x3601
 13427 38f1 2D       		.uleb128 0x2d
 13428 38f2 B8000000 		.4byte	.LVL629
 13429 38f6 F13C0000 		.4byte	0x3cf1
 13430 38fa 11390000 		.4byte	0x3911
 13431 38fe 2E       		.uleb128 0x2e
 13432 38ff 01       		.uleb128 0x1
 13433 3900 50       		.byte	0x50
 13434 3901 02       		.uleb128 0x2
 13435 3902 75       		.byte	0x75
 13436 3903 00       		.sleb128 0
 13437 3904 2E       		.uleb128 0x2e
 13438 3905 01       		.uleb128 0x1
 13439 3906 51       		.byte	0x51
 13440 3907 02       		.uleb128 0x2
 13441 3908 09       		.byte	0x9
 13442 3909 FF       		.byte	0xff
 13443 390a 2E       		.uleb128 0x2e
 13444 390b 01       		.uleb128 0x1
 13445 390c 52       		.byte	0x52
 13446 390d 02       		.uleb128 0x2
 13447 390e 7A       		.byte	0x7a
 13448 390f 00       		.sleb128 0
 13449 3910 00       		.byte	0
 13450 3911 2D       		.uleb128 0x2d
 13451 3912 C4000000 		.4byte	.LVL631
 13452 3916 F13C0000 		.4byte	0x3cf1
ARM GAS  C:\Users\mathi\AppData\Local\Temp\ccVwcWGw.s 			page 237


 13453 391a 31390000 		.4byte	0x3931
 13454 391e 2E       		.uleb128 0x2e
 13455 391f 01       		.uleb128 0x1
 13456 3920 50       		.byte	0x50
 13457 3921 02       		.uleb128 0x2
 13458 3922 75       		.byte	0x75
 13459 3923 00       		.sleb128 0
 13460 3924 2E       		.uleb128 0x2e
 13461 3925 01       		.uleb128 0x1
 13462 3926 51       		.byte	0x51
 13463 3927 02       		.uleb128 0x2
 13464 3928 74       		.byte	0x74
 13465 3929 00       		.sleb128 0
 13466 392a 2E       		.uleb128 0x2e
 13467 392b 01       		.uleb128 0x1
 13468 392c 52       		.byte	0x52
 13469 392d 02       		.uleb128 0x2
 13470 392e 74       		.byte	0x74
 13471 392f 00       		.sleb128 0
 13472 3930 00       		.byte	0
 13473 3931 2D       		.uleb128 0x2d
 13474 3932 D2000000 		.4byte	.LVL633
 13475 3936 F13C0000 		.4byte	0x3cf1
 13476 393a 51390000 		.4byte	0x3951
 13477 393e 2E       		.uleb128 0x2e
 13478 393f 01       		.uleb128 0x1
 13479 3940 50       		.byte	0x50
 13480 3941 02       		.uleb128 0x2
 13481 3942 75       		.byte	0x75
 13482 3943 00       		.sleb128 0
 13483 3944 2E       		.uleb128 0x2e
 13484 3945 01       		.uleb128 0x1
 13485 3946 51       		.byte	0x51
 13486 3947 02       		.uleb128 0x2
 13487 3948 09       		.byte	0x9
 13488 3949 FF       		.byte	0xff
 13489 394a 2E       		.uleb128 0x2e
 13490 394b 01       		.uleb128 0x1
 13491 394c 52       		.byte	0x52
 13492 394d 02       		.uleb128 0x2
 13493 394e 74       		.byte	0x74
 13494 394f 00       		.sleb128 0
 13495 3950 00       		.byte	0
 13496 3951 2D       		.uleb128 0x2d
 13497 3952 E4000000 		.4byte	.LVL636
 13498 3956 FC3C0000 		.4byte	0x3cfc
 13499 395a 71390000 		.4byte	0x3971
 13500 395e 2E       		.uleb128 0x2e
 13501 395f 01       		.uleb128 0x1
 13502 3960 50       		.byte	0x50
 13503 3961 02       		.uleb128 0x2
 13504 3962 75       		.byte	0x75
 13505 3963 00       		.sleb128 0
 13506 3964 2E       		.uleb128 0x2e
 13507 3965 01       		.uleb128 0x1
 13508 3966 51       		.byte	0x51
 13509 3967 02       		.uleb128 0x2
ARM GAS  C:\Users\mathi\AppData\Local\Temp\ccVwcWGw.s 			page 238


 13510 3968 09       		.byte	0x9
 13511 3969 CB       		.byte	0xcb
 13512 396a 2E       		.uleb128 0x2e
 13513 396b 01       		.uleb128 0x1
 13514 396c 52       		.byte	0x52
 13515 396d 02       		.uleb128 0x2
 13516 396e 7B       		.byte	0x7b
 13517 396f 00       		.sleb128 0
 13518 3970 00       		.byte	0
 13519 3971 2D       		.uleb128 0x2d
 13520 3972 F6000000 		.4byte	.LVL639
 13521 3976 F13C0000 		.4byte	0x3cf1
 13522 397a 91390000 		.4byte	0x3991
 13523 397e 2E       		.uleb128 0x2e
 13524 397f 01       		.uleb128 0x1
 13525 3980 50       		.byte	0x50
 13526 3981 02       		.uleb128 0x2
 13527 3982 75       		.byte	0x75
 13528 3983 00       		.sleb128 0
 13529 3984 2E       		.uleb128 0x2e
 13530 3985 01       		.uleb128 0x1
 13531 3986 51       		.byte	0x51
 13532 3987 02       		.uleb128 0x2
 13533 3988 09       		.byte	0x9
 13534 3989 FF       		.byte	0xff
 13535 398a 2E       		.uleb128 0x2e
 13536 398b 01       		.uleb128 0x1
 13537 398c 52       		.byte	0x52
 13538 398d 02       		.uleb128 0x2
 13539 398e 7A       		.byte	0x7a
 13540 398f 00       		.sleb128 0
 13541 3990 00       		.byte	0
 13542 3991 2D       		.uleb128 0x2d
 13543 3992 08010000 		.4byte	.LVL642
 13544 3996 F13C0000 		.4byte	0x3cf1
 13545 399a B1390000 		.4byte	0x39b1
 13546 399e 2E       		.uleb128 0x2e
 13547 399f 01       		.uleb128 0x1
 13548 39a0 50       		.byte	0x50
 13549 39a1 02       		.uleb128 0x2
 13550 39a2 75       		.byte	0x75
 13551 39a3 00       		.sleb128 0
 13552 39a4 2E       		.uleb128 0x2e
 13553 39a5 01       		.uleb128 0x1
 13554 39a6 51       		.byte	0x51
 13555 39a7 02       		.uleb128 0x2
 13556 39a8 74       		.byte	0x74
 13557 39a9 00       		.sleb128 0
 13558 39aa 2E       		.uleb128 0x2e
 13559 39ab 01       		.uleb128 0x1
 13560 39ac 52       		.byte	0x52
 13561 39ad 02       		.uleb128 0x2
 13562 39ae 7A       		.byte	0x7a
 13563 39af 00       		.sleb128 0
 13564 39b0 00       		.byte	0
 13565 39b1 2F       		.uleb128 0x2f
 13566 39b2 1A010000 		.4byte	.LVL645
ARM GAS  C:\Users\mathi\AppData\Local\Temp\ccVwcWGw.s 			page 239


 13567 39b6 F13C0000 		.4byte	0x3cf1
 13568 39ba 2E       		.uleb128 0x2e
 13569 39bb 01       		.uleb128 0x1
 13570 39bc 50       		.byte	0x50
 13571 39bd 02       		.uleb128 0x2
 13572 39be 75       		.byte	0x75
 13573 39bf 00       		.sleb128 0
 13574 39c0 2E       		.uleb128 0x2e
 13575 39c1 01       		.uleb128 0x1
 13576 39c2 51       		.byte	0x51
 13577 39c3 02       		.uleb128 0x2
 13578 39c4 09       		.byte	0x9
 13579 39c5 FF       		.byte	0xff
 13580 39c6 2E       		.uleb128 0x2e
 13581 39c7 01       		.uleb128 0x1
 13582 39c8 52       		.byte	0x52
 13583 39c9 02       		.uleb128 0x2
 13584 39ca 74       		.byte	0x74
 13585 39cb 00       		.sleb128 0
 13586 39cc 00       		.byte	0
 13587 39cd 00       		.byte	0
 13588 39ce 00       		.byte	0
 13589 39cf 2D       		.uleb128 0x2d
 13590 39d0 24000000 		.4byte	.LVL606
 13591 39d4 F13C0000 		.4byte	0x3cf1
 13592 39d8 ED390000 		.4byte	0x39ed
 13593 39dc 2E       		.uleb128 0x2e
 13594 39dd 01       		.uleb128 0x1
 13595 39de 50       		.byte	0x50
 13596 39df 02       		.uleb128 0x2
 13597 39e0 75       		.byte	0x75
 13598 39e1 00       		.sleb128 0
 13599 39e2 2E       		.uleb128 0x2e
 13600 39e3 01       		.uleb128 0x1
 13601 39e4 51       		.byte	0x51
 13602 39e5 01       		.uleb128 0x1
 13603 39e6 31       		.byte	0x31
 13604 39e7 2E       		.uleb128 0x2e
 13605 39e8 01       		.uleb128 0x1
 13606 39e9 52       		.byte	0x52
 13607 39ea 01       		.uleb128 0x1
 13608 39eb 31       		.byte	0x31
 13609 39ec 00       		.byte	0
 13610 39ed 2D       		.uleb128 0x2d
 13611 39ee 4A000000 		.4byte	.LVL614
 13612 39f2 F13C0000 		.4byte	0x3cf1
 13613 39f6 0B3A0000 		.4byte	0x3a0b
 13614 39fa 2E       		.uleb128 0x2e
 13615 39fb 01       		.uleb128 0x1
 13616 39fc 50       		.byte	0x50
 13617 39fd 02       		.uleb128 0x2
 13618 39fe 75       		.byte	0x75
 13619 39ff 00       		.sleb128 0
 13620 3a00 2E       		.uleb128 0x2e
 13621 3a01 01       		.uleb128 0x1
 13622 3a02 51       		.byte	0x51
 13623 3a03 01       		.uleb128 0x1
ARM GAS  C:\Users\mathi\AppData\Local\Temp\ccVwcWGw.s 			page 240


 13624 3a04 31       		.byte	0x31
 13625 3a05 2E       		.uleb128 0x2e
 13626 3a06 01       		.uleb128 0x1
 13627 3a07 52       		.byte	0x52
 13628 3a08 01       		.uleb128 0x1
 13629 3a09 31       		.byte	0x31
 13630 3a0a 00       		.byte	0
 13631 3a0b 2D       		.uleb128 0x2d
 13632 3a0c A2000000 		.4byte	.LVL626
 13633 3a10 F13C0000 		.4byte	0x3cf1
 13634 3a14 2A3A0000 		.4byte	0x3a2a
 13635 3a18 2E       		.uleb128 0x2e
 13636 3a19 01       		.uleb128 0x1
 13637 3a1a 50       		.byte	0x50
 13638 3a1b 02       		.uleb128 0x2
 13639 3a1c 75       		.byte	0x75
 13640 3a1d 00       		.sleb128 0
 13641 3a1e 2E       		.uleb128 0x2e
 13642 3a1f 01       		.uleb128 0x1
 13643 3a20 51       		.byte	0x51
 13644 3a21 01       		.uleb128 0x1
 13645 3a22 31       		.byte	0x31
 13646 3a23 2E       		.uleb128 0x2e
 13647 3a24 01       		.uleb128 0x1
 13648 3a25 52       		.byte	0x52
 13649 3a26 02       		.uleb128 0x2
 13650 3a27 79       		.byte	0x79
 13651 3a28 00       		.sleb128 0
 13652 3a29 00       		.byte	0
 13653 3a2a 30       		.uleb128 0x30
 13654 3a2b 30010000 		.4byte	.LVL649
 13655 3a2f 073D0000 		.4byte	0x3d07
 13656 3a33 00       		.byte	0
 13657 3a34 47       		.uleb128 0x47
 13658 3a35 9F180000 		.4byte	0x189f
 13659 3a39 00000000 		.4byte	.LFB22
 13660 3a3d 40010000 		.4byte	.LFE22-.LFB22
 13661 3a41 01       		.uleb128 0x1
 13662 3a42 9C       		.byte	0x9c
 13663 3a43 F13C0000 		.4byte	0x3cf1
 13664 3a47 2A       		.uleb128 0x2a
 13665 3a48 B0180000 		.4byte	0x18b0
 13666 3a4c 4E360000 		.4byte	.LLST178
 13667 3a50 2A       		.uleb128 0x2a
 13668 3a51 BC180000 		.4byte	0x18bc
 13669 3a55 82360000 		.4byte	.LLST179
 13670 3a59 2A       		.uleb128 0x2a
 13671 3a5a C8180000 		.4byte	0x18c8
 13672 3a5e B6360000 		.4byte	.LLST180
 13673 3a62 2A       		.uleb128 0x2a
 13674 3a63 D4180000 		.4byte	0x18d4
 13675 3a67 F0360000 		.4byte	.LLST181
 13676 3a6b 3C       		.uleb128 0x3c
 13677 3a6c E0180000 		.4byte	0x18e0
 13678 3a70 2A370000 		.4byte	.LLST182
 13679 3a74 3C       		.uleb128 0x3c
 13680 3a75 EC180000 		.4byte	0x18ec
ARM GAS  C:\Users\mathi\AppData\Local\Temp\ccVwcWGw.s 			page 241


 13681 3a79 97370000 		.4byte	.LLST183
 13682 3a7d 49       		.uleb128 0x49
 13683 3a7e F8180000 		.4byte	0x18f8
 13684 3a82 00       		.byte	0
 13685 3a83 49       		.uleb128 0x49
 13686 3a84 04190000 		.4byte	0x1904
 13687 3a88 00       		.byte	0
 13688 3a89 2C       		.uleb128 0x2c
 13689 3a8a 10190000 		.4byte	0x1910
 13690 3a8e 33       		.uleb128 0x33
 13691 3a8f 251A0000 		.4byte	0x1a25
 13692 3a93 42000000 		.4byte	.LBB136
 13693 3a97 34000000 		.4byte	.LBE136-.LBB136
 13694 3a9b 01       		.byte	0x1
 13695 3a9c A504     		.2byte	0x4a5
 13696 3a9e 5C3B0000 		.4byte	0x3b5c
 13697 3aa2 2A       		.uleb128 0x2a
 13698 3aa3 421A0000 		.4byte	0x1a42
 13699 3aa7 CD370000 		.4byte	.LLST184
 13700 3aab 2A       		.uleb128 0x2a
 13701 3aac 361A0000 		.4byte	0x1a36
 13702 3ab0 E1370000 		.4byte	.LLST185
 13703 3ab4 34       		.uleb128 0x34
 13704 3ab5 42000000 		.4byte	.LBB137
 13705 3ab9 34000000 		.4byte	.LBE137-.LBB137
 13706 3abd 2C       		.uleb128 0x2c
 13707 3abe 11350000 		.4byte	0x3511
 13708 3ac2 35       		.uleb128 0x35
 13709 3ac3 251A0000 		.4byte	0x1a25
 13710 3ac7 6C000000 		.4byte	.LBB138
 13711 3acb 0A000000 		.4byte	.LBE138-.LBB138
 13712 3acf 113B0000 		.4byte	0x3b11
 13713 3ad3 2A       		.uleb128 0x2a
 13714 3ad4 421A0000 		.4byte	0x1a42
 13715 3ad8 F4370000 		.4byte	.LLST186
 13716 3adc 2A       		.uleb128 0x2a
 13717 3add 361A0000 		.4byte	0x1a36
 13718 3ae1 08380000 		.4byte	.LLST187
 13719 3ae5 34       		.uleb128 0x34
 13720 3ae6 6C000000 		.4byte	.LBB139
 13721 3aea 0A000000 		.4byte	.LBE139-.LBB139
 13722 3aee 2C       		.uleb128 0x2c
 13723 3aef 11350000 		.4byte	0x3511
 13724 3af3 2F       		.uleb128 0x2f
 13725 3af4 76000000 		.4byte	.LVL669
 13726 3af8 F13C0000 		.4byte	0x3cf1
 13727 3afc 2E       		.uleb128 0x2e
 13728 3afd 01       		.uleb128 0x1
 13729 3afe 50       		.byte	0x50
 13730 3aff 02       		.uleb128 0x2
 13731 3b00 75       		.byte	0x75
 13732 3b01 00       		.sleb128 0
 13733 3b02 2E       		.uleb128 0x2e
 13734 3b03 01       		.uleb128 0x1
 13735 3b04 51       		.byte	0x51
 13736 3b05 02       		.uleb128 0x2
 13737 3b06 74       		.byte	0x74
ARM GAS  C:\Users\mathi\AppData\Local\Temp\ccVwcWGw.s 			page 242


 13738 3b07 00       		.sleb128 0
 13739 3b08 2E       		.uleb128 0x2e
 13740 3b09 01       		.uleb128 0x1
 13741 3b0a 52       		.byte	0x52
 13742 3b0b 02       		.uleb128 0x2
 13743 3b0c 74       		.byte	0x74
 13744 3b0d 00       		.sleb128 0
 13745 3b0e 00       		.byte	0
 13746 3b0f 00       		.byte	0
 13747 3b10 00       		.byte	0
 13748 3b11 2D       		.uleb128 0x2d
 13749 3b12 4C000000 		.4byte	.LVL662
 13750 3b16 F13C0000 		.4byte	0x3cf1
 13751 3b1a 303B0000 		.4byte	0x3b30
 13752 3b1e 2E       		.uleb128 0x2e
 13753 3b1f 01       		.uleb128 0x1
 13754 3b20 50       		.byte	0x50
 13755 3b21 02       		.uleb128 0x2
 13756 3b22 75       		.byte	0x75
 13757 3b23 00       		.sleb128 0
 13758 3b24 2E       		.uleb128 0x2e
 13759 3b25 01       		.uleb128 0x1
 13760 3b26 51       		.byte	0x51
 13761 3b27 02       		.uleb128 0x2
 13762 3b28 74       		.byte	0x74
 13763 3b29 00       		.sleb128 0
 13764 3b2a 2E       		.uleb128 0x2e
 13765 3b2b 01       		.uleb128 0x1
 13766 3b2c 52       		.byte	0x52
 13767 3b2d 01       		.uleb128 0x1
 13768 3b2e 31       		.byte	0x31
 13769 3b2f 00       		.byte	0
 13770 3b30 2D       		.uleb128 0x2d
 13771 3b31 58000000 		.4byte	.LVL664
 13772 3b35 1B3D0000 		.4byte	0x3d1b
 13773 3b39 443B0000 		.4byte	0x3b44
 13774 3b3d 2E       		.uleb128 0x2e
 13775 3b3e 01       		.uleb128 0x1
 13776 3b3f 50       		.byte	0x50
 13777 3b40 02       		.uleb128 0x2
 13778 3b41 75       		.byte	0x75
 13779 3b42 00       		.sleb128 0
 13780 3b43 00       		.byte	0
 13781 3b44 2F       		.uleb128 0x2f
 13782 3b45 66000000 		.4byte	.LVL666
 13783 3b49 263D0000 		.4byte	0x3d26
 13784 3b4d 2E       		.uleb128 0x2e
 13785 3b4e 01       		.uleb128 0x1
 13786 3b4f 50       		.byte	0x50
 13787 3b50 02       		.uleb128 0x2
 13788 3b51 75       		.byte	0x75
 13789 3b52 00       		.sleb128 0
 13790 3b53 2E       		.uleb128 0x2e
 13791 3b54 01       		.uleb128 0x1
 13792 3b55 51       		.byte	0x51
 13793 3b56 02       		.uleb128 0x2
 13794 3b57 74       		.byte	0x74
ARM GAS  C:\Users\mathi\AppData\Local\Temp\ccVwcWGw.s 			page 243


 13795 3b58 00       		.sleb128 0
 13796 3b59 00       		.byte	0
 13797 3b5a 00       		.byte	0
 13798 3b5b 00       		.byte	0
 13799 3b5c 33       		.uleb128 0x33
 13800 3b5d 9B190000 		.4byte	0x199b
 13801 3b61 A0000000 		.4byte	.LBB140
 13802 3b65 8E000000 		.4byte	.LBE140-.LBB140
 13803 3b69 01       		.byte	0x1
 13804 3b6a A904     		.2byte	0x4a9
 13805 3b6c AA3C0000 		.4byte	0x3caa
 13806 3b70 2A       		.uleb128 0x2a
 13807 3b71 001A0000 		.4byte	0x1a00
 13808 3b75 1B380000 		.4byte	.LLST188
 13809 3b79 2A       		.uleb128 0x2a
 13810 3b7a F4190000 		.4byte	0x19f4
 13811 3b7e 2F380000 		.4byte	.LLST189
 13812 3b82 2A       		.uleb128 0x2a
 13813 3b83 E8190000 		.4byte	0x19e8
 13814 3b87 43380000 		.4byte	.LLST190
 13815 3b8b 2A       		.uleb128 0x2a
 13816 3b8c DC190000 		.4byte	0x19dc
 13817 3b90 56380000 		.4byte	.LLST191
 13818 3b94 2A       		.uleb128 0x2a
 13819 3b95 D0190000 		.4byte	0x19d0
 13820 3b99 2F380000 		.4byte	.LLST189
 13821 3b9d 2A       		.uleb128 0x2a
 13822 3b9e C4190000 		.4byte	0x19c4
 13823 3ba2 2F380000 		.4byte	.LLST189
 13824 3ba6 2A       		.uleb128 0x2a
 13825 3ba7 B8190000 		.4byte	0x19b8
 13826 3bab 1B380000 		.4byte	.LLST188
 13827 3baf 2A       		.uleb128 0x2a
 13828 3bb0 AC190000 		.4byte	0x19ac
 13829 3bb4 6E380000 		.4byte	.LLST195
 13830 3bb8 34       		.uleb128 0x34
 13831 3bb9 A0000000 		.4byte	.LBB141
 13832 3bbd 8E000000 		.4byte	.LBE141-.LBB141
 13833 3bc1 2C       		.uleb128 0x2c
 13834 3bc2 F8350000 		.4byte	0x35f8
 13835 3bc6 2C       		.uleb128 0x2c
 13836 3bc7 01360000 		.4byte	0x3601
 13837 3bcb 2D       		.uleb128 0x2d
 13838 3bcc B4000000 		.4byte	.LVL674
 13839 3bd0 F13C0000 		.4byte	0x3cf1
 13840 3bd4 EB3B0000 		.4byte	0x3beb
 13841 3bd8 2E       		.uleb128 0x2e
 13842 3bd9 01       		.uleb128 0x1
 13843 3bda 50       		.byte	0x50
 13844 3bdb 02       		.uleb128 0x2
 13845 3bdc 75       		.byte	0x75
 13846 3bdd 00       		.sleb128 0
 13847 3bde 2E       		.uleb128 0x2e
 13848 3bdf 01       		.uleb128 0x1
 13849 3be0 51       		.byte	0x51
 13850 3be1 02       		.uleb128 0x2
 13851 3be2 09       		.byte	0x9
ARM GAS  C:\Users\mathi\AppData\Local\Temp\ccVwcWGw.s 			page 244


 13852 3be3 FF       		.byte	0xff
 13853 3be4 2E       		.uleb128 0x2e
 13854 3be5 01       		.uleb128 0x1
 13855 3be6 52       		.byte	0x52
 13856 3be7 02       		.uleb128 0x2
 13857 3be8 7B       		.byte	0x7b
 13858 3be9 00       		.sleb128 0
 13859 3bea 00       		.byte	0
 13860 3beb 2D       		.uleb128 0x2d
 13861 3bec C0000000 		.4byte	.LVL676
 13862 3bf0 F13C0000 		.4byte	0x3cf1
 13863 3bf4 0B3C0000 		.4byte	0x3c0b
 13864 3bf8 2E       		.uleb128 0x2e
 13865 3bf9 01       		.uleb128 0x1
 13866 3bfa 50       		.byte	0x50
 13867 3bfb 02       		.uleb128 0x2
 13868 3bfc 75       		.byte	0x75
 13869 3bfd 00       		.sleb128 0
 13870 3bfe 2E       		.uleb128 0x2e
 13871 3bff 01       		.uleb128 0x1
 13872 3c00 51       		.byte	0x51
 13873 3c01 02       		.uleb128 0x2
 13874 3c02 74       		.byte	0x74
 13875 3c03 00       		.sleb128 0
 13876 3c04 2E       		.uleb128 0x2e
 13877 3c05 01       		.uleb128 0x1
 13878 3c06 52       		.byte	0x52
 13879 3c07 02       		.uleb128 0x2
 13880 3c08 74       		.byte	0x74
 13881 3c09 00       		.sleb128 0
 13882 3c0a 00       		.byte	0
 13883 3c0b 2D       		.uleb128 0x2d
 13884 3c0c CE000000 		.4byte	.LVL678
 13885 3c10 F13C0000 		.4byte	0x3cf1
 13886 3c14 2B3C0000 		.4byte	0x3c2b
 13887 3c18 2E       		.uleb128 0x2e
 13888 3c19 01       		.uleb128 0x1
 13889 3c1a 50       		.byte	0x50
 13890 3c1b 02       		.uleb128 0x2
 13891 3c1c 75       		.byte	0x75
 13892 3c1d 00       		.sleb128 0
 13893 3c1e 2E       		.uleb128 0x2e
 13894 3c1f 01       		.uleb128 0x1
 13895 3c20 51       		.byte	0x51
 13896 3c21 02       		.uleb128 0x2
 13897 3c22 09       		.byte	0x9
 13898 3c23 FF       		.byte	0xff
 13899 3c24 2E       		.uleb128 0x2e
 13900 3c25 01       		.uleb128 0x1
 13901 3c26 52       		.byte	0x52
 13902 3c27 02       		.uleb128 0x2
 13903 3c28 74       		.byte	0x74
 13904 3c29 00       		.sleb128 0
 13905 3c2a 00       		.byte	0
 13906 3c2b 2D       		.uleb128 0x2d
 13907 3c2c E2000000 		.4byte	.LVL681
 13908 3c30 FC3C0000 		.4byte	0x3cfc
ARM GAS  C:\Users\mathi\AppData\Local\Temp\ccVwcWGw.s 			page 245


 13909 3c34 4C3C0000 		.4byte	0x3c4c
 13910 3c38 2E       		.uleb128 0x2e
 13911 3c39 01       		.uleb128 0x1
 13912 3c3a 50       		.byte	0x50
 13913 3c3b 02       		.uleb128 0x2
 13914 3c3c 75       		.byte	0x75
 13915 3c3d 00       		.sleb128 0
 13916 3c3e 2E       		.uleb128 0x2e
 13917 3c3f 01       		.uleb128 0x1
 13918 3c40 51       		.byte	0x51
 13919 3c41 02       		.uleb128 0x2
 13920 3c42 09       		.byte	0x9
 13921 3c43 EE       		.byte	0xee
 13922 3c44 2E       		.uleb128 0x2e
 13923 3c45 01       		.uleb128 0x1
 13924 3c46 52       		.byte	0x52
 13925 3c47 03       		.uleb128 0x3
 13926 3c48 7D       		.byte	0x7d
 13927 3c49 00       		.sleb128 0
 13928 3c4a 06       		.byte	0x6
 13929 3c4b 00       		.byte	0
 13930 3c4c 2D       		.uleb128 0x2d
 13931 3c4d F4000000 		.4byte	.LVL684
 13932 3c51 F13C0000 		.4byte	0x3cf1
 13933 3c55 6C3C0000 		.4byte	0x3c6c
 13934 3c59 2E       		.uleb128 0x2e
 13935 3c5a 01       		.uleb128 0x1
 13936 3c5b 50       		.byte	0x50
 13937 3c5c 02       		.uleb128 0x2
 13938 3c5d 75       		.byte	0x75
 13939 3c5e 00       		.sleb128 0
 13940 3c5f 2E       		.uleb128 0x2e
 13941 3c60 01       		.uleb128 0x1
 13942 3c61 51       		.byte	0x51
 13943 3c62 02       		.uleb128 0x2
 13944 3c63 09       		.byte	0x9
 13945 3c64 FF       		.byte	0xff
 13946 3c65 2E       		.uleb128 0x2e
 13947 3c66 01       		.uleb128 0x1
 13948 3c67 52       		.byte	0x52
 13949 3c68 02       		.uleb128 0x2
 13950 3c69 7B       		.byte	0x7b
 13951 3c6a 00       		.sleb128 0
 13952 3c6b 00       		.byte	0
 13953 3c6c 2D       		.uleb128 0x2d
 13954 3c6d 06010000 		.4byte	.LVL687
 13955 3c71 F13C0000 		.4byte	0x3cf1
 13956 3c75 8C3C0000 		.4byte	0x3c8c
 13957 3c79 2E       		.uleb128 0x2e
 13958 3c7a 01       		.uleb128 0x1
 13959 3c7b 50       		.byte	0x50
 13960 3c7c 02       		.uleb128 0x2
 13961 3c7d 75       		.byte	0x75
 13962 3c7e 00       		.sleb128 0
 13963 3c7f 2E       		.uleb128 0x2e
 13964 3c80 01       		.uleb128 0x1
 13965 3c81 51       		.byte	0x51
ARM GAS  C:\Users\mathi\AppData\Local\Temp\ccVwcWGw.s 			page 246


 13966 3c82 02       		.uleb128 0x2
 13967 3c83 74       		.byte	0x74
 13968 3c84 00       		.sleb128 0
 13969 3c85 2E       		.uleb128 0x2e
 13970 3c86 01       		.uleb128 0x1
 13971 3c87 52       		.byte	0x52
 13972 3c88 02       		.uleb128 0x2
 13973 3c89 7B       		.byte	0x7b
 13974 3c8a 00       		.sleb128 0
 13975 3c8b 00       		.byte	0
 13976 3c8c 2F       		.uleb128 0x2f
 13977 3c8d 18010000 		.4byte	.LVL690
 13978 3c91 F13C0000 		.4byte	0x3cf1
 13979 3c95 2E       		.uleb128 0x2e
 13980 3c96 01       		.uleb128 0x1
 13981 3c97 50       		.byte	0x50
 13982 3c98 02       		.uleb128 0x2
 13983 3c99 75       		.byte	0x75
 13984 3c9a 00       		.sleb128 0
 13985 3c9b 2E       		.uleb128 0x2e
 13986 3c9c 01       		.uleb128 0x1
 13987 3c9d 51       		.byte	0x51
 13988 3c9e 02       		.uleb128 0x2
 13989 3c9f 09       		.byte	0x9
 13990 3ca0 FF       		.byte	0xff
 13991 3ca1 2E       		.uleb128 0x2e
 13992 3ca2 01       		.uleb128 0x1
 13993 3ca3 52       		.byte	0x52
 13994 3ca4 02       		.uleb128 0x2
 13995 3ca5 74       		.byte	0x74
 13996 3ca6 00       		.sleb128 0
 13997 3ca7 00       		.byte	0
 13998 3ca8 00       		.byte	0
 13999 3ca9 00       		.byte	0
 14000 3caa 2D       		.uleb128 0x2d
 14001 3cab 24000000 		.4byte	.LVL656
 14002 3caf F13C0000 		.4byte	0x3cf1
 14003 3cb3 C83C0000 		.4byte	0x3cc8
 14004 3cb7 2E       		.uleb128 0x2e
 14005 3cb8 01       		.uleb128 0x1
 14006 3cb9 50       		.byte	0x50
 14007 3cba 02       		.uleb128 0x2
 14008 3cbb 75       		.byte	0x75
 14009 3cbc 00       		.sleb128 0
 14010 3cbd 2E       		.uleb128 0x2e
 14011 3cbe 01       		.uleb128 0x1
 14012 3cbf 51       		.byte	0x51
 14013 3cc0 01       		.uleb128 0x1
 14014 3cc1 31       		.byte	0x31
 14015 3cc2 2E       		.uleb128 0x2e
 14016 3cc3 01       		.uleb128 0x1
 14017 3cc4 52       		.byte	0x52
 14018 3cc5 01       		.uleb128 0x1
 14019 3cc6 32       		.byte	0x32
 14020 3cc7 00       		.byte	0
 14021 3cc8 2D       		.uleb128 0x2d
 14022 3cc9 94000000 		.4byte	.LVL671
ARM GAS  C:\Users\mathi\AppData\Local\Temp\ccVwcWGw.s 			page 247


 14023 3ccd F13C0000 		.4byte	0x3cf1
 14024 3cd1 E73C0000 		.4byte	0x3ce7
 14025 3cd5 2E       		.uleb128 0x2e
 14026 3cd6 01       		.uleb128 0x1
 14027 3cd7 50       		.byte	0x50
 14028 3cd8 02       		.uleb128 0x2
 14029 3cd9 75       		.byte	0x75
 14030 3cda 00       		.sleb128 0
 14031 3cdb 2E       		.uleb128 0x2e
 14032 3cdc 01       		.uleb128 0x1
 14033 3cdd 51       		.byte	0x51
 14034 3cde 01       		.uleb128 0x1
 14035 3cdf 31       		.byte	0x31
 14036 3ce0 2E       		.uleb128 0x2e
 14037 3ce1 01       		.uleb128 0x1
 14038 3ce2 52       		.byte	0x52
 14039 3ce3 02       		.uleb128 0x2
 14040 3ce4 7A       		.byte	0x7a
 14041 3ce5 00       		.sleb128 0
 14042 3ce6 00       		.byte	0
 14043 3ce7 30       		.uleb128 0x30
 14044 3ce8 3A010000 		.4byte	.LVL695
 14045 3cec 073D0000 		.4byte	0x3d07
 14046 3cf0 00       		.byte	0
 14047 3cf1 4C       		.uleb128 0x4c
 14048 3cf2 11000000 		.4byte	.LASF364
 14049 3cf6 11000000 		.4byte	.LASF364
 14050 3cfa 0B       		.byte	0xb
 14051 3cfb 8E       		.byte	0x8e
 14052 3cfc 4C       		.uleb128 0x4c
 14053 3cfd 100E0000 		.4byte	.LASF365
 14054 3d01 100E0000 		.4byte	.LASF365
 14055 3d05 0B       		.byte	0xb
 14056 3d06 AC       		.byte	0xac
 14057 3d07 4D       		.uleb128 0x4d
 14058 3d08 59110000 		.4byte	.LASF386
 14059 3d0c 59110000 		.4byte	.LASF386
 14060 3d10 4C       		.uleb128 0x4c
 14061 3d11 2A110000 		.4byte	.LASF366
 14062 3d15 2A110000 		.4byte	.LASF366
 14063 3d19 0B       		.byte	0xb
 14064 3d1a CE       		.byte	0xce
 14065 3d1b 4C       		.uleb128 0x4c
 14066 3d1c 8F170000 		.4byte	.LASF367
 14067 3d20 8F170000 		.4byte	.LASF367
 14068 3d24 0D       		.byte	0xd
 14069 3d25 2B       		.byte	0x2b
 14070 3d26 4E       		.uleb128 0x4e
 14071 3d27 B2090000 		.4byte	.LASF368
 14072 3d2b B2090000 		.4byte	.LASF368
 14073 3d2f 0E       		.byte	0xe
 14074 3d30 E406     		.2byte	0x6e4
 14075 3d32 4C       		.uleb128 0x4c
 14076 3d33 BC040000 		.4byte	.LASF369
 14077 3d37 BC040000 		.4byte	.LASF369
 14078 3d3b 0B       		.byte	0xb
 14079 3d3c 84       		.byte	0x84
ARM GAS  C:\Users\mathi\AppData\Local\Temp\ccVwcWGw.s 			page 248


 14080 3d3d 4E       		.uleb128 0x4e
 14081 3d3e 10130000 		.4byte	.LASF370
 14082 3d42 10130000 		.4byte	.LASF370
 14083 3d46 0E       		.byte	0xe
 14084 3d47 0906     		.2byte	0x609
 14085 3d49 4C       		.uleb128 0x4c
 14086 3d4a 340E0000 		.4byte	.LASF371
 14087 3d4e 340E0000 		.4byte	.LASF371
 14088 3d52 0B       		.byte	0xb
 14089 3d53 B6       		.byte	0xb6
 14090 3d54 4C       		.uleb128 0x4c
 14091 3d55 17110000 		.4byte	.LASF372
 14092 3d59 17110000 		.4byte	.LASF372
 14093 3d5d 0B       		.byte	0xb
 14094 3d5e 79       		.byte	0x79
 14095 3d5f 4C       		.uleb128 0x4c
 14096 3d60 4A100000 		.4byte	.LASF373
 14097 3d64 4A100000 		.4byte	.LASF373
 14098 3d68 0D       		.byte	0xd
 14099 3d69 35       		.byte	0x35
 14100 3d6a 4E       		.uleb128 0x4e
 14101 3d6b 35070000 		.4byte	.LASF374
 14102 3d6f 35070000 		.4byte	.LASF374
 14103 3d73 0E       		.byte	0xe
 14104 3d74 0A01     		.2byte	0x10a
 14105 3d76 4C       		.uleb128 0x4c
 14106 3d77 A5110000 		.4byte	.LASF375
 14107 3d7b A5110000 		.4byte	.LASF375
 14108 3d7f 0E       		.byte	0xe
 14109 3d80 F8       		.byte	0xf8
 14110 3d81 4C       		.uleb128 0x4c
 14111 3d82 67100000 		.4byte	.LASF376
 14112 3d86 67100000 		.4byte	.LASF376
 14113 3d8a 0B       		.byte	0xb
 14114 3d8b 98       		.byte	0x98
 14115 3d8c 4E       		.uleb128 0x4e
 14116 3d8d 94020000 		.4byte	.LASF377
 14117 3d91 94020000 		.4byte	.LASF377
 14118 3d95 0E       		.byte	0xe
 14119 3d96 0A03     		.2byte	0x30a
 14120 3d98 4E       		.uleb128 0x4e
 14121 3d99 38130000 		.4byte	.LASF378
 14122 3d9d 38130000 		.4byte	.LASF378
 14123 3da1 0E       		.byte	0xe
 14124 3da2 F602     		.2byte	0x2f6
 14125 3da4 4E       		.uleb128 0x4e
 14126 3da5 29050000 		.4byte	.LASF379
 14127 3da9 29050000 		.4byte	.LASF379
 14128 3dad 0E       		.byte	0xe
 14129 3dae 4004     		.2byte	0x440
 14130 3db0 4E       		.uleb128 0x4e
 14131 3db1 91040000 		.4byte	.LASF380
 14132 3db5 91040000 		.4byte	.LASF380
 14133 3db9 0E       		.byte	0xe
 14134 3dba 9503     		.2byte	0x395
 14135 3dbc 4E       		.uleb128 0x4e
 14136 3dbd EE170000 		.4byte	.LASF381
ARM GAS  C:\Users\mathi\AppData\Local\Temp\ccVwcWGw.s 			page 249


 14137 3dc1 EE170000 		.4byte	.LASF381
 14138 3dc5 0E       		.byte	0xe
 14139 3dc6 B503     		.2byte	0x3b5
 14140 3dc8 00       		.byte	0
 14141              		.section	.debug_abbrev,"",%progbits
 14142              	.Ldebug_abbrev0:
 14143 0000 01       		.uleb128 0x1
 14144 0001 11       		.uleb128 0x11
 14145 0002 01       		.byte	0x1
 14146 0003 25       		.uleb128 0x25
 14147 0004 0E       		.uleb128 0xe
 14148 0005 13       		.uleb128 0x13
 14149 0006 0B       		.uleb128 0xb
 14150 0007 03       		.uleb128 0x3
 14151 0008 0E       		.uleb128 0xe
 14152 0009 1B       		.uleb128 0x1b
 14153 000a 0E       		.uleb128 0xe
 14154 000b 55       		.uleb128 0x55
 14155 000c 17       		.uleb128 0x17
 14156 000d 11       		.uleb128 0x11
 14157 000e 01       		.uleb128 0x1
 14158 000f 10       		.uleb128 0x10
 14159 0010 17       		.uleb128 0x17
 14160 0011 00       		.byte	0
 14161 0012 00       		.byte	0
 14162 0013 02       		.uleb128 0x2
 14163 0014 24       		.uleb128 0x24
 14164 0015 00       		.byte	0
 14165 0016 0B       		.uleb128 0xb
 14166 0017 0B       		.uleb128 0xb
 14167 0018 3E       		.uleb128 0x3e
 14168 0019 0B       		.uleb128 0xb
 14169 001a 03       		.uleb128 0x3
 14170 001b 0E       		.uleb128 0xe
 14171 001c 00       		.byte	0
 14172 001d 00       		.byte	0
 14173 001e 03       		.uleb128 0x3
 14174 001f 16       		.uleb128 0x16
 14175 0020 00       		.byte	0
 14176 0021 03       		.uleb128 0x3
 14177 0022 0E       		.uleb128 0xe
 14178 0023 3A       		.uleb128 0x3a
 14179 0024 0B       		.uleb128 0xb
 14180 0025 3B       		.uleb128 0x3b
 14181 0026 0B       		.uleb128 0xb
 14182 0027 49       		.uleb128 0x49
 14183 0028 13       		.uleb128 0x13
 14184 0029 00       		.byte	0
 14185 002a 00       		.byte	0
 14186 002b 04       		.uleb128 0x4
 14187 002c 24       		.uleb128 0x24
 14188 002d 00       		.byte	0
 14189 002e 0B       		.uleb128 0xb
 14190 002f 0B       		.uleb128 0xb
 14191 0030 3E       		.uleb128 0x3e
 14192 0031 0B       		.uleb128 0xb
 14193 0032 03       		.uleb128 0x3
ARM GAS  C:\Users\mathi\AppData\Local\Temp\ccVwcWGw.s 			page 250


 14194 0033 08       		.uleb128 0x8
 14195 0034 00       		.byte	0
 14196 0035 00       		.byte	0
 14197 0036 05       		.uleb128 0x5
 14198 0037 26       		.uleb128 0x26
 14199 0038 00       		.byte	0
 14200 0039 49       		.uleb128 0x49
 14201 003a 13       		.uleb128 0x13
 14202 003b 00       		.byte	0
 14203 003c 00       		.byte	0
 14204 003d 06       		.uleb128 0x6
 14205 003e 13       		.uleb128 0x13
 14206 003f 01       		.byte	0x1
 14207 0040 0B       		.uleb128 0xb
 14208 0041 0B       		.uleb128 0xb
 14209 0042 3A       		.uleb128 0x3a
 14210 0043 0B       		.uleb128 0xb
 14211 0044 3B       		.uleb128 0x3b
 14212 0045 0B       		.uleb128 0xb
 14213 0046 01       		.uleb128 0x1
 14214 0047 13       		.uleb128 0x13
 14215 0048 00       		.byte	0
 14216 0049 00       		.byte	0
 14217 004a 07       		.uleb128 0x7
 14218 004b 0D       		.uleb128 0xd
 14219 004c 00       		.byte	0
 14220 004d 03       		.uleb128 0x3
 14221 004e 0E       		.uleb128 0xe
 14222 004f 3A       		.uleb128 0x3a
 14223 0050 0B       		.uleb128 0xb
 14224 0051 3B       		.uleb128 0x3b
 14225 0052 0B       		.uleb128 0xb
 14226 0053 49       		.uleb128 0x49
 14227 0054 13       		.uleb128 0x13
 14228 0055 38       		.uleb128 0x38
 14229 0056 0B       		.uleb128 0xb
 14230 0057 00       		.byte	0
 14231 0058 00       		.byte	0
 14232 0059 08       		.uleb128 0x8
 14233 005a 01       		.uleb128 0x1
 14234 005b 01       		.byte	0x1
 14235 005c 49       		.uleb128 0x49
 14236 005d 13       		.uleb128 0x13
 14237 005e 01       		.uleb128 0x1
 14238 005f 13       		.uleb128 0x13
 14239 0060 00       		.byte	0
 14240 0061 00       		.byte	0
 14241 0062 09       		.uleb128 0x9
 14242 0063 21       		.uleb128 0x21
 14243 0064 00       		.byte	0
 14244 0065 49       		.uleb128 0x49
 14245 0066 13       		.uleb128 0x13
 14246 0067 2F       		.uleb128 0x2f
 14247 0068 0B       		.uleb128 0xb
 14248 0069 00       		.byte	0
 14249 006a 00       		.byte	0
 14250 006b 0A       		.uleb128 0xa
ARM GAS  C:\Users\mathi\AppData\Local\Temp\ccVwcWGw.s 			page 251


 14251 006c 0D       		.uleb128 0xd
 14252 006d 00       		.byte	0
 14253 006e 03       		.uleb128 0x3
 14254 006f 0E       		.uleb128 0xe
 14255 0070 3A       		.uleb128 0x3a
 14256 0071 0B       		.uleb128 0xb
 14257 0072 3B       		.uleb128 0x3b
 14258 0073 05       		.uleb128 0x5
 14259 0074 49       		.uleb128 0x49
 14260 0075 13       		.uleb128 0x13
 14261 0076 38       		.uleb128 0x38
 14262 0077 0B       		.uleb128 0xb
 14263 0078 00       		.byte	0
 14264 0079 00       		.byte	0
 14265 007a 0B       		.uleb128 0xb
 14266 007b 16       		.uleb128 0x16
 14267 007c 00       		.byte	0
 14268 007d 03       		.uleb128 0x3
 14269 007e 0E       		.uleb128 0xe
 14270 007f 3A       		.uleb128 0x3a
 14271 0080 0B       		.uleb128 0xb
 14272 0081 3B       		.uleb128 0x3b
 14273 0082 05       		.uleb128 0x5
 14274 0083 49       		.uleb128 0x49
 14275 0084 13       		.uleb128 0x13
 14276 0085 00       		.byte	0
 14277 0086 00       		.byte	0
 14278 0087 0C       		.uleb128 0xc
 14279 0088 13       		.uleb128 0x13
 14280 0089 01       		.byte	0x1
 14281 008a 0B       		.uleb128 0xb
 14282 008b 0B       		.uleb128 0xb
 14283 008c 3A       		.uleb128 0x3a
 14284 008d 0B       		.uleb128 0xb
 14285 008e 3B       		.uleb128 0x3b
 14286 008f 05       		.uleb128 0x5
 14287 0090 01       		.uleb128 0x1
 14288 0091 13       		.uleb128 0x13
 14289 0092 00       		.byte	0
 14290 0093 00       		.byte	0
 14291 0094 0D       		.uleb128 0xd
 14292 0095 13       		.uleb128 0x13
 14293 0096 01       		.byte	0x1
 14294 0097 0B       		.uleb128 0xb
 14295 0098 05       		.uleb128 0x5
 14296 0099 3A       		.uleb128 0x3a
 14297 009a 0B       		.uleb128 0xb
 14298 009b 3B       		.uleb128 0x3b
 14299 009c 05       		.uleb128 0x5
 14300 009d 01       		.uleb128 0x1
 14301 009e 13       		.uleb128 0x13
 14302 009f 00       		.byte	0
 14303 00a0 00       		.byte	0
 14304 00a1 0E       		.uleb128 0xe
 14305 00a2 0D       		.uleb128 0xd
 14306 00a3 00       		.byte	0
 14307 00a4 03       		.uleb128 0x3
ARM GAS  C:\Users\mathi\AppData\Local\Temp\ccVwcWGw.s 			page 252


 14308 00a5 0E       		.uleb128 0xe
 14309 00a6 3A       		.uleb128 0x3a
 14310 00a7 0B       		.uleb128 0xb
 14311 00a8 3B       		.uleb128 0x3b
 14312 00a9 05       		.uleb128 0x5
 14313 00aa 49       		.uleb128 0x49
 14314 00ab 13       		.uleb128 0x13
 14315 00ac 38       		.uleb128 0x38
 14316 00ad 05       		.uleb128 0x5
 14317 00ae 00       		.byte	0
 14318 00af 00       		.byte	0
 14319 00b0 0F       		.uleb128 0xf
 14320 00b1 0F       		.uleb128 0xf
 14321 00b2 00       		.byte	0
 14322 00b3 0B       		.uleb128 0xb
 14323 00b4 0B       		.uleb128 0xb
 14324 00b5 49       		.uleb128 0x49
 14325 00b6 13       		.uleb128 0x13
 14326 00b7 00       		.byte	0
 14327 00b8 00       		.byte	0
 14328 00b9 10       		.uleb128 0x10
 14329 00ba 0F       		.uleb128 0xf
 14330 00bb 00       		.byte	0
 14331 00bc 0B       		.uleb128 0xb
 14332 00bd 0B       		.uleb128 0xb
 14333 00be 00       		.byte	0
 14334 00bf 00       		.byte	0
 14335 00c0 11       		.uleb128 0x11
 14336 00c1 13       		.uleb128 0x13
 14337 00c2 00       		.byte	0
 14338 00c3 03       		.uleb128 0x3
 14339 00c4 0E       		.uleb128 0xe
 14340 00c5 3C       		.uleb128 0x3c
 14341 00c6 19       		.uleb128 0x19
 14342 00c7 00       		.byte	0
 14343 00c8 00       		.byte	0
 14344 00c9 12       		.uleb128 0x12
 14345 00ca 17       		.uleb128 0x17
 14346 00cb 01       		.byte	0x1
 14347 00cc 0B       		.uleb128 0xb
 14348 00cd 0B       		.uleb128 0xb
 14349 00ce 3A       		.uleb128 0x3a
 14350 00cf 0B       		.uleb128 0xb
 14351 00d0 3B       		.uleb128 0x3b
 14352 00d1 0B       		.uleb128 0xb
 14353 00d2 01       		.uleb128 0x1
 14354 00d3 13       		.uleb128 0x13
 14355 00d4 00       		.byte	0
 14356 00d5 00       		.byte	0
 14357 00d6 13       		.uleb128 0x13
 14358 00d7 0D       		.uleb128 0xd
 14359 00d8 00       		.byte	0
 14360 00d9 03       		.uleb128 0x3
 14361 00da 0E       		.uleb128 0xe
 14362 00db 3A       		.uleb128 0x3a
 14363 00dc 0B       		.uleb128 0xb
 14364 00dd 3B       		.uleb128 0x3b
ARM GAS  C:\Users\mathi\AppData\Local\Temp\ccVwcWGw.s 			page 253


 14365 00de 0B       		.uleb128 0xb
 14366 00df 49       		.uleb128 0x49
 14367 00e0 13       		.uleb128 0x13
 14368 00e1 00       		.byte	0
 14369 00e2 00       		.byte	0
 14370 00e3 14       		.uleb128 0x14
 14371 00e4 13       		.uleb128 0x13
 14372 00e5 01       		.byte	0x1
 14373 00e6 03       		.uleb128 0x3
 14374 00e7 0E       		.uleb128 0xe
 14375 00e8 0B       		.uleb128 0xb
 14376 00e9 0B       		.uleb128 0xb
 14377 00ea 3A       		.uleb128 0x3a
 14378 00eb 0B       		.uleb128 0xb
 14379 00ec 3B       		.uleb128 0x3b
 14380 00ed 0B       		.uleb128 0xb
 14381 00ee 01       		.uleb128 0x1
 14382 00ef 13       		.uleb128 0x13
 14383 00f0 00       		.byte	0
 14384 00f1 00       		.byte	0
 14385 00f2 15       		.uleb128 0x15
 14386 00f3 0D       		.uleb128 0xd
 14387 00f4 00       		.byte	0
 14388 00f5 03       		.uleb128 0x3
 14389 00f6 08       		.uleb128 0x8
 14390 00f7 3A       		.uleb128 0x3a
 14391 00f8 0B       		.uleb128 0xb
 14392 00f9 3B       		.uleb128 0x3b
 14393 00fa 0B       		.uleb128 0xb
 14394 00fb 49       		.uleb128 0x49
 14395 00fc 13       		.uleb128 0x13
 14396 00fd 38       		.uleb128 0x38
 14397 00fe 0B       		.uleb128 0xb
 14398 00ff 00       		.byte	0
 14399 0100 00       		.byte	0
 14400 0101 16       		.uleb128 0x16
 14401 0102 13       		.uleb128 0x13
 14402 0103 01       		.byte	0x1
 14403 0104 03       		.uleb128 0x3
 14404 0105 0E       		.uleb128 0xe
 14405 0106 0B       		.uleb128 0xb
 14406 0107 05       		.uleb128 0x5
 14407 0108 3A       		.uleb128 0x3a
 14408 0109 0B       		.uleb128 0xb
 14409 010a 3B       		.uleb128 0x3b
 14410 010b 0B       		.uleb128 0xb
 14411 010c 01       		.uleb128 0x1
 14412 010d 13       		.uleb128 0x13
 14413 010e 00       		.byte	0
 14414 010f 00       		.byte	0
 14415 0110 17       		.uleb128 0x17
 14416 0111 0D       		.uleb128 0xd
 14417 0112 00       		.byte	0
 14418 0113 03       		.uleb128 0x3
 14419 0114 0E       		.uleb128 0xe
 14420 0115 3A       		.uleb128 0x3a
 14421 0116 0B       		.uleb128 0xb
ARM GAS  C:\Users\mathi\AppData\Local\Temp\ccVwcWGw.s 			page 254


 14422 0117 3B       		.uleb128 0x3b
 14423 0118 0B       		.uleb128 0xb
 14424 0119 49       		.uleb128 0x49
 14425 011a 13       		.uleb128 0x13
 14426 011b 38       		.uleb128 0x38
 14427 011c 05       		.uleb128 0x5
 14428 011d 00       		.byte	0
 14429 011e 00       		.byte	0
 14430 011f 18       		.uleb128 0x18
 14431 0120 15       		.uleb128 0x15
 14432 0121 00       		.byte	0
 14433 0122 27       		.uleb128 0x27
 14434 0123 19       		.uleb128 0x19
 14435 0124 00       		.byte	0
 14436 0125 00       		.byte	0
 14437 0126 19       		.uleb128 0x19
 14438 0127 15       		.uleb128 0x15
 14439 0128 01       		.byte	0x1
 14440 0129 27       		.uleb128 0x27
 14441 012a 19       		.uleb128 0x19
 14442 012b 49       		.uleb128 0x49
 14443 012c 13       		.uleb128 0x13
 14444 012d 01       		.uleb128 0x1
 14445 012e 13       		.uleb128 0x13
 14446 012f 00       		.byte	0
 14447 0130 00       		.byte	0
 14448 0131 1A       		.uleb128 0x1a
 14449 0132 05       		.uleb128 0x5
 14450 0133 00       		.byte	0
 14451 0134 49       		.uleb128 0x49
 14452 0135 13       		.uleb128 0x13
 14453 0136 00       		.byte	0
 14454 0137 00       		.byte	0
 14455 0138 1B       		.uleb128 0x1b
 14456 0139 13       		.uleb128 0x13
 14457 013a 01       		.byte	0x1
 14458 013b 03       		.uleb128 0x3
 14459 013c 0E       		.uleb128 0xe
 14460 013d 0B       		.uleb128 0xb
 14461 013e 05       		.uleb128 0x5
 14462 013f 3A       		.uleb128 0x3a
 14463 0140 0B       		.uleb128 0xb
 14464 0141 3B       		.uleb128 0x3b
 14465 0142 05       		.uleb128 0x5
 14466 0143 01       		.uleb128 0x1
 14467 0144 13       		.uleb128 0x13
 14468 0145 00       		.byte	0
 14469 0146 00       		.byte	0
 14470 0147 1C       		.uleb128 0x1c
 14471 0148 13       		.uleb128 0x13
 14472 0149 01       		.byte	0x1
 14473 014a 03       		.uleb128 0x3
 14474 014b 0E       		.uleb128 0xe
 14475 014c 0B       		.uleb128 0xb
 14476 014d 0B       		.uleb128 0xb
 14477 014e 3A       		.uleb128 0x3a
 14478 014f 0B       		.uleb128 0xb
ARM GAS  C:\Users\mathi\AppData\Local\Temp\ccVwcWGw.s 			page 255


 14479 0150 3B       		.uleb128 0x3b
 14480 0151 05       		.uleb128 0x5
 14481 0152 01       		.uleb128 0x1
 14482 0153 13       		.uleb128 0x13
 14483 0154 00       		.byte	0
 14484 0155 00       		.byte	0
 14485 0156 1D       		.uleb128 0x1d
 14486 0157 17       		.uleb128 0x17
 14487 0158 01       		.byte	0x1
 14488 0159 0B       		.uleb128 0xb
 14489 015a 0B       		.uleb128 0xb
 14490 015b 3A       		.uleb128 0x3a
 14491 015c 0B       		.uleb128 0xb
 14492 015d 3B       		.uleb128 0x3b
 14493 015e 05       		.uleb128 0x5
 14494 015f 01       		.uleb128 0x1
 14495 0160 13       		.uleb128 0x13
 14496 0161 00       		.byte	0
 14497 0162 00       		.byte	0
 14498 0163 1E       		.uleb128 0x1e
 14499 0164 0D       		.uleb128 0xd
 14500 0165 00       		.byte	0
 14501 0166 03       		.uleb128 0x3
 14502 0167 0E       		.uleb128 0xe
 14503 0168 3A       		.uleb128 0x3a
 14504 0169 0B       		.uleb128 0xb
 14505 016a 3B       		.uleb128 0x3b
 14506 016b 05       		.uleb128 0x5
 14507 016c 49       		.uleb128 0x49
 14508 016d 13       		.uleb128 0x13
 14509 016e 00       		.byte	0
 14510 016f 00       		.byte	0
 14511 0170 1F       		.uleb128 0x1f
 14512 0171 15       		.uleb128 0x15
 14513 0172 01       		.byte	0x1
 14514 0173 27       		.uleb128 0x27
 14515 0174 19       		.uleb128 0x19
 14516 0175 01       		.uleb128 0x1
 14517 0176 13       		.uleb128 0x13
 14518 0177 00       		.byte	0
 14519 0178 00       		.byte	0
 14520 0179 20       		.uleb128 0x20
 14521 017a 34       		.uleb128 0x34
 14522 017b 00       		.byte	0
 14523 017c 03       		.uleb128 0x3
 14524 017d 0E       		.uleb128 0xe
 14525 017e 3A       		.uleb128 0x3a
 14526 017f 0B       		.uleb128 0xb
 14527 0180 3B       		.uleb128 0x3b
 14528 0181 05       		.uleb128 0x5
 14529 0182 49       		.uleb128 0x49
 14530 0183 13       		.uleb128 0x13
 14531 0184 3F       		.uleb128 0x3f
 14532 0185 19       		.uleb128 0x19
 14533 0186 3C       		.uleb128 0x3c
 14534 0187 19       		.uleb128 0x19
 14535 0188 00       		.byte	0
ARM GAS  C:\Users\mathi\AppData\Local\Temp\ccVwcWGw.s 			page 256


 14536 0189 00       		.byte	0
 14537 018a 21       		.uleb128 0x21
 14538 018b 13       		.uleb128 0x13
 14539 018c 01       		.byte	0x1
 14540 018d 0B       		.uleb128 0xb
 14541 018e 05       		.uleb128 0x5
 14542 018f 3A       		.uleb128 0x3a
 14543 0190 0B       		.uleb128 0xb
 14544 0191 3B       		.uleb128 0x3b
 14545 0192 0B       		.uleb128 0xb
 14546 0193 01       		.uleb128 0x1
 14547 0194 13       		.uleb128 0x13
 14548 0195 00       		.byte	0
 14549 0196 00       		.byte	0
 14550 0197 22       		.uleb128 0x22
 14551 0198 34       		.uleb128 0x34
 14552 0199 00       		.byte	0
 14553 019a 03       		.uleb128 0x3
 14554 019b 0E       		.uleb128 0xe
 14555 019c 3A       		.uleb128 0x3a
 14556 019d 0B       		.uleb128 0xb
 14557 019e 3B       		.uleb128 0x3b
 14558 019f 0B       		.uleb128 0xb
 14559 01a0 49       		.uleb128 0x49
 14560 01a1 13       		.uleb128 0x13
 14561 01a2 3F       		.uleb128 0x3f
 14562 01a3 19       		.uleb128 0x19
 14563 01a4 3C       		.uleb128 0x3c
 14564 01a5 19       		.uleb128 0x19
 14565 01a6 00       		.byte	0
 14566 01a7 00       		.byte	0
 14567 01a8 23       		.uleb128 0x23
 14568 01a9 34       		.uleb128 0x34
 14569 01aa 00       		.byte	0
 14570 01ab 03       		.uleb128 0x3
 14571 01ac 0E       		.uleb128 0xe
 14572 01ad 3A       		.uleb128 0x3a
 14573 01ae 0B       		.uleb128 0xb
 14574 01af 3B       		.uleb128 0x3b
 14575 01b0 0B       		.uleb128 0xb
 14576 01b1 49       		.uleb128 0x49
 14577 01b2 13       		.uleb128 0x13
 14578 01b3 3F       		.uleb128 0x3f
 14579 01b4 19       		.uleb128 0x19
 14580 01b5 02       		.uleb128 0x2
 14581 01b6 18       		.uleb128 0x18
 14582 01b7 00       		.byte	0
 14583 01b8 00       		.byte	0
 14584 01b9 24       		.uleb128 0x24
 14585 01ba 2E       		.uleb128 0x2e
 14586 01bb 01       		.byte	0x1
 14587 01bc 3F       		.uleb128 0x3f
 14588 01bd 19       		.uleb128 0x19
 14589 01be 03       		.uleb128 0x3
 14590 01bf 0E       		.uleb128 0xe
 14591 01c0 3A       		.uleb128 0x3a
 14592 01c1 0B       		.uleb128 0xb
ARM GAS  C:\Users\mathi\AppData\Local\Temp\ccVwcWGw.s 			page 257


 14593 01c2 3B       		.uleb128 0x3b
 14594 01c3 05       		.uleb128 0x5
 14595 01c4 27       		.uleb128 0x27
 14596 01c5 19       		.uleb128 0x19
 14597 01c6 49       		.uleb128 0x49
 14598 01c7 13       		.uleb128 0x13
 14599 01c8 11       		.uleb128 0x11
 14600 01c9 01       		.uleb128 0x1
 14601 01ca 12       		.uleb128 0x12
 14602 01cb 06       		.uleb128 0x6
 14603 01cc 40       		.uleb128 0x40
 14604 01cd 18       		.uleb128 0x18
 14605 01ce 9742     		.uleb128 0x2117
 14606 01d0 19       		.uleb128 0x19
 14607 01d1 01       		.uleb128 0x1
 14608 01d2 13       		.uleb128 0x13
 14609 01d3 00       		.byte	0
 14610 01d4 00       		.byte	0
 14611 01d5 25       		.uleb128 0x25
 14612 01d6 05       		.uleb128 0x5
 14613 01d7 00       		.byte	0
 14614 01d8 03       		.uleb128 0x3
 14615 01d9 08       		.uleb128 0x8
 14616 01da 3A       		.uleb128 0x3a
 14617 01db 0B       		.uleb128 0xb
 14618 01dc 3B       		.uleb128 0x3b
 14619 01dd 05       		.uleb128 0x5
 14620 01de 49       		.uleb128 0x49
 14621 01df 13       		.uleb128 0x13
 14622 01e0 02       		.uleb128 0x2
 14623 01e1 17       		.uleb128 0x17
 14624 01e2 00       		.byte	0
 14625 01e3 00       		.byte	0
 14626 01e4 26       		.uleb128 0x26
 14627 01e5 05       		.uleb128 0x5
 14628 01e6 00       		.byte	0
 14629 01e7 03       		.uleb128 0x3
 14630 01e8 0E       		.uleb128 0xe
 14631 01e9 3A       		.uleb128 0x3a
 14632 01ea 0B       		.uleb128 0xb
 14633 01eb 3B       		.uleb128 0x3b
 14634 01ec 05       		.uleb128 0x5
 14635 01ed 49       		.uleb128 0x49
 14636 01ee 13       		.uleb128 0x13
 14637 01ef 02       		.uleb128 0x2
 14638 01f0 17       		.uleb128 0x17
 14639 01f1 00       		.byte	0
 14640 01f2 00       		.byte	0
 14641 01f3 27       		.uleb128 0x27
 14642 01f4 34       		.uleb128 0x34
 14643 01f5 00       		.byte	0
 14644 01f6 03       		.uleb128 0x3
 14645 01f7 0E       		.uleb128 0xe
 14646 01f8 3A       		.uleb128 0x3a
 14647 01f9 0B       		.uleb128 0xb
 14648 01fa 3B       		.uleb128 0x3b
 14649 01fb 05       		.uleb128 0x5
ARM GAS  C:\Users\mathi\AppData\Local\Temp\ccVwcWGw.s 			page 258


 14650 01fc 49       		.uleb128 0x49
 14651 01fd 13       		.uleb128 0x13
 14652 01fe 02       		.uleb128 0x2
 14653 01ff 17       		.uleb128 0x17
 14654 0200 00       		.byte	0
 14655 0201 00       		.byte	0
 14656 0202 28       		.uleb128 0x28
 14657 0203 34       		.uleb128 0x34
 14658 0204 00       		.byte	0
 14659 0205 03       		.uleb128 0x3
 14660 0206 0E       		.uleb128 0xe
 14661 0207 3A       		.uleb128 0x3a
 14662 0208 0B       		.uleb128 0xb
 14663 0209 3B       		.uleb128 0x3b
 14664 020a 05       		.uleb128 0x5
 14665 020b 49       		.uleb128 0x49
 14666 020c 13       		.uleb128 0x13
 14667 020d 1C       		.uleb128 0x1c
 14668 020e 0B       		.uleb128 0xb
 14669 020f 00       		.byte	0
 14670 0210 00       		.byte	0
 14671 0211 29       		.uleb128 0x29
 14672 0212 1D       		.uleb128 0x1d
 14673 0213 01       		.byte	0x1
 14674 0214 31       		.uleb128 0x31
 14675 0215 13       		.uleb128 0x13
 14676 0216 52       		.uleb128 0x52
 14677 0217 01       		.uleb128 0x1
 14678 0218 55       		.uleb128 0x55
 14679 0219 17       		.uleb128 0x17
 14680 021a 58       		.uleb128 0x58
 14681 021b 0B       		.uleb128 0xb
 14682 021c 59       		.uleb128 0x59
 14683 021d 05       		.uleb128 0x5
 14684 021e 01       		.uleb128 0x1
 14685 021f 13       		.uleb128 0x13
 14686 0220 00       		.byte	0
 14687 0221 00       		.byte	0
 14688 0222 2A       		.uleb128 0x2a
 14689 0223 05       		.uleb128 0x5
 14690 0224 00       		.byte	0
 14691 0225 31       		.uleb128 0x31
 14692 0226 13       		.uleb128 0x13
 14693 0227 02       		.uleb128 0x2
 14694 0228 17       		.uleb128 0x17
 14695 0229 00       		.byte	0
 14696 022a 00       		.byte	0
 14697 022b 2B       		.uleb128 0x2b
 14698 022c 0B       		.uleb128 0xb
 14699 022d 01       		.byte	0x1
 14700 022e 55       		.uleb128 0x55
 14701 022f 17       		.uleb128 0x17
 14702 0230 00       		.byte	0
 14703 0231 00       		.byte	0
 14704 0232 2C       		.uleb128 0x2c
 14705 0233 34       		.uleb128 0x34
 14706 0234 00       		.byte	0
ARM GAS  C:\Users\mathi\AppData\Local\Temp\ccVwcWGw.s 			page 259


 14707 0235 31       		.uleb128 0x31
 14708 0236 13       		.uleb128 0x13
 14709 0237 00       		.byte	0
 14710 0238 00       		.byte	0
 14711 0239 2D       		.uleb128 0x2d
 14712 023a 898201   		.uleb128 0x4109
 14713 023d 01       		.byte	0x1
 14714 023e 11       		.uleb128 0x11
 14715 023f 01       		.uleb128 0x1
 14716 0240 31       		.uleb128 0x31
 14717 0241 13       		.uleb128 0x13
 14718 0242 01       		.uleb128 0x1
 14719 0243 13       		.uleb128 0x13
 14720 0244 00       		.byte	0
 14721 0245 00       		.byte	0
 14722 0246 2E       		.uleb128 0x2e
 14723 0247 8A8201   		.uleb128 0x410a
 14724 024a 00       		.byte	0
 14725 024b 02       		.uleb128 0x2
 14726 024c 18       		.uleb128 0x18
 14727 024d 9142     		.uleb128 0x2111
 14728 024f 18       		.uleb128 0x18
 14729 0250 00       		.byte	0
 14730 0251 00       		.byte	0
 14731 0252 2F       		.uleb128 0x2f
 14732 0253 898201   		.uleb128 0x4109
 14733 0256 01       		.byte	0x1
 14734 0257 11       		.uleb128 0x11
 14735 0258 01       		.uleb128 0x1
 14736 0259 31       		.uleb128 0x31
 14737 025a 13       		.uleb128 0x13
 14738 025b 00       		.byte	0
 14739 025c 00       		.byte	0
 14740 025d 30       		.uleb128 0x30
 14741 025e 898201   		.uleb128 0x4109
 14742 0261 00       		.byte	0
 14743 0262 11       		.uleb128 0x11
 14744 0263 01       		.uleb128 0x1
 14745 0264 31       		.uleb128 0x31
 14746 0265 13       		.uleb128 0x13
 14747 0266 00       		.byte	0
 14748 0267 00       		.byte	0
 14749 0268 31       		.uleb128 0x31
 14750 0269 34       		.uleb128 0x34
 14751 026a 00       		.byte	0
 14752 026b 03       		.uleb128 0x3
 14753 026c 0E       		.uleb128 0xe
 14754 026d 3A       		.uleb128 0x3a
 14755 026e 0B       		.uleb128 0xb
 14756 026f 3B       		.uleb128 0x3b
 14757 0270 05       		.uleb128 0x5
 14758 0271 49       		.uleb128 0x49
 14759 0272 13       		.uleb128 0x13
 14760 0273 00       		.byte	0
 14761 0274 00       		.byte	0
 14762 0275 32       		.uleb128 0x32
 14763 0276 34       		.uleb128 0x34
ARM GAS  C:\Users\mathi\AppData\Local\Temp\ccVwcWGw.s 			page 260


 14764 0277 00       		.byte	0
 14765 0278 03       		.uleb128 0x3
 14766 0279 0E       		.uleb128 0xe
 14767 027a 3A       		.uleb128 0x3a
 14768 027b 0B       		.uleb128 0xb
 14769 027c 3B       		.uleb128 0x3b
 14770 027d 05       		.uleb128 0x5
 14771 027e 49       		.uleb128 0x49
 14772 027f 13       		.uleb128 0x13
 14773 0280 02       		.uleb128 0x2
 14774 0281 18       		.uleb128 0x18
 14775 0282 00       		.byte	0
 14776 0283 00       		.byte	0
 14777 0284 33       		.uleb128 0x33
 14778 0285 1D       		.uleb128 0x1d
 14779 0286 01       		.byte	0x1
 14780 0287 31       		.uleb128 0x31
 14781 0288 13       		.uleb128 0x13
 14782 0289 11       		.uleb128 0x11
 14783 028a 01       		.uleb128 0x1
 14784 028b 12       		.uleb128 0x12
 14785 028c 06       		.uleb128 0x6
 14786 028d 58       		.uleb128 0x58
 14787 028e 0B       		.uleb128 0xb
 14788 028f 59       		.uleb128 0x59
 14789 0290 05       		.uleb128 0x5
 14790 0291 01       		.uleb128 0x1
 14791 0292 13       		.uleb128 0x13
 14792 0293 00       		.byte	0
 14793 0294 00       		.byte	0
 14794 0295 34       		.uleb128 0x34
 14795 0296 0B       		.uleb128 0xb
 14796 0297 01       		.byte	0x1
 14797 0298 11       		.uleb128 0x11
 14798 0299 01       		.uleb128 0x1
 14799 029a 12       		.uleb128 0x12
 14800 029b 06       		.uleb128 0x6
 14801 029c 00       		.byte	0
 14802 029d 00       		.byte	0
 14803 029e 35       		.uleb128 0x35
 14804 029f 0B       		.uleb128 0xb
 14805 02a0 01       		.byte	0x1
 14806 02a1 31       		.uleb128 0x31
 14807 02a2 13       		.uleb128 0x13
 14808 02a3 11       		.uleb128 0x11
 14809 02a4 01       		.uleb128 0x1
 14810 02a5 12       		.uleb128 0x12
 14811 02a6 06       		.uleb128 0x6
 14812 02a7 01       		.uleb128 0x1
 14813 02a8 13       		.uleb128 0x13
 14814 02a9 00       		.byte	0
 14815 02aa 00       		.byte	0
 14816 02ab 36       		.uleb128 0x36
 14817 02ac 2E       		.uleb128 0x2e
 14818 02ad 01       		.byte	0x1
 14819 02ae 3F       		.uleb128 0x3f
 14820 02af 19       		.uleb128 0x19
ARM GAS  C:\Users\mathi\AppData\Local\Temp\ccVwcWGw.s 			page 261


 14821 02b0 03       		.uleb128 0x3
 14822 02b1 0E       		.uleb128 0xe
 14823 02b2 3A       		.uleb128 0x3a
 14824 02b3 0B       		.uleb128 0xb
 14825 02b4 3B       		.uleb128 0x3b
 14826 02b5 05       		.uleb128 0x5
 14827 02b6 27       		.uleb128 0x27
 14828 02b7 19       		.uleb128 0x19
 14829 02b8 49       		.uleb128 0x49
 14830 02b9 13       		.uleb128 0x13
 14831 02ba 20       		.uleb128 0x20
 14832 02bb 0B       		.uleb128 0xb
 14833 02bc 01       		.uleb128 0x1
 14834 02bd 13       		.uleb128 0x13
 14835 02be 00       		.byte	0
 14836 02bf 00       		.byte	0
 14837 02c0 37       		.uleb128 0x37
 14838 02c1 05       		.uleb128 0x5
 14839 02c2 00       		.byte	0
 14840 02c3 03       		.uleb128 0x3
 14841 02c4 08       		.uleb128 0x8
 14842 02c5 3A       		.uleb128 0x3a
 14843 02c6 0B       		.uleb128 0xb
 14844 02c7 3B       		.uleb128 0x3b
 14845 02c8 05       		.uleb128 0x5
 14846 02c9 49       		.uleb128 0x49
 14847 02ca 13       		.uleb128 0x13
 14848 02cb 00       		.byte	0
 14849 02cc 00       		.byte	0
 14850 02cd 38       		.uleb128 0x38
 14851 02ce 05       		.uleb128 0x5
 14852 02cf 00       		.byte	0
 14853 02d0 03       		.uleb128 0x3
 14854 02d1 0E       		.uleb128 0xe
 14855 02d2 3A       		.uleb128 0x3a
 14856 02d3 0B       		.uleb128 0xb
 14857 02d4 3B       		.uleb128 0x3b
 14858 02d5 05       		.uleb128 0x5
 14859 02d6 49       		.uleb128 0x49
 14860 02d7 13       		.uleb128 0x13
 14861 02d8 00       		.byte	0
 14862 02d9 00       		.byte	0
 14863 02da 39       		.uleb128 0x39
 14864 02db 34       		.uleb128 0x34
 14865 02dc 00       		.byte	0
 14866 02dd 31       		.uleb128 0x31
 14867 02de 13       		.uleb128 0x13
 14868 02df 02       		.uleb128 0x2
 14869 02e0 18       		.uleb128 0x18
 14870 02e1 00       		.byte	0
 14871 02e2 00       		.byte	0
 14872 02e3 3A       		.uleb128 0x3a
 14873 02e4 05       		.uleb128 0x5
 14874 02e5 00       		.byte	0
 14875 02e6 31       		.uleb128 0x31
 14876 02e7 13       		.uleb128 0x13
 14877 02e8 00       		.byte	0
ARM GAS  C:\Users\mathi\AppData\Local\Temp\ccVwcWGw.s 			page 262


 14878 02e9 00       		.byte	0
 14879 02ea 3B       		.uleb128 0x3b
 14880 02eb 34       		.uleb128 0x34
 14881 02ec 00       		.byte	0
 14882 02ed 03       		.uleb128 0x3
 14883 02ee 0E       		.uleb128 0xe
 14884 02ef 3A       		.uleb128 0x3a
 14885 02f0 0B       		.uleb128 0xb
 14886 02f1 3B       		.uleb128 0x3b
 14887 02f2 05       		.uleb128 0x5
 14888 02f3 49       		.uleb128 0x49
 14889 02f4 13       		.uleb128 0x13
 14890 02f5 1C       		.uleb128 0x1c
 14891 02f6 0D       		.uleb128 0xd
 14892 02f7 00       		.byte	0
 14893 02f8 00       		.byte	0
 14894 02f9 3C       		.uleb128 0x3c
 14895 02fa 34       		.uleb128 0x34
 14896 02fb 00       		.byte	0
 14897 02fc 31       		.uleb128 0x31
 14898 02fd 13       		.uleb128 0x13
 14899 02fe 02       		.uleb128 0x2
 14900 02ff 17       		.uleb128 0x17
 14901 0300 00       		.byte	0
 14902 0301 00       		.byte	0
 14903 0302 3D       		.uleb128 0x3d
 14904 0303 34       		.uleb128 0x34
 14905 0304 00       		.byte	0
 14906 0305 03       		.uleb128 0x3
 14907 0306 08       		.uleb128 0x8
 14908 0307 3A       		.uleb128 0x3a
 14909 0308 0B       		.uleb128 0xb
 14910 0309 3B       		.uleb128 0x3b
 14911 030a 05       		.uleb128 0x5
 14912 030b 49       		.uleb128 0x49
 14913 030c 13       		.uleb128 0x13
 14914 030d 00       		.byte	0
 14915 030e 00       		.byte	0
 14916 030f 3E       		.uleb128 0x3e
 14917 0310 2E       		.uleb128 0x2e
 14918 0311 01       		.byte	0x1
 14919 0312 3F       		.uleb128 0x3f
 14920 0313 19       		.uleb128 0x19
 14921 0314 03       		.uleb128 0x3
 14922 0315 0E       		.uleb128 0xe
 14923 0316 3A       		.uleb128 0x3a
 14924 0317 0B       		.uleb128 0xb
 14925 0318 3B       		.uleb128 0x3b
 14926 0319 05       		.uleb128 0x5
 14927 031a 27       		.uleb128 0x27
 14928 031b 19       		.uleb128 0x19
 14929 031c 20       		.uleb128 0x20
 14930 031d 0B       		.uleb128 0xb
 14931 031e 01       		.uleb128 0x1
 14932 031f 13       		.uleb128 0x13
 14933 0320 00       		.byte	0
 14934 0321 00       		.byte	0
ARM GAS  C:\Users\mathi\AppData\Local\Temp\ccVwcWGw.s 			page 263


 14935 0322 3F       		.uleb128 0x3f
 14936 0323 34       		.uleb128 0x34
 14937 0324 00       		.byte	0
 14938 0325 03       		.uleb128 0x3
 14939 0326 0E       		.uleb128 0xe
 14940 0327 3A       		.uleb128 0x3a
 14941 0328 0B       		.uleb128 0xb
 14942 0329 3B       		.uleb128 0x3b
 14943 032a 05       		.uleb128 0x5
 14944 032b 49       		.uleb128 0x49
 14945 032c 13       		.uleb128 0x13
 14946 032d 1C       		.uleb128 0x1c
 14947 032e 05       		.uleb128 0x5
 14948 032f 00       		.byte	0
 14949 0330 00       		.byte	0
 14950 0331 40       		.uleb128 0x40
 14951 0332 34       		.uleb128 0x34
 14952 0333 00       		.byte	0
 14953 0334 03       		.uleb128 0x3
 14954 0335 0E       		.uleb128 0xe
 14955 0336 3A       		.uleb128 0x3a
 14956 0337 0B       		.uleb128 0xb
 14957 0338 3B       		.uleb128 0x3b
 14958 0339 05       		.uleb128 0x5
 14959 033a 49       		.uleb128 0x49
 14960 033b 13       		.uleb128 0x13
 14961 033c 1C       		.uleb128 0x1c
 14962 033d 06       		.uleb128 0x6
 14963 033e 00       		.byte	0
 14964 033f 00       		.byte	0
 14965 0340 41       		.uleb128 0x41
 14966 0341 898201   		.uleb128 0x4109
 14967 0344 01       		.byte	0x1
 14968 0345 11       		.uleb128 0x11
 14969 0346 01       		.uleb128 0x1
 14970 0347 9542     		.uleb128 0x2115
 14971 0349 19       		.uleb128 0x19
 14972 034a 31       		.uleb128 0x31
 14973 034b 13       		.uleb128 0x13
 14974 034c 01       		.uleb128 0x1
 14975 034d 13       		.uleb128 0x13
 14976 034e 00       		.byte	0
 14977 034f 00       		.byte	0
 14978 0350 42       		.uleb128 0x42
 14979 0351 2E       		.uleb128 0x2e
 14980 0352 01       		.byte	0x1
 14981 0353 3F       		.uleb128 0x3f
 14982 0354 19       		.uleb128 0x19
 14983 0355 03       		.uleb128 0x3
 14984 0356 0E       		.uleb128 0xe
 14985 0357 3A       		.uleb128 0x3a
 14986 0358 0B       		.uleb128 0xb
 14987 0359 3B       		.uleb128 0x3b
 14988 035a 0B       		.uleb128 0xb
 14989 035b 27       		.uleb128 0x27
 14990 035c 19       		.uleb128 0x19
 14991 035d 49       		.uleb128 0x49
ARM GAS  C:\Users\mathi\AppData\Local\Temp\ccVwcWGw.s 			page 264


 14992 035e 13       		.uleb128 0x13
 14993 035f 11       		.uleb128 0x11
 14994 0360 01       		.uleb128 0x1
 14995 0361 12       		.uleb128 0x12
 14996 0362 06       		.uleb128 0x6
 14997 0363 40       		.uleb128 0x40
 14998 0364 18       		.uleb128 0x18
 14999 0365 9742     		.uleb128 0x2117
 15000 0367 19       		.uleb128 0x19
 15001 0368 01       		.uleb128 0x1
 15002 0369 13       		.uleb128 0x13
 15003 036a 00       		.byte	0
 15004 036b 00       		.byte	0
 15005 036c 43       		.uleb128 0x43
 15006 036d 05       		.uleb128 0x5
 15007 036e 00       		.byte	0
 15008 036f 03       		.uleb128 0x3
 15009 0370 08       		.uleb128 0x8
 15010 0371 3A       		.uleb128 0x3a
 15011 0372 0B       		.uleb128 0xb
 15012 0373 3B       		.uleb128 0x3b
 15013 0374 0B       		.uleb128 0xb
 15014 0375 49       		.uleb128 0x49
 15015 0376 13       		.uleb128 0x13
 15016 0377 02       		.uleb128 0x2
 15017 0378 17       		.uleb128 0x17
 15018 0379 00       		.byte	0
 15019 037a 00       		.byte	0
 15020 037b 44       		.uleb128 0x44
 15021 037c 05       		.uleb128 0x5
 15022 037d 00       		.byte	0
 15023 037e 03       		.uleb128 0x3
 15024 037f 0E       		.uleb128 0xe
 15025 0380 3A       		.uleb128 0x3a
 15026 0381 0B       		.uleb128 0xb
 15027 0382 3B       		.uleb128 0x3b
 15028 0383 0B       		.uleb128 0xb
 15029 0384 49       		.uleb128 0x49
 15030 0385 13       		.uleb128 0x13
 15031 0386 02       		.uleb128 0x2
 15032 0387 17       		.uleb128 0x17
 15033 0388 00       		.byte	0
 15034 0389 00       		.byte	0
 15035 038a 45       		.uleb128 0x45
 15036 038b 34       		.uleb128 0x34
 15037 038c 00       		.byte	0
 15038 038d 03       		.uleb128 0x3
 15039 038e 0E       		.uleb128 0xe
 15040 038f 3A       		.uleb128 0x3a
 15041 0390 0B       		.uleb128 0xb
 15042 0391 3B       		.uleb128 0x3b
 15043 0392 0B       		.uleb128 0xb
 15044 0393 49       		.uleb128 0x49
 15045 0394 13       		.uleb128 0x13
 15046 0395 02       		.uleb128 0x2
 15047 0396 17       		.uleb128 0x17
 15048 0397 00       		.byte	0
ARM GAS  C:\Users\mathi\AppData\Local\Temp\ccVwcWGw.s 			page 265


 15049 0398 00       		.byte	0
 15050 0399 46       		.uleb128 0x46
 15051 039a 34       		.uleb128 0x34
 15052 039b 00       		.byte	0
 15053 039c 03       		.uleb128 0x3
 15054 039d 0E       		.uleb128 0xe
 15055 039e 3A       		.uleb128 0x3a
 15056 039f 0B       		.uleb128 0xb
 15057 03a0 3B       		.uleb128 0x3b
 15058 03a1 0B       		.uleb128 0xb
 15059 03a2 49       		.uleb128 0x49
 15060 03a3 13       		.uleb128 0x13
 15061 03a4 02       		.uleb128 0x2
 15062 03a5 18       		.uleb128 0x18
 15063 03a6 00       		.byte	0
 15064 03a7 00       		.byte	0
 15065 03a8 47       		.uleb128 0x47
 15066 03a9 2E       		.uleb128 0x2e
 15067 03aa 01       		.byte	0x1
 15068 03ab 31       		.uleb128 0x31
 15069 03ac 13       		.uleb128 0x13
 15070 03ad 11       		.uleb128 0x11
 15071 03ae 01       		.uleb128 0x1
 15072 03af 12       		.uleb128 0x12
 15073 03b0 06       		.uleb128 0x6
 15074 03b1 40       		.uleb128 0x40
 15075 03b2 18       		.uleb128 0x18
 15076 03b3 9742     		.uleb128 0x2117
 15077 03b5 19       		.uleb128 0x19
 15078 03b6 01       		.uleb128 0x1
 15079 03b7 13       		.uleb128 0x13
 15080 03b8 00       		.byte	0
 15081 03b9 00       		.byte	0
 15082 03ba 48       		.uleb128 0x48
 15083 03bb 05       		.uleb128 0x5
 15084 03bc 00       		.byte	0
 15085 03bd 31       		.uleb128 0x31
 15086 03be 13       		.uleb128 0x13
 15087 03bf 1C       		.uleb128 0x1c
 15088 03c0 0B       		.uleb128 0xb
 15089 03c1 00       		.byte	0
 15090 03c2 00       		.byte	0
 15091 03c3 49       		.uleb128 0x49
 15092 03c4 34       		.uleb128 0x34
 15093 03c5 00       		.byte	0
 15094 03c6 31       		.uleb128 0x31
 15095 03c7 13       		.uleb128 0x13
 15096 03c8 1C       		.uleb128 0x1c
 15097 03c9 0B       		.uleb128 0xb
 15098 03ca 00       		.byte	0
 15099 03cb 00       		.byte	0
 15100 03cc 4A       		.uleb128 0x4a
 15101 03cd 0B       		.uleb128 0xb
 15102 03ce 01       		.byte	0x1
 15103 03cf 31       		.uleb128 0x31
 15104 03d0 13       		.uleb128 0x13
 15105 03d1 55       		.uleb128 0x55
ARM GAS  C:\Users\mathi\AppData\Local\Temp\ccVwcWGw.s 			page 266


 15106 03d2 17       		.uleb128 0x17
 15107 03d3 01       		.uleb128 0x1
 15108 03d4 13       		.uleb128 0x13
 15109 03d5 00       		.byte	0
 15110 03d6 00       		.byte	0
 15111 03d7 4B       		.uleb128 0x4b
 15112 03d8 898201   		.uleb128 0x4109
 15113 03db 01       		.byte	0x1
 15114 03dc 11       		.uleb128 0x11
 15115 03dd 01       		.uleb128 0x1
 15116 03de 9542     		.uleb128 0x2115
 15117 03e0 19       		.uleb128 0x19
 15118 03e1 31       		.uleb128 0x31
 15119 03e2 13       		.uleb128 0x13
 15120 03e3 00       		.byte	0
 15121 03e4 00       		.byte	0
 15122 03e5 4C       		.uleb128 0x4c
 15123 03e6 2E       		.uleb128 0x2e
 15124 03e7 00       		.byte	0
 15125 03e8 3F       		.uleb128 0x3f
 15126 03e9 19       		.uleb128 0x19
 15127 03ea 3C       		.uleb128 0x3c
 15128 03eb 19       		.uleb128 0x19
 15129 03ec 6E       		.uleb128 0x6e
 15130 03ed 0E       		.uleb128 0xe
 15131 03ee 03       		.uleb128 0x3
 15132 03ef 0E       		.uleb128 0xe
 15133 03f0 3A       		.uleb128 0x3a
 15134 03f1 0B       		.uleb128 0xb
 15135 03f2 3B       		.uleb128 0x3b
 15136 03f3 0B       		.uleb128 0xb
 15137 03f4 00       		.byte	0
 15138 03f5 00       		.byte	0
 15139 03f6 4D       		.uleb128 0x4d
 15140 03f7 2E       		.uleb128 0x2e
 15141 03f8 00       		.byte	0
 15142 03f9 3F       		.uleb128 0x3f
 15143 03fa 19       		.uleb128 0x19
 15144 03fb 3C       		.uleb128 0x3c
 15145 03fc 19       		.uleb128 0x19
 15146 03fd 6E       		.uleb128 0x6e
 15147 03fe 0E       		.uleb128 0xe
 15148 03ff 03       		.uleb128 0x3
 15149 0400 0E       		.uleb128 0xe
 15150 0401 00       		.byte	0
 15151 0402 00       		.byte	0
 15152 0403 4E       		.uleb128 0x4e
 15153 0404 2E       		.uleb128 0x2e
 15154 0405 00       		.byte	0
 15155 0406 3F       		.uleb128 0x3f
 15156 0407 19       		.uleb128 0x19
 15157 0408 3C       		.uleb128 0x3c
 15158 0409 19       		.uleb128 0x19
 15159 040a 6E       		.uleb128 0x6e
 15160 040b 0E       		.uleb128 0xe
 15161 040c 03       		.uleb128 0x3
 15162 040d 0E       		.uleb128 0xe
ARM GAS  C:\Users\mathi\AppData\Local\Temp\ccVwcWGw.s 			page 267


 15163 040e 3A       		.uleb128 0x3a
 15164 040f 0B       		.uleb128 0xb
 15165 0410 3B       		.uleb128 0x3b
 15166 0411 05       		.uleb128 0x5
 15167 0412 00       		.byte	0
 15168 0413 00       		.byte	0
 15169 0414 00       		.byte	0
 15170              		.section	.debug_loc,"",%progbits
 15171              	.Ldebug_loc0:
 15172              	.LLST274:
 15173 0000 00000000 		.4byte	.LVL941
 15174 0004 23000000 		.4byte	.LVL946-1
 15175 0008 0100     		.2byte	0x1
 15176 000a 50       		.byte	0x50
 15177 000b 23000000 		.4byte	.LVL946-1
 15178 000f AC000000 		.4byte	.LFE25
 15179 0013 0100     		.2byte	0x1
 15180 0015 55       		.byte	0x55
 15181 0016 00000000 		.4byte	0
 15182 001a 00000000 		.4byte	0
 15183              	.LLST275:
 15184 001e 00000000 		.4byte	.LVL941
 15185 0022 18000000 		.4byte	.LVL943
 15186 0026 0100     		.2byte	0x1
 15187 0028 51       		.byte	0x51
 15188 0029 18000000 		.4byte	.LVL943
 15189 002d AC000000 		.4byte	.LFE25
 15190 0031 0100     		.2byte	0x1
 15191 0033 5A       		.byte	0x5a
 15192 0034 00000000 		.4byte	0
 15193 0038 00000000 		.4byte	0
 15194              	.LLST276:
 15195 003c 00000000 		.4byte	.LVL941
 15196 0040 1A000000 		.4byte	.LVL944
 15197 0044 0100     		.2byte	0x1
 15198 0046 52       		.byte	0x52
 15199 0047 1A000000 		.4byte	.LVL944
 15200 004b AC000000 		.4byte	.LFE25
 15201 004f 0100     		.2byte	0x1
 15202 0051 58       		.byte	0x58
 15203 0052 00000000 		.4byte	0
 15204 0056 00000000 		.4byte	0
 15205              	.LLST277:
 15206 005a 10000000 		.4byte	.LVL942
 15207 005e 94000000 		.4byte	.LVL966
 15208 0062 0200     		.2byte	0x2
 15209 0064 30       		.byte	0x30
 15210 0065 9F       		.byte	0x9f
 15211 0066 00000000 		.4byte	0
 15212 006a 00000000 		.4byte	0
 15213              	.LLST278:
 15214 006e 1C000000 		.4byte	.LVL945
 15215 0072 94000000 		.4byte	.LVL966
 15216 0076 0200     		.2byte	0x2
 15217 0078 31       		.byte	0x31
 15218 0079 9F       		.byte	0x9f
 15219 007a 00000000 		.4byte	0
ARM GAS  C:\Users\mathi\AppData\Local\Temp\ccVwcWGw.s 			page 268


 15220 007e 00000000 		.4byte	0
 15221              	.LLST280:
 15222 0082 1C000000 		.4byte	.LVL945
 15223 0086 94000000 		.4byte	.LVL966
 15224 008a 0100     		.2byte	0x1
 15225 008c 58       		.byte	0x58
 15226 008d 00000000 		.4byte	0
 15227 0091 00000000 		.4byte	0
 15228              	.LLST281:
 15229 0095 1C000000 		.4byte	.LVL945
 15230 0099 94000000 		.4byte	.LVL966
 15231 009d 0100     		.2byte	0x1
 15232 009f 5A       		.byte	0x5a
 15233 00a0 00000000 		.4byte	0
 15234 00a4 00000000 		.4byte	0
 15235              	.LLST282:
 15236 00a8 1C000000 		.4byte	.LVL945
 15237 00ac 94000000 		.4byte	.LVL966
 15238 00b0 0200     		.2byte	0x2
 15239 00b2 30       		.byte	0x30
 15240 00b3 9F       		.byte	0x9f
 15241 00b4 00000000 		.4byte	0
 15242 00b8 00000000 		.4byte	0
 15243              	.LLST285:
 15244 00bc 1C000000 		.4byte	.LVL945
 15245 00c0 23000000 		.4byte	.LVL946-1
 15246 00c4 0100     		.2byte	0x1
 15247 00c6 50       		.byte	0x50
 15248 00c7 23000000 		.4byte	.LVL946-1
 15249 00cb 94000000 		.4byte	.LVL966
 15250 00cf 0100     		.2byte	0x1
 15251 00d1 55       		.byte	0x55
 15252 00d2 00000000 		.4byte	0
 15253 00d6 00000000 		.4byte	0
 15254              	.LLST262:
 15255 00da 00000000 		.4byte	.LVL913
 15256 00de 19000000 		.4byte	.LVL918-1
 15257 00e2 0100     		.2byte	0x1
 15258 00e4 50       		.byte	0x50
 15259 00e5 19000000 		.4byte	.LVL918-1
 15260 00e9 98000000 		.4byte	.LFE24
 15261 00ed 0100     		.2byte	0x1
 15262 00ef 56       		.byte	0x56
 15263 00f0 00000000 		.4byte	0
 15264 00f4 00000000 		.4byte	0
 15265              	.LLST263:
 15266 00f8 00000000 		.4byte	.LVL913
 15267 00fc 12000000 		.4byte	.LVL915
 15268 0100 0100     		.2byte	0x1
 15269 0102 51       		.byte	0x51
 15270 0103 12000000 		.4byte	.LVL915
 15271 0107 98000000 		.4byte	.LFE24
 15272 010b 0400     		.2byte	0x4
 15273 010d F3       		.byte	0xf3
 15274 010e 01       		.uleb128 0x1
 15275 010f 51       		.byte	0x51
 15276 0110 9F       		.byte	0x9f
ARM GAS  C:\Users\mathi\AppData\Local\Temp\ccVwcWGw.s 			page 269


 15277 0111 00000000 		.4byte	0
 15278 0115 00000000 		.4byte	0
 15279              	.LLST264:
 15280 0119 00000000 		.4byte	.LVL913
 15281 011d 14000000 		.4byte	.LVL916
 15282 0121 0100     		.2byte	0x1
 15283 0123 52       		.byte	0x52
 15284 0124 14000000 		.4byte	.LVL916
 15285 0128 98000000 		.4byte	.LFE24
 15286 012c 0400     		.2byte	0x4
 15287 012e F3       		.byte	0xf3
 15288 012f 01       		.uleb128 0x1
 15289 0130 52       		.byte	0x52
 15290 0131 9F       		.byte	0x9f
 15291 0132 00000000 		.4byte	0
 15292 0136 00000000 		.4byte	0
 15293              	.LLST265:
 15294 013a 0C000000 		.4byte	.LVL914
 15295 013e 80000000 		.4byte	.LVL938
 15296 0142 0200     		.2byte	0x2
 15297 0144 30       		.byte	0x30
 15298 0145 9F       		.byte	0x9f
 15299 0146 00000000 		.4byte	0
 15300 014a 00000000 		.4byte	0
 15301              	.LLST266:
 15302 014e 16000000 		.4byte	.LVL917
 15303 0152 80000000 		.4byte	.LVL938
 15304 0156 0200     		.2byte	0x2
 15305 0158 31       		.byte	0x31
 15306 0159 9F       		.byte	0x9f
 15307 015a 00000000 		.4byte	0
 15308 015e 00000000 		.4byte	0
 15309              	.LLST268:
 15310 0162 16000000 		.4byte	.LVL917
 15311 0166 80000000 		.4byte	.LVL938
 15312 016a 0600     		.2byte	0x6
 15313 016c F2       		.byte	0xf2
 15314 016d 72110000 		.4byte	.Ldebug_info0+4466
 15315 0171 00       		.sleb128 0
 15316 0172 00000000 		.4byte	0
 15317 0176 00000000 		.4byte	0
 15318              	.LLST269:
 15319 017a 16000000 		.4byte	.LVL917
 15320 017e 80000000 		.4byte	.LVL938
 15321 0182 0600     		.2byte	0x6
 15322 0184 F2       		.byte	0xf2
 15323 0185 66110000 		.4byte	.Ldebug_info0+4454
 15324 0189 00       		.sleb128 0
 15325 018a 00000000 		.4byte	0
 15326 018e 00000000 		.4byte	0
 15327              	.LLST270:
 15328 0192 16000000 		.4byte	.LVL917
 15329 0196 80000000 		.4byte	.LVL938
 15330 019a 0100     		.2byte	0x1
 15331 019c 57       		.byte	0x57
 15332 019d 00000000 		.4byte	0
 15333 01a1 00000000 		.4byte	0
ARM GAS  C:\Users\mathi\AppData\Local\Temp\ccVwcWGw.s 			page 270


 15334              	.LLST271:
 15335 01a5 16000000 		.4byte	.LVL917
 15336 01a9 80000000 		.4byte	.LVL938
 15337 01ad 0100     		.2byte	0x1
 15338 01af 58       		.byte	0x58
 15339 01b0 00000000 		.4byte	0
 15340 01b4 00000000 		.4byte	0
 15341              	.LLST272:
 15342 01b8 16000000 		.4byte	.LVL917
 15343 01bc 80000000 		.4byte	.LVL938
 15344 01c0 0200     		.2byte	0x2
 15345 01c2 30       		.byte	0x30
 15346 01c3 9F       		.byte	0x9f
 15347 01c4 00000000 		.4byte	0
 15348 01c8 00000000 		.4byte	0
 15349              	.LLST273:
 15350 01cc 16000000 		.4byte	.LVL917
 15351 01d0 19000000 		.4byte	.LVL918-1
 15352 01d4 0100     		.2byte	0x1
 15353 01d6 50       		.byte	0x50
 15354 01d7 19000000 		.4byte	.LVL918-1
 15355 01db 80000000 		.4byte	.LVL938
 15356 01df 0100     		.2byte	0x1
 15357 01e1 56       		.byte	0x56
 15358 01e2 00000000 		.4byte	0
 15359 01e6 00000000 		.4byte	0
 15360              	.LLST196:
 15361 01ea 00000000 		.4byte	.LVL696
 15362 01ee 1F000000 		.4byte	.LVL702-1
 15363 01f2 0100     		.2byte	0x1
 15364 01f4 50       		.byte	0x50
 15365 01f5 1F000000 		.4byte	.LVL702-1
 15366 01f9 DC010000 		.4byte	.LFE23
 15367 01fd 0100     		.2byte	0x1
 15368 01ff 55       		.byte	0x55
 15369 0200 00000000 		.4byte	0
 15370 0204 00000000 		.4byte	0
 15371              	.LLST197:
 15372 0208 00000000 		.4byte	.LVL696
 15373 020c 14000000 		.4byte	.LVL698
 15374 0210 0100     		.2byte	0x1
 15375 0212 51       		.byte	0x51
 15376 0213 14000000 		.4byte	.LVL698
 15377 0217 2A000000 		.4byte	.LVL704
 15378 021b 0100     		.2byte	0x1
 15379 021d 5B       		.byte	0x5b
 15380 021e 2A000000 		.4byte	.LVL704
 15381 0222 3C000000 		.4byte	.LVL705
 15382 0226 0400     		.2byte	0x4
 15383 0228 F3       		.byte	0xf3
 15384 0229 01       		.uleb128 0x1
 15385 022a 51       		.byte	0x51
 15386 022b 9F       		.byte	0x9f
 15387 022c 3C000000 		.4byte	.LVL705
 15388 0230 DA000000 		.4byte	.LVL729
 15389 0234 0100     		.2byte	0x1
 15390 0236 5B       		.byte	0x5b
ARM GAS  C:\Users\mathi\AppData\Local\Temp\ccVwcWGw.s 			page 271


 15391 0237 DA000000 		.4byte	.LVL729
 15392 023b F0000000 		.4byte	.LVL731
 15393 023f 0400     		.2byte	0x4
 15394 0241 F3       		.byte	0xf3
 15395 0242 01       		.uleb128 0x1
 15396 0243 51       		.byte	0x51
 15397 0244 9F       		.byte	0x9f
 15398 0245 F0000000 		.4byte	.LVL731
 15399 0249 5C010000 		.4byte	.LVL753
 15400 024d 0100     		.2byte	0x1
 15401 024f 5B       		.byte	0x5b
 15402 0250 5C010000 		.4byte	.LVL753
 15403 0254 DC010000 		.4byte	.LFE23
 15404 0258 0400     		.2byte	0x4
 15405 025a F3       		.byte	0xf3
 15406 025b 01       		.uleb128 0x1
 15407 025c 51       		.byte	0x51
 15408 025d 9F       		.byte	0x9f
 15409 025e 00000000 		.4byte	0
 15410 0262 00000000 		.4byte	0
 15411              	.LLST198:
 15412 0266 00000000 		.4byte	.LVL696
 15413 026a 12000000 		.4byte	.LVL697
 15414 026e 0100     		.2byte	0x1
 15415 0270 52       		.byte	0x52
 15416 0271 12000000 		.4byte	.LVL697
 15417 0275 DC010000 		.4byte	.LFE23
 15418 0279 0100     		.2byte	0x1
 15419 027b 5A       		.byte	0x5a
 15420 027c 00000000 		.4byte	0
 15421 0280 00000000 		.4byte	0
 15422              	.LLST199:
 15423 0284 00000000 		.4byte	.LVL696
 15424 0288 1F000000 		.4byte	.LVL702-1
 15425 028c 0100     		.2byte	0x1
 15426 028e 53       		.byte	0x53
 15427 028f 1F000000 		.4byte	.LVL702-1
 15428 0293 DC010000 		.4byte	.LFE23
 15429 0297 0400     		.2byte	0x4
 15430 0299 F3       		.byte	0xf3
 15431 029a 01       		.uleb128 0x1
 15432 029b 53       		.byte	0x53
 15433 029c 9F       		.byte	0x9f
 15434 029d 00000000 		.4byte	0
 15435 02a1 00000000 		.4byte	0
 15436              	.LLST200:
 15437 02a5 16000000 		.4byte	.LVL699
 15438 02a9 2A000000 		.4byte	.LVL704
 15439 02ad 0200     		.2byte	0x2
 15440 02af 30       		.byte	0x30
 15441 02b0 9F       		.byte	0x9f
 15442 02b1 2A000000 		.4byte	.LVL704
 15443 02b5 3C000000 		.4byte	.LVL705
 15444 02b9 0100     		.2byte	0x1
 15445 02bb 54       		.byte	0x54
 15446 02bc 3C000000 		.4byte	.LVL705
 15447 02c0 80000000 		.4byte	.LVL715
ARM GAS  C:\Users\mathi\AppData\Local\Temp\ccVwcWGw.s 			page 272


 15448 02c4 0200     		.2byte	0x2
 15449 02c6 30       		.byte	0x30
 15450 02c7 9F       		.byte	0x9f
 15451 02c8 DA000000 		.4byte	.LVL729
 15452 02cc E4000000 		.4byte	.LVL730
 15453 02d0 0200     		.2byte	0x2
 15454 02d2 30       		.byte	0x30
 15455 02d3 9F       		.byte	0x9f
 15456 02d4 E4000000 		.4byte	.LVL730
 15457 02d8 F0000000 		.4byte	.LVL731
 15458 02dc 0100     		.2byte	0x1
 15459 02de 50       		.byte	0x50
 15460 02df F0000000 		.4byte	.LVL731
 15461 02e3 58010000 		.4byte	.LVL752
 15462 02e7 0200     		.2byte	0x2
 15463 02e9 30       		.byte	0x30
 15464 02ea 9F       		.byte	0x9f
 15465 02eb D4010000 		.4byte	.LVL775
 15466 02ef DC010000 		.4byte	.LFE23
 15467 02f3 0100     		.2byte	0x1
 15468 02f5 54       		.byte	0x54
 15469 02f6 00000000 		.4byte	0
 15470 02fa 00000000 		.4byte	0
 15471              	.LLST201:
 15472 02fe 1C000000 		.4byte	.LVL701
 15473 0302 2A000000 		.4byte	.LVL704
 15474 0306 0200     		.2byte	0x2
 15475 0308 30       		.byte	0x30
 15476 0309 9F       		.byte	0x9f
 15477 030a 3C000000 		.4byte	.LVL705
 15478 030e 80000000 		.4byte	.LVL715
 15479 0312 0200     		.2byte	0x2
 15480 0314 30       		.byte	0x30
 15481 0315 9F       		.byte	0x9f
 15482 0316 F0000000 		.4byte	.LVL731
 15483 031a 58010000 		.4byte	.LVL752
 15484 031e 0200     		.2byte	0x2
 15485 0320 30       		.byte	0x30
 15486 0321 9F       		.byte	0x9f
 15487 0322 00000000 		.4byte	0
 15488 0326 00000000 		.4byte	0
 15489              	.LLST202:
 15490 032a 1C000000 		.4byte	.LVL701
 15491 032e 2A000000 		.4byte	.LVL704
 15492 0332 0100     		.2byte	0x1
 15493 0334 58       		.byte	0x58
 15494 0335 3C000000 		.4byte	.LVL705
 15495 0339 80000000 		.4byte	.LVL715
 15496 033d 0100     		.2byte	0x1
 15497 033f 58       		.byte	0x58
 15498 0340 F0000000 		.4byte	.LVL731
 15499 0344 58010000 		.4byte	.LVL752
 15500 0348 0100     		.2byte	0x1
 15501 034a 58       		.byte	0x58
 15502 034b 00000000 		.4byte	0
 15503 034f 00000000 		.4byte	0
 15504              	.LLST203:
ARM GAS  C:\Users\mathi\AppData\Local\Temp\ccVwcWGw.s 			page 273


 15505 0353 1A000000 		.4byte	.LVL700
 15506 0357 2A000000 		.4byte	.LVL704
 15507 035b 0100     		.2byte	0x1
 15508 035d 5B       		.byte	0x5b
 15509 035e 3C000000 		.4byte	.LVL705
 15510 0362 80000000 		.4byte	.LVL715
 15511 0366 0100     		.2byte	0x1
 15512 0368 5B       		.byte	0x5b
 15513 0369 F0000000 		.4byte	.LVL731
 15514 036d 58010000 		.4byte	.LVL752
 15515 0371 0100     		.2byte	0x1
 15516 0373 5B       		.byte	0x5b
 15517 0374 00000000 		.4byte	0
 15518 0378 00000000 		.4byte	0
 15519              	.LLST204:
 15520 037c 1A000000 		.4byte	.LVL700
 15521 0380 1F000000 		.4byte	.LVL702-1
 15522 0384 0100     		.2byte	0x1
 15523 0386 50       		.byte	0x50
 15524 0387 1F000000 		.4byte	.LVL702-1
 15525 038b 2A000000 		.4byte	.LVL704
 15526 038f 0100     		.2byte	0x1
 15527 0391 55       		.byte	0x55
 15528 0392 3C000000 		.4byte	.LVL705
 15529 0396 80000000 		.4byte	.LVL715
 15530 039a 0100     		.2byte	0x1
 15531 039c 55       		.byte	0x55
 15532 039d F0000000 		.4byte	.LVL731
 15533 03a1 58010000 		.4byte	.LVL752
 15534 03a5 0100     		.2byte	0x1
 15535 03a7 55       		.byte	0x55
 15536 03a8 00000000 		.4byte	0
 15537 03ac 00000000 		.4byte	0
 15538              	.LLST205:
 15539 03b0 3C000000 		.4byte	.LVL705
 15540 03b4 D4010000 		.4byte	.LVL775
 15541 03b8 0300     		.2byte	0x3
 15542 03ba 08       		.byte	0x8
 15543 03bb 40       		.byte	0x40
 15544 03bc 9F       		.byte	0x9f
 15545 03bd 00000000 		.4byte	0
 15546 03c1 00000000 		.4byte	0
 15547              	.LLST206:
 15548 03c5 3C000000 		.4byte	.LVL705
 15549 03c9 D4010000 		.4byte	.LVL775
 15550 03cd 0100     		.2byte	0x1
 15551 03cf 55       		.byte	0x55
 15552 03d0 00000000 		.4byte	0
 15553 03d4 00000000 		.4byte	0
 15554              	.LLST207:
 15555 03d8 66000000 		.4byte	.LVL712
 15556 03dc 70000000 		.4byte	.LVL714
 15557 03e0 0300     		.2byte	0x3
 15558 03e2 08       		.byte	0x8
 15559 03e3 40       		.byte	0x40
 15560 03e4 9F       		.byte	0x9f
 15561 03e5 00000000 		.4byte	0
ARM GAS  C:\Users\mathi\AppData\Local\Temp\ccVwcWGw.s 			page 274


 15562 03e9 00000000 		.4byte	0
 15563              	.LLST208:
 15564 03ed 66000000 		.4byte	.LVL712
 15565 03f1 70000000 		.4byte	.LVL714
 15566 03f5 0100     		.2byte	0x1
 15567 03f7 55       		.byte	0x55
 15568 03f8 00000000 		.4byte	0
 15569 03fc 00000000 		.4byte	0
 15570              	.LLST209:
 15571 0400 F0000000 		.4byte	.LVL731
 15572 0404 52010000 		.4byte	.LVL751
 15573 0408 0200     		.2byte	0x2
 15574 040a 30       		.byte	0x30
 15575 040b 9F       		.byte	0x9f
 15576 040c 00000000 		.4byte	0
 15577 0410 00000000 		.4byte	0
 15578              	.LLST210:
 15579 0414 F0000000 		.4byte	.LVL731
 15580 0418 52010000 		.4byte	.LVL751
 15581 041c 0200     		.2byte	0x2
 15582 041e 31       		.byte	0x31
 15583 041f 9F       		.byte	0x9f
 15584 0420 00000000 		.4byte	0
 15585 0424 00000000 		.4byte	0
 15586              	.LLST211:
 15587 0428 F0000000 		.4byte	.LVL731
 15588 042c 52010000 		.4byte	.LVL751
 15589 0430 0600     		.2byte	0x6
 15590 0432 F2       		.byte	0xf2
 15591 0433 B8130000 		.4byte	.Ldebug_info0+5048
 15592 0437 00       		.sleb128 0
 15593 0438 00000000 		.4byte	0
 15594 043c 00000000 		.4byte	0
 15595              	.LLST212:
 15596 0440 F0000000 		.4byte	.LVL731
 15597 0444 52010000 		.4byte	.LVL751
 15598 0448 0100     		.2byte	0x1
 15599 044a 5B       		.byte	0x5b
 15600 044b 00000000 		.4byte	0
 15601 044f 00000000 		.4byte	0
 15602              	.LLST216:
 15603 0453 F0000000 		.4byte	.LVL731
 15604 0457 52010000 		.4byte	.LVL751
 15605 045b 0100     		.2byte	0x1
 15606 045d 55       		.byte	0x55
 15607 045e 00000000 		.4byte	0
 15608 0462 00000000 		.4byte	0
 15609              	.LLST217:
 15610 0466 80000000 		.4byte	.LVL715
 15611 046a F0000000 		.4byte	.LVL731
 15612 046e 0200     		.2byte	0x2
 15613 0470 30       		.byte	0x30
 15614 0471 9F       		.byte	0x9f
 15615 0472 58010000 		.4byte	.LVL752
 15616 0476 D4010000 		.4byte	.LVL775
 15617 047a 0200     		.2byte	0x2
 15618 047c 30       		.byte	0x30
ARM GAS  C:\Users\mathi\AppData\Local\Temp\ccVwcWGw.s 			page 275


 15619 047d 9F       		.byte	0x9f
 15620 047e 00000000 		.4byte	0
 15621 0482 00000000 		.4byte	0
 15622              	.LLST218:
 15623 0486 80000000 		.4byte	.LVL715
 15624 048a F0000000 		.4byte	.LVL731
 15625 048e 0100     		.2byte	0x1
 15626 0490 58       		.byte	0x58
 15627 0491 58010000 		.4byte	.LVL752
 15628 0495 D4010000 		.4byte	.LVL775
 15629 0499 0100     		.2byte	0x1
 15630 049b 58       		.byte	0x58
 15631 049c 00000000 		.4byte	0
 15632 04a0 00000000 		.4byte	0
 15633              	.LLST219:
 15634 04a4 80000000 		.4byte	.LVL715
 15635 04a8 F0000000 		.4byte	.LVL731
 15636 04ac 0100     		.2byte	0x1
 15637 04ae 5A       		.byte	0x5a
 15638 04af 58010000 		.4byte	.LVL752
 15639 04b3 D4010000 		.4byte	.LVL775
 15640 04b7 0100     		.2byte	0x1
 15641 04b9 5A       		.byte	0x5a
 15642 04ba 00000000 		.4byte	0
 15643 04be 00000000 		.4byte	0
 15644              	.LLST220:
 15645 04c2 80000000 		.4byte	.LVL715
 15646 04c6 F0000000 		.4byte	.LVL731
 15647 04ca 0100     		.2byte	0x1
 15648 04cc 55       		.byte	0x55
 15649 04cd 58010000 		.4byte	.LVL752
 15650 04d1 D4010000 		.4byte	.LVL775
 15651 04d5 0100     		.2byte	0x1
 15652 04d7 55       		.byte	0x55
 15653 04d8 00000000 		.4byte	0
 15654 04dc 00000000 		.4byte	0
 15655              	.LLST221:
 15656 04e0 96000000 		.4byte	.LVL719
 15657 04e4 F0000000 		.4byte	.LVL731
 15658 04e8 0200     		.2byte	0x2
 15659 04ea 30       		.byte	0x30
 15660 04eb 9F       		.byte	0x9f
 15661 04ec 58010000 		.4byte	.LVL752
 15662 04f0 D4010000 		.4byte	.LVL775
 15663 04f4 0200     		.2byte	0x2
 15664 04f6 30       		.byte	0x30
 15665 04f7 9F       		.byte	0x9f
 15666 04f8 00000000 		.4byte	0
 15667 04fc 00000000 		.4byte	0
 15668              	.LLST222:
 15669 0500 96000000 		.4byte	.LVL719
 15670 0504 F0000000 		.4byte	.LVL731
 15671 0508 0100     		.2byte	0x1
 15672 050a 55       		.byte	0x55
 15673 050b 58010000 		.4byte	.LVL752
 15674 050f D4010000 		.4byte	.LVL775
 15675 0513 0100     		.2byte	0x1
ARM GAS  C:\Users\mathi\AppData\Local\Temp\ccVwcWGw.s 			page 276


 15676 0515 55       		.byte	0x55
 15677 0516 00000000 		.4byte	0
 15678 051a 00000000 		.4byte	0
 15679              	.LLST223:
 15680 051e C0000000 		.4byte	.LVL726
 15681 0522 CA000000 		.4byte	.LVL728
 15682 0526 0200     		.2byte	0x2
 15683 0528 30       		.byte	0x30
 15684 0529 9F       		.byte	0x9f
 15685 052a 00000000 		.4byte	0
 15686 052e 00000000 		.4byte	0
 15687              	.LLST224:
 15688 0532 C0000000 		.4byte	.LVL726
 15689 0536 CA000000 		.4byte	.LVL728
 15690 053a 0100     		.2byte	0x1
 15691 053c 55       		.byte	0x55
 15692 053d 00000000 		.4byte	0
 15693 0541 00000000 		.4byte	0
 15694              	.LLST225:
 15695 0545 58010000 		.4byte	.LVL752
 15696 0549 CE010000 		.4byte	.LVL774
 15697 054d 0200     		.2byte	0x2
 15698 054f 31       		.byte	0x31
 15699 0550 9F       		.byte	0x9f
 15700 0551 00000000 		.4byte	0
 15701 0555 00000000 		.4byte	0
 15702              	.LLST226:
 15703 0559 58010000 		.4byte	.LVL752
 15704 055d CE010000 		.4byte	.LVL774
 15705 0561 0200     		.2byte	0x2
 15706 0563 30       		.byte	0x30
 15707 0564 9F       		.byte	0x9f
 15708 0565 00000000 		.4byte	0
 15709 0569 00000000 		.4byte	0
 15710              	.LLST227:
 15711 056d 58010000 		.4byte	.LVL752
 15712 0571 CE010000 		.4byte	.LVL774
 15713 0575 0100     		.2byte	0x1
 15714 0577 5A       		.byte	0x5a
 15715 0578 00000000 		.4byte	0
 15716 057c 00000000 		.4byte	0
 15717              	.LLST228:
 15718 0580 58010000 		.4byte	.LVL752
 15719 0584 CE010000 		.4byte	.LVL774
 15720 0588 0600     		.2byte	0x6
 15721 058a F2       		.byte	0xf2
 15722 058b 40160000 		.4byte	.Ldebug_info0+5696
 15723 058f 00       		.sleb128 0
 15724 0590 00000000 		.4byte	0
 15725 0594 00000000 		.4byte	0
 15726              	.LLST232:
 15727 0598 58010000 		.4byte	.LVL752
 15728 059c CE010000 		.4byte	.LVL774
 15729 05a0 0100     		.2byte	0x1
 15730 05a2 55       		.byte	0x55
 15731 05a3 00000000 		.4byte	0
 15732 05a7 00000000 		.4byte	0
ARM GAS  C:\Users\mathi\AppData\Local\Temp\ccVwcWGw.s 			page 277


 15733              	.LLST137:
 15734 05ab 00000000 		.4byte	.LVL432
 15735 05af 27000000 		.4byte	.LVL437-1
 15736 05b3 0100     		.2byte	0x1
 15737 05b5 50       		.byte	0x50
 15738 05b6 27000000 		.4byte	.LVL437-1
 15739 05ba 2A000000 		.4byte	.LVL438
 15740 05be 0100     		.2byte	0x1
 15741 05c0 54       		.byte	0x54
 15742 05c1 2A000000 		.4byte	.LVL438
 15743 05c5 3C000000 		.4byte	.LVL440
 15744 05c9 0400     		.2byte	0x4
 15745 05cb F3       		.byte	0xf3
 15746 05cc 01       		.uleb128 0x1
 15747 05cd 50       		.byte	0x50
 15748 05ce 9F       		.byte	0x9f
 15749 05cf 3C000000 		.4byte	.LVL440
 15750 05d3 4A000000 		.4byte	.LVL442
 15751 05d7 0100     		.2byte	0x1
 15752 05d9 50       		.byte	0x50
 15753 05da 4A000000 		.4byte	.LVL442
 15754 05de 5C000000 		.4byte	.LVL444
 15755 05e2 0100     		.2byte	0x1
 15756 05e4 54       		.byte	0x54
 15757 05e5 5C000000 		.4byte	.LVL444
 15758 05e9 92020000 		.4byte	.LVL549
 15759 05ed 0200     		.2byte	0x2
 15760 05ef 91       		.byte	0x91
 15761 05f0 44       		.sleb128 -60
 15762 05f1 92020000 		.4byte	.LVL549
 15763 05f5 9C020000 		.4byte	.LFE18
 15764 05f9 0400     		.2byte	0x4
 15765 05fb F3       		.byte	0xf3
 15766 05fc 01       		.uleb128 0x1
 15767 05fd 50       		.byte	0x50
 15768 05fe 9F       		.byte	0x9f
 15769 05ff 00000000 		.4byte	0
 15770 0603 00000000 		.4byte	0
 15771              	.LLST138:
 15772 0607 00000000 		.4byte	.LVL432
 15773 060b 24000000 		.4byte	.LVL436
 15774 060f 0100     		.2byte	0x1
 15775 0611 51       		.byte	0x51
 15776 0612 24000000 		.4byte	.LVL436
 15777 0616 38000000 		.4byte	.LVL439
 15778 061a 0200     		.2byte	0x2
 15779 061c 7D       		.byte	0x7d
 15780 061d 00       		.sleb128 0
 15781 061e 38000000 		.4byte	.LVL439
 15782 0622 3C000000 		.4byte	.LVL440
 15783 0626 0300     		.2byte	0x3
 15784 0628 91       		.byte	0x91
 15785 0629 B87F     		.sleb128 -72
 15786 062b 3C000000 		.4byte	.LVL440
 15787 062f 4C000000 		.4byte	.LVL443
 15788 0633 0100     		.2byte	0x1
 15789 0635 51       		.byte	0x51
ARM GAS  C:\Users\mathi\AppData\Local\Temp\ccVwcWGw.s 			page 278


 15790 0636 4C000000 		.4byte	.LVL443
 15791 063a 9C020000 		.4byte	.LFE18
 15792 063e 0200     		.2byte	0x2
 15793 0640 7D       		.byte	0x7d
 15794 0641 00       		.sleb128 0
 15795 0642 00000000 		.4byte	0
 15796 0646 00000000 		.4byte	0
 15797              	.LLST139:
 15798 064a 00000000 		.4byte	.LVL432
 15799 064e 20000000 		.4byte	.LVL435
 15800 0652 0100     		.2byte	0x1
 15801 0654 52       		.byte	0x52
 15802 0655 20000000 		.4byte	.LVL435
 15803 0659 3C000000 		.4byte	.LVL440
 15804 065d 0300     		.2byte	0x3
 15805 065f 91       		.byte	0x91
 15806 0660 BC7F     		.sleb128 -68
 15807 0662 3C000000 		.4byte	.LVL440
 15808 0666 4C000000 		.4byte	.LVL443
 15809 066a 0100     		.2byte	0x1
 15810 066c 52       		.byte	0x52
 15811 066d 4C000000 		.4byte	.LVL443
 15812 0671 9C020000 		.4byte	.LFE18
 15813 0675 0300     		.2byte	0x3
 15814 0677 91       		.byte	0x91
 15815 0678 BC7F     		.sleb128 -68
 15816 067a 00000000 		.4byte	0
 15817 067e 00000000 		.4byte	0
 15818              	.LLST140:
 15819 0682 18000000 		.4byte	.LVL433
 15820 0686 28000000 		.4byte	.LVL437
 15821 068a 0200     		.2byte	0x2
 15822 068c 30       		.byte	0x30
 15823 068d 9F       		.byte	0x9f
 15824 068e 2A000000 		.4byte	.LVL438
 15825 0692 3C000000 		.4byte	.LVL440
 15826 0696 0100     		.2byte	0x1
 15827 0698 50       		.byte	0x50
 15828 0699 3C000000 		.4byte	.LVL440
 15829 069d 4C000000 		.4byte	.LVL443
 15830 06a1 0200     		.2byte	0x2
 15831 06a3 30       		.byte	0x30
 15832 06a4 9F       		.byte	0x9f
 15833 06a5 92020000 		.4byte	.LVL549
 15834 06a9 95020000 		.4byte	.LVL550-1
 15835 06ad 0100     		.2byte	0x1
 15836 06af 50       		.byte	0x50
 15837 06b0 00000000 		.4byte	0
 15838 06b4 00000000 		.4byte	0
 15839              	.LLST141:
 15840 06b8 18000000 		.4byte	.LVL433
 15841 06bc 27000000 		.4byte	.LVL437-1
 15842 06c0 0300     		.2byte	0x3
 15843 06c2 70       		.byte	0x70
 15844 06c3 9502     		.sleb128 277
 15845 06c5 3C000000 		.4byte	.LVL440
 15846 06c9 42000000 		.4byte	.LVL441
ARM GAS  C:\Users\mathi\AppData\Local\Temp\ccVwcWGw.s 			page 279


 15847 06cd 0300     		.2byte	0x3
 15848 06cf 70       		.byte	0x70
 15849 06d0 9502     		.sleb128 277
 15850 06d2 00000000 		.4byte	0
 15851 06d6 00000000 		.4byte	0
 15852              	.LLST142:
 15853 06da 5C000000 		.4byte	.LVL444
 15854 06de 80000000 		.4byte	.LVL447
 15855 06e2 0100     		.2byte	0x1
 15856 06e4 52       		.byte	0x52
 15857 06e5 80000000 		.4byte	.LVL447
 15858 06e9 B8000000 		.4byte	.LVL460
 15859 06ed 0100     		.2byte	0x1
 15860 06ef 53       		.byte	0x53
 15861 06f0 BA000000 		.4byte	.LVL461
 15862 06f4 C8000000 		.4byte	.LVL465
 15863 06f8 0100     		.2byte	0x1
 15864 06fa 52       		.byte	0x52
 15865 06fb C8000000 		.4byte	.LVL465
 15866 06ff D0000000 		.4byte	.LVL466
 15867 0703 0300     		.2byte	0x3
 15868 0705 72       		.byte	0x72
 15869 0706 01       		.sleb128 1
 15870 0707 9F       		.byte	0x9f
 15871 0708 E8000000 		.4byte	.LVL467
 15872 070c EC000000 		.4byte	.LVL468
 15873 0710 0100     		.2byte	0x1
 15874 0712 52       		.byte	0x52
 15875 0713 EC000000 		.4byte	.LVL468
 15876 0717 16010000 		.4byte	.LVL478
 15877 071b 0100     		.2byte	0x1
 15878 071d 53       		.byte	0x53
 15879 071e 16010000 		.4byte	.LVL478
 15880 0722 24010000 		.4byte	.LVL481
 15881 0726 0100     		.2byte	0x1
 15882 0728 52       		.byte	0x52
 15883 0729 24010000 		.4byte	.LVL481
 15884 072d 46010000 		.4byte	.LVL489
 15885 0731 0100     		.2byte	0x1
 15886 0733 53       		.byte	0x53
 15887 0734 46010000 		.4byte	.LVL489
 15888 0738 4E010000 		.4byte	.LVL490
 15889 073c 0100     		.2byte	0x1
 15890 073e 52       		.byte	0x52
 15891 073f 4E010000 		.4byte	.LVL490
 15892 0743 78010000 		.4byte	.LVL499
 15893 0747 0100     		.2byte	0x1
 15894 0749 53       		.byte	0x53
 15895 074a 78010000 		.4byte	.LVL499
 15896 074e 80010000 		.4byte	.LVL500
 15897 0752 0100     		.2byte	0x1
 15898 0754 52       		.byte	0x52
 15899 0755 80010000 		.4byte	.LVL500
 15900 0759 08020000 		.4byte	.LVL522
 15901 075d 0100     		.2byte	0x1
 15902 075f 53       		.byte	0x53
 15903 0760 08020000 		.4byte	.LVL522
ARM GAS  C:\Users\mathi\AppData\Local\Temp\ccVwcWGw.s 			page 280


 15904 0764 10020000 		.4byte	.LVL523
 15905 0768 0100     		.2byte	0x1
 15906 076a 52       		.byte	0x52
 15907 076b 10020000 		.4byte	.LVL523
 15908 076f 1A020000 		.4byte	.LVL525
 15909 0773 0100     		.2byte	0x1
 15910 0775 53       		.byte	0x53
 15911 0776 1A020000 		.4byte	.LVL525
 15912 077a 20020000 		.4byte	.LVL526
 15913 077e 0100     		.2byte	0x1
 15914 0780 52       		.byte	0x52
 15915 0781 20020000 		.4byte	.LVL526
 15916 0785 4A020000 		.4byte	.LVL534
 15917 0789 0100     		.2byte	0x1
 15918 078b 53       		.byte	0x53
 15919 078c 4A020000 		.4byte	.LVL534
 15920 0790 50020000 		.4byte	.LVL536
 15921 0794 0100     		.2byte	0x1
 15922 0796 52       		.byte	0x52
 15923 0797 50020000 		.4byte	.LVL536
 15924 079b 5A020000 		.4byte	.LVL538
 15925 079f 0100     		.2byte	0x1
 15926 07a1 53       		.byte	0x53
 15927 07a2 5A020000 		.4byte	.LVL538
 15928 07a6 5E020000 		.4byte	.LVL539
 15929 07aa 0100     		.2byte	0x1
 15930 07ac 52       		.byte	0x52
 15931 07ad 5E020000 		.4byte	.LVL539
 15932 07b1 64020000 		.4byte	.LVL540
 15933 07b5 0100     		.2byte	0x1
 15934 07b7 53       		.byte	0x53
 15935 07b8 64020000 		.4byte	.LVL540
 15936 07bc 7A020000 		.4byte	.LVL543
 15937 07c0 0100     		.2byte	0x1
 15938 07c2 52       		.byte	0x52
 15939 07c3 7A020000 		.4byte	.LVL543
 15940 07c7 92020000 		.4byte	.LVL549
 15941 07cb 0100     		.2byte	0x1
 15942 07cd 53       		.byte	0x53
 15943 07ce 00000000 		.4byte	0
 15944 07d2 00000000 		.4byte	0
 15945              	.LLST143:
 15946 07d6 18000000 		.4byte	.LVL433
 15947 07da 2A000000 		.4byte	.LVL438
 15948 07de 0200     		.2byte	0x2
 15949 07e0 30       		.byte	0x30
 15950 07e1 9F       		.byte	0x9f
 15951 07e2 3C000000 		.4byte	.LVL440
 15952 07e6 5C000000 		.4byte	.LVL444
 15953 07ea 0200     		.2byte	0x2
 15954 07ec 30       		.byte	0x30
 15955 07ed 9F       		.byte	0x9f
 15956 07ee 84000000 		.4byte	.LVL448
 15957 07f2 96000000 		.4byte	.LVL451
 15958 07f6 0200     		.2byte	0x2
 15959 07f8 31       		.byte	0x31
 15960 07f9 9F       		.byte	0x9f
ARM GAS  C:\Users\mathi\AppData\Local\Temp\ccVwcWGw.s 			page 281


 15961 07fa F0000000 		.4byte	.LVL469
 15962 07fe FE000000 		.4byte	.LVL472
 15963 0802 0200     		.2byte	0x2
 15964 0804 31       		.byte	0x31
 15965 0805 9F       		.byte	0x9f
 15966 0806 28010000 		.4byte	.LVL482
 15967 080a 3A010000 		.4byte	.LVL485
 15968 080e 0200     		.2byte	0x2
 15969 0810 31       		.byte	0x31
 15970 0811 9F       		.byte	0x9f
 15971 0812 52010000 		.4byte	.LVL491
 15972 0816 62010000 		.4byte	.LVL494
 15973 081a 0200     		.2byte	0x2
 15974 081c 31       		.byte	0x31
 15975 081d 9F       		.byte	0x9f
 15976 081e 84010000 		.4byte	.LVL501
 15977 0822 98010000 		.4byte	.LVL503
 15978 0826 0200     		.2byte	0x2
 15979 0828 31       		.byte	0x31
 15980 0829 9F       		.byte	0x9f
 15981 082a A6010000 		.4byte	.LVL505
 15982 082e B0010000 		.4byte	.LVL507
 15983 0832 0200     		.2byte	0x2
 15984 0834 31       		.byte	0x31
 15985 0835 9F       		.byte	0x9f
 15986 0836 B8010000 		.4byte	.LVL508
 15987 083a C4010000 		.4byte	.LVL510
 15988 083e 0200     		.2byte	0x2
 15989 0840 31       		.byte	0x31
 15990 0841 9F       		.byte	0x9f
 15991 0842 DA010000 		.4byte	.LVL513
 15992 0846 E4010000 		.4byte	.LVL515
 15993 084a 0200     		.2byte	0x2
 15994 084c 30       		.byte	0x30
 15995 084d 9F       		.byte	0x9f
 15996 084e EC010000 		.4byte	.LVL516
 15997 0852 08020000 		.4byte	.LVL522
 15998 0856 0200     		.2byte	0x2
 15999 0858 30       		.byte	0x30
 16000 0859 9F       		.byte	0x9f
 16001 085a 16020000 		.4byte	.LVL524
 16002 085e 28020000 		.4byte	.LVL527
 16003 0862 0200     		.2byte	0x2
 16004 0864 31       		.byte	0x31
 16005 0865 9F       		.byte	0x9f
 16006 0866 28020000 		.4byte	.LVL527
 16007 086a 2E020000 		.4byte	.LVL529
 16008 086e 0200     		.2byte	0x2
 16009 0870 30       		.byte	0x30
 16010 0871 9F       		.byte	0x9f
 16011 0872 38020000 		.4byte	.LVL530
 16012 0876 40020000 		.4byte	.LVL532
 16013 087a 0200     		.2byte	0x2
 16014 087c 30       		.byte	0x30
 16015 087d 9F       		.byte	0x9f
 16016 087e 52020000 		.4byte	.LVL537
 16017 0882 64020000 		.4byte	.LVL540
ARM GAS  C:\Users\mathi\AppData\Local\Temp\ccVwcWGw.s 			page 282


 16018 0886 0200     		.2byte	0x2
 16019 0888 31       		.byte	0x31
 16020 0889 9F       		.byte	0x9f
 16021 088a 00000000 		.4byte	0
 16022 088e 00000000 		.4byte	0
 16023              	.LLST144:
 16024 0892 1E000000 		.4byte	.LVL434
 16025 0896 20000000 		.4byte	.LVL435
 16026 089a 0300     		.2byte	0x3
 16027 089c 91       		.byte	0x91
 16028 089d 4C       		.sleb128 -52
 16029 089e 9F       		.byte	0x9f
 16030 089f 20000000 		.4byte	.LVL435
 16031 08a3 27000000 		.4byte	.LVL437-1
 16032 08a7 0100     		.2byte	0x1
 16033 08a9 52       		.byte	0x52
 16034 08aa 27000000 		.4byte	.LVL437-1
 16035 08ae 28000000 		.4byte	.LVL437
 16036 08b2 0300     		.2byte	0x3
 16037 08b4 91       		.byte	0x91
 16038 08b5 4C       		.sleb128 -52
 16039 08b6 9F       		.byte	0x9f
 16040 08b7 00000000 		.4byte	0
 16041 08bb 00000000 		.4byte	0
 16042              	.LLST145:
 16043 08bf 1E000000 		.4byte	.LVL434
 16044 08c3 27000000 		.4byte	.LVL437-1
 16045 08c7 0100     		.2byte	0x1
 16046 08c9 50       		.byte	0x50
 16047 08ca 27000000 		.4byte	.LVL437-1
 16048 08ce 28000000 		.4byte	.LVL437
 16049 08d2 0100     		.2byte	0x1
 16050 08d4 54       		.byte	0x54
 16051 08d5 00000000 		.4byte	0
 16052 08d9 00000000 		.4byte	0
 16053              	.LLST128:
 16054 08dd 00000000 		.4byte	.LVL406
 16055 08e1 17000000 		.4byte	.LVL410-1
 16056 08e5 0100     		.2byte	0x1
 16057 08e7 50       		.byte	0x50
 16058 08e8 17000000 		.4byte	.LVL410-1
 16059 08ec C0000000 		.4byte	.LFE17
 16060 08f0 0100     		.2byte	0x1
 16061 08f2 54       		.byte	0x54
 16062 08f3 00000000 		.4byte	0
 16063 08f7 00000000 		.4byte	0
 16064              	.LLST129:
 16065 08fb 00000000 		.4byte	.LVL406
 16066 08ff 12000000 		.4byte	.LVL409
 16067 0903 0100     		.2byte	0x1
 16068 0905 51       		.byte	0x51
 16069 0906 12000000 		.4byte	.LVL409
 16070 090a C0000000 		.4byte	.LFE17
 16071 090e 0100     		.2byte	0x1
 16072 0910 57       		.byte	0x57
 16073 0911 00000000 		.4byte	0
 16074 0915 00000000 		.4byte	0
ARM GAS  C:\Users\mathi\AppData\Local\Temp\ccVwcWGw.s 			page 283


 16075              	.LLST130:
 16076 0919 00000000 		.4byte	.LVL406
 16077 091d 10000000 		.4byte	.LVL408
 16078 0921 0100     		.2byte	0x1
 16079 0923 52       		.byte	0x52
 16080 0924 10000000 		.4byte	.LVL408
 16081 0928 C0000000 		.4byte	.LFE17
 16082 092c 0400     		.2byte	0x4
 16083 092e F3       		.byte	0xf3
 16084 092f 01       		.uleb128 0x1
 16085 0930 52       		.byte	0x52
 16086 0931 9F       		.byte	0x9f
 16087 0932 00000000 		.4byte	0
 16088 0936 00000000 		.4byte	0
 16089              	.LLST131:
 16090 093a 0E000000 		.4byte	.LVL407
 16091 093e 18000000 		.4byte	.LVL410
 16092 0942 0200     		.2byte	0x2
 16093 0944 30       		.byte	0x30
 16094 0945 9F       		.byte	0x9f
 16095 0946 18000000 		.4byte	.LVL410
 16096 094a 1A000000 		.4byte	.LVL411
 16097 094e 0100     		.2byte	0x1
 16098 0950 50       		.byte	0x50
 16099 0951 46000000 		.4byte	.LVL416
 16100 0955 62000000 		.4byte	.LVL417
 16101 0959 0100     		.2byte	0x1
 16102 095b 50       		.byte	0x50
 16103 095c 7E000000 		.4byte	.LVL421
 16104 0960 84000000 		.4byte	.LVL422
 16105 0964 0100     		.2byte	0x1
 16106 0966 50       		.byte	0x50
 16107 0967 88000000 		.4byte	.LVL423
 16108 096b 92000000 		.4byte	.LVL424
 16109 096f 0100     		.2byte	0x1
 16110 0971 50       		.byte	0x50
 16111 0972 96000000 		.4byte	.LVL425
 16112 0976 A0000000 		.4byte	.LVL426
 16113 097a 0100     		.2byte	0x1
 16114 097c 50       		.byte	0x50
 16115 097d A4000000 		.4byte	.LVL427
 16116 0981 AE000000 		.4byte	.LVL428
 16117 0985 0100     		.2byte	0x1
 16118 0987 50       		.byte	0x50
 16119 0988 B4000000 		.4byte	.LVL430
 16120 098c B7000000 		.4byte	.LVL431-1
 16121 0990 0100     		.2byte	0x1
 16122 0992 50       		.byte	0x50
 16123 0993 00000000 		.4byte	0
 16124 0997 00000000 		.4byte	0
 16125              	.LLST132:
 16126 099b 0E000000 		.4byte	.LVL407
 16127 099f 2E000000 		.4byte	.LVL414
 16128 09a3 0200     		.2byte	0x2
 16129 09a5 30       		.byte	0x30
 16130 09a6 9F       		.byte	0x9f
 16131 09a7 2E000000 		.4byte	.LVL414
ARM GAS  C:\Users\mathi\AppData\Local\Temp\ccVwcWGw.s 			page 284


 16132 09ab 40000000 		.4byte	.LVL415
 16133 09af 0100     		.2byte	0x1
 16134 09b1 51       		.byte	0x51
 16135 09b2 40000000 		.4byte	.LVL415
 16136 09b6 45000000 		.4byte	.LVL416-1
 16137 09ba 0200     		.2byte	0x2
 16138 09bc 7D       		.byte	0x7d
 16139 09bd 00       		.sleb128 0
 16140 09be 62000000 		.4byte	.LVL417
 16141 09c2 68000000 		.4byte	.LVL418
 16142 09c6 0100     		.2byte	0x1
 16143 09c8 51       		.byte	0x51
 16144 09c9 68000000 		.4byte	.LVL418
 16145 09cd 70000000 		.4byte	.LVL419
 16146 09d1 0100     		.2byte	0x1
 16147 09d3 52       		.byte	0x52
 16148 09d4 70000000 		.4byte	.LVL419
 16149 09d8 7A000000 		.4byte	.LVL420
 16150 09dc 0100     		.2byte	0x1
 16151 09de 51       		.byte	0x51
 16152 09df 7A000000 		.4byte	.LVL420
 16153 09e3 B4000000 		.4byte	.LVL430
 16154 09e7 0200     		.2byte	0x2
 16155 09e9 30       		.byte	0x30
 16156 09ea 9F       		.byte	0x9f
 16157 09eb 00000000 		.4byte	0
 16158 09ef 00000000 		.4byte	0
 16159              	.LLST133:
 16160 09f3 1A000000 		.4byte	.LVL411
 16161 09f7 24000000 		.4byte	.LVL412
 16162 09fb 0200     		.2byte	0x2
 16163 09fd 35       		.byte	0x35
 16164 09fe 9F       		.byte	0x9f
 16165 09ff 24000000 		.4byte	.LVL412
 16166 0a03 7E000000 		.4byte	.LVL421
 16167 0a07 0200     		.2byte	0x2
 16168 0a09 36       		.byte	0x36
 16169 0a0a 9F       		.byte	0x9f
 16170 0a0b B4000000 		.4byte	.LVL430
 16171 0a0f C0000000 		.4byte	.LFE17
 16172 0a13 0200     		.2byte	0x2
 16173 0a15 36       		.byte	0x36
 16174 0a16 9F       		.byte	0x9f
 16175 0a17 00000000 		.4byte	0
 16176 0a1b 00000000 		.4byte	0
 16177              	.LLST134:
 16178 0a1f 26000000 		.4byte	.LVL413
 16179 0a23 2E000000 		.4byte	.LVL414
 16180 0a27 0300     		.2byte	0x3
 16181 0a29 08       		.byte	0x8
 16182 0a2a B4       		.byte	0xb4
 16183 0a2b 9F       		.byte	0x9f
 16184 0a2c 70000000 		.4byte	.LVL419
 16185 0a30 7A000000 		.4byte	.LVL420
 16186 0a34 0400     		.2byte	0x4
 16187 0a36 72       		.byte	0x72
 16188 0a37 B501     		.sleb128 181
ARM GAS  C:\Users\mathi\AppData\Local\Temp\ccVwcWGw.s 			page 285


 16189 0a39 9F       		.byte	0x9f
 16190 0a3a 00000000 		.4byte	0
 16191 0a3e 00000000 		.4byte	0
 16192              	.LLST135:
 16193 0a42 26000000 		.4byte	.LVL413
 16194 0a46 2E000000 		.4byte	.LVL414
 16195 0a4a 0200     		.2byte	0x2
 16196 0a4c 32       		.byte	0x32
 16197 0a4d 9F       		.byte	0x9f
 16198 0a4e 70000000 		.4byte	.LVL419
 16199 0a52 7A000000 		.4byte	.LVL420
 16200 0a56 0600     		.2byte	0x6
 16201 0a58 72       		.byte	0x72
 16202 0a59 B501     		.sleb128 181
 16203 0a5b 36       		.byte	0x36
 16204 0a5c 25       		.byte	0x25
 16205 0a5d 9F       		.byte	0x9f
 16206 0a5e 00000000 		.4byte	0
 16207 0a62 00000000 		.4byte	0
 16208              	.LLST136:
 16209 0a66 26000000 		.4byte	.LVL413
 16210 0a6a 2E000000 		.4byte	.LVL414
 16211 0a6e 0200     		.2byte	0x2
 16212 0a70 31       		.byte	0x31
 16213 0a71 9F       		.byte	0x9f
 16214 0a72 70000000 		.4byte	.LVL419
 16215 0a76 7A000000 		.4byte	.LVL420
 16216 0a7a 0200     		.2byte	0x2
 16217 0a7c 31       		.byte	0x31
 16218 0a7d 9F       		.byte	0x9f
 16219 0a7e 00000000 		.4byte	0
 16220 0a82 00000000 		.4byte	0
 16221              	.LLST233:
 16222 0a86 00000000 		.4byte	.LVL777
 16223 0a8a 31000000 		.4byte	.LVL783-1
 16224 0a8e 0100     		.2byte	0x1
 16225 0a90 50       		.byte	0x50
 16226 0a91 31000000 		.4byte	.LVL783-1
 16227 0a95 4E040000 		.4byte	.LFE16
 16228 0a99 0100     		.2byte	0x1
 16229 0a9b 55       		.byte	0x55
 16230 0a9c 00000000 		.4byte	0
 16231 0aa0 00000000 		.4byte	0
 16232              	.LLST234:
 16233 0aa4 00000000 		.4byte	.LVL777
 16234 0aa8 22000000 		.4byte	.LVL780
 16235 0aac 0100     		.2byte	0x1
 16236 0aae 51       		.byte	0x51
 16237 0aaf 22000000 		.4byte	.LVL780
 16238 0ab3 4E040000 		.4byte	.LFE16
 16239 0ab7 0300     		.2byte	0x3
 16240 0ab9 91       		.byte	0x91
 16241 0aba 9C7F     		.sleb128 -100
 16242 0abc 00000000 		.4byte	0
 16243 0ac0 00000000 		.4byte	0
 16244              	.LLST235:
 16245 0ac4 00000000 		.4byte	.LVL777
ARM GAS  C:\Users\mathi\AppData\Local\Temp\ccVwcWGw.s 			page 286


 16246 0ac8 0C000000 		.4byte	.LVL778
 16247 0acc 0100     		.2byte	0x1
 16248 0ace 52       		.byte	0x52
 16249 0acf 0C000000 		.4byte	.LVL778
 16250 0ad3 4E040000 		.4byte	.LFE16
 16251 0ad7 0300     		.2byte	0x3
 16252 0ad9 91       		.byte	0x91
 16253 0ada A07F     		.sleb128 -96
 16254 0adc 00000000 		.4byte	0
 16255 0ae0 00000000 		.4byte	0
 16256              	.LLST236:
 16257 0ae4 14000000 		.4byte	.LVL779
 16258 0ae8 32000000 		.4byte	.LVL783
 16259 0aec 0200     		.2byte	0x2
 16260 0aee 30       		.byte	0x30
 16261 0aef 9F       		.byte	0x9f
 16262 0af0 32000000 		.4byte	.LVL783
 16263 0af4 36000000 		.4byte	.LVL784
 16264 0af8 0100     		.2byte	0x1
 16265 0afa 50       		.byte	0x50
 16266 0afb 4A000000 		.4byte	.LVL785
 16267 0aff 4E000000 		.4byte	.LVL786
 16268 0b03 0100     		.2byte	0x1
 16269 0b05 50       		.byte	0x50
 16270 0b06 52000000 		.4byte	.LVL787
 16271 0b0a 5E000000 		.4byte	.LVL788
 16272 0b0e 0100     		.2byte	0x1
 16273 0b10 50       		.byte	0x50
 16274 0b11 62000000 		.4byte	.LVL789
 16275 0b15 6C000000 		.4byte	.LVL790
 16276 0b19 0100     		.2byte	0x1
 16277 0b1b 50       		.byte	0x50
 16278 0b1c 70000000 		.4byte	.LVL791
 16279 0b20 7C000000 		.4byte	.LVL792
 16280 0b24 0100     		.2byte	0x1
 16281 0b26 50       		.byte	0x50
 16282 0b27 80000000 		.4byte	.LVL793
 16283 0b2b 8A000000 		.4byte	.LVL794
 16284 0b2f 0100     		.2byte	0x1
 16285 0b31 50       		.byte	0x50
 16286 0b32 8E000000 		.4byte	.LVL795
 16287 0b36 9E000000 		.4byte	.LVL796
 16288 0b3a 0100     		.2byte	0x1
 16289 0b3c 50       		.byte	0x50
 16290 0b3d A2000000 		.4byte	.LVL797
 16291 0b41 B8000000 		.4byte	.LVL798
 16292 0b45 0100     		.2byte	0x1
 16293 0b47 50       		.byte	0x50
 16294 0b48 CC000000 		.4byte	.LVL799
 16295 0b4c D8000000 		.4byte	.LVL800
 16296 0b50 0100     		.2byte	0x1
 16297 0b52 50       		.byte	0x50
 16298 0b53 8C010000 		.4byte	.LVL823
 16299 0b57 9A010000 		.4byte	.LVL824
 16300 0b5b 0100     		.2byte	0x1
 16301 0b5d 50       		.byte	0x50
 16302 0b5e 48020000 		.4byte	.LVL844
ARM GAS  C:\Users\mathi\AppData\Local\Temp\ccVwcWGw.s 			page 287


 16303 0b62 3A030000 		.4byte	.LVL876
 16304 0b66 0200     		.2byte	0x2
 16305 0b68 30       		.byte	0x30
 16306 0b69 9F       		.byte	0x9f
 16307 0b6a 3A030000 		.4byte	.LVL876
 16308 0b6e 46030000 		.4byte	.LVL878
 16309 0b72 0100     		.2byte	0x1
 16310 0b74 50       		.byte	0x50
 16311 0b75 F8030000 		.4byte	.LVL896
 16312 0b79 08040000 		.4byte	.LVL899
 16313 0b7d 0200     		.2byte	0x2
 16314 0b7f 30       		.byte	0x30
 16315 0b80 9F       		.byte	0x9f
 16316 0b81 08040000 		.4byte	.LVL899
 16317 0b85 0E040000 		.4byte	.LVL900
 16318 0b89 0300     		.2byte	0x3
 16319 0b8b 09       		.byte	0x9
 16320 0b8c CE       		.byte	0xce
 16321 0b8d 9F       		.byte	0x9f
 16322 0b8e 28040000 		.4byte	.LVL905
 16323 0b92 2E040000 		.4byte	.LVL906
 16324 0b96 0100     		.2byte	0x1
 16325 0b98 52       		.byte	0x52
 16326 0b99 38040000 		.4byte	.LVL908
 16327 0b9d 3C040000 		.4byte	.LVL909
 16328 0ba1 0200     		.2byte	0x2
 16329 0ba3 30       		.byte	0x30
 16330 0ba4 9F       		.byte	0x9f
 16331 0ba5 00000000 		.4byte	0
 16332 0ba9 00000000 		.4byte	0
 16333              	.LLST237:
 16334 0bad 14000000 		.4byte	.LVL779
 16335 0bb1 36000000 		.4byte	.LVL784
 16336 0bb5 0200     		.2byte	0x2
 16337 0bb7 30       		.byte	0x30
 16338 0bb8 9F       		.byte	0x9f
 16339 0bb9 4A000000 		.4byte	.LVL785
 16340 0bbd DA000000 		.4byte	.LVL801
 16341 0bc1 0200     		.2byte	0x2
 16342 0bc3 30       		.byte	0x30
 16343 0bc4 9F       		.byte	0x9f
 16344 0bc5 DA000000 		.4byte	.LVL801
 16345 0bc9 60010000 		.4byte	.LVL819
 16346 0bcd 0100     		.2byte	0x1
 16347 0bcf 54       		.byte	0x54
 16348 0bd0 60010000 		.4byte	.LVL819
 16349 0bd4 66010000 		.4byte	.LVL820
 16350 0bd8 0100     		.2byte	0x1
 16351 0bda 52       		.byte	0x52
 16352 0bdb 66010000 		.4byte	.LVL820
 16353 0bdf 6E010000 		.4byte	.LVL821
 16354 0be3 0100     		.2byte	0x1
 16355 0be5 54       		.byte	0x54
 16356 0be6 6E010000 		.4byte	.LVL821
 16357 0bea 76010000 		.4byte	.LVL822
 16358 0bee 0100     		.2byte	0x1
 16359 0bf0 52       		.byte	0x52
ARM GAS  C:\Users\mathi\AppData\Local\Temp\ccVwcWGw.s 			page 288


 16360 0bf1 9C010000 		.4byte	.LVL825
 16361 0bf5 1A020000 		.4byte	.LVL840
 16362 0bf9 0100     		.2byte	0x1
 16363 0bfb 54       		.byte	0x54
 16364 0bfc 1E020000 		.4byte	.LVL841
 16365 0c00 4E020000 		.4byte	.LVL845
 16366 0c04 0100     		.2byte	0x1
 16367 0c06 54       		.byte	0x54
 16368 0c07 3A030000 		.4byte	.LVL876
 16369 0c0b C0030000 		.4byte	.LVL894
 16370 0c0f 0100     		.2byte	0x1
 16371 0c11 54       		.byte	0x54
 16372 0c12 E4030000 		.4byte	.LVL895
 16373 0c16 FC030000 		.4byte	.LVL897
 16374 0c1a 0100     		.2byte	0x1
 16375 0c1c 54       		.byte	0x54
 16376 0c1d 0E040000 		.4byte	.LVL900
 16377 0c21 2E040000 		.4byte	.LVL906
 16378 0c25 0100     		.2byte	0x1
 16379 0c27 54       		.byte	0x54
 16380 0c28 34040000 		.4byte	.LVL907
 16381 0c2c 38040000 		.4byte	.LVL908
 16382 0c30 0100     		.2byte	0x1
 16383 0c32 54       		.byte	0x54
 16384 0c33 3C040000 		.4byte	.LVL909
 16385 0c37 4A040000 		.4byte	.LVL911
 16386 0c3b 0100     		.2byte	0x1
 16387 0c3d 54       		.byte	0x54
 16388 0c3e 00000000 		.4byte	0
 16389 0c42 00000000 		.4byte	0
 16390              	.LLST238:
 16391 0c46 26000000 		.4byte	.LVL781
 16392 0c4a 36000000 		.4byte	.LVL784
 16393 0c4e 0200     		.2byte	0x2
 16394 0c50 30       		.byte	0x30
 16395 0c51 9F       		.byte	0x9f
 16396 0c52 4A000000 		.4byte	.LVL785
 16397 0c56 1A020000 		.4byte	.LVL840
 16398 0c5a 0200     		.2byte	0x2
 16399 0c5c 30       		.byte	0x30
 16400 0c5d 9F       		.byte	0x9f
 16401 0c5e 1E020000 		.4byte	.LVL841
 16402 0c62 48020000 		.4byte	.LVL844
 16403 0c66 0200     		.2byte	0x2
 16404 0c68 30       		.byte	0x30
 16405 0c69 9F       		.byte	0x9f
 16406 0c6a 48020000 		.4byte	.LVL844
 16407 0c6e FE020000 		.4byte	.LVL873
 16408 0c72 0300     		.2byte	0x3
 16409 0c74 09       		.byte	0x9
 16410 0c75 FF       		.byte	0xff
 16411 0c76 9F       		.byte	0x9f
 16412 0c77 FE020000 		.4byte	.LVL873
 16413 0c7b 36030000 		.4byte	.LVL875
 16414 0c7f 0100     		.2byte	0x1
 16415 0c81 54       		.byte	0x54
 16416 0c82 36030000 		.4byte	.LVL875
ARM GAS  C:\Users\mathi\AppData\Local\Temp\ccVwcWGw.s 			page 289


 16417 0c86 C0030000 		.4byte	.LVL894
 16418 0c8a 0300     		.2byte	0x3
 16419 0c8c 74       		.byte	0x74
 16420 0c8d 7F       		.sleb128 -1
 16421 0c8e 9F       		.byte	0x9f
 16422 0c8f E4030000 		.4byte	.LVL895
 16423 0c93 F8030000 		.4byte	.LVL896
 16424 0c97 0300     		.2byte	0x3
 16425 0c99 74       		.byte	0x74
 16426 0c9a 7F       		.sleb128 -1
 16427 0c9b 9F       		.byte	0x9f
 16428 0c9c F8030000 		.4byte	.LVL896
 16429 0ca0 0E040000 		.4byte	.LVL900
 16430 0ca4 0300     		.2byte	0x3
 16431 0ca6 09       		.byte	0x9
 16432 0ca7 FF       		.byte	0xff
 16433 0ca8 9F       		.byte	0x9f
 16434 0ca9 0E040000 		.4byte	.LVL900
 16435 0cad 2E040000 		.4byte	.LVL906
 16436 0cb1 0300     		.2byte	0x3
 16437 0cb3 74       		.byte	0x74
 16438 0cb4 7F       		.sleb128 -1
 16439 0cb5 9F       		.byte	0x9f
 16440 0cb6 34040000 		.4byte	.LVL907
 16441 0cba 38040000 		.4byte	.LVL908
 16442 0cbe 0200     		.2byte	0x2
 16443 0cc0 30       		.byte	0x30
 16444 0cc1 9F       		.byte	0x9f
 16445 0cc2 38040000 		.4byte	.LVL908
 16446 0cc6 3C040000 		.4byte	.LVL909
 16447 0cca 0300     		.2byte	0x3
 16448 0ccc 09       		.byte	0x9
 16449 0ccd FF       		.byte	0xff
 16450 0cce 9F       		.byte	0x9f
 16451 0ccf 3C040000 		.4byte	.LVL909
 16452 0cd3 4A040000 		.4byte	.LVL911
 16453 0cd7 0200     		.2byte	0x2
 16454 0cd9 30       		.byte	0x30
 16455 0cda 9F       		.byte	0x9f
 16456 0cdb 00000000 		.4byte	0
 16457 0cdf 00000000 		.4byte	0
 16458              	.LLST239:
 16459 0ce3 26000000 		.4byte	.LVL781
 16460 0ce7 2E000000 		.4byte	.LVL782
 16461 0ceb 0400     		.2byte	0x4
 16462 0ced 0A       		.byte	0xa
 16463 0cee 000A     		.2byte	0xa00
 16464 0cf0 9F       		.byte	0x9f
 16465 0cf1 2E000000 		.4byte	.LVL782
 16466 0cf5 4E040000 		.4byte	.LFE16
 16467 0cf9 0100     		.2byte	0x1
 16468 0cfb 59       		.byte	0x59
 16469 0cfc 00000000 		.4byte	0
 16470 0d00 00000000 		.4byte	0
 16471              	.LLST240:
 16472 0d04 26000000 		.4byte	.LVL781
 16473 0d08 36000000 		.4byte	.LVL784
ARM GAS  C:\Users\mathi\AppData\Local\Temp\ccVwcWGw.s 			page 290


 16474 0d0c 0200     		.2byte	0x2
 16475 0d0e 30       		.byte	0x30
 16476 0d0f 9F       		.byte	0x9f
 16477 0d10 4A000000 		.4byte	.LVL785
 16478 0d14 76010000 		.4byte	.LVL822
 16479 0d18 0200     		.2byte	0x2
 16480 0d1a 30       		.byte	0x30
 16481 0d1b 9F       		.byte	0x9f
 16482 0d1c 76010000 		.4byte	.LVL822
 16483 0d20 1A020000 		.4byte	.LVL840
 16484 0d24 0200     		.2byte	0x2
 16485 0d26 31       		.byte	0x31
 16486 0d27 9F       		.byte	0x9f
 16487 0d28 1E020000 		.4byte	.LVL841
 16488 0d2c 26020000 		.4byte	.LVL842
 16489 0d30 0200     		.2byte	0x2
 16490 0d32 30       		.byte	0x30
 16491 0d33 9F       		.byte	0x9f
 16492 0d34 3C040000 		.4byte	.LVL909
 16493 0d38 40040000 		.4byte	.LVL910
 16494 0d3c 0200     		.2byte	0x2
 16495 0d3e 30       		.byte	0x30
 16496 0d3f 9F       		.byte	0x9f
 16497 0d40 40040000 		.4byte	.LVL910
 16498 0d44 4A040000 		.4byte	.LVL911
 16499 0d48 0200     		.2byte	0x2
 16500 0d4a 31       		.byte	0x31
 16501 0d4b 9F       		.byte	0x9f
 16502 0d4c 00000000 		.4byte	0
 16503 0d50 00000000 		.4byte	0
 16504              	.LLST241:
 16505 0d54 26000000 		.4byte	.LVL781
 16506 0d58 2E000000 		.4byte	.LVL782
 16507 0d5c 0200     		.2byte	0x2
 16508 0d5e 30       		.byte	0x30
 16509 0d5f 9F       		.byte	0x9f
 16510 0d60 2E000000 		.4byte	.LVL782
 16511 0d64 40010000 		.4byte	.LVL816
 16512 0d68 0200     		.2byte	0x2
 16513 0d6a 36       		.byte	0x36
 16514 0d6b 9F       		.byte	0x9f
 16515 0d6c 40010000 		.4byte	.LVL816
 16516 0d70 54010000 		.4byte	.LVL817
 16517 0d74 0200     		.2byte	0x2
 16518 0d76 35       		.byte	0x35
 16519 0d77 9F       		.byte	0x9f
 16520 0d78 54010000 		.4byte	.LVL817
 16521 0d7c 4E040000 		.4byte	.LFE16
 16522 0d80 0200     		.2byte	0x2
 16523 0d82 36       		.byte	0x36
 16524 0d83 9F       		.byte	0x9f
 16525 0d84 00000000 		.4byte	0
 16526 0d88 00000000 		.4byte	0
 16527              	.LLST242:
 16528 0d8c 26000000 		.4byte	.LVL781
 16529 0d90 36000000 		.4byte	.LVL784
 16530 0d94 0200     		.2byte	0x2
ARM GAS  C:\Users\mathi\AppData\Local\Temp\ccVwcWGw.s 			page 291


 16531 0d96 30       		.byte	0x30
 16532 0d97 9F       		.byte	0x9f
 16533 0d98 4A000000 		.4byte	.LVL785
 16534 0d9c 1A020000 		.4byte	.LVL840
 16535 0da0 0200     		.2byte	0x2
 16536 0da2 30       		.byte	0x30
 16537 0da3 9F       		.byte	0x9f
 16538 0da4 1E020000 		.4byte	.LVL841
 16539 0da8 58020000 		.4byte	.LVL846
 16540 0dac 0200     		.2byte	0x2
 16541 0dae 30       		.byte	0x30
 16542 0daf 9F       		.byte	0x9f
 16543 0db0 B6030000 		.4byte	.LVL893
 16544 0db4 C0030000 		.4byte	.LVL894
 16545 0db8 0100     		.2byte	0x1
 16546 0dba 53       		.byte	0x53
 16547 0dbb E4030000 		.4byte	.LVL895
 16548 0dbf 04040000 		.4byte	.LVL898
 16549 0dc3 0100     		.2byte	0x1
 16550 0dc5 53       		.byte	0x53
 16551 0dc6 0E040000 		.4byte	.LVL900
 16552 0dca 10040000 		.4byte	.LVL901
 16553 0dce 0100     		.2byte	0x1
 16554 0dd0 53       		.byte	0x53
 16555 0dd1 10040000 		.4byte	.LVL901
 16556 0dd5 19040000 		.4byte	.LVL903-1
 16557 0dd9 2C00     		.2byte	0x2c
 16558 0ddb 79       		.byte	0x79
 16559 0ddc 00       		.sleb128 0
 16560 0ddd 91       		.byte	0x91
 16561 0dde AA7F     		.sleb128 -86
 16562 0de0 94       		.byte	0x94
 16563 0de1 02       		.byte	0x2
 16564 0de2 0A       		.byte	0xa
 16565 0de3 FFFF     		.2byte	0xffff
 16566 0de5 1A       		.byte	0x1a
 16567 0de6 1C       		.byte	0x1c
 16568 0de7 91       		.byte	0x91
 16569 0de8 AA7F     		.sleb128 -86
 16570 0dea 94       		.byte	0x94
 16571 0deb 02       		.byte	0x2
 16572 0dec 0A       		.byte	0xa
 16573 0ded FFFF     		.2byte	0xffff
 16574 0def 1A       		.byte	0x1a
 16575 0df0 79       		.byte	0x79
 16576 0df1 00       		.sleb128 0
 16577 0df2 1C       		.byte	0x1c
 16578 0df3 91       		.byte	0x91
 16579 0df4 AA7F     		.sleb128 -86
 16580 0df6 94       		.byte	0x94
 16581 0df7 02       		.byte	0x2
 16582 0df8 0A       		.byte	0xa
 16583 0df9 FFFF     		.2byte	0xffff
 16584 0dfb 1A       		.byte	0x1a
 16585 0dfc 79       		.byte	0x79
 16586 0dfd 00       		.sleb128 0
 16587 0dfe 1C       		.byte	0x1c
ARM GAS  C:\Users\mathi\AppData\Local\Temp\ccVwcWGw.s 			page 292


 16588 0dff 30       		.byte	0x30
 16589 0e00 2D       		.byte	0x2d
 16590 0e01 28       		.byte	0x28
 16591 0e02 0100     		.2byte	0x1
 16592 0e04 16       		.byte	0x16
 16593 0e05 13       		.byte	0x13
 16594 0e06 9F       		.byte	0x9f
 16595 0e07 34040000 		.4byte	.LVL907
 16596 0e0b 38040000 		.4byte	.LVL908
 16597 0e0f 0200     		.2byte	0x2
 16598 0e11 30       		.byte	0x30
 16599 0e12 9F       		.byte	0x9f
 16600 0e13 3C040000 		.4byte	.LVL909
 16601 0e17 4A040000 		.4byte	.LVL911
 16602 0e1b 0200     		.2byte	0x2
 16603 0e1d 30       		.byte	0x30
 16604 0e1e 9F       		.byte	0x9f
 16605 0e1f 00000000 		.4byte	0
 16606 0e23 00000000 		.4byte	0
 16607              	.LLST243:
 16608 0e27 26000000 		.4byte	.LVL781
 16609 0e2b 36000000 		.4byte	.LVL784
 16610 0e2f 0200     		.2byte	0x2
 16611 0e31 30       		.byte	0x30
 16612 0e32 9F       		.byte	0x9f
 16613 0e33 4A000000 		.4byte	.LVL785
 16614 0e37 1A020000 		.4byte	.LVL840
 16615 0e3b 0200     		.2byte	0x2
 16616 0e3d 30       		.byte	0x30
 16617 0e3e 9F       		.byte	0x9f
 16618 0e3f 1E020000 		.4byte	.LVL841
 16619 0e43 48020000 		.4byte	.LVL844
 16620 0e47 0200     		.2byte	0x2
 16621 0e49 30       		.byte	0x30
 16622 0e4a 9F       		.byte	0x9f
 16623 0e4b E4030000 		.4byte	.LVL895
 16624 0e4f 04040000 		.4byte	.LVL898
 16625 0e53 0100     		.2byte	0x1
 16626 0e55 53       		.byte	0x53
 16627 0e56 34040000 		.4byte	.LVL907
 16628 0e5a 38040000 		.4byte	.LVL908
 16629 0e5e 0200     		.2byte	0x2
 16630 0e60 30       		.byte	0x30
 16631 0e61 9F       		.byte	0x9f
 16632 0e62 3C040000 		.4byte	.LVL909
 16633 0e66 4A040000 		.4byte	.LVL911
 16634 0e6a 0200     		.2byte	0x2
 16635 0e6c 30       		.byte	0x30
 16636 0e6d 9F       		.byte	0x9f
 16637 0e6e 00000000 		.4byte	0
 16638 0e72 00000000 		.4byte	0
 16639              	.LLST244:
 16640 0e76 26000000 		.4byte	.LVL781
 16641 0e7a 36000000 		.4byte	.LVL784
 16642 0e7e 0200     		.2byte	0x2
 16643 0e80 30       		.byte	0x30
 16644 0e81 9F       		.byte	0x9f
ARM GAS  C:\Users\mathi\AppData\Local\Temp\ccVwcWGw.s 			page 293


 16645 0e82 4A000000 		.4byte	.LVL785
 16646 0e86 C0030000 		.4byte	.LVL894
 16647 0e8a 0200     		.2byte	0x2
 16648 0e8c 30       		.byte	0x30
 16649 0e8d 9F       		.byte	0x9f
 16650 0e8e E4030000 		.4byte	.LVL895
 16651 0e92 28040000 		.4byte	.LVL905
 16652 0e96 0200     		.2byte	0x2
 16653 0e98 30       		.byte	0x30
 16654 0e99 9F       		.byte	0x9f
 16655 0e9a 28040000 		.4byte	.LVL905
 16656 0e9e 2E040000 		.4byte	.LVL906
 16657 0ea2 0200     		.2byte	0x2
 16658 0ea4 31       		.byte	0x31
 16659 0ea5 9F       		.byte	0x9f
 16660 0ea6 34040000 		.4byte	.LVL907
 16661 0eaa 4A040000 		.4byte	.LVL911
 16662 0eae 0200     		.2byte	0x2
 16663 0eb0 30       		.byte	0x30
 16664 0eb1 9F       		.byte	0x9f
 16665 0eb2 00000000 		.4byte	0
 16666 0eb6 00000000 		.4byte	0
 16667              	.LLST245:
 16668 0eba 2E000000 		.4byte	.LVL782
 16669 0ebe 36000000 		.4byte	.LVL784
 16670 0ec2 0200     		.2byte	0x2
 16671 0ec4 30       		.byte	0x30
 16672 0ec5 9F       		.byte	0x9f
 16673 0ec6 4A000000 		.4byte	.LVL785
 16674 0eca 1A020000 		.4byte	.LVL840
 16675 0ece 0200     		.2byte	0x2
 16676 0ed0 30       		.byte	0x30
 16677 0ed1 9F       		.byte	0x9f
 16678 0ed2 1E020000 		.4byte	.LVL841
 16679 0ed6 2C020000 		.4byte	.LVL843
 16680 0eda 0200     		.2byte	0x2
 16681 0edc 30       		.byte	0x30
 16682 0edd 9F       		.byte	0x9f
 16683 0ede 2C020000 		.4byte	.LVL843
 16684 0ee2 58020000 		.4byte	.LVL846
 16685 0ee6 0200     		.2byte	0x2
 16686 0ee8 33       		.byte	0x33
 16687 0ee9 9F       		.byte	0x9f
 16688 0eea 3A030000 		.4byte	.LVL876
 16689 0eee C0030000 		.4byte	.LVL894
 16690 0ef2 0100     		.2byte	0x1
 16691 0ef4 5B       		.byte	0x5b
 16692 0ef5 E4030000 		.4byte	.LVL895
 16693 0ef9 04040000 		.4byte	.LVL898
 16694 0efd 0100     		.2byte	0x1
 16695 0eff 5B       		.byte	0x5b
 16696 0f00 0E040000 		.4byte	.LVL900
 16697 0f04 28040000 		.4byte	.LVL905
 16698 0f08 0100     		.2byte	0x1
 16699 0f0a 5B       		.byte	0x5b
 16700 0f0b 28040000 		.4byte	.LVL905
 16701 0f0f 2E040000 		.4byte	.LVL906
ARM GAS  C:\Users\mathi\AppData\Local\Temp\ccVwcWGw.s 			page 294


 16702 0f13 0300     		.2byte	0x3
 16703 0f15 91       		.byte	0x91
 16704 0f16 907F     		.sleb128 -112
 16705 0f18 34040000 		.4byte	.LVL907
 16706 0f1c 38040000 		.4byte	.LVL908
 16707 0f20 0200     		.2byte	0x2
 16708 0f22 30       		.byte	0x30
 16709 0f23 9F       		.byte	0x9f
 16710 0f24 3C040000 		.4byte	.LVL909
 16711 0f28 4A040000 		.4byte	.LVL911
 16712 0f2c 0200     		.2byte	0x2
 16713 0f2e 30       		.byte	0x30
 16714 0f2f 9F       		.byte	0x9f
 16715 0f30 00000000 		.4byte	0
 16716 0f34 00000000 		.4byte	0
 16717              	.LLST246:
 16718 0f38 2E000000 		.4byte	.LVL782
 16719 0f3c 36000000 		.4byte	.LVL784
 16720 0f40 0200     		.2byte	0x2
 16721 0f42 30       		.byte	0x30
 16722 0f43 9F       		.byte	0x9f
 16723 0f44 4A000000 		.4byte	.LVL785
 16724 0f48 1A020000 		.4byte	.LVL840
 16725 0f4c 0200     		.2byte	0x2
 16726 0f4e 30       		.byte	0x30
 16727 0f4f 9F       		.byte	0x9f
 16728 0f50 1E020000 		.4byte	.LVL841
 16729 0f54 2C020000 		.4byte	.LVL843
 16730 0f58 0200     		.2byte	0x2
 16731 0f5a 30       		.byte	0x30
 16732 0f5b 9F       		.byte	0x9f
 16733 0f5c 2C020000 		.4byte	.LVL843
 16734 0f60 C0030000 		.4byte	.LVL894
 16735 0f64 0100     		.2byte	0x1
 16736 0f66 58       		.byte	0x58
 16737 0f67 E4030000 		.4byte	.LVL895
 16738 0f6b 34040000 		.4byte	.LVL907
 16739 0f6f 0100     		.2byte	0x1
 16740 0f71 58       		.byte	0x58
 16741 0f72 34040000 		.4byte	.LVL907
 16742 0f76 38040000 		.4byte	.LVL908
 16743 0f7a 0200     		.2byte	0x2
 16744 0f7c 30       		.byte	0x30
 16745 0f7d 9F       		.byte	0x9f
 16746 0f7e 38040000 		.4byte	.LVL908
 16747 0f82 3C040000 		.4byte	.LVL909
 16748 0f86 0100     		.2byte	0x1
 16749 0f88 58       		.byte	0x58
 16750 0f89 3C040000 		.4byte	.LVL909
 16751 0f8d 4A040000 		.4byte	.LVL911
 16752 0f91 0200     		.2byte	0x2
 16753 0f93 30       		.byte	0x30
 16754 0f94 9F       		.byte	0x9f
 16755 0f95 00000000 		.4byte	0
 16756 0f99 00000000 		.4byte	0
 16757              	.LLST247:
 16758 0f9d DA000000 		.4byte	.LVL801
ARM GAS  C:\Users\mathi\AppData\Local\Temp\ccVwcWGw.s 			page 295


 16759 0fa1 0A010000 		.4byte	.LVL808
 16760 0fa5 0400     		.2byte	0x4
 16761 0fa7 91       		.byte	0x91
 16762 0fa8 AA7F     		.sleb128 -86
 16763 0faa 9F       		.byte	0x9f
 16764 0fab 0A010000 		.4byte	.LVL808
 16765 0faf 11010000 		.4byte	.LVL810-1
 16766 0fb3 0100     		.2byte	0x1
 16767 0fb5 52       		.byte	0x52
 16768 0fb6 11010000 		.4byte	.LVL810-1
 16769 0fba 3C010000 		.4byte	.LVL815
 16770 0fbe 0400     		.2byte	0x4
 16771 0fc0 91       		.byte	0x91
 16772 0fc1 AA7F     		.sleb128 -86
 16773 0fc3 9F       		.byte	0x9f
 16774 0fc4 00000000 		.4byte	0
 16775 0fc8 00000000 		.4byte	0
 16776              	.LLST248:
 16777 0fcc DA000000 		.4byte	.LVL801
 16778 0fd0 3C010000 		.4byte	.LVL815
 16779 0fd4 0100     		.2byte	0x1
 16780 0fd6 55       		.byte	0x55
 16781 0fd7 00000000 		.4byte	0
 16782 0fdb 00000000 		.4byte	0
 16783              	.LLST249:
 16784 0fdf 54010000 		.4byte	.LVL817
 16785 0fe3 5A010000 		.4byte	.LVL818
 16786 0fe7 0400     		.2byte	0x4
 16787 0fe9 74       		.byte	0x74
 16788 0fea B401     		.sleb128 180
 16789 0fec 9F       		.byte	0x9f
 16790 0fed 6E010000 		.4byte	.LVL821
 16791 0ff1 76010000 		.4byte	.LVL822
 16792 0ff5 0400     		.2byte	0x4
 16793 0ff7 74       		.byte	0x74
 16794 0ff8 B501     		.sleb128 181
 16795 0ffa 9F       		.byte	0x9f
 16796 0ffb 00000000 		.4byte	0
 16797 0fff 00000000 		.4byte	0
 16798              	.LLST250:
 16799 1003 54010000 		.4byte	.LVL817
 16800 1007 5A010000 		.4byte	.LVL818
 16801 100b 0600     		.2byte	0x6
 16802 100d 74       		.byte	0x74
 16803 100e B401     		.sleb128 180
 16804 1010 36       		.byte	0x36
 16805 1011 25       		.byte	0x25
 16806 1012 9F       		.byte	0x9f
 16807 1013 6E010000 		.4byte	.LVL821
 16808 1017 76010000 		.4byte	.LVL822
 16809 101b 0600     		.2byte	0x6
 16810 101d 74       		.byte	0x74
 16811 101e B501     		.sleb128 181
 16812 1020 36       		.byte	0x36
 16813 1021 25       		.byte	0x25
 16814 1022 9F       		.byte	0x9f
 16815 1023 00000000 		.4byte	0
ARM GAS  C:\Users\mathi\AppData\Local\Temp\ccVwcWGw.s 			page 296


 16816 1027 00000000 		.4byte	0
 16817              	.LLST251:
 16818 102b 54010000 		.4byte	.LVL817
 16819 102f 5A010000 		.4byte	.LVL818
 16820 1033 0200     		.2byte	0x2
 16821 1035 31       		.byte	0x31
 16822 1036 9F       		.byte	0x9f
 16823 1037 6E010000 		.4byte	.LVL821
 16824 103b 76010000 		.4byte	.LVL822
 16825 103f 0200     		.2byte	0x2
 16826 1041 31       		.byte	0x31
 16827 1042 9F       		.byte	0x9f
 16828 1043 00000000 		.4byte	0
 16829 1047 00000000 		.4byte	0
 16830              	.LLST252:
 16831 104b 9C010000 		.4byte	.LVL825
 16832 104f D2010000 		.4byte	.LVL832
 16833 1053 0400     		.2byte	0x4
 16834 1055 91       		.byte	0x91
 16835 1056 AA7F     		.sleb128 -86
 16836 1058 9F       		.byte	0x9f
 16837 1059 D2010000 		.4byte	.LVL832
 16838 105d D9010000 		.4byte	.LVL834-1
 16839 1061 0100     		.2byte	0x1
 16840 1063 52       		.byte	0x52
 16841 1064 D9010000 		.4byte	.LVL834-1
 16842 1068 0C020000 		.4byte	.LVL839
 16843 106c 0400     		.2byte	0x4
 16844 106e 91       		.byte	0x91
 16845 106f AA7F     		.sleb128 -86
 16846 1071 9F       		.byte	0x9f
 16847 1072 00000000 		.4byte	0
 16848 1076 00000000 		.4byte	0
 16849              	.LLST253:
 16850 107a 9C010000 		.4byte	.LVL825
 16851 107e 0C020000 		.4byte	.LVL839
 16852 1082 0100     		.2byte	0x1
 16853 1084 55       		.byte	0x55
 16854 1085 00000000 		.4byte	0
 16855 1089 00000000 		.4byte	0
 16856              	.LLST254:
 16857 108d 48020000 		.4byte	.LVL844
 16858 1091 FE020000 		.4byte	.LVL873
 16859 1095 0600     		.2byte	0x6
 16860 1097 F2       		.byte	0xf2
 16861 1098 3E1E0000 		.4byte	.Ldebug_info0+7742
 16862 109c 00       		.sleb128 0
 16863 109d F8030000 		.4byte	.LVL896
 16864 10a1 0E040000 		.4byte	.LVL900
 16865 10a5 0600     		.2byte	0x6
 16866 10a7 F2       		.byte	0xf2
 16867 10a8 3E1E0000 		.4byte	.Ldebug_info0+7742
 16868 10ac 00       		.sleb128 0
 16869 10ad 38040000 		.4byte	.LVL908
 16870 10b1 3C040000 		.4byte	.LVL909
 16871 10b5 0600     		.2byte	0x6
 16872 10b7 F2       		.byte	0xf2
ARM GAS  C:\Users\mathi\AppData\Local\Temp\ccVwcWGw.s 			page 297


 16873 10b8 3E1E0000 		.4byte	.Ldebug_info0+7742
 16874 10bc 00       		.sleb128 0
 16875 10bd 00000000 		.4byte	0
 16876 10c1 00000000 		.4byte	0
 16877              	.LLST255:
 16878 10c5 48020000 		.4byte	.LVL844
 16879 10c9 4E020000 		.4byte	.LVL845
 16880 10cd 0100     		.2byte	0x1
 16881 10cf 54       		.byte	0x54
 16882 10d0 F8030000 		.4byte	.LVL896
 16883 10d4 FC030000 		.4byte	.LVL897
 16884 10d8 0100     		.2byte	0x1
 16885 10da 54       		.byte	0x54
 16886 10db 00000000 		.4byte	0
 16887 10df 00000000 		.4byte	0
 16888              	.LLST256:
 16889 10e3 48020000 		.4byte	.LVL844
 16890 10e7 FE020000 		.4byte	.LVL873
 16891 10eb 0200     		.2byte	0x2
 16892 10ed 36       		.byte	0x36
 16893 10ee 9F       		.byte	0x9f
 16894 10ef F8030000 		.4byte	.LVL896
 16895 10f3 0E040000 		.4byte	.LVL900
 16896 10f7 0200     		.2byte	0x2
 16897 10f9 36       		.byte	0x36
 16898 10fa 9F       		.byte	0x9f
 16899 10fb 38040000 		.4byte	.LVL908
 16900 10ff 3C040000 		.4byte	.LVL909
 16901 1103 0200     		.2byte	0x2
 16902 1105 36       		.byte	0x36
 16903 1106 9F       		.byte	0x9f
 16904 1107 00000000 		.4byte	0
 16905 110b 00000000 		.4byte	0
 16906              	.LLST257:
 16907 110f 48020000 		.4byte	.LVL844
 16908 1113 FE020000 		.4byte	.LVL873
 16909 1117 0300     		.2byte	0x3
 16910 1119 91       		.byte	0x91
 16911 111a 987F     		.sleb128 -104
 16912 111c 04040000 		.4byte	.LVL898
 16913 1120 08040000 		.4byte	.LVL899
 16914 1124 0300     		.2byte	0x3
 16915 1126 91       		.byte	0x91
 16916 1127 987F     		.sleb128 -104
 16917 1129 38040000 		.4byte	.LVL908
 16918 112d 3C040000 		.4byte	.LVL909
 16919 1131 0300     		.2byte	0x3
 16920 1133 91       		.byte	0x91
 16921 1134 987F     		.sleb128 -104
 16922 1136 00000000 		.4byte	0
 16923 113a 00000000 		.4byte	0
 16924              	.LLST258:
 16925 113e 40030000 		.4byte	.LVL877
 16926 1142 76030000 		.4byte	.LVL885
 16927 1146 0400     		.2byte	0x4
 16928 1148 91       		.byte	0x91
 16929 1149 AA7F     		.sleb128 -86
ARM GAS  C:\Users\mathi\AppData\Local\Temp\ccVwcWGw.s 			page 298


 16930 114b 9F       		.byte	0x9f
 16931 114c 76030000 		.4byte	.LVL885
 16932 1150 7D030000 		.4byte	.LVL887-1
 16933 1154 0100     		.2byte	0x1
 16934 1156 52       		.byte	0x52
 16935 1157 7D030000 		.4byte	.LVL887-1
 16936 115b AC030000 		.4byte	.LVL892
 16937 115f 0400     		.2byte	0x4
 16938 1161 91       		.byte	0x91
 16939 1162 AA7F     		.sleb128 -86
 16940 1164 9F       		.byte	0x9f
 16941 1165 00000000 		.4byte	0
 16942 1169 00000000 		.4byte	0
 16943              	.LLST259:
 16944 116d 40030000 		.4byte	.LVL877
 16945 1171 AC030000 		.4byte	.LVL892
 16946 1175 0100     		.2byte	0x1
 16947 1177 55       		.byte	0x55
 16948 1178 00000000 		.4byte	0
 16949 117c 00000000 		.4byte	0
 16950              	.LLST260:
 16951 1180 0E040000 		.4byte	.LVL900
 16952 1184 12040000 		.4byte	.LVL902
 16953 1188 0300     		.2byte	0x3
 16954 118a 91       		.byte	0x91
 16955 118b 4C       		.sleb128 -52
 16956 118c 9F       		.byte	0x9f
 16957 118d 12040000 		.4byte	.LVL902
 16958 1191 19040000 		.4byte	.LVL903-1
 16959 1195 0100     		.2byte	0x1
 16960 1197 52       		.byte	0x52
 16961 1198 19040000 		.4byte	.LVL903-1
 16962 119c 20040000 		.4byte	.LVL904
 16963 11a0 0300     		.2byte	0x3
 16964 11a2 91       		.byte	0x91
 16965 11a3 4C       		.sleb128 -52
 16966 11a4 9F       		.byte	0x9f
 16967 11a5 00000000 		.4byte	0
 16968 11a9 00000000 		.4byte	0
 16969              	.LLST261:
 16970 11ad 0E040000 		.4byte	.LVL900
 16971 11b1 20040000 		.4byte	.LVL904
 16972 11b5 0100     		.2byte	0x1
 16973 11b7 55       		.byte	0x55
 16974 11b8 00000000 		.4byte	0
 16975 11bc 00000000 		.4byte	0
 16976              	.LLST66:
 16977 11c0 00000000 		.4byte	.LVL153
 16978 11c4 11000000 		.4byte	.LVL155-1
 16979 11c8 0100     		.2byte	0x1
 16980 11ca 50       		.byte	0x50
 16981 11cb 11000000 		.4byte	.LVL155-1
 16982 11cf 4C000000 		.4byte	.LFE7
 16983 11d3 0100     		.2byte	0x1
 16984 11d5 55       		.byte	0x55
 16985 11d6 00000000 		.4byte	0
 16986 11da 00000000 		.4byte	0
ARM GAS  C:\Users\mathi\AppData\Local\Temp\ccVwcWGw.s 			page 299


 16987              	.LLST67:
 16988 11de 0A000000 		.4byte	.LVL154
 16989 11e2 12000000 		.4byte	.LVL155
 16990 11e6 0200     		.2byte	0x2
 16991 11e8 30       		.byte	0x30
 16992 11e9 9F       		.byte	0x9f
 16993 11ea 12000000 		.4byte	.LVL155
 16994 11ee 24000000 		.4byte	.LVL157
 16995 11f2 0100     		.2byte	0x1
 16996 11f4 50       		.byte	0x50
 16997 11f5 28000000 		.4byte	.LVL158
 16998 11f9 38000000 		.4byte	.LVL160
 16999 11fd 0100     		.2byte	0x1
 17000 11ff 50       		.byte	0x50
 17001 1200 3C000000 		.4byte	.LVL161
 17002 1204 47000000 		.4byte	.LVL163-1
 17003 1208 0100     		.2byte	0x1
 17004 120a 50       		.byte	0x50
 17005 120b 00000000 		.4byte	0
 17006 120f 00000000 		.4byte	0
 17007              	.LLST68:
 17008 1213 34000000 		.4byte	.LVL159
 17009 1217 44000000 		.4byte	.LVL162
 17010 121b 0100     		.2byte	0x1
 17011 121d 56       		.byte	0x56
 17012 121e 00000000 		.4byte	0
 17013 1222 00000000 		.4byte	0
 17014              	.LLST62:
 17015 1226 00000000 		.4byte	.LVL141
 17016 122a 15000000 		.4byte	.LVL144-1
 17017 122e 0100     		.2byte	0x1
 17018 1230 50       		.byte	0x50
 17019 1231 15000000 		.4byte	.LVL144-1
 17020 1235 54000000 		.4byte	.LFE6
 17021 1239 0400     		.2byte	0x4
 17022 123b F3       		.byte	0xf3
 17023 123c 01       		.uleb128 0x1
 17024 123d 50       		.byte	0x50
 17025 123e 9F       		.byte	0x9f
 17026 123f 00000000 		.4byte	0
 17027 1243 00000000 		.4byte	0
 17028              	.LLST63:
 17029 1247 00000000 		.4byte	.LVL141
 17030 124b 12000000 		.4byte	.LVL143
 17031 124f 0100     		.2byte	0x1
 17032 1251 51       		.byte	0x51
 17033 1252 12000000 		.4byte	.LVL143
 17034 1256 54000000 		.4byte	.LFE6
 17035 125a 0100     		.2byte	0x1
 17036 125c 55       		.byte	0x55
 17037 125d 00000000 		.4byte	0
 17038 1261 00000000 		.4byte	0
 17039              	.LLST64:
 17040 1265 0C000000 		.4byte	.LVL142
 17041 1269 16000000 		.4byte	.LVL144
 17042 126d 0200     		.2byte	0x2
 17043 126f 30       		.byte	0x30
ARM GAS  C:\Users\mathi\AppData\Local\Temp\ccVwcWGw.s 			page 300


 17044 1270 9F       		.byte	0x9f
 17045 1271 16000000 		.4byte	.LVL144
 17046 1275 4F000000 		.4byte	.LVL152-1
 17047 1279 0100     		.2byte	0x1
 17048 127b 50       		.byte	0x50
 17049 127c 00000000 		.4byte	0
 17050 1280 00000000 		.4byte	0
 17051              	.LLST65:
 17052 1284 20000000 		.4byte	.LVL145
 17053 1288 2C000000 		.4byte	.LVL146
 17054 128c 0100     		.2byte	0x1
 17055 128e 53       		.byte	0x53
 17056 128f 2C000000 		.4byte	.LVL146
 17057 1293 2E000000 		.4byte	.LVL147
 17058 1297 0F00     		.2byte	0xf
 17059 1299 91       		.byte	0x91
 17060 129a 6A       		.sleb128 -22
 17061 129b 94       		.byte	0x94
 17062 129c 02       		.byte	0x2
 17063 129d 0A       		.byte	0xa
 17064 129e FFFF     		.2byte	0xffff
 17065 12a0 1A       		.byte	0x1a
 17066 12a1 09       		.byte	0x9
 17067 12a2 F8       		.byte	0xf8
 17068 12a3 24       		.byte	0x24
 17069 12a4 09       		.byte	0x9
 17070 12a5 F8       		.byte	0xf8
 17071 12a6 25       		.byte	0x25
 17072 12a7 9F       		.byte	0x9f
 17073 12a8 3A000000 		.4byte	.LVL148
 17074 12ac 3E000000 		.4byte	.LVL149
 17075 12b0 0100     		.2byte	0x1
 17076 12b2 53       		.byte	0x53
 17077 12b3 3E000000 		.4byte	.LVL149
 17078 12b7 46000000 		.4byte	.LVL150
 17079 12bb 0400     		.2byte	0x4
 17080 12bd 73       		.byte	0x73
 17081 12be 8020     		.sleb128 4096
 17082 12c0 9F       		.byte	0x9f
 17083 12c1 46000000 		.4byte	.LVL150
 17084 12c5 4C000000 		.4byte	.LVL151
 17085 12c9 0F00     		.2byte	0xf
 17086 12cb 91       		.byte	0x91
 17087 12cc 6A       		.sleb128 -22
 17088 12cd 94       		.byte	0x94
 17089 12ce 02       		.byte	0x2
 17090 12cf 0A       		.byte	0xa
 17091 12d0 FFFF     		.2byte	0xffff
 17092 12d2 1A       		.byte	0x1a
 17093 12d3 09       		.byte	0x9
 17094 12d4 F8       		.byte	0xf8
 17095 12d5 24       		.byte	0x24
 17096 12d6 09       		.byte	0x9
 17097 12d7 F8       		.byte	0xf8
 17098 12d8 25       		.byte	0x25
 17099 12d9 9F       		.byte	0x9f
 17100 12da 00000000 		.4byte	0
ARM GAS  C:\Users\mathi\AppData\Local\Temp\ccVwcWGw.s 			page 301


 17101 12de 00000000 		.4byte	0
 17102              	.LLST60:
 17103 12e2 00000000 		.4byte	.LVL134
 17104 12e6 3F000000 		.4byte	.LVL137-1
 17105 12ea 0100     		.2byte	0x1
 17106 12ec 50       		.byte	0x50
 17107 12ed 3F000000 		.4byte	.LVL137-1
 17108 12f1 40000000 		.4byte	.LVL137
 17109 12f5 0400     		.2byte	0x4
 17110 12f7 F3       		.byte	0xf3
 17111 12f8 01       		.uleb128 0x1
 17112 12f9 50       		.byte	0x50
 17113 12fa 9F       		.byte	0x9f
 17114 12fb 40000000 		.4byte	.LVL137
 17115 12ff 4F000000 		.4byte	.LVL140-1
 17116 1303 0100     		.2byte	0x1
 17117 1305 50       		.byte	0x50
 17118 1306 4F000000 		.4byte	.LVL140-1
 17119 130a 5C000000 		.4byte	.LFE5
 17120 130e 0400     		.2byte	0x4
 17121 1310 F3       		.byte	0xf3
 17122 1311 01       		.uleb128 0x1
 17123 1312 50       		.byte	0x50
 17124 1313 9F       		.byte	0x9f
 17125 1314 00000000 		.4byte	0
 17126 1318 00000000 		.4byte	0
 17127              	.LLST61:
 17128 131c 00000000 		.4byte	.LVL134
 17129 1320 2E000000 		.4byte	.LVL136
 17130 1324 0100     		.2byte	0x1
 17131 1326 51       		.byte	0x51
 17132 1327 2E000000 		.4byte	.LVL136
 17133 132b 40000000 		.4byte	.LVL137
 17134 132f 0400     		.2byte	0x4
 17135 1331 F3       		.byte	0xf3
 17136 1332 01       		.uleb128 0x1
 17137 1333 51       		.byte	0x51
 17138 1334 9F       		.byte	0x9f
 17139 1335 40000000 		.4byte	.LVL137
 17140 1339 4C000000 		.4byte	.LVL139
 17141 133d 0100     		.2byte	0x1
 17142 133f 51       		.byte	0x51
 17143 1340 4C000000 		.4byte	.LVL139
 17144 1344 5C000000 		.4byte	.LFE5
 17145 1348 0400     		.2byte	0x4
 17146 134a F3       		.byte	0xf3
 17147 134b 01       		.uleb128 0x1
 17148 134c 51       		.byte	0x51
 17149 134d 9F       		.byte	0x9f
 17150 134e 00000000 		.4byte	0
 17151 1352 00000000 		.4byte	0
 17152              	.LLST50:
 17153 1356 00000000 		.4byte	.LVL106
 17154 135a 12000000 		.4byte	.LVL108
 17155 135e 0100     		.2byte	0x1
 17156 1360 50       		.byte	0x50
 17157 1361 12000000 		.4byte	.LVL108
ARM GAS  C:\Users\mathi\AppData\Local\Temp\ccVwcWGw.s 			page 302


 17158 1365 20000000 		.4byte	.LVL109
 17159 1369 0400     		.2byte	0x4
 17160 136b F3       		.byte	0xf3
 17161 136c 01       		.uleb128 0x1
 17162 136d 50       		.byte	0x50
 17163 136e 9F       		.byte	0x9f
 17164 136f 20000000 		.4byte	.LVL109
 17165 1373 2B000000 		.4byte	.LVL111-1
 17166 1377 0100     		.2byte	0x1
 17167 1379 50       		.byte	0x50
 17168 137a 2B000000 		.4byte	.LVL111-1
 17169 137e DE000000 		.4byte	.LVL132
 17170 1382 0100     		.2byte	0x1
 17171 1384 55       		.byte	0x55
 17172 1385 DE000000 		.4byte	.LVL132
 17173 1389 E8000000 		.4byte	.LFE4
 17174 138d 0400     		.2byte	0x4
 17175 138f F3       		.byte	0xf3
 17176 1390 01       		.uleb128 0x1
 17177 1391 50       		.byte	0x50
 17178 1392 9F       		.byte	0x9f
 17179 1393 00000000 		.4byte	0
 17180 1397 00000000 		.4byte	0
 17181              	.LLST51:
 17182 139b 00000000 		.4byte	.LVL106
 17183 139f 12000000 		.4byte	.LVL108
 17184 13a3 0100     		.2byte	0x1
 17185 13a5 51       		.byte	0x51
 17186 13a6 12000000 		.4byte	.LVL108
 17187 13aa 20000000 		.4byte	.LVL109
 17188 13ae 0400     		.2byte	0x4
 17189 13b0 F3       		.byte	0xf3
 17190 13b1 01       		.uleb128 0x1
 17191 13b2 51       		.byte	0x51
 17192 13b3 9F       		.byte	0x9f
 17193 13b4 20000000 		.4byte	.LVL109
 17194 13b8 24000000 		.4byte	.LVL110
 17195 13bc 0100     		.2byte	0x1
 17196 13be 51       		.byte	0x51
 17197 13bf 24000000 		.4byte	.LVL110
 17198 13c3 A4000000 		.4byte	.LVL126
 17199 13c7 0100     		.2byte	0x1
 17200 13c9 58       		.byte	0x58
 17201 13ca A4000000 		.4byte	.LVL126
 17202 13ce D8000000 		.4byte	.LVL131
 17203 13d2 0400     		.2byte	0x4
 17204 13d4 F3       		.byte	0xf3
 17205 13d5 01       		.uleb128 0x1
 17206 13d6 51       		.byte	0x51
 17207 13d7 9F       		.byte	0x9f
 17208 13d8 D8000000 		.4byte	.LVL131
 17209 13dc DE000000 		.4byte	.LVL132
 17210 13e0 0100     		.2byte	0x1
 17211 13e2 58       		.byte	0x58
 17212 13e3 DE000000 		.4byte	.LVL132
 17213 13e7 E8000000 		.4byte	.LFE4
 17214 13eb 0400     		.2byte	0x4
ARM GAS  C:\Users\mathi\AppData\Local\Temp\ccVwcWGw.s 			page 303


 17215 13ed F3       		.byte	0xf3
 17216 13ee 01       		.uleb128 0x1
 17217 13ef 51       		.byte	0x51
 17218 13f0 9F       		.byte	0x9f
 17219 13f1 00000000 		.4byte	0
 17220 13f5 00000000 		.4byte	0
 17221              	.LLST52:
 17222 13f9 00000000 		.4byte	.LVL106
 17223 13fd 12000000 		.4byte	.LVL108
 17224 1401 0100     		.2byte	0x1
 17225 1403 52       		.byte	0x52
 17226 1404 12000000 		.4byte	.LVL108
 17227 1408 20000000 		.4byte	.LVL109
 17228 140c 0400     		.2byte	0x4
 17229 140e F3       		.byte	0xf3
 17230 140f 01       		.uleb128 0x1
 17231 1410 52       		.byte	0x52
 17232 1411 9F       		.byte	0x9f
 17233 1412 20000000 		.4byte	.LVL109
 17234 1416 2B000000 		.4byte	.LVL111-1
 17235 141a 0100     		.2byte	0x1
 17236 141c 52       		.byte	0x52
 17237 141d 2B000000 		.4byte	.LVL111-1
 17238 1421 DE000000 		.4byte	.LVL132
 17239 1425 0100     		.2byte	0x1
 17240 1427 59       		.byte	0x59
 17241 1428 DE000000 		.4byte	.LVL132
 17242 142c E8000000 		.4byte	.LFE4
 17243 1430 0400     		.2byte	0x4
 17244 1432 F3       		.byte	0xf3
 17245 1433 01       		.uleb128 0x1
 17246 1434 52       		.byte	0x52
 17247 1435 9F       		.byte	0x9f
 17248 1436 00000000 		.4byte	0
 17249 143a 00000000 		.4byte	0
 17250              	.LLST53:
 17251 143e 0C000000 		.4byte	.LVL107
 17252 1442 12000000 		.4byte	.LVL108
 17253 1446 0200     		.2byte	0x2
 17254 1448 30       		.byte	0x30
 17255 1449 9F       		.byte	0x9f
 17256 144a 12000000 		.4byte	.LVL108
 17257 144e 20000000 		.4byte	.LVL109
 17258 1452 0100     		.2byte	0x1
 17259 1454 50       		.byte	0x50
 17260 1455 20000000 		.4byte	.LVL109
 17261 1459 2C000000 		.4byte	.LVL111
 17262 145d 0200     		.2byte	0x2
 17263 145f 30       		.byte	0x30
 17264 1460 9F       		.byte	0x9f
 17265 1461 2C000000 		.4byte	.LVL111
 17266 1465 38000000 		.4byte	.LVL112
 17267 1469 0100     		.2byte	0x1
 17268 146b 50       		.byte	0x50
 17269 146c 3C000000 		.4byte	.LVL113
 17270 1470 46000000 		.4byte	.LVL114
 17271 1474 0100     		.2byte	0x1
ARM GAS  C:\Users\mathi\AppData\Local\Temp\ccVwcWGw.s 			page 304


 17272 1476 50       		.byte	0x50
 17273 1477 4A000000 		.4byte	.LVL115
 17274 147b 54000000 		.4byte	.LVL116
 17275 147f 0100     		.2byte	0x1
 17276 1481 50       		.byte	0x50
 17277 1482 58000000 		.4byte	.LVL117
 17278 1486 76000000 		.4byte	.LVL120
 17279 148a 0100     		.2byte	0x1
 17280 148c 50       		.byte	0x50
 17281 148d 76000000 		.4byte	.LVL120
 17282 1491 82000000 		.4byte	.LVL122
 17283 1495 0200     		.2byte	0x2
 17284 1497 30       		.byte	0x30
 17285 1498 9F       		.byte	0x9f
 17286 1499 82000000 		.4byte	.LVL122
 17287 149d 8E000000 		.4byte	.LVL123
 17288 14a1 0100     		.2byte	0x1
 17289 14a3 50       		.byte	0x50
 17290 14a4 90000000 		.4byte	.LVL124
 17291 14a8 C0000000 		.4byte	.LVL128
 17292 14ac 0200     		.2byte	0x2
 17293 14ae 30       		.byte	0x30
 17294 14af 9F       		.byte	0x9f
 17295 14b0 C0000000 		.4byte	.LVL128
 17296 14b4 D0000000 		.4byte	.LVL129
 17297 14b8 0100     		.2byte	0x1
 17298 14ba 50       		.byte	0x50
 17299 14bb D6000000 		.4byte	.LVL130
 17300 14bf D8000000 		.4byte	.LVL131
 17301 14c3 0100     		.2byte	0x1
 17302 14c5 50       		.byte	0x50
 17303 14c6 D8000000 		.4byte	.LVL131
 17304 14ca DE000000 		.4byte	.LVL132
 17305 14ce 0200     		.2byte	0x2
 17306 14d0 30       		.byte	0x30
 17307 14d1 9F       		.byte	0x9f
 17308 14d2 DE000000 		.4byte	.LVL132
 17309 14d6 E1000000 		.4byte	.LVL133-1
 17310 14da 0100     		.2byte	0x1
 17311 14dc 50       		.byte	0x50
 17312 14dd 00000000 		.4byte	0
 17313 14e1 00000000 		.4byte	0
 17314              	.LLST54:
 17315 14e5 0C000000 		.4byte	.LVL107
 17316 14e9 12000000 		.4byte	.LVL108
 17317 14ed 0200     		.2byte	0x2
 17318 14ef 30       		.byte	0x30
 17319 14f0 9F       		.byte	0x9f
 17320 14f1 20000000 		.4byte	.LVL109
 17321 14f5 64000000 		.4byte	.LVL118
 17322 14f9 0200     		.2byte	0x2
 17323 14fb 30       		.byte	0x30
 17324 14fc 9F       		.byte	0x9f
 17325 14fd 64000000 		.4byte	.LVL118
 17326 1501 DE000000 		.4byte	.LVL132
 17327 1505 0100     		.2byte	0x1
 17328 1507 5A       		.byte	0x5a
ARM GAS  C:\Users\mathi\AppData\Local\Temp\ccVwcWGw.s 			page 305


 17329 1508 00000000 		.4byte	0
 17330 150c 00000000 		.4byte	0
 17331              	.LLST55:
 17332 1510 0C000000 		.4byte	.LVL107
 17333 1514 12000000 		.4byte	.LVL108
 17334 1518 0200     		.2byte	0x2
 17335 151a 30       		.byte	0x30
 17336 151b 9F       		.byte	0x9f
 17337 151c 20000000 		.4byte	.LVL109
 17338 1520 64000000 		.4byte	.LVL118
 17339 1524 0200     		.2byte	0x2
 17340 1526 30       		.byte	0x30
 17341 1527 9F       		.byte	0x9f
 17342 1528 64000000 		.4byte	.LVL118
 17343 152c 72000000 		.4byte	.LVL119
 17344 1530 0100     		.2byte	0x1
 17345 1532 56       		.byte	0x56
 17346 1533 72000000 		.4byte	.LVL119
 17347 1537 76000000 		.4byte	.LVL120
 17348 153b 0300     		.2byte	0x3
 17349 153d 76       		.byte	0x76
 17350 153e 7F       		.sleb128 -1
 17351 153f 9F       		.byte	0x9f
 17352 1540 76000000 		.4byte	.LVL120
 17353 1544 DE000000 		.4byte	.LVL132
 17354 1548 0100     		.2byte	0x1
 17355 154a 56       		.byte	0x56
 17356 154b 00000000 		.4byte	0
 17357 154f 00000000 		.4byte	0
 17358              	.LLST56:
 17359 1553 92000000 		.4byte	.LVL125
 17360 1557 D8000000 		.4byte	.LVL131
 17361 155b 1200     		.2byte	0x12
 17362 155d 7A       		.byte	0x7a
 17363 155e 00       		.sleb128 0
 17364 155f 0A       		.byte	0xa
 17365 1560 FFFF     		.2byte	0xffff
 17366 1562 1A       		.byte	0x1a
 17367 1563 40       		.byte	0x40
 17368 1564 24       		.byte	0x24
 17369 1565 F7       		.byte	0xf7
 17370 1566 25       		.uleb128 0x25
 17371 1567 76       		.byte	0x76
 17372 1568 00       		.sleb128 0
 17373 1569 F7       		.byte	0xf7
 17374 156a 25       		.uleb128 0x25
 17375 156b 1B       		.byte	0x1b
 17376 156c F7       		.byte	0xf7
 17377 156d 00       		.uleb128 0
 17378 156e 9F       		.byte	0x9f
 17379 156f 00000000 		.4byte	0
 17380 1573 00000000 		.4byte	0
 17381              	.LLST57:
 17382 1577 92000000 		.4byte	.LVL125
 17383 157b D8000000 		.4byte	.LVL131
 17384 157f 1800     		.2byte	0x18
 17385 1581 7A       		.byte	0x7a
ARM GAS  C:\Users\mathi\AppData\Local\Temp\ccVwcWGw.s 			page 306


 17386 1582 00       		.sleb128 0
 17387 1583 0A       		.byte	0xa
 17388 1584 FFFF     		.2byte	0xffff
 17389 1586 1A       		.byte	0x1a
 17390 1587 40       		.byte	0x40
 17391 1588 24       		.byte	0x24
 17392 1589 F7       		.byte	0xf7
 17393 158a 25       		.uleb128 0x25
 17394 158b 76       		.byte	0x76
 17395 158c 00       		.sleb128 0
 17396 158d F7       		.byte	0xf7
 17397 158e 25       		.uleb128 0x25
 17398 158f 1B       		.byte	0x1b
 17399 1590 F7       		.byte	0xf7
 17400 1591 00       		.uleb128 0
 17401 1592 23       		.byte	0x23
 17402 1593 808002   		.uleb128 0x8000
 17403 1596 40       		.byte	0x40
 17404 1597 25       		.byte	0x25
 17405 1598 9F       		.byte	0x9f
 17406 1599 00000000 		.4byte	0
 17407 159d 00000000 		.4byte	0
 17408              	.LLST58:
 17409 15a1 92000000 		.4byte	.LVL125
 17410 15a5 A4000000 		.4byte	.LVL126
 17411 15a9 0700     		.2byte	0x7
 17412 15ab 78       		.byte	0x78
 17413 15ac 808002   		.sleb128 32768
 17414 15af 40       		.byte	0x40
 17415 15b0 25       		.byte	0x25
 17416 15b1 9F       		.byte	0x9f
 17417 15b2 A4000000 		.4byte	.LVL126
 17418 15b6 A8000000 		.4byte	.LVL127
 17419 15ba 0500     		.2byte	0x5
 17420 15bc 78       		.byte	0x78
 17421 15bd 00       		.sleb128 0
 17422 15be 40       		.byte	0x40
 17423 15bf 25       		.byte	0x25
 17424 15c0 9F       		.byte	0x9f
 17425 15c1 A8000000 		.4byte	.LVL127
 17426 15c5 D8000000 		.4byte	.LVL131
 17427 15c9 0A00     		.2byte	0xa
 17428 15cb F3       		.byte	0xf3
 17429 15cc 01       		.uleb128 0x1
 17430 15cd 51       		.byte	0x51
 17431 15ce 23       		.byte	0x23
 17432 15cf 808002   		.uleb128 0x8000
 17433 15d2 40       		.byte	0x40
 17434 15d3 25       		.byte	0x25
 17435 15d4 9F       		.byte	0x9f
 17436 15d5 00000000 		.4byte	0
 17437 15d9 00000000 		.4byte	0
 17438              	.LLST59:
 17439 15dd 0C000000 		.4byte	.LVL107
 17440 15e1 12000000 		.4byte	.LVL108
 17441 15e5 0200     		.2byte	0x2
 17442 15e7 30       		.byte	0x30
ARM GAS  C:\Users\mathi\AppData\Local\Temp\ccVwcWGw.s 			page 307


 17443 15e8 9F       		.byte	0x9f
 17444 15e9 20000000 		.4byte	.LVL109
 17445 15ed 64000000 		.4byte	.LVL118
 17446 15f1 0200     		.2byte	0x2
 17447 15f3 30       		.byte	0x30
 17448 15f4 9F       		.byte	0x9f
 17449 15f5 00000000 		.4byte	0
 17450 15f9 00000000 		.4byte	0
 17451              	.LLST34:
 17452 15fd 00000000 		.4byte	.LVL69
 17453 1601 18000000 		.4byte	.LVL71
 17454 1605 0100     		.2byte	0x1
 17455 1607 50       		.byte	0x50
 17456 1608 18000000 		.4byte	.LVL71
 17457 160c 28000000 		.4byte	.LVL72
 17458 1610 0400     		.2byte	0x4
 17459 1612 F3       		.byte	0xf3
 17460 1613 01       		.uleb128 0x1
 17461 1614 50       		.byte	0x50
 17462 1615 9F       		.byte	0x9f
 17463 1616 28000000 		.4byte	.LVL72
 17464 161a 31000000 		.4byte	.LVL74-1
 17465 161e 0100     		.2byte	0x1
 17466 1620 50       		.byte	0x50
 17467 1621 31000000 		.4byte	.LVL74-1
 17468 1625 F0000000 		.4byte	.LVL104
 17469 1629 0100     		.2byte	0x1
 17470 162b 56       		.byte	0x56
 17471 162c F0000000 		.4byte	.LVL104
 17472 1630 F8000000 		.4byte	.LFE3
 17473 1634 0400     		.2byte	0x4
 17474 1636 F3       		.byte	0xf3
 17475 1637 01       		.uleb128 0x1
 17476 1638 50       		.byte	0x50
 17477 1639 9F       		.byte	0x9f
 17478 163a 00000000 		.4byte	0
 17479 163e 00000000 		.4byte	0
 17480              	.LLST35:
 17481 1642 00000000 		.4byte	.LVL69
 17482 1646 18000000 		.4byte	.LVL71
 17483 164a 0100     		.2byte	0x1
 17484 164c 51       		.byte	0x51
 17485 164d 18000000 		.4byte	.LVL71
 17486 1651 28000000 		.4byte	.LVL72
 17487 1655 0400     		.2byte	0x4
 17488 1657 F3       		.byte	0xf3
 17489 1658 01       		.uleb128 0x1
 17490 1659 51       		.byte	0x51
 17491 165a 9F       		.byte	0x9f
 17492 165b 28000000 		.4byte	.LVL72
 17493 165f 2C000000 		.4byte	.LVL73
 17494 1663 0100     		.2byte	0x1
 17495 1665 51       		.byte	0x51
 17496 1666 2C000000 		.4byte	.LVL73
 17497 166a F0000000 		.4byte	.LVL104
 17498 166e 0100     		.2byte	0x1
 17499 1670 5A       		.byte	0x5a
ARM GAS  C:\Users\mathi\AppData\Local\Temp\ccVwcWGw.s 			page 308


 17500 1671 F0000000 		.4byte	.LVL104
 17501 1675 F8000000 		.4byte	.LFE3
 17502 1679 0400     		.2byte	0x4
 17503 167b F3       		.byte	0xf3
 17504 167c 01       		.uleb128 0x1
 17505 167d 51       		.byte	0x51
 17506 167e 9F       		.byte	0x9f
 17507 167f 00000000 		.4byte	0
 17508 1683 00000000 		.4byte	0
 17509              	.LLST36:
 17510 1687 00000000 		.4byte	.LVL69
 17511 168b 18000000 		.4byte	.LVL71
 17512 168f 0100     		.2byte	0x1
 17513 1691 52       		.byte	0x52
 17514 1692 18000000 		.4byte	.LVL71
 17515 1696 28000000 		.4byte	.LVL72
 17516 169a 0300     		.2byte	0x3
 17517 169c 91       		.byte	0x91
 17518 169d B47F     		.sleb128 -76
 17519 169f 28000000 		.4byte	.LVL72
 17520 16a3 31000000 		.4byte	.LVL74-1
 17521 16a7 0100     		.2byte	0x1
 17522 16a9 52       		.byte	0x52
 17523 16aa 31000000 		.4byte	.LVL74-1
 17524 16ae F8000000 		.4byte	.LFE3
 17525 16b2 0300     		.2byte	0x3
 17526 16b4 91       		.byte	0x91
 17527 16b5 B47F     		.sleb128 -76
 17528 16b7 00000000 		.4byte	0
 17529 16bb 00000000 		.4byte	0
 17530              	.LLST37:
 17531 16bf 10000000 		.4byte	.LVL70
 17532 16c3 18000000 		.4byte	.LVL71
 17533 16c7 0200     		.2byte	0x2
 17534 16c9 30       		.byte	0x30
 17535 16ca 9F       		.byte	0x9f
 17536 16cb 18000000 		.4byte	.LVL71
 17537 16cf 28000000 		.4byte	.LVL72
 17538 16d3 0100     		.2byte	0x1
 17539 16d5 50       		.byte	0x50
 17540 16d6 28000000 		.4byte	.LVL72
 17541 16da 32000000 		.4byte	.LVL74
 17542 16de 0200     		.2byte	0x2
 17543 16e0 30       		.byte	0x30
 17544 16e1 9F       		.byte	0x9f
 17545 16e2 32000000 		.4byte	.LVL74
 17546 16e6 3C000000 		.4byte	.LVL75
 17547 16ea 0100     		.2byte	0x1
 17548 16ec 50       		.byte	0x50
 17549 16ed 40000000 		.4byte	.LVL76
 17550 16f1 5C000000 		.4byte	.LVL78
 17551 16f5 0100     		.2byte	0x1
 17552 16f7 50       		.byte	0x50
 17553 16f8 70000000 		.4byte	.LVL83
 17554 16fc 82000000 		.4byte	.LVL85
 17555 1700 0200     		.2byte	0x2
 17556 1702 30       		.byte	0x30
ARM GAS  C:\Users\mathi\AppData\Local\Temp\ccVwcWGw.s 			page 309


 17557 1703 9F       		.byte	0x9f
 17558 1704 82000000 		.4byte	.LVL85
 17559 1708 8E000000 		.4byte	.LVL86
 17560 170c 0100     		.2byte	0x1
 17561 170e 50       		.byte	0x50
 17562 170f 90000000 		.4byte	.LVL87
 17563 1713 DE000000 		.4byte	.LVL99
 17564 1717 0200     		.2byte	0x2
 17565 1719 30       		.byte	0x30
 17566 171a 9F       		.byte	0x9f
 17567 171b DE000000 		.4byte	.LVL99
 17568 171f E6000000 		.4byte	.LVL100
 17569 1723 0100     		.2byte	0x1
 17570 1725 50       		.byte	0x50
 17571 1726 EA000000 		.4byte	.LVL101
 17572 172a EC000000 		.4byte	.LVL102
 17573 172e 0100     		.2byte	0x1
 17574 1730 50       		.byte	0x50
 17575 1731 EC000000 		.4byte	.LVL102
 17576 1735 F0000000 		.4byte	.LVL104
 17577 1739 0200     		.2byte	0x2
 17578 173b 30       		.byte	0x30
 17579 173c 9F       		.byte	0x9f
 17580 173d F0000000 		.4byte	.LVL104
 17581 1741 F3000000 		.4byte	.LVL105-1
 17582 1745 0100     		.2byte	0x1
 17583 1747 50       		.byte	0x50
 17584 1748 00000000 		.4byte	0
 17585 174c 00000000 		.4byte	0
 17586              	.LLST38:
 17587 1750 10000000 		.4byte	.LVL70
 17588 1754 18000000 		.4byte	.LVL71
 17589 1758 0200     		.2byte	0x2
 17590 175a 30       		.byte	0x30
 17591 175b 9F       		.byte	0x9f
 17592 175c 28000000 		.4byte	.LVL72
 17593 1760 52000000 		.4byte	.LVL77
 17594 1764 0200     		.2byte	0x2
 17595 1766 30       		.byte	0x30
 17596 1767 9F       		.byte	0x9f
 17597 1768 52000000 		.4byte	.LVL77
 17598 176c 64000000 		.4byte	.LVL79
 17599 1770 0100     		.2byte	0x1
 17600 1772 57       		.byte	0x57
 17601 1773 6C000000 		.4byte	.LVL82
 17602 1777 B0000000 		.4byte	.LVL94
 17603 177b 0100     		.2byte	0x1
 17604 177d 57       		.byte	0x57
 17605 177e 00000000 		.4byte	0
 17606 1782 00000000 		.4byte	0
 17607              	.LLST39:
 17608 1786 10000000 		.4byte	.LVL70
 17609 178a 18000000 		.4byte	.LVL71
 17610 178e 0200     		.2byte	0x2
 17611 1790 30       		.byte	0x30
 17612 1791 9F       		.byte	0x9f
 17613 1792 28000000 		.4byte	.LVL72
ARM GAS  C:\Users\mathi\AppData\Local\Temp\ccVwcWGw.s 			page 310


 17614 1796 52000000 		.4byte	.LVL77
 17615 179a 0200     		.2byte	0x2
 17616 179c 30       		.byte	0x30
 17617 179d 9F       		.byte	0x9f
 17618 179e 52000000 		.4byte	.LVL77
 17619 17a2 68000000 		.4byte	.LVL80
 17620 17a6 0100     		.2byte	0x1
 17621 17a8 54       		.byte	0x54
 17622 17a9 70000000 		.4byte	.LVL83
 17623 17ad 9A000000 		.4byte	.LVL89
 17624 17b1 0100     		.2byte	0x1
 17625 17b3 54       		.byte	0x54
 17626 17b4 00000000 		.4byte	0
 17627 17b8 00000000 		.4byte	0
 17628              	.LLST40:
 17629 17bc 10000000 		.4byte	.LVL70
 17630 17c0 18000000 		.4byte	.LVL71
 17631 17c4 0200     		.2byte	0x2
 17632 17c6 30       		.byte	0x30
 17633 17c7 9F       		.byte	0x9f
 17634 17c8 28000000 		.4byte	.LVL72
 17635 17cc 52000000 		.4byte	.LVL77
 17636 17d0 0200     		.2byte	0x2
 17637 17d2 30       		.byte	0x30
 17638 17d3 9F       		.byte	0x9f
 17639 17d4 52000000 		.4byte	.LVL77
 17640 17d8 F0000000 		.4byte	.LVL104
 17641 17dc 0100     		.2byte	0x1
 17642 17de 58       		.byte	0x58
 17643 17df 00000000 		.4byte	0
 17644 17e3 00000000 		.4byte	0
 17645              	.LLST41:
 17646 17e7 10000000 		.4byte	.LVL70
 17647 17eb 18000000 		.4byte	.LVL71
 17648 17ef 0200     		.2byte	0x2
 17649 17f1 30       		.byte	0x30
 17650 17f2 9F       		.byte	0x9f
 17651 17f3 28000000 		.4byte	.LVL72
 17652 17f7 52000000 		.4byte	.LVL77
 17653 17fb 0200     		.2byte	0x2
 17654 17fd 30       		.byte	0x30
 17655 17fe 9F       		.byte	0x9f
 17656 17ff 52000000 		.4byte	.LVL77
 17657 1803 6A000000 		.4byte	.LVL81
 17658 1807 0100     		.2byte	0x1
 17659 1809 55       		.byte	0x55
 17660 180a 6A000000 		.4byte	.LVL81
 17661 180e 70000000 		.4byte	.LVL83
 17662 1812 0300     		.2byte	0x3
 17663 1814 75       		.byte	0x75
 17664 1815 7F       		.sleb128 -1
 17665 1816 9F       		.byte	0x9f
 17666 1817 70000000 		.4byte	.LVL83
 17667 181b F0000000 		.4byte	.LVL104
 17668 181f 0100     		.2byte	0x1
 17669 1821 55       		.byte	0x55
 17670 1822 00000000 		.4byte	0
ARM GAS  C:\Users\mathi\AppData\Local\Temp\ccVwcWGw.s 			page 311


 17671 1826 00000000 		.4byte	0
 17672              	.LLST42:
 17673 182a 10000000 		.4byte	.LVL70
 17674 182e 18000000 		.4byte	.LVL71
 17675 1832 0200     		.2byte	0x2
 17676 1834 30       		.byte	0x30
 17677 1835 9F       		.byte	0x9f
 17678 1836 28000000 		.4byte	.LVL72
 17679 183a 52000000 		.4byte	.LVL77
 17680 183e 0200     		.2byte	0x2
 17681 1840 30       		.byte	0x30
 17682 1841 9F       		.byte	0x9f
 17683 1842 00000000 		.4byte	0
 17684 1846 00000000 		.4byte	0
 17685              	.LLST43:
 17686 184a 98000000 		.4byte	.LVL88
 17687 184e C0000000 		.4byte	.LVL95
 17688 1852 0C00     		.2byte	0xc
 17689 1854 78       		.byte	0x78
 17690 1855 00       		.sleb128 0
 17691 1856 F7       		.byte	0xf7
 17692 1857 25       		.uleb128 0x25
 17693 1858 75       		.byte	0x75
 17694 1859 00       		.sleb128 0
 17695 185a F7       		.byte	0xf7
 17696 185b 25       		.uleb128 0x25
 17697 185c 1B       		.byte	0x1b
 17698 185d F7       		.byte	0xf7
 17699 185e 00       		.uleb128 0
 17700 185f 9F       		.byte	0x9f
 17701 1860 C0000000 		.4byte	.LVL95
 17702 1864 C8000000 		.4byte	.LVL96
 17703 1868 0100     		.2byte	0x1
 17704 186a 53       		.byte	0x53
 17705 186b C8000000 		.4byte	.LVL96
 17706 186f F0000000 		.4byte	.LVL104
 17707 1873 0C00     		.2byte	0xc
 17708 1875 78       		.byte	0x78
 17709 1876 00       		.sleb128 0
 17710 1877 F7       		.byte	0xf7
 17711 1878 25       		.uleb128 0x25
 17712 1879 75       		.byte	0x75
 17713 187a 00       		.sleb128 0
 17714 187b F7       		.byte	0xf7
 17715 187c 25       		.uleb128 0x25
 17716 187d 1B       		.byte	0x1b
 17717 187e F7       		.byte	0xf7
 17718 187f 00       		.uleb128 0
 17719 1880 9F       		.byte	0x9f
 17720 1881 00000000 		.4byte	0
 17721 1885 00000000 		.4byte	0
 17722              	.LLST44:
 17723 1889 98000000 		.4byte	.LVL88
 17724 188d B0000000 		.4byte	.LVL94
 17725 1891 1200     		.2byte	0x12
 17726 1893 77       		.byte	0x77
 17727 1894 00       		.sleb128 0
ARM GAS  C:\Users\mathi\AppData\Local\Temp\ccVwcWGw.s 			page 312


 17728 1895 0A       		.byte	0xa
 17729 1896 FFFF     		.2byte	0xffff
 17730 1898 1A       		.byte	0x1a
 17731 1899 40       		.byte	0x40
 17732 189a 24       		.byte	0x24
 17733 189b F7       		.byte	0xf7
 17734 189c 25       		.uleb128 0x25
 17735 189d 75       		.byte	0x75
 17736 189e 00       		.sleb128 0
 17737 189f F7       		.byte	0xf7
 17738 18a0 25       		.uleb128 0x25
 17739 18a1 1B       		.byte	0x1b
 17740 18a2 F7       		.byte	0xf7
 17741 18a3 00       		.uleb128 0
 17742 18a4 9F       		.byte	0x9f
 17743 18a5 00000000 		.4byte	0
 17744 18a9 00000000 		.4byte	0
 17745              	.LLST45:
 17746 18ad 98000000 		.4byte	.LVL88
 17747 18b1 9A000000 		.4byte	.LVL89
 17748 18b5 1200     		.2byte	0x12
 17749 18b7 74       		.byte	0x74
 17750 18b8 00       		.sleb128 0
 17751 18b9 0A       		.byte	0xa
 17752 18ba FFFF     		.2byte	0xffff
 17753 18bc 1A       		.byte	0x1a
 17754 18bd 40       		.byte	0x40
 17755 18be 24       		.byte	0x24
 17756 18bf F7       		.byte	0xf7
 17757 18c0 25       		.uleb128 0x25
 17758 18c1 75       		.byte	0x75
 17759 18c2 00       		.sleb128 0
 17760 18c3 F7       		.byte	0xf7
 17761 18c4 25       		.uleb128 0x25
 17762 18c5 1B       		.byte	0x1b
 17763 18c6 F7       		.byte	0xf7
 17764 18c7 00       		.uleb128 0
 17765 18c8 9F       		.byte	0x9f
 17766 18c9 00000000 		.4byte	0
 17767 18cd 00000000 		.4byte	0
 17768              	.LLST46:
 17769 18d1 C8000000 		.4byte	.LVL96
 17770 18d5 CC000000 		.4byte	.LVL97
 17771 18d9 1700     		.2byte	0x17
 17772 18db 40       		.byte	0x40
 17773 18dc 3C       		.byte	0x3c
 17774 18dd 24       		.byte	0x24
 17775 18de 77       		.byte	0x77
 17776 18df 00       		.sleb128 0
 17777 18e0 F7       		.byte	0xf7
 17778 18e1 25       		.uleb128 0x25
 17779 18e2 7A       		.byte	0x7a
 17780 18e3 808002   		.sleb128 32768
 17781 18e6 40       		.byte	0x40
 17782 18e7 25       		.byte	0x25
 17783 18e8 F7       		.byte	0xf7
 17784 18e9 25       		.uleb128 0x25
ARM GAS  C:\Users\mathi\AppData\Local\Temp\ccVwcWGw.s 			page 313


 17785 18ea 1B       		.byte	0x1b
 17786 18eb F7       		.byte	0xf7
 17787 18ec 00       		.uleb128 0
 17788 18ed 1C       		.byte	0x1c
 17789 18ee 73       		.byte	0x73
 17790 18ef 00       		.sleb128 0
 17791 18f0 1E       		.byte	0x1e
 17792 18f1 9F       		.byte	0x9f
 17793 18f2 CC000000 		.4byte	.LVL97
 17794 18f6 D2000000 		.4byte	.LVL98
 17795 18fa 2900     		.2byte	0x29
 17796 18fc 40       		.byte	0x40
 17797 18fd 3C       		.byte	0x3c
 17798 18fe 24       		.byte	0x24
 17799 18ff 77       		.byte	0x77
 17800 1900 00       		.sleb128 0
 17801 1901 F7       		.byte	0xf7
 17802 1902 25       		.uleb128 0x25
 17803 1903 7A       		.byte	0x7a
 17804 1904 808002   		.sleb128 32768
 17805 1907 40       		.byte	0x40
 17806 1908 25       		.byte	0x25
 17807 1909 F7       		.byte	0xf7
 17808 190a 25       		.uleb128 0x25
 17809 190b 1B       		.byte	0x1b
 17810 190c F7       		.byte	0xf7
 17811 190d 00       		.uleb128 0
 17812 190e 1C       		.byte	0x1c
 17813 190f 78       		.byte	0x78
 17814 1910 00       		.sleb128 0
 17815 1911 F7       		.byte	0xf7
 17816 1912 25       		.uleb128 0x25
 17817 1913 75       		.byte	0x75
 17818 1914 00       		.sleb128 0
 17819 1915 F7       		.byte	0xf7
 17820 1916 25       		.uleb128 0x25
 17821 1917 1B       		.byte	0x1b
 17822 1918 F7       		.byte	0xf7
 17823 1919 00       		.uleb128 0
 17824 191a F7       		.byte	0xf7
 17825 191b 25       		.uleb128 0x25
 17826 191c 74       		.byte	0x74
 17827 191d 00       		.sleb128 0
 17828 191e F7       		.byte	0xf7
 17829 191f 25       		.uleb128 0x25
 17830 1920 1B       		.byte	0x1b
 17831 1921 F7       		.byte	0xf7
 17832 1922 00       		.uleb128 0
 17833 1923 1E       		.byte	0x1e
 17834 1924 9F       		.byte	0x9f
 17835 1925 00000000 		.4byte	0
 17836 1929 00000000 		.4byte	0
 17837              	.LLST47:
 17838 192d A2000000 		.4byte	.LVL90
 17839 1931 A4000000 		.4byte	.LVL91
 17840 1935 0500     		.2byte	0x5
 17841 1937 74       		.byte	0x74
ARM GAS  C:\Users\mathi\AppData\Local\Temp\ccVwcWGw.s 			page 314


 17842 1938 00       		.sleb128 0
 17843 1939 40       		.byte	0x40
 17844 193a 25       		.byte	0x25
 17845 193b 9F       		.byte	0x9f
 17846 193c A4000000 		.4byte	.LVL91
 17847 1940 D2000000 		.4byte	.LVL98
 17848 1944 0100     		.2byte	0x1
 17849 1946 54       		.byte	0x54
 17850 1947 EC000000 		.4byte	.LVL102
 17851 194b EE000000 		.4byte	.LVL103
 17852 194f 0100     		.2byte	0x1
 17853 1951 54       		.byte	0x54
 17854 1952 00000000 		.4byte	0
 17855 1956 00000000 		.4byte	0
 17856              	.LLST48:
 17857 195a A2000000 		.4byte	.LVL90
 17858 195e AA000000 		.4byte	.LVL92
 17859 1962 0700     		.2byte	0x7
 17860 1964 7A       		.byte	0x7a
 17861 1965 808002   		.sleb128 32768
 17862 1968 40       		.byte	0x40
 17863 1969 25       		.byte	0x25
 17864 196a 9F       		.byte	0x9f
 17865 196b AA000000 		.4byte	.LVL92
 17866 196f AC000000 		.4byte	.LVL93
 17867 1973 0500     		.2byte	0x5
 17868 1975 72       		.byte	0x72
 17869 1976 00       		.sleb128 0
 17870 1977 40       		.byte	0x40
 17871 1978 25       		.byte	0x25
 17872 1979 9F       		.byte	0x9f
 17873 197a AC000000 		.4byte	.LVL93
 17874 197e F0000000 		.4byte	.LVL104
 17875 1982 0700     		.2byte	0x7
 17876 1984 7A       		.byte	0x7a
 17877 1985 808002   		.sleb128 32768
 17878 1988 40       		.byte	0x40
 17879 1989 25       		.byte	0x25
 17880 198a 9F       		.byte	0x9f
 17881 198b 00000000 		.4byte	0
 17882 198f 00000000 		.4byte	0
 17883              	.LLST49:
 17884 1993 D2000000 		.4byte	.LVL98
 17885 1997 EC000000 		.4byte	.LVL102
 17886 199b 0100     		.2byte	0x1
 17887 199d 54       		.byte	0x54
 17888 199e 00000000 		.4byte	0
 17889 19a2 00000000 		.4byte	0
 17890              	.LLST0:
 17891 19a6 00000000 		.4byte	.LVL0
 17892 19aa 36000000 		.4byte	.LVL7
 17893 19ae 0100     		.2byte	0x1
 17894 19b0 50       		.byte	0x50
 17895 19b1 36000000 		.4byte	.LVL7
 17896 19b5 A0010000 		.4byte	.LFE27
 17897 19b9 0200     		.2byte	0x2
 17898 19bb 91       		.byte	0x91
ARM GAS  C:\Users\mathi\AppData\Local\Temp\ccVwcWGw.s 			page 315


 17899 19bc 44       		.sleb128 -60
 17900 19bd 00000000 		.4byte	0
 17901 19c1 00000000 		.4byte	0
 17902              	.LLST1:
 17903 19c5 00000000 		.4byte	.LVL0
 17904 19c9 1C000000 		.4byte	.LVL3
 17905 19cd 0100     		.2byte	0x1
 17906 19cf 51       		.byte	0x51
 17907 19d0 1C000000 		.4byte	.LVL3
 17908 19d4 A0010000 		.4byte	.LFE27
 17909 19d8 0400     		.2byte	0x4
 17910 19da F3       		.byte	0xf3
 17911 19db 01       		.uleb128 0x1
 17912 19dc 51       		.byte	0x51
 17913 19dd 9F       		.byte	0x9f
 17914 19de 00000000 		.4byte	0
 17915 19e2 00000000 		.4byte	0
 17916              	.LLST2:
 17917 19e6 00000000 		.4byte	.LVL0
 17918 19ea 36000000 		.4byte	.LVL7
 17919 19ee 0100     		.2byte	0x1
 17920 19f0 52       		.byte	0x52
 17921 19f1 36000000 		.4byte	.LVL7
 17922 19f5 14010000 		.4byte	.LVL49
 17923 19f9 0200     		.2byte	0x2
 17924 19fb 7D       		.byte	0x7d
 17925 19fc 00       		.sleb128 0
 17926 19fd 14010000 		.4byte	.LVL49
 17927 1a01 18010000 		.4byte	.LVL50
 17928 1a05 0300     		.2byte	0x3
 17929 1a07 91       		.byte	0x91
 17930 1a08 B87F     		.sleb128 -72
 17931 1a0a 18010000 		.4byte	.LVL50
 17932 1a0e A0010000 		.4byte	.LFE27
 17933 1a12 0200     		.2byte	0x2
 17934 1a14 7D       		.byte	0x7d
 17935 1a15 00       		.sleb128 0
 17936 1a16 00000000 		.4byte	0
 17937 1a1a 00000000 		.4byte	0
 17938              	.LLST3:
 17939 1a1e 00000000 		.4byte	.LVL0
 17940 1a22 14000000 		.4byte	.LVL2
 17941 1a26 0100     		.2byte	0x1
 17942 1a28 53       		.byte	0x53
 17943 1a29 14000000 		.4byte	.LVL2
 17944 1a2d A0010000 		.4byte	.LFE27
 17945 1a31 0100     		.2byte	0x1
 17946 1a33 58       		.byte	0x58
 17947 1a34 00000000 		.4byte	0
 17948 1a38 00000000 		.4byte	0
 17949              	.LLST4:
 17950 1a3c 00000000 		.4byte	.LVL0
 17951 1a40 18010000 		.4byte	.LVL50
 17952 1a44 0200     		.2byte	0x2
 17953 1a46 91       		.byte	0x91
 17954 1a47 00       		.sleb128 0
 17955 1a48 18010000 		.4byte	.LVL50
ARM GAS  C:\Users\mathi\AppData\Local\Temp\ccVwcWGw.s 			page 316


 17956 1a4c A0010000 		.4byte	.LFE27
 17957 1a50 0200     		.2byte	0x2
 17958 1a52 91       		.byte	0x91
 17959 1a53 00       		.sleb128 0
 17960 1a54 00000000 		.4byte	0
 17961 1a58 00000000 		.4byte	0
 17962              	.LLST5:
 17963 1a5c 00000000 		.4byte	.LVL0
 17964 1a60 18010000 		.4byte	.LVL50
 17965 1a64 0200     		.2byte	0x2
 17966 1a66 91       		.byte	0x91
 17967 1a67 04       		.sleb128 4
 17968 1a68 18010000 		.4byte	.LVL50
 17969 1a6c A0010000 		.4byte	.LFE27
 17970 1a70 0200     		.2byte	0x2
 17971 1a72 91       		.byte	0x91
 17972 1a73 04       		.sleb128 4
 17973 1a74 00000000 		.4byte	0
 17974 1a78 00000000 		.4byte	0
 17975              	.LLST6:
 17976 1a7c 00000000 		.4byte	.LVL0
 17977 1a80 18010000 		.4byte	.LVL50
 17978 1a84 0200     		.2byte	0x2
 17979 1a86 91       		.byte	0x91
 17980 1a87 08       		.sleb128 8
 17981 1a88 18010000 		.4byte	.LVL50
 17982 1a8c A0010000 		.4byte	.LFE27
 17983 1a90 0200     		.2byte	0x2
 17984 1a92 91       		.byte	0x91
 17985 1a93 08       		.sleb128 8
 17986 1a94 00000000 		.4byte	0
 17987 1a98 00000000 		.4byte	0
 17988              	.LLST7:
 17989 1a9c 10000000 		.4byte	.LVL1
 17990 1aa0 02010000 		.4byte	.LVL47
 17991 1aa4 0200     		.2byte	0x2
 17992 1aa6 30       		.byte	0x30
 17993 1aa7 9F       		.byte	0x9f
 17994 1aa8 02010000 		.4byte	.LVL47
 17995 1aac 08010000 		.4byte	.LVL48
 17996 1ab0 0300     		.2byte	0x3
 17997 1ab2 09       		.byte	0x9
 17998 1ab3 CE       		.byte	0xce
 17999 1ab4 9F       		.byte	0x9f
 18000 1ab5 08010000 		.4byte	.LVL48
 18001 1ab9 18010000 		.4byte	.LVL50
 18002 1abd 0100     		.2byte	0x1
 18003 1abf 50       		.byte	0x50
 18004 1ac0 18010000 		.4byte	.LVL50
 18005 1ac4 26010000 		.4byte	.LVL54
 18006 1ac8 0200     		.2byte	0x2
 18007 1aca 30       		.byte	0x30
 18008 1acb 9F       		.byte	0x9f
 18009 1acc 30010000 		.4byte	.LVL56
 18010 1ad0 3A010000 		.4byte	.LVL59
 18011 1ad4 0100     		.2byte	0x1
 18012 1ad6 50       		.byte	0x50
ARM GAS  C:\Users\mathi\AppData\Local\Temp\ccVwcWGw.s 			page 317


 18013 1ad7 94010000 		.4byte	.LVL67
 18014 1adb 97010000 		.4byte	.LVL68-1
 18015 1adf 0100     		.2byte	0x1
 18016 1ae1 50       		.byte	0x50
 18017 1ae2 00000000 		.4byte	0
 18018 1ae6 00000000 		.4byte	0
 18019              	.LLST8:
 18020 1aea 1C000000 		.4byte	.LVL3
 18021 1aee 36000000 		.4byte	.LVL7
 18022 1af2 0200     		.2byte	0x2
 18023 1af4 30       		.byte	0x30
 18024 1af5 9F       		.byte	0x9f
 18025 1af6 36000000 		.4byte	.LVL7
 18026 1afa E6000000 		.4byte	.LVL40
 18027 1afe 0100     		.2byte	0x1
 18028 1b00 59       		.byte	0x59
 18029 1b01 E6000000 		.4byte	.LVL40
 18030 1b05 F2000000 		.4byte	.LVL42
 18031 1b09 0300     		.2byte	0x3
 18032 1b0b 79       		.byte	0x79
 18033 1b0c 7F       		.sleb128 -1
 18034 1b0d 9F       		.byte	0x9f
 18035 1b0e F2000000 		.4byte	.LVL42
 18036 1b12 02010000 		.4byte	.LVL47
 18037 1b16 0100     		.2byte	0x1
 18038 1b18 59       		.byte	0x59
 18039 1b19 18010000 		.4byte	.LVL50
 18040 1b1d 24010000 		.4byte	.LVL53
 18041 1b21 0100     		.2byte	0x1
 18042 1b23 59       		.byte	0x59
 18043 1b24 00000000 		.4byte	0
 18044 1b28 00000000 		.4byte	0
 18045              	.LLST9:
 18046 1b2c 40010000 		.4byte	.LVL60
 18047 1b30 4C010000 		.4byte	.LVL61
 18048 1b34 0200     		.2byte	0x2
 18049 1b36 30       		.byte	0x30
 18050 1b37 9F       		.byte	0x9f
 18051 1b38 4C010000 		.4byte	.LVL61
 18052 1b3c 58010000 		.4byte	.LVL62
 18053 1b40 0200     		.2byte	0x2
 18054 1b42 31       		.byte	0x31
 18055 1b43 9F       		.byte	0x9f
 18056 1b44 58010000 		.4byte	.LVL62
 18057 1b48 64010000 		.4byte	.LVL63
 18058 1b4c 0200     		.2byte	0x2
 18059 1b4e 32       		.byte	0x32
 18060 1b4f 9F       		.byte	0x9f
 18061 1b50 64010000 		.4byte	.LVL63
 18062 1b54 70010000 		.4byte	.LVL64
 18063 1b58 0200     		.2byte	0x2
 18064 1b5a 33       		.byte	0x33
 18065 1b5b 9F       		.byte	0x9f
 18066 1b5c 70010000 		.4byte	.LVL64
 18067 1b60 7C010000 		.4byte	.LVL65
 18068 1b64 0200     		.2byte	0x2
 18069 1b66 34       		.byte	0x34
ARM GAS  C:\Users\mathi\AppData\Local\Temp\ccVwcWGw.s 			page 318


 18070 1b67 9F       		.byte	0x9f
 18071 1b68 7C010000 		.4byte	.LVL65
 18072 1b6c 8E010000 		.4byte	.LVL66
 18073 1b70 0200     		.2byte	0x2
 18074 1b72 35       		.byte	0x35
 18075 1b73 9F       		.byte	0x9f
 18076 1b74 00000000 		.4byte	0
 18077 1b78 00000000 		.4byte	0
 18078              	.LLST10:
 18079 1b7c 1C000000 		.4byte	.LVL3
 18080 1b80 24000000 		.4byte	.LVL4
 18081 1b84 0100     		.2byte	0x1
 18082 1b86 51       		.byte	0x51
 18083 1b87 24000000 		.4byte	.LVL4
 18084 1b8b C0000000 		.4byte	.LVL35
 18085 1b8f 0300     		.2byte	0x3
 18086 1b91 09       		.byte	0x9
 18087 1b92 FF       		.byte	0xff
 18088 1b93 9F       		.byte	0x9f
 18089 1b94 C0000000 		.4byte	.LVL35
 18090 1b98 F4000000 		.4byte	.LVL43
 18091 1b9c 0100     		.2byte	0x1
 18092 1b9e 52       		.byte	0x52
 18093 1b9f F4000000 		.4byte	.LVL43
 18094 1ba3 00010000 		.4byte	.LVL46
 18095 1ba7 0300     		.2byte	0x3
 18096 1ba9 09       		.byte	0x9
 18097 1baa FF       		.byte	0xff
 18098 1bab 9F       		.byte	0x9f
 18099 1bac 18010000 		.4byte	.LVL50
 18100 1bb0 20010000 		.4byte	.LVL52
 18101 1bb4 0300     		.2byte	0x3
 18102 1bb6 09       		.byte	0x9
 18103 1bb7 FF       		.byte	0xff
 18104 1bb8 9F       		.byte	0x9f
 18105 1bb9 20010000 		.4byte	.LVL52
 18106 1bbd 24010000 		.4byte	.LVL53
 18107 1bc1 0100     		.2byte	0x1
 18108 1bc3 52       		.byte	0x52
 18109 1bc4 00000000 		.4byte	0
 18110 1bc8 00000000 		.4byte	0
 18111              	.LLST11:
 18112 1bcc 1C000000 		.4byte	.LVL3
 18113 1bd0 36000000 		.4byte	.LVL7
 18114 1bd4 0100     		.2byte	0x1
 18115 1bd6 51       		.byte	0x51
 18116 1bd7 D4000000 		.4byte	.LVL36
 18117 1bdb F2000000 		.4byte	.LVL42
 18118 1bdf 0100     		.2byte	0x1
 18119 1be1 52       		.byte	0x52
 18120 1be2 F2000000 		.4byte	.LVL42
 18121 1be6 00010000 		.4byte	.LVL46
 18122 1bea 0100     		.2byte	0x1
 18123 1bec 51       		.byte	0x51
 18124 1bed 20010000 		.4byte	.LVL52
 18125 1bf1 2C010000 		.4byte	.LVL55
 18126 1bf5 0100     		.2byte	0x1
ARM GAS  C:\Users\mathi\AppData\Local\Temp\ccVwcWGw.s 			page 319


 18127 1bf7 51       		.byte	0x51
 18128 1bf8 00000000 		.4byte	0
 18129 1bfc 00000000 		.4byte	0
 18130              	.LLST12:
 18131 1c00 24000000 		.4byte	.LVL4
 18132 1c04 C0000000 		.4byte	.LVL35
 18133 1c08 0600     		.2byte	0x6
 18134 1c0a F2       		.byte	0xf2
 18135 1c0b A12D0000 		.4byte	.Ldebug_info0+11681
 18136 1c0f 00       		.sleb128 0
 18137 1c10 F4000000 		.4byte	.LVL43
 18138 1c14 00010000 		.4byte	.LVL46
 18139 1c18 0600     		.2byte	0x6
 18140 1c1a F2       		.byte	0xf2
 18141 1c1b A12D0000 		.4byte	.Ldebug_info0+11681
 18142 1c1f 00       		.sleb128 0
 18143 1c20 18010000 		.4byte	.LVL50
 18144 1c24 20010000 		.4byte	.LVL52
 18145 1c28 0600     		.2byte	0x6
 18146 1c2a F2       		.byte	0xf2
 18147 1c2b A12D0000 		.4byte	.Ldebug_info0+11681
 18148 1c2f 00       		.sleb128 0
 18149 1c30 00000000 		.4byte	0
 18150 1c34 00000000 		.4byte	0
 18151              	.LLST13:
 18152 1c38 24000000 		.4byte	.LVL4
 18153 1c3c 36000000 		.4byte	.LVL7
 18154 1c40 0100     		.2byte	0x1
 18155 1c42 51       		.byte	0x51
 18156 1c43 F4000000 		.4byte	.LVL43
 18157 1c47 00010000 		.4byte	.LVL46
 18158 1c4b 0100     		.2byte	0x1
 18159 1c4d 51       		.byte	0x51
 18160 1c4e 00000000 		.4byte	0
 18161 1c52 00000000 		.4byte	0
 18162              	.LLST14:
 18163 1c56 24000000 		.4byte	.LVL4
 18164 1c5a C0000000 		.4byte	.LVL35
 18165 1c5e 0200     		.2byte	0x2
 18166 1c60 36       		.byte	0x36
 18167 1c61 9F       		.byte	0x9f
 18168 1c62 F4000000 		.4byte	.LVL43
 18169 1c66 00010000 		.4byte	.LVL46
 18170 1c6a 0200     		.2byte	0x2
 18171 1c6c 36       		.byte	0x36
 18172 1c6d 9F       		.byte	0x9f
 18173 1c6e 18010000 		.4byte	.LVL50
 18174 1c72 20010000 		.4byte	.LVL52
 18175 1c76 0200     		.2byte	0x2
 18176 1c78 36       		.byte	0x36
 18177 1c79 9F       		.byte	0x9f
 18178 1c7a 00000000 		.4byte	0
 18179 1c7e 00000000 		.4byte	0
 18180              	.LLST15:
 18181 1c82 24000000 		.4byte	.LVL4
 18182 1c86 36000000 		.4byte	.LVL7
 18183 1c8a 0100     		.2byte	0x1
ARM GAS  C:\Users\mathi\AppData\Local\Temp\ccVwcWGw.s 			page 320


 18184 1c8c 52       		.byte	0x52
 18185 1c8d 36000000 		.4byte	.LVL7
 18186 1c91 C0000000 		.4byte	.LVL35
 18187 1c95 0200     		.2byte	0x2
 18188 1c97 7D       		.byte	0x7d
 18189 1c98 00       		.sleb128 0
 18190 1c99 18010000 		.4byte	.LVL50
 18191 1c9d 20010000 		.4byte	.LVL52
 18192 1ca1 0200     		.2byte	0x2
 18193 1ca3 7D       		.byte	0x7d
 18194 1ca4 00       		.sleb128 0
 18195 1ca5 00000000 		.4byte	0
 18196 1ca9 00000000 		.4byte	0
 18197              	.LLST16:
 18198 1cad 26000000 		.4byte	.LVL5
 18199 1cb1 C0000000 		.4byte	.LVL35
 18200 1cb5 0100     		.2byte	0x1
 18201 1cb7 57       		.byte	0x57
 18202 1cb8 F6000000 		.4byte	.LVL44
 18203 1cbc 00010000 		.4byte	.LVL46
 18204 1cc0 0100     		.2byte	0x1
 18205 1cc2 57       		.byte	0x57
 18206 1cc3 18010000 		.4byte	.LVL50
 18207 1cc7 20010000 		.4byte	.LVL52
 18208 1ccb 0100     		.2byte	0x1
 18209 1ccd 57       		.byte	0x57
 18210 1cce 00000000 		.4byte	0
 18211 1cd2 00000000 		.4byte	0
 18212              	.LLST17:
 18213 1cd6 2C000000 		.4byte	.LVL6
 18214 1cda C0000000 		.4byte	.LVL35
 18215 1cde 0100     		.2byte	0x1
 18216 1ce0 5A       		.byte	0x5a
 18217 1ce1 FC000000 		.4byte	.LVL45
 18218 1ce5 00010000 		.4byte	.LVL46
 18219 1ce9 0100     		.2byte	0x1
 18220 1ceb 5A       		.byte	0x5a
 18221 1cec 18010000 		.4byte	.LVL50
 18222 1cf0 20010000 		.4byte	.LVL52
 18223 1cf4 0100     		.2byte	0x1
 18224 1cf6 5A       		.byte	0x5a
 18225 1cf7 00000000 		.4byte	0
 18226 1cfb 00000000 		.4byte	0
 18227              	.LLST18:
 18228 1cff 24000000 		.4byte	.LVL4
 18229 1d03 08010000 		.4byte	.LVL48
 18230 1d07 0200     		.2byte	0x2
 18231 1d09 38       		.byte	0x38
 18232 1d0a 9F       		.byte	0x9f
 18233 1d0b 18010000 		.4byte	.LVL50
 18234 1d0f 24010000 		.4byte	.LVL53
 18235 1d13 0200     		.2byte	0x2
 18236 1d15 38       		.byte	0x38
 18237 1d16 9F       		.byte	0x9f
 18238 1d17 00000000 		.4byte	0
 18239 1d1b 00000000 		.4byte	0
 18240              	.LLST19:
ARM GAS  C:\Users\mathi\AppData\Local\Temp\ccVwcWGw.s 			page 321


 18241 1d1f 2C000000 		.4byte	.LVL6
 18242 1d23 4C000000 		.4byte	.LVL10
 18243 1d27 0100     		.2byte	0x1
 18244 1d29 57       		.byte	0x57
 18245 1d2a 94000000 		.4byte	.LVL25
 18246 1d2e 98000000 		.4byte	.LVL26
 18247 1d32 0300     		.2byte	0x3
 18248 1d34 74       		.byte	0x74
 18249 1d35 01       		.sleb128 1
 18250 1d36 9F       		.byte	0x9f
 18251 1d37 98000000 		.4byte	.LVL26
 18252 1d3b 9A000000 		.4byte	.LVL27
 18253 1d3f 0300     		.2byte	0x3
 18254 1d41 74       		.byte	0x74
 18255 1d42 02       		.sleb128 2
 18256 1d43 9F       		.byte	0x9f
 18257 1d44 9A000000 		.4byte	.LVL27
 18258 1d48 A2000000 		.4byte	.LVL29
 18259 1d4c 0300     		.2byte	0x3
 18260 1d4e 74       		.byte	0x74
 18261 1d4f 01       		.sleb128 1
 18262 1d50 9F       		.byte	0x9f
 18263 1d51 FC000000 		.4byte	.LVL45
 18264 1d55 00010000 		.4byte	.LVL46
 18265 1d59 0100     		.2byte	0x1
 18266 1d5b 57       		.byte	0x57
 18267 1d5c 00000000 		.4byte	0
 18268 1d60 00000000 		.4byte	0
 18269              	.LLST20:
 18270 1d64 3E000000 		.4byte	.LVL8
 18271 1d68 54000000 		.4byte	.LVL11
 18272 1d6c 0200     		.2byte	0x2
 18273 1d6e 30       		.byte	0x30
 18274 1d6f 9F       		.byte	0x9f
 18275 1d70 54000000 		.4byte	.LVL11
 18276 1d74 56000000 		.4byte	.LVL12
 18277 1d78 0200     		.2byte	0x2
 18278 1d7a 31       		.byte	0x31
 18279 1d7b 9F       		.byte	0x9f
 18280 1d7c 5C000000 		.4byte	.LVL15
 18281 1d80 8E000000 		.4byte	.LVL24
 18282 1d84 0100     		.2byte	0x1
 18283 1d86 52       		.byte	0x52
 18284 1d87 8E000000 		.4byte	.LVL24
 18285 1d8b 94000000 		.4byte	.LVL25
 18286 1d8f 0300     		.2byte	0x3
 18287 1d91 70       		.byte	0x70
 18288 1d92 07       		.sleb128 7
 18289 1d93 9F       		.byte	0x9f
 18290 1d94 94000000 		.4byte	.LVL25
 18291 1d98 9A000000 		.4byte	.LVL27
 18292 1d9c 0200     		.2byte	0x2
 18293 1d9e 38       		.byte	0x38
 18294 1d9f 9F       		.byte	0x9f
 18295 1da0 9A000000 		.4byte	.LVL27
 18296 1da4 A8000000 		.4byte	.LVL31
 18297 1da8 0200     		.2byte	0x2
ARM GAS  C:\Users\mathi\AppData\Local\Temp\ccVwcWGw.s 			page 322


 18298 1daa 30       		.byte	0x30
 18299 1dab 9F       		.byte	0x9f
 18300 1dac A8000000 		.4byte	.LVL31
 18301 1db0 AC000000 		.4byte	.LVL32
 18302 1db4 0100     		.2byte	0x1
 18303 1db6 5A       		.byte	0x5a
 18304 1db7 BA000000 		.4byte	.LVL33
 18305 1dbb BC000000 		.4byte	.LVL34
 18306 1dbf 0100     		.2byte	0x1
 18307 1dc1 5A       		.byte	0x5a
 18308 1dc2 18010000 		.4byte	.LVL50
 18309 1dc6 1C010000 		.4byte	.LVL51
 18310 1dca 0200     		.2byte	0x2
 18311 1dcc 30       		.byte	0x30
 18312 1dcd 9F       		.byte	0x9f
 18313 1dce 1C010000 		.4byte	.LVL51
 18314 1dd2 20010000 		.4byte	.LVL52
 18315 1dd6 0300     		.2byte	0x3
 18316 1dd8 70       		.byte	0x70
 18317 1dd9 07       		.sleb128 7
 18318 1dda 9F       		.byte	0x9f
 18319 1ddb 00000000 		.4byte	0
 18320 1ddf 00000000 		.4byte	0
 18321              	.LLST21:
 18322 1de3 4A000000 		.4byte	.LVL9
 18323 1de7 54000000 		.4byte	.LVL11
 18324 1deb 0100     		.2byte	0x1
 18325 1ded 53       		.byte	0x53
 18326 1dee 54000000 		.4byte	.LVL11
 18327 1df2 58000000 		.4byte	.LVL13
 18328 1df6 0100     		.2byte	0x1
 18329 1df8 56       		.byte	0x56
 18330 1df9 5A000000 		.4byte	.LVL14
 18331 1dfd 64000000 		.4byte	.LVL16
 18332 1e01 0500     		.2byte	0x5
 18333 1e03 73       		.byte	0x73
 18334 1e04 00       		.sleb128 0
 18335 1e05 32       		.byte	0x32
 18336 1e06 25       		.byte	0x25
 18337 1e07 9F       		.byte	0x9f
 18338 1e08 64000000 		.4byte	.LVL16
 18339 1e0c 6E000000 		.4byte	.LVL18
 18340 1e10 0500     		.2byte	0x5
 18341 1e12 73       		.byte	0x73
 18342 1e13 00       		.sleb128 0
 18343 1e14 33       		.byte	0x33
 18344 1e15 25       		.byte	0x25
 18345 1e16 9F       		.byte	0x9f
 18346 1e17 6E000000 		.4byte	.LVL18
 18347 1e1b 78000000 		.4byte	.LVL20
 18348 1e1f 0500     		.2byte	0x5
 18349 1e21 73       		.byte	0x73
 18350 1e22 00       		.sleb128 0
 18351 1e23 34       		.byte	0x34
 18352 1e24 25       		.byte	0x25
 18353 1e25 9F       		.byte	0x9f
 18354 1e26 78000000 		.4byte	.LVL20
ARM GAS  C:\Users\mathi\AppData\Local\Temp\ccVwcWGw.s 			page 323


 18355 1e2a 82000000 		.4byte	.LVL22
 18356 1e2e 0500     		.2byte	0x5
 18357 1e30 73       		.byte	0x73
 18358 1e31 00       		.sleb128 0
 18359 1e32 35       		.byte	0x35
 18360 1e33 25       		.byte	0x25
 18361 1e34 9F       		.byte	0x9f
 18362 1e35 82000000 		.4byte	.LVL22
 18363 1e39 8E000000 		.4byte	.LVL24
 18364 1e3d 0500     		.2byte	0x5
 18365 1e3f 73       		.byte	0x73
 18366 1e40 00       		.sleb128 0
 18367 1e41 36       		.byte	0x36
 18368 1e42 25       		.byte	0x25
 18369 1e43 9F       		.byte	0x9f
 18370 1e44 8E000000 		.4byte	.LVL24
 18371 1e48 94000000 		.4byte	.LVL25
 18372 1e4c 0100     		.2byte	0x1
 18373 1e4e 53       		.byte	0x53
 18374 1e4f 94000000 		.4byte	.LVL25
 18375 1e53 A0000000 		.4byte	.LVL28
 18376 1e57 0200     		.2byte	0x2
 18377 1e59 30       		.byte	0x30
 18378 1e5a 9F       		.byte	0x9f
 18379 1e5b A0000000 		.4byte	.LVL28
 18380 1e5f A6000000 		.4byte	.LVL30
 18381 1e63 0100     		.2byte	0x1
 18382 1e65 53       		.byte	0x53
 18383 1e66 A8000000 		.4byte	.LVL31
 18384 1e6a AC000000 		.4byte	.LVL32
 18385 1e6e 0100     		.2byte	0x1
 18386 1e70 53       		.byte	0x53
 18387 1e71 AC000000 		.4byte	.LVL32
 18388 1e75 BA000000 		.4byte	.LVL33
 18389 1e79 0500     		.2byte	0x5
 18390 1e7b 73       		.byte	0x73
 18391 1e7c 00       		.sleb128 0
 18392 1e7d 31       		.byte	0x31
 18393 1e7e 25       		.byte	0x25
 18394 1e7f 9F       		.byte	0x9f
 18395 1e80 BA000000 		.4byte	.LVL33
 18396 1e84 BC000000 		.4byte	.LVL34
 18397 1e88 0100     		.2byte	0x1
 18398 1e8a 53       		.byte	0x53
 18399 1e8b 18010000 		.4byte	.LVL50
 18400 1e8f 20010000 		.4byte	.LVL52
 18401 1e93 0100     		.2byte	0x1
 18402 1e95 53       		.byte	0x53
 18403 1e96 00000000 		.4byte	0
 18404 1e9a 00000000 		.4byte	0
 18405              	.LLST22:
 18406 1e9e 24000000 		.4byte	.LVL4
 18407 1ea2 BC000000 		.4byte	.LVL34
 18408 1ea6 0200     		.2byte	0x2
 18409 1ea8 30       		.byte	0x30
 18410 1ea9 9F       		.byte	0x9f
 18411 1eaa BC000000 		.4byte	.LVL34
ARM GAS  C:\Users\mathi\AppData\Local\Temp\ccVwcWGw.s 			page 324


 18412 1eae C0000000 		.4byte	.LVL35
 18413 1eb2 0200     		.2byte	0x2
 18414 1eb4 31       		.byte	0x31
 18415 1eb5 9F       		.byte	0x9f
 18416 1eb6 F4000000 		.4byte	.LVL43
 18417 1eba 00010000 		.4byte	.LVL46
 18418 1ebe 0200     		.2byte	0x2
 18419 1ec0 30       		.byte	0x30
 18420 1ec1 9F       		.byte	0x9f
 18421 1ec2 18010000 		.4byte	.LVL50
 18422 1ec6 20010000 		.4byte	.LVL52
 18423 1eca 0200     		.2byte	0x2
 18424 1ecc 30       		.byte	0x30
 18425 1ecd 9F       		.byte	0x9f
 18426 1ece 00000000 		.4byte	0
 18427 1ed2 00000000 		.4byte	0
 18428              	.LLST23:
 18429 1ed6 D4000000 		.4byte	.LVL36
 18430 1eda EE000000 		.4byte	.LVL41
 18431 1ede 0100     		.2byte	0x1
 18432 1ee0 52       		.byte	0x52
 18433 1ee1 00000000 		.4byte	0
 18434 1ee5 00000000 		.4byte	0
 18435              	.LLST24:
 18436 1ee9 D4000000 		.4byte	.LVL36
 18437 1eed EE000000 		.4byte	.LVL41
 18438 1ef1 0200     		.2byte	0x2
 18439 1ef3 36       		.byte	0x36
 18440 1ef4 9F       		.byte	0x9f
 18441 1ef5 00000000 		.4byte	0
 18442 1ef9 00000000 		.4byte	0
 18443              	.LLST25:
 18444 1efd D4000000 		.4byte	.LVL36
 18445 1f01 EE000000 		.4byte	.LVL41
 18446 1f05 0100     		.2byte	0x1
 18447 1f07 58       		.byte	0x58
 18448 1f08 00000000 		.4byte	0
 18449 1f0c 00000000 		.4byte	0
 18450              	.LLST26:
 18451 1f10 D4000000 		.4byte	.LVL36
 18452 1f14 EE000000 		.4byte	.LVL41
 18453 1f18 0200     		.2byte	0x2
 18454 1f1a 30       		.byte	0x30
 18455 1f1b 9F       		.byte	0x9f
 18456 1f1c 00000000 		.4byte	0
 18457 1f20 00000000 		.4byte	0
 18458              	.LLST27:
 18459 1f24 D4000000 		.4byte	.LVL36
 18460 1f28 00010000 		.4byte	.LVL46
 18461 1f2c 0200     		.2byte	0x2
 18462 1f2e 38       		.byte	0x38
 18463 1f2f 9F       		.byte	0x9f
 18464 1f30 20010000 		.4byte	.LVL52
 18465 1f34 24010000 		.4byte	.LVL53
 18466 1f38 0200     		.2byte	0x2
 18467 1f3a 38       		.byte	0x38
 18468 1f3b 9F       		.byte	0x9f
ARM GAS  C:\Users\mathi\AppData\Local\Temp\ccVwcWGw.s 			page 325


 18469 1f3c 00000000 		.4byte	0
 18470 1f40 00000000 		.4byte	0
 18471              	.LLST28:
 18472 1f44 D4000000 		.4byte	.LVL36
 18473 1f48 D6000000 		.4byte	.LVL37
 18474 1f4c 0500     		.2byte	0x5
 18475 1f4e 72       		.byte	0x72
 18476 1f4f 00       		.sleb128 0
 18477 1f50 33       		.byte	0x33
 18478 1f51 25       		.byte	0x25
 18479 1f52 9F       		.byte	0x9f
 18480 1f53 D6000000 		.4byte	.LVL37
 18481 1f57 EE000000 		.4byte	.LVL41
 18482 1f5b 0100     		.2byte	0x1
 18483 1f5d 51       		.byte	0x51
 18484 1f5e 00000000 		.4byte	0
 18485 1f62 00000000 		.4byte	0
 18486              	.LLST29:
 18487 1f66 D4000000 		.4byte	.LVL36
 18488 1f6a E0000000 		.4byte	.LVL38
 18489 1f6e 0500     		.2byte	0x5
 18490 1f70 72       		.byte	0x72
 18491 1f71 00       		.sleb128 0
 18492 1f72 37       		.byte	0x37
 18493 1f73 1A       		.byte	0x1a
 18494 1f74 9F       		.byte	0x9f
 18495 1f75 E0000000 		.4byte	.LVL38
 18496 1f79 E4000000 		.4byte	.LVL39
 18497 1f7d 0100     		.2byte	0x1
 18498 1f7f 53       		.byte	0x53
 18499 1f80 E4000000 		.4byte	.LVL39
 18500 1f84 EE000000 		.4byte	.LVL41
 18501 1f88 0500     		.2byte	0x5
 18502 1f8a 72       		.byte	0x72
 18503 1f8b 00       		.sleb128 0
 18504 1f8c 37       		.byte	0x37
 18505 1f8d 1A       		.byte	0x1a
 18506 1f8e 9F       		.byte	0x9f
 18507 1f8f 00000000 		.4byte	0
 18508 1f93 00000000 		.4byte	0
 18509              	.LLST30:
 18510 1f97 26010000 		.4byte	.LVL54
 18511 1f9b 30010000 		.4byte	.LVL56
 18512 1f9f 0100     		.2byte	0x1
 18513 1fa1 58       		.byte	0x58
 18514 1fa2 00000000 		.4byte	0
 18515 1fa6 00000000 		.4byte	0
 18516              	.LLST31:
 18517 1faa 26010000 		.4byte	.LVL54
 18518 1fae 30010000 		.4byte	.LVL56
 18519 1fb2 0200     		.2byte	0x2
 18520 1fb4 91       		.byte	0x91
 18521 1fb5 44       		.sleb128 -60
 18522 1fb6 00000000 		.4byte	0
 18523 1fba 00000000 		.4byte	0
 18524              	.LLST32:
 18525 1fbe 34010000 		.4byte	.LVL57
ARM GAS  C:\Users\mathi\AppData\Local\Temp\ccVwcWGw.s 			page 326


 18526 1fc2 38010000 		.4byte	.LVL58
 18527 1fc6 0300     		.2byte	0x3
 18528 1fc8 91       		.byte	0x91
 18529 1fc9 4C       		.sleb128 -52
 18530 1fca 9F       		.byte	0x9f
 18531 1fcb 38010000 		.4byte	.LVL58
 18532 1fcf 3F010000 		.4byte	.LVL60-1
 18533 1fd3 0100     		.2byte	0x1
 18534 1fd5 52       		.byte	0x52
 18535 1fd6 3F010000 		.4byte	.LVL60-1
 18536 1fda 40010000 		.4byte	.LVL60
 18537 1fde 0300     		.2byte	0x3
 18538 1fe0 91       		.byte	0x91
 18539 1fe1 4C       		.sleb128 -52
 18540 1fe2 9F       		.byte	0x9f
 18541 1fe3 00000000 		.4byte	0
 18542 1fe7 00000000 		.4byte	0
 18543              	.LLST33:
 18544 1feb 34010000 		.4byte	.LVL57
 18545 1fef 40010000 		.4byte	.LVL60
 18546 1ff3 0200     		.2byte	0x2
 18547 1ff5 91       		.byte	0x91
 18548 1ff6 44       		.sleb128 -60
 18549 1ff7 00000000 		.4byte	0
 18550 1ffb 00000000 		.4byte	0
 18551              	.LLST69:
 18552 1fff 00000000 		.4byte	.LVL164
 18553 2003 26000000 		.4byte	.LVL169
 18554 2007 0100     		.2byte	0x1
 18555 2009 50       		.byte	0x50
 18556 200a 26000000 		.4byte	.LVL169
 18557 200e 24010000 		.4byte	.LFE8
 18558 2012 0400     		.2byte	0x4
 18559 2014 F3       		.byte	0xf3
 18560 2015 01       		.uleb128 0x1
 18561 2016 50       		.byte	0x50
 18562 2017 9F       		.byte	0x9f
 18563 2018 00000000 		.4byte	0
 18564 201c 00000000 		.4byte	0
 18565              	.LLST70:
 18566 2020 00000000 		.4byte	.LVL164
 18567 2024 ED000000 		.4byte	.LVL209-1
 18568 2028 0100     		.2byte	0x1
 18569 202a 51       		.byte	0x51
 18570 202b ED000000 		.4byte	.LVL209-1
 18571 202f EE000000 		.4byte	.LVL209
 18572 2033 0400     		.2byte	0x4
 18573 2035 F3       		.byte	0xf3
 18574 2036 01       		.uleb128 0x1
 18575 2037 51       		.byte	0x51
 18576 2038 9F       		.byte	0x9f
 18577 2039 EE000000 		.4byte	.LVL209
 18578 203d 24010000 		.4byte	.LFE8
 18579 2041 0100     		.2byte	0x1
 18580 2043 51       		.byte	0x51
 18581 2044 00000000 		.4byte	0
 18582 2048 00000000 		.4byte	0
ARM GAS  C:\Users\mathi\AppData\Local\Temp\ccVwcWGw.s 			page 327


 18583              	.LLST71:
 18584 204c 00000000 		.4byte	.LVL164
 18585 2050 22000000 		.4byte	.LVL168
 18586 2054 0100     		.2byte	0x1
 18587 2056 52       		.byte	0x52
 18588 2057 22000000 		.4byte	.LVL168
 18589 205b 24010000 		.4byte	.LFE8
 18590 205f 0400     		.2byte	0x4
 18591 2061 F3       		.byte	0xf3
 18592 2062 01       		.uleb128 0x1
 18593 2063 52       		.byte	0x52
 18594 2064 9F       		.byte	0x9f
 18595 2065 00000000 		.4byte	0
 18596 2069 00000000 		.4byte	0
 18597              	.LLST72:
 18598 206d 00000000 		.4byte	.LVL164
 18599 2071 88000000 		.4byte	.LVL183
 18600 2075 0100     		.2byte	0x1
 18601 2077 53       		.byte	0x53
 18602 2078 88000000 		.4byte	.LVL183
 18603 207c 92000000 		.4byte	.LVL184
 18604 2080 0400     		.2byte	0x4
 18605 2082 F3       		.byte	0xf3
 18606 2083 01       		.uleb128 0x1
 18607 2084 53       		.byte	0x53
 18608 2085 9F       		.byte	0x9f
 18609 2086 92000000 		.4byte	.LVL184
 18610 208a EA000000 		.4byte	.LVL208
 18611 208e 0100     		.2byte	0x1
 18612 2090 53       		.byte	0x53
 18613 2091 EA000000 		.4byte	.LVL208
 18614 2095 EE000000 		.4byte	.LVL209
 18615 2099 0400     		.2byte	0x4
 18616 209b F3       		.byte	0xf3
 18617 209c 01       		.uleb128 0x1
 18618 209d 53       		.byte	0x53
 18619 209e 9F       		.byte	0x9f
 18620 209f EE000000 		.4byte	.LVL209
 18621 20a3 24010000 		.4byte	.LFE8
 18622 20a7 0100     		.2byte	0x1
 18623 20a9 53       		.byte	0x53
 18624 20aa 00000000 		.4byte	0
 18625 20ae 00000000 		.4byte	0
 18626              	.LLST73:
 18627 20b2 14000000 		.4byte	.LVL166
 18628 20b6 ED000000 		.4byte	.LVL209-1
 18629 20ba 0100     		.2byte	0x1
 18630 20bc 5C       		.byte	0x5c
 18631 20bd ED000000 		.4byte	.LVL209-1
 18632 20c1 EE000000 		.4byte	.LVL209
 18633 20c5 0600     		.2byte	0x6
 18634 20c7 F3       		.byte	0xf3
 18635 20c8 01       		.uleb128 0x1
 18636 20c9 52       		.byte	0x52
 18637 20ca 33       		.byte	0x33
 18638 20cb 25       		.byte	0x25
 18639 20cc 9F       		.byte	0x9f
ARM GAS  C:\Users\mathi\AppData\Local\Temp\ccVwcWGw.s 			page 328


 18640 20cd EE000000 		.4byte	.LVL209
 18641 20d1 24010000 		.4byte	.LFE8
 18642 20d5 0100     		.2byte	0x1
 18643 20d7 5C       		.byte	0x5c
 18644 20d8 00000000 		.4byte	0
 18645 20dc 00000000 		.4byte	0
 18646              	.LLST74:
 18647 20e0 1C000000 		.4byte	.LVL167
 18648 20e4 22000000 		.4byte	.LVL168
 18649 20e8 0500     		.2byte	0x5
 18650 20ea 72       		.byte	0x72
 18651 20eb 00       		.sleb128 0
 18652 20ec 37       		.byte	0x37
 18653 20ed 1A       		.byte	0x1a
 18654 20ee 9F       		.byte	0x9f
 18655 20ef 22000000 		.4byte	.LVL168
 18656 20f3 82000000 		.4byte	.LVL182
 18657 20f7 0100     		.2byte	0x1
 18658 20f9 52       		.byte	0x52
 18659 20fa 82000000 		.4byte	.LVL182
 18660 20fe 92000000 		.4byte	.LVL184
 18661 2102 0600     		.2byte	0x6
 18662 2104 F3       		.byte	0xf3
 18663 2105 01       		.uleb128 0x1
 18664 2106 52       		.byte	0x52
 18665 2107 37       		.byte	0x37
 18666 2108 1A       		.byte	0x1a
 18667 2109 9F       		.byte	0x9f
 18668 210a 92000000 		.4byte	.LVL184
 18669 210e EA000000 		.4byte	.LVL208
 18670 2112 0100     		.2byte	0x1
 18671 2114 52       		.byte	0x52
 18672 2115 EA000000 		.4byte	.LVL208
 18673 2119 EE000000 		.4byte	.LVL209
 18674 211d 0600     		.2byte	0x6
 18675 211f F3       		.byte	0xf3
 18676 2120 01       		.uleb128 0x1
 18677 2121 52       		.byte	0x52
 18678 2122 37       		.byte	0x37
 18679 2123 1A       		.byte	0x1a
 18680 2124 9F       		.byte	0x9f
 18681 2125 EE000000 		.4byte	.LVL209
 18682 2129 24010000 		.4byte	.LFE8
 18683 212d 0100     		.2byte	0x1
 18684 212f 52       		.byte	0x52
 18685 2130 00000000 		.4byte	0
 18686 2134 00000000 		.4byte	0
 18687              	.LLST75:
 18688 2138 1C000000 		.4byte	.LVL167
 18689 213c 3C000000 		.4byte	.LVL170
 18690 2140 0100     		.2byte	0x1
 18691 2142 5C       		.byte	0x5c
 18692 2143 7C000000 		.4byte	.LVL181
 18693 2147 82000000 		.4byte	.LVL182
 18694 214b 0300     		.2byte	0x3
 18695 214d 7C       		.byte	0x7c
 18696 214e 01       		.sleb128 1
ARM GAS  C:\Users\mathi\AppData\Local\Temp\ccVwcWGw.s 			page 329


 18697 214f 9F       		.byte	0x9f
 18698 2150 9A000000 		.4byte	.LVL186
 18699 2154 9C000000 		.4byte	.LVL187
 18700 2158 0300     		.2byte	0x3
 18701 215a 7C       		.byte	0x7c
 18702 215b 01       		.sleb128 1
 18703 215c 9F       		.byte	0x9f
 18704 215d A4000000 		.4byte	.LVL189
 18705 2161 A6000000 		.4byte	.LVL190
 18706 2165 0300     		.2byte	0x3
 18707 2167 7C       		.byte	0x7c
 18708 2168 01       		.sleb128 1
 18709 2169 9F       		.byte	0x9f
 18710 216a AE000000 		.4byte	.LVL192
 18711 216e B0000000 		.4byte	.LVL193
 18712 2172 0300     		.2byte	0x3
 18713 2174 7C       		.byte	0x7c
 18714 2175 01       		.sleb128 1
 18715 2176 9F       		.byte	0x9f
 18716 2177 B8000000 		.4byte	.LVL195
 18717 217b BA000000 		.4byte	.LVL196
 18718 217f 0300     		.2byte	0x3
 18719 2181 7C       		.byte	0x7c
 18720 2182 01       		.sleb128 1
 18721 2183 9F       		.byte	0x9f
 18722 2184 C2000000 		.4byte	.LVL198
 18723 2188 C4000000 		.4byte	.LVL199
 18724 218c 0300     		.2byte	0x3
 18725 218e 7C       		.byte	0x7c
 18726 218f 01       		.sleb128 1
 18727 2190 9F       		.byte	0x9f
 18728 2191 CC000000 		.4byte	.LVL201
 18729 2195 CE000000 		.4byte	.LVL202
 18730 2199 0300     		.2byte	0x3
 18731 219b 7C       		.byte	0x7c
 18732 219c 01       		.sleb128 1
 18733 219d 9F       		.byte	0x9f
 18734 219e DC000000 		.4byte	.LVL206
 18735 21a2 E6000000 		.4byte	.LVL207
 18736 21a6 0300     		.2byte	0x3
 18737 21a8 7C       		.byte	0x7c
 18738 21a9 01       		.sleb128 1
 18739 21aa 9F       		.byte	0x9f
 18740 21ab 10010000 		.4byte	.LVL216
 18741 21af 18010000 		.4byte	.LVL217
 18742 21b3 0300     		.2byte	0x3
 18743 21b5 7C       		.byte	0x7c
 18744 21b6 01       		.sleb128 1
 18745 21b7 9F       		.byte	0x9f
 18746 21b8 00000000 		.4byte	0
 18747 21bc 00000000 		.4byte	0
 18748              	.LLST76:
 18749 21c0 3C000000 		.4byte	.LVL170
 18750 21c4 48000000 		.4byte	.LVL172
 18751 21c8 0200     		.2byte	0x2
 18752 21ca 30       		.byte	0x30
 18753 21cb 9F       		.byte	0x9f
ARM GAS  C:\Users\mathi\AppData\Local\Temp\ccVwcWGw.s 			page 330


 18754 21cc 48000000 		.4byte	.LVL172
 18755 21d0 4C000000 		.4byte	.LVL173
 18756 21d4 0200     		.2byte	0x2
 18757 21d6 31       		.byte	0x31
 18758 21d7 9F       		.byte	0x9f
 18759 21d8 4C000000 		.4byte	.LVL173
 18760 21dc 50000000 		.4byte	.LVL174
 18761 21e0 0200     		.2byte	0x2
 18762 21e2 32       		.byte	0x32
 18763 21e3 9F       		.byte	0x9f
 18764 21e4 50000000 		.4byte	.LVL174
 18765 21e8 58000000 		.4byte	.LVL175
 18766 21ec 0200     		.2byte	0x2
 18767 21ee 33       		.byte	0x33
 18768 21ef 9F       		.byte	0x9f
 18769 21f0 60000000 		.4byte	.LVL177
 18770 21f4 78000000 		.4byte	.LVL180
 18771 21f8 0100     		.2byte	0x1
 18772 21fa 55       		.byte	0x55
 18773 21fb 78000000 		.4byte	.LVL180
 18774 21ff 7C000000 		.4byte	.LVL181
 18775 2203 0300     		.2byte	0x3
 18776 2205 77       		.byte	0x77
 18777 2206 07       		.sleb128 7
 18778 2207 9F       		.byte	0x9f
 18779 2208 7C000000 		.4byte	.LVL181
 18780 220c 82000000 		.4byte	.LVL182
 18781 2210 0200     		.2byte	0x2
 18782 2212 38       		.byte	0x38
 18783 2213 9F       		.byte	0x9f
 18784 2214 9C000000 		.4byte	.LVL187
 18785 2218 A6000000 		.4byte	.LVL190
 18786 221c 0200     		.2byte	0x2
 18787 221e 30       		.byte	0x30
 18788 221f 9F       		.byte	0x9f
 18789 2220 A6000000 		.4byte	.LVL190
 18790 2224 B0000000 		.4byte	.LVL193
 18791 2228 0200     		.2byte	0x2
 18792 222a 31       		.byte	0x31
 18793 222b 9F       		.byte	0x9f
 18794 222c B0000000 		.4byte	.LVL193
 18795 2230 BA000000 		.4byte	.LVL196
 18796 2234 0200     		.2byte	0x2
 18797 2236 32       		.byte	0x32
 18798 2237 9F       		.byte	0x9f
 18799 2238 BA000000 		.4byte	.LVL196
 18800 223c C4000000 		.4byte	.LVL199
 18801 2240 0200     		.2byte	0x2
 18802 2242 33       		.byte	0x33
 18803 2243 9F       		.byte	0x9f
 18804 2244 C4000000 		.4byte	.LVL199
 18805 2248 CE000000 		.4byte	.LVL202
 18806 224c 0300     		.2byte	0x3
 18807 224e 77       		.byte	0x77
 18808 224f 07       		.sleb128 7
 18809 2250 9F       		.byte	0x9f
 18810 2251 CE000000 		.4byte	.LVL202
ARM GAS  C:\Users\mathi\AppData\Local\Temp\ccVwcWGw.s 			page 331


 18811 2255 D2000000 		.4byte	.LVL204
 18812 2259 0200     		.2byte	0x2
 18813 225b 30       		.byte	0x30
 18814 225c 9F       		.byte	0x9f
 18815 225d D2000000 		.4byte	.LVL204
 18816 2261 D6000000 		.4byte	.LVL205
 18817 2265 0100     		.2byte	0x1
 18818 2267 52       		.byte	0x52
 18819 2268 E6000000 		.4byte	.LVL207
 18820 226c EA000000 		.4byte	.LVL208
 18821 2270 0100     		.2byte	0x1
 18822 2272 52       		.byte	0x52
 18823 2273 02010000 		.4byte	.LVL212
 18824 2277 04010000 		.4byte	.LVL213
 18825 227b 0100     		.2byte	0x1
 18826 227d 55       		.byte	0x55
 18827 227e 0E010000 		.4byte	.LVL215
 18828 2282 1C010000 		.4byte	.LVL218
 18829 2286 0100     		.2byte	0x1
 18830 2288 55       		.byte	0x55
 18831 2289 00000000 		.4byte	0
 18832 228d 00000000 		.4byte	0
 18833              	.LLST77:
 18834 2291 42000000 		.4byte	.LVL171
 18835 2295 48000000 		.4byte	.LVL172
 18836 2299 0100     		.2byte	0x1
 18837 229b 54       		.byte	0x54
 18838 229c 48000000 		.4byte	.LVL172
 18839 22a0 4C000000 		.4byte	.LVL173
 18840 22a4 0500     		.2byte	0x5
 18841 22a6 74       		.byte	0x74
 18842 22a7 00       		.sleb128 0
 18843 22a8 31       		.byte	0x31
 18844 22a9 25       		.byte	0x25
 18845 22aa 9F       		.byte	0x9f
 18846 22ab 4C000000 		.4byte	.LVL173
 18847 22af 50000000 		.4byte	.LVL174
 18848 22b3 0500     		.2byte	0x5
 18849 22b5 74       		.byte	0x74
 18850 22b6 00       		.sleb128 0
 18851 22b7 32       		.byte	0x32
 18852 22b8 25       		.byte	0x25
 18853 22b9 9F       		.byte	0x9f
 18854 22ba 50000000 		.4byte	.LVL174
 18855 22be 58000000 		.4byte	.LVL175
 18856 22c2 0500     		.2byte	0x5
 18857 22c4 74       		.byte	0x74
 18858 22c5 00       		.sleb128 0
 18859 22c6 33       		.byte	0x33
 18860 22c7 25       		.byte	0x25
 18861 22c8 9F       		.byte	0x9f
 18862 22c9 58000000 		.4byte	.LVL175
 18863 22cd 5E000000 		.4byte	.LVL176
 18864 22d1 0500     		.2byte	0x5
 18865 22d3 74       		.byte	0x74
 18866 22d4 00       		.sleb128 0
 18867 22d5 34       		.byte	0x34
ARM GAS  C:\Users\mathi\AppData\Local\Temp\ccVwcWGw.s 			page 332


 18868 22d6 25       		.byte	0x25
 18869 22d7 9F       		.byte	0x9f
 18870 22d8 5E000000 		.4byte	.LVL176
 18871 22dc 6A000000 		.4byte	.LVL178
 18872 22e0 0500     		.2byte	0x5
 18873 22e2 74       		.byte	0x74
 18874 22e3 00       		.sleb128 0
 18875 22e4 35       		.byte	0x35
 18876 22e5 25       		.byte	0x25
 18877 22e6 9F       		.byte	0x9f
 18878 22e7 6A000000 		.4byte	.LVL178
 18879 22eb 78000000 		.4byte	.LVL180
 18880 22ef 0500     		.2byte	0x5
 18881 22f1 74       		.byte	0x74
 18882 22f2 00       		.sleb128 0
 18883 22f3 36       		.byte	0x36
 18884 22f4 25       		.byte	0x25
 18885 22f5 9F       		.byte	0x9f
 18886 22f6 78000000 		.4byte	.LVL180
 18887 22fa 7C000000 		.4byte	.LVL181
 18888 22fe 0100     		.2byte	0x1
 18889 2300 54       		.byte	0x54
 18890 2301 7C000000 		.4byte	.LVL181
 18891 2305 82000000 		.4byte	.LVL182
 18892 2309 0200     		.2byte	0x2
 18893 230b 30       		.byte	0x30
 18894 230c 9F       		.byte	0x9f
 18895 230d 92000000 		.4byte	.LVL184
 18896 2311 94000000 		.4byte	.LVL185
 18897 2315 0500     		.2byte	0x5
 18898 2317 74       		.byte	0x74
 18899 2318 00       		.sleb128 0
 18900 2319 31       		.byte	0x31
 18901 231a 25       		.byte	0x25
 18902 231b 9F       		.byte	0x9f
 18903 231c 9C000000 		.4byte	.LVL187
 18904 2320 A6000000 		.4byte	.LVL190
 18905 2324 0100     		.2byte	0x1
 18906 2326 54       		.byte	0x54
 18907 2327 A6000000 		.4byte	.LVL190
 18908 232b B0000000 		.4byte	.LVL193
 18909 232f 0500     		.2byte	0x5
 18910 2331 74       		.byte	0x74
 18911 2332 00       		.sleb128 0
 18912 2333 31       		.byte	0x31
 18913 2334 25       		.byte	0x25
 18914 2335 9F       		.byte	0x9f
 18915 2336 B0000000 		.4byte	.LVL193
 18916 233a BA000000 		.4byte	.LVL196
 18917 233e 0500     		.2byte	0x5
 18918 2340 74       		.byte	0x74
 18919 2341 00       		.sleb128 0
 18920 2342 32       		.byte	0x32
 18921 2343 25       		.byte	0x25
 18922 2344 9F       		.byte	0x9f
 18923 2345 BA000000 		.4byte	.LVL196
 18924 2349 C4000000 		.4byte	.LVL199
ARM GAS  C:\Users\mathi\AppData\Local\Temp\ccVwcWGw.s 			page 333


 18925 234d 0500     		.2byte	0x5
 18926 234f 74       		.byte	0x74
 18927 2350 00       		.sleb128 0
 18928 2351 33       		.byte	0x33
 18929 2352 25       		.byte	0x25
 18930 2353 9F       		.byte	0x9f
 18931 2354 C4000000 		.4byte	.LVL199
 18932 2358 D0000000 		.4byte	.LVL203
 18933 235c 0100     		.2byte	0x1
 18934 235e 54       		.byte	0x54
 18935 235f D0000000 		.4byte	.LVL203
 18936 2363 D2000000 		.4byte	.LVL204
 18937 2367 0200     		.2byte	0x2
 18938 2369 70       		.byte	0x70
 18939 236a 00       		.sleb128 0
 18940 236b D2000000 		.4byte	.LVL204
 18941 236f D6000000 		.4byte	.LVL205
 18942 2373 0100     		.2byte	0x1
 18943 2375 54       		.byte	0x54
 18944 2376 D6000000 		.4byte	.LVL205
 18945 237a DC000000 		.4byte	.LVL206
 18946 237e 0500     		.2byte	0x5
 18947 2380 74       		.byte	0x74
 18948 2381 00       		.sleb128 0
 18949 2382 31       		.byte	0x31
 18950 2383 25       		.byte	0x25
 18951 2384 9F       		.byte	0x9f
 18952 2385 E6000000 		.4byte	.LVL207
 18953 2389 EA000000 		.4byte	.LVL208
 18954 238d 0100     		.2byte	0x1
 18955 238f 54       		.byte	0x54
 18956 2390 EE000000 		.4byte	.LVL209
 18957 2394 F2000000 		.4byte	.LVL210
 18958 2398 0500     		.2byte	0x5
 18959 239a 74       		.byte	0x74
 18960 239b 00       		.sleb128 0
 18961 239c 31       		.byte	0x31
 18962 239d 25       		.byte	0x25
 18963 239e 9F       		.byte	0x9f
 18964 239f F2000000 		.4byte	.LVL210
 18965 23a3 FC000000 		.4byte	.LVL211
 18966 23a7 0500     		.2byte	0x5
 18967 23a9 74       		.byte	0x74
 18968 23aa 00       		.sleb128 0
 18969 23ab 32       		.byte	0x32
 18970 23ac 25       		.byte	0x25
 18971 23ad 9F       		.byte	0x9f
 18972 23ae FC000000 		.4byte	.LVL211
 18973 23b2 08010000 		.4byte	.LVL214
 18974 23b6 0500     		.2byte	0x5
 18975 23b8 74       		.byte	0x74
 18976 23b9 00       		.sleb128 0
 18977 23ba 33       		.byte	0x33
 18978 23bb 25       		.byte	0x25
 18979 23bc 9F       		.byte	0x9f
 18980 23bd 08010000 		.4byte	.LVL214
 18981 23c1 1C010000 		.4byte	.LVL218
ARM GAS  C:\Users\mathi\AppData\Local\Temp\ccVwcWGw.s 			page 334


 18982 23c5 0500     		.2byte	0x5
 18983 23c7 74       		.byte	0x74
 18984 23c8 00       		.sleb128 0
 18985 23c9 34       		.byte	0x34
 18986 23ca 25       		.byte	0x25
 18987 23cb 9F       		.byte	0x9f
 18988 23cc 1C010000 		.4byte	.LVL218
 18989 23d0 24010000 		.4byte	.LFE8
 18990 23d4 0500     		.2byte	0x5
 18991 23d6 74       		.byte	0x74
 18992 23d7 00       		.sleb128 0
 18993 23d8 32       		.byte	0x32
 18994 23d9 25       		.byte	0x25
 18995 23da 9F       		.byte	0x9f
 18996 23db 00000000 		.4byte	0
 18997 23df 00000000 		.4byte	0
 18998              	.LLST78:
 18999 23e3 10000000 		.4byte	.LVL165
 19000 23e7 82000000 		.4byte	.LVL182
 19001 23eb 0200     		.2byte	0x2
 19002 23ed 30       		.byte	0x30
 19003 23ee 9F       		.byte	0x9f
 19004 23ef 92000000 		.4byte	.LVL184
 19005 23f3 94000000 		.4byte	.LVL185
 19006 23f7 0200     		.2byte	0x2
 19007 23f9 30       		.byte	0x30
 19008 23fa 9F       		.byte	0x9f
 19009 23fb 94000000 		.4byte	.LVL185
 19010 23ff 9C000000 		.4byte	.LVL187
 19011 2403 0200     		.2byte	0x2
 19012 2405 31       		.byte	0x31
 19013 2406 9F       		.byte	0x9f
 19014 2407 9C000000 		.4byte	.LVL187
 19015 240b 9E000000 		.4byte	.LVL188
 19016 240f 0200     		.2byte	0x2
 19017 2411 30       		.byte	0x30
 19018 2412 9F       		.byte	0x9f
 19019 2413 9E000000 		.4byte	.LVL188
 19020 2417 A6000000 		.4byte	.LVL190
 19021 241b 0200     		.2byte	0x2
 19022 241d 31       		.byte	0x31
 19023 241e 9F       		.byte	0x9f
 19024 241f A6000000 		.4byte	.LVL190
 19025 2423 A8000000 		.4byte	.LVL191
 19026 2427 0200     		.2byte	0x2
 19027 2429 30       		.byte	0x30
 19028 242a 9F       		.byte	0x9f
 19029 242b A8000000 		.4byte	.LVL191
 19030 242f B0000000 		.4byte	.LVL193
 19031 2433 0200     		.2byte	0x2
 19032 2435 31       		.byte	0x31
 19033 2436 9F       		.byte	0x9f
 19034 2437 B0000000 		.4byte	.LVL193
 19035 243b B2000000 		.4byte	.LVL194
 19036 243f 0200     		.2byte	0x2
 19037 2441 30       		.byte	0x30
 19038 2442 9F       		.byte	0x9f
ARM GAS  C:\Users\mathi\AppData\Local\Temp\ccVwcWGw.s 			page 335


 19039 2443 B2000000 		.4byte	.LVL194
 19040 2447 BA000000 		.4byte	.LVL196
 19041 244b 0200     		.2byte	0x2
 19042 244d 31       		.byte	0x31
 19043 244e 9F       		.byte	0x9f
 19044 244f BA000000 		.4byte	.LVL196
 19045 2453 BC000000 		.4byte	.LVL197
 19046 2457 0200     		.2byte	0x2
 19047 2459 30       		.byte	0x30
 19048 245a 9F       		.byte	0x9f
 19049 245b BC000000 		.4byte	.LVL197
 19050 245f C4000000 		.4byte	.LVL199
 19051 2463 0200     		.2byte	0x2
 19052 2465 31       		.byte	0x31
 19053 2466 9F       		.byte	0x9f
 19054 2467 C4000000 		.4byte	.LVL199
 19055 246b C6000000 		.4byte	.LVL200
 19056 246f 0200     		.2byte	0x2
 19057 2471 30       		.byte	0x30
 19058 2472 9F       		.byte	0x9f
 19059 2473 C6000000 		.4byte	.LVL200
 19060 2477 CE000000 		.4byte	.LVL202
 19061 247b 0200     		.2byte	0x2
 19062 247d 31       		.byte	0x31
 19063 247e 9F       		.byte	0x9f
 19064 247f CE000000 		.4byte	.LVL202
 19065 2483 EA000000 		.4byte	.LVL208
 19066 2487 0200     		.2byte	0x2
 19067 2489 30       		.byte	0x30
 19068 248a 9F       		.byte	0x9f
 19069 248b EE000000 		.4byte	.LVL209
 19070 248f 24010000 		.4byte	.LFE8
 19071 2493 0200     		.2byte	0x2
 19072 2495 30       		.byte	0x30
 19073 2496 9F       		.byte	0x9f
 19074 2497 00000000 		.4byte	0
 19075 249b 00000000 		.4byte	0
 19076              	.LLST79:
 19077 249f 00000000 		.4byte	.LVL219
 19078 24a3 0C000000 		.4byte	.LVL220
 19079 24a7 0100     		.2byte	0x1
 19080 24a9 50       		.byte	0x50
 19081 24aa 0C000000 		.4byte	.LVL220
 19082 24ae 34000000 		.4byte	.LFE9
 19083 24b2 0400     		.2byte	0x4
 19084 24b4 F3       		.byte	0xf3
 19085 24b5 01       		.uleb128 0x1
 19086 24b6 50       		.byte	0x50
 19087 24b7 9F       		.byte	0x9f
 19088 24b8 00000000 		.4byte	0
 19089 24bc 00000000 		.4byte	0
 19090              	.LLST80:
 19091 24c0 00000000 		.4byte	.LVL223
 19092 24c4 22000000 		.4byte	.LVL229
 19093 24c8 0100     		.2byte	0x1
 19094 24ca 50       		.byte	0x50
 19095 24cb 22000000 		.4byte	.LVL229
ARM GAS  C:\Users\mathi\AppData\Local\Temp\ccVwcWGw.s 			page 336


 19096 24cf 2E000000 		.4byte	.LVL231
 19097 24d3 0400     		.2byte	0x4
 19098 24d5 F3       		.byte	0xf3
 19099 24d6 01       		.uleb128 0x1
 19100 24d7 50       		.byte	0x50
 19101 24d8 9F       		.byte	0x9f
 19102 24d9 2E000000 		.4byte	.LVL231
 19103 24dd 32000000 		.4byte	.LVL232
 19104 24e1 0100     		.2byte	0x1
 19105 24e3 50       		.byte	0x50
 19106 24e4 32000000 		.4byte	.LVL232
 19107 24e8 3C000000 		.4byte	.LFE10
 19108 24ec 0400     		.2byte	0x4
 19109 24ee F3       		.byte	0xf3
 19110 24ef 01       		.uleb128 0x1
 19111 24f0 50       		.byte	0x50
 19112 24f1 9F       		.byte	0x9f
 19113 24f2 00000000 		.4byte	0
 19114 24f6 00000000 		.4byte	0
 19115              	.LLST81:
 19116 24fa 00000000 		.4byte	.LVL223
 19117 24fe 12000000 		.4byte	.LVL226
 19118 2502 0100     		.2byte	0x1
 19119 2504 51       		.byte	0x51
 19120 2505 12000000 		.4byte	.LVL226
 19121 2509 2E000000 		.4byte	.LVL231
 19122 250d 0400     		.2byte	0x4
 19123 250f F3       		.byte	0xf3
 19124 2510 01       		.uleb128 0x1
 19125 2511 51       		.byte	0x51
 19126 2512 9F       		.byte	0x9f
 19127 2513 2E000000 		.4byte	.LVL231
 19128 2517 34000000 		.4byte	.LVL233
 19129 251b 0100     		.2byte	0x1
 19130 251d 51       		.byte	0x51
 19131 251e 34000000 		.4byte	.LVL233
 19132 2522 3C000000 		.4byte	.LFE10
 19133 2526 0400     		.2byte	0x4
 19134 2528 F3       		.byte	0xf3
 19135 2529 01       		.uleb128 0x1
 19136 252a 51       		.byte	0x51
 19137 252b 9F       		.byte	0x9f
 19138 252c 00000000 		.4byte	0
 19139 2530 00000000 		.4byte	0
 19140              	.LLST82:
 19141 2534 00000000 		.4byte	.LVL223
 19142 2538 16000000 		.4byte	.LVL227
 19143 253c 0100     		.2byte	0x1
 19144 253e 52       		.byte	0x52
 19145 253f 16000000 		.4byte	.LVL227
 19146 2543 2E000000 		.4byte	.LVL231
 19147 2547 0400     		.2byte	0x4
 19148 2549 F3       		.byte	0xf3
 19149 254a 01       		.uleb128 0x1
 19150 254b 52       		.byte	0x52
 19151 254c 9F       		.byte	0x9f
 19152 254d 2E000000 		.4byte	.LVL231
ARM GAS  C:\Users\mathi\AppData\Local\Temp\ccVwcWGw.s 			page 337


 19153 2551 34000000 		.4byte	.LVL233
 19154 2555 0100     		.2byte	0x1
 19155 2557 52       		.byte	0x52
 19156 2558 34000000 		.4byte	.LVL233
 19157 255c 3C000000 		.4byte	.LFE10
 19158 2560 0400     		.2byte	0x4
 19159 2562 F3       		.byte	0xf3
 19160 2563 01       		.uleb128 0x1
 19161 2564 52       		.byte	0x52
 19162 2565 9F       		.byte	0x9f
 19163 2566 00000000 		.4byte	0
 19164 256a 00000000 		.4byte	0
 19165              	.LLST83:
 19166 256e 0A000000 		.4byte	.LVL224
 19167 2572 22000000 		.4byte	.LVL229
 19168 2576 0200     		.2byte	0x2
 19169 2578 30       		.byte	0x30
 19170 2579 9F       		.byte	0x9f
 19171 257a 22000000 		.4byte	.LVL229
 19172 257e 2E000000 		.4byte	.LVL231
 19173 2582 0100     		.2byte	0x1
 19174 2584 50       		.byte	0x50
 19175 2585 2E000000 		.4byte	.LVL231
 19176 2589 34000000 		.4byte	.LVL233
 19177 258d 0200     		.2byte	0x2
 19178 258f 30       		.byte	0x30
 19179 2590 9F       		.byte	0x9f
 19180 2591 34000000 		.4byte	.LVL233
 19181 2595 37000000 		.4byte	.LVL234-1
 19182 2599 0100     		.2byte	0x1
 19183 259b 50       		.byte	0x50
 19184 259c 00000000 		.4byte	0
 19185 25a0 00000000 		.4byte	0
 19186              	.LLST84:
 19187 25a4 0C000000 		.4byte	.LVL225
 19188 25a8 26000000 		.4byte	.LVL230
 19189 25ac 0100     		.2byte	0x1
 19190 25ae 53       		.byte	0x53
 19191 25af 26000000 		.4byte	.LVL230
 19192 25b3 2E000000 		.4byte	.LVL231
 19193 25b7 0600     		.2byte	0x6
 19194 25b9 F3       		.byte	0xf3
 19195 25ba 01       		.uleb128 0x1
 19196 25bb 52       		.byte	0x52
 19197 25bc 33       		.byte	0x33
 19198 25bd 25       		.byte	0x25
 19199 25be 9F       		.byte	0x9f
 19200 25bf 2E000000 		.4byte	.LVL231
 19201 25c3 34000000 		.4byte	.LVL233
 19202 25c7 0100     		.2byte	0x1
 19203 25c9 53       		.byte	0x53
 19204 25ca 34000000 		.4byte	.LVL233
 19205 25ce 3C000000 		.4byte	.LFE10
 19206 25d2 0600     		.2byte	0x6
 19207 25d4 F3       		.byte	0xf3
 19208 25d5 01       		.uleb128 0x1
 19209 25d6 52       		.byte	0x52
ARM GAS  C:\Users\mathi\AppData\Local\Temp\ccVwcWGw.s 			page 338


 19210 25d7 33       		.byte	0x33
 19211 25d8 25       		.byte	0x25
 19212 25d9 9F       		.byte	0x9f
 19213 25da 00000000 		.4byte	0
 19214 25de 00000000 		.4byte	0
 19215              	.LLST85:
 19216 25e2 0C000000 		.4byte	.LVL225
 19217 25e6 16000000 		.4byte	.LVL227
 19218 25ea 0500     		.2byte	0x5
 19219 25ec 72       		.byte	0x72
 19220 25ed 00       		.sleb128 0
 19221 25ee 37       		.byte	0x37
 19222 25ef 1A       		.byte	0x1a
 19223 25f0 9F       		.byte	0x9f
 19224 25f1 16000000 		.4byte	.LVL227
 19225 25f5 1C000000 		.4byte	.LVL228
 19226 25f9 0100     		.2byte	0x1
 19227 25fb 52       		.byte	0x52
 19228 25fc 1C000000 		.4byte	.LVL228
 19229 2600 2E000000 		.4byte	.LVL231
 19230 2604 0600     		.2byte	0x6
 19231 2606 F3       		.byte	0xf3
 19232 2607 01       		.uleb128 0x1
 19233 2608 52       		.byte	0x52
 19234 2609 37       		.byte	0x37
 19235 260a 1A       		.byte	0x1a
 19236 260b 9F       		.byte	0x9f
 19237 260c 2E000000 		.4byte	.LVL231
 19238 2610 34000000 		.4byte	.LVL233
 19239 2614 0500     		.2byte	0x5
 19240 2616 72       		.byte	0x72
 19241 2617 00       		.sleb128 0
 19242 2618 37       		.byte	0x37
 19243 2619 1A       		.byte	0x1a
 19244 261a 9F       		.byte	0x9f
 19245 261b 34000000 		.4byte	.LVL233
 19246 261f 3C000000 		.4byte	.LFE10
 19247 2623 0600     		.2byte	0x6
 19248 2625 F3       		.byte	0xf3
 19249 2626 01       		.uleb128 0x1
 19250 2627 52       		.byte	0x52
 19251 2628 37       		.byte	0x37
 19252 2629 1A       		.byte	0x1a
 19253 262a 9F       		.byte	0x9f
 19254 262b 00000000 		.4byte	0
 19255 262f 00000000 		.4byte	0
 19256              	.LLST86:
 19257 2633 00000000 		.4byte	.LVL235
 19258 2637 3C000000 		.4byte	.LVL239
 19259 263b 0100     		.2byte	0x1
 19260 263d 50       		.byte	0x50
 19261 263e 3C000000 		.4byte	.LVL239
 19262 2642 A8020000 		.4byte	.LFE11
 19263 2646 0200     		.2byte	0x2
 19264 2648 91       		.byte	0x91
 19265 2649 48       		.sleb128 -56
 19266 264a 00000000 		.4byte	0
ARM GAS  C:\Users\mathi\AppData\Local\Temp\ccVwcWGw.s 			page 339


 19267 264e 00000000 		.4byte	0
 19268              	.LLST87:
 19269 2652 00000000 		.4byte	.LVL235
 19270 2656 3C000000 		.4byte	.LVL239
 19271 265a 0100     		.2byte	0x1
 19272 265c 51       		.byte	0x51
 19273 265d 3C000000 		.4byte	.LVL239
 19274 2661 A8020000 		.4byte	.LFE11
 19275 2665 0400     		.2byte	0x4
 19276 2667 F3       		.byte	0xf3
 19277 2668 01       		.uleb128 0x1
 19278 2669 51       		.byte	0x51
 19279 266a 9F       		.byte	0x9f
 19280 266b 00000000 		.4byte	0
 19281 266f 00000000 		.4byte	0
 19282              	.LLST88:
 19283 2673 00000000 		.4byte	.LVL235
 19284 2677 12000000 		.4byte	.LVL237
 19285 267b 0100     		.2byte	0x1
 19286 267d 52       		.byte	0x52
 19287 267e 12000000 		.4byte	.LVL237
 19288 2682 A8020000 		.4byte	.LFE11
 19289 2686 0400     		.2byte	0x4
 19290 2688 F3       		.byte	0xf3
 19291 2689 01       		.uleb128 0x1
 19292 268a 52       		.byte	0x52
 19293 268b 9F       		.byte	0x9f
 19294 268c 00000000 		.4byte	0
 19295 2690 00000000 		.4byte	0
 19296              	.LLST89:
 19297 2694 00000000 		.4byte	.LVL235
 19298 2698 CA000000 		.4byte	.LVL254
 19299 269c 0100     		.2byte	0x1
 19300 269e 53       		.byte	0x53
 19301 269f CA000000 		.4byte	.LVL254
 19302 26a3 E6000000 		.4byte	.LVL258
 19303 26a7 0400     		.2byte	0x4
 19304 26a9 F3       		.byte	0xf3
 19305 26aa 01       		.uleb128 0x1
 19306 26ab 53       		.byte	0x53
 19307 26ac 9F       		.byte	0x9f
 19308 26ad E6000000 		.4byte	.LVL258
 19309 26b1 98020000 		.4byte	.LVL308
 19310 26b5 0100     		.2byte	0x1
 19311 26b7 53       		.byte	0x53
 19312 26b8 98020000 		.4byte	.LVL308
 19313 26bc A0020000 		.4byte	.LVL310
 19314 26c0 0400     		.2byte	0x4
 19315 26c2 F3       		.byte	0xf3
 19316 26c3 01       		.uleb128 0x1
 19317 26c4 53       		.byte	0x53
 19318 26c5 9F       		.byte	0x9f
 19319 26c6 A0020000 		.4byte	.LVL310
 19320 26ca A8020000 		.4byte	.LFE11
 19321 26ce 0100     		.2byte	0x1
 19322 26d0 53       		.byte	0x53
 19323 26d1 00000000 		.4byte	0
ARM GAS  C:\Users\mathi\AppData\Local\Temp\ccVwcWGw.s 			page 340


 19324 26d5 00000000 		.4byte	0
 19325              	.LLST90:
 19326 26d9 00000000 		.4byte	.LVL235
 19327 26dd E6000000 		.4byte	.LVL258
 19328 26e1 0200     		.2byte	0x2
 19329 26e3 91       		.byte	0x91
 19330 26e4 00       		.sleb128 0
 19331 26e5 E6000000 		.4byte	.LVL258
 19332 26e9 A8020000 		.4byte	.LFE11
 19333 26ed 0200     		.2byte	0x2
 19334 26ef 91       		.byte	0x91
 19335 26f0 00       		.sleb128 0
 19336 26f1 00000000 		.4byte	0
 19337 26f5 00000000 		.4byte	0
 19338              	.LLST91:
 19339 26f9 0E000000 		.4byte	.LVL236
 19340 26fd 28000000 		.4byte	.LVL238
 19341 2701 0200     		.2byte	0x2
 19342 2703 30       		.byte	0x30
 19343 2704 9F       		.byte	0x9f
 19344 2705 28000000 		.4byte	.LVL238
 19345 2709 A8020000 		.4byte	.LFE11
 19346 270d 0200     		.2byte	0x2
 19347 270f 91       		.byte	0x91
 19348 2710 44       		.sleb128 -60
 19349 2711 00000000 		.4byte	0
 19350 2715 00000000 		.4byte	0
 19351              	.LLST92:
 19352 2719 28000000 		.4byte	.LVL238
 19353 271d 3C000000 		.4byte	.LVL239
 19354 2721 0100     		.2byte	0x1
 19355 2723 55       		.byte	0x55
 19356 2724 3C000000 		.4byte	.LVL239
 19357 2728 A8020000 		.4byte	.LFE11
 19358 272c 0200     		.2byte	0x2
 19359 272e 91       		.byte	0x91
 19360 272f 40       		.sleb128 -64
 19361 2730 00000000 		.4byte	0
 19362 2734 00000000 		.4byte	0
 19363              	.LLST93:
 19364 2738 0E000000 		.4byte	.LVL236
 19365 273c 3C000000 		.4byte	.LVL239
 19366 2740 0200     		.2byte	0x2
 19367 2742 30       		.byte	0x30
 19368 2743 9F       		.byte	0x9f
 19369 2744 3C000000 		.4byte	.LVL239
 19370 2748 BE000000 		.4byte	.LVL253
 19371 274c 0100     		.2byte	0x1
 19372 274e 52       		.byte	0x52
 19373 274f E6000000 		.4byte	.LVL258
 19374 2753 C4010000 		.4byte	.LVL281
 19375 2757 0100     		.2byte	0x1
 19376 2759 52       		.byte	0x52
 19377 275a D8010000 		.4byte	.LVL286
 19378 275e 98020000 		.4byte	.LVL308
 19379 2762 0100     		.2byte	0x1
 19380 2764 52       		.byte	0x52
ARM GAS  C:\Users\mathi\AppData\Local\Temp\ccVwcWGw.s 			page 341


 19381 2765 A0020000 		.4byte	.LVL310
 19382 2769 A8020000 		.4byte	.LFE11
 19383 276d 0100     		.2byte	0x1
 19384 276f 52       		.byte	0x52
 19385 2770 00000000 		.4byte	0
 19386 2774 00000000 		.4byte	0
 19387              	.LLST94:
 19388 2778 0E000000 		.4byte	.LVL236
 19389 277c 3C000000 		.4byte	.LVL239
 19390 2780 0200     		.2byte	0x2
 19391 2782 30       		.byte	0x30
 19392 2783 9F       		.byte	0x9f
 19393 2784 40000000 		.4byte	.LVL240
 19394 2788 7E000000 		.4byte	.LVL242
 19395 278c 0200     		.2byte	0x2
 19396 278e 30       		.byte	0x30
 19397 278f 9F       		.byte	0x9f
 19398 2790 7E000000 		.4byte	.LVL242
 19399 2794 86000000 		.4byte	.LVL243
 19400 2798 0200     		.2byte	0x2
 19401 279a 31       		.byte	0x31
 19402 279b 9F       		.byte	0x9f
 19403 279c 86000000 		.4byte	.LVL243
 19404 27a0 8C000000 		.4byte	.LVL244
 19405 27a4 0200     		.2byte	0x2
 19406 27a6 32       		.byte	0x32
 19407 27a7 9F       		.byte	0x9f
 19408 27a8 8C000000 		.4byte	.LVL244
 19409 27ac 98000000 		.4byte	.LVL245
 19410 27b0 0200     		.2byte	0x2
 19411 27b2 33       		.byte	0x33
 19412 27b3 9F       		.byte	0x9f
 19413 27b4 98000000 		.4byte	.LVL245
 19414 27b8 9E000000 		.4byte	.LVL246
 19415 27bc 0200     		.2byte	0x2
 19416 27be 34       		.byte	0x34
 19417 27bf 9F       		.byte	0x9f
 19418 27c0 9E000000 		.4byte	.LVL246
 19419 27c4 AA000000 		.4byte	.LVL247
 19420 27c8 0200     		.2byte	0x2
 19421 27ca 35       		.byte	0x35
 19422 27cb 9F       		.byte	0x9f
 19423 27cc AA000000 		.4byte	.LVL247
 19424 27d0 AE000000 		.4byte	.LVL248
 19425 27d4 0200     		.2byte	0x2
 19426 27d6 36       		.byte	0x36
 19427 27d7 9F       		.byte	0x9f
 19428 27d8 AE000000 		.4byte	.LVL248
 19429 27dc B4000000 		.4byte	.LVL250
 19430 27e0 0200     		.2byte	0x2
 19431 27e2 37       		.byte	0x37
 19432 27e3 9F       		.byte	0x9f
 19433 27e4 B4000000 		.4byte	.LVL250
 19434 27e8 BC000000 		.4byte	.LVL252
 19435 27ec 0200     		.2byte	0x2
 19436 27ee 39       		.byte	0x39
 19437 27ef 9F       		.byte	0x9f
ARM GAS  C:\Users\mathi\AppData\Local\Temp\ccVwcWGw.s 			page 342


 19438 27f0 BC000000 		.4byte	.LVL252
 19439 27f4 CC000000 		.4byte	.LVL255
 19440 27f8 0200     		.2byte	0x2
 19441 27fa 30       		.byte	0x30
 19442 27fb 9F       		.byte	0x9f
 19443 27fc CC000000 		.4byte	.LVL255
 19444 2800 D2000000 		.4byte	.LVL257
 19445 2804 0100     		.2byte	0x1
 19446 2806 53       		.byte	0x53
 19447 2807 E6000000 		.4byte	.LVL258
 19448 280b FE000000 		.4byte	.LVL260
 19449 280f 0200     		.2byte	0x2
 19450 2811 31       		.byte	0x31
 19451 2812 9F       		.byte	0x9f
 19452 2813 FE000000 		.4byte	.LVL260
 19453 2817 0A010000 		.4byte	.LVL261
 19454 281b 0200     		.2byte	0x2
 19455 281d 32       		.byte	0x32
 19456 281e 9F       		.byte	0x9f
 19457 281f 0A010000 		.4byte	.LVL261
 19458 2823 0E010000 		.4byte	.LVL262
 19459 2827 0200     		.2byte	0x2
 19460 2829 33       		.byte	0x33
 19461 282a 9F       		.byte	0x9f
 19462 282b 0E010000 		.4byte	.LVL262
 19463 282f 18010000 		.4byte	.LVL263
 19464 2833 0200     		.2byte	0x2
 19465 2835 34       		.byte	0x34
 19466 2836 9F       		.byte	0x9f
 19467 2837 18010000 		.4byte	.LVL263
 19468 283b 1E010000 		.4byte	.LVL264
 19469 283f 0200     		.2byte	0x2
 19470 2841 35       		.byte	0x35
 19471 2842 9F       		.byte	0x9f
 19472 2843 1E010000 		.4byte	.LVL264
 19473 2847 26010000 		.4byte	.LVL265
 19474 284b 0200     		.2byte	0x2
 19475 284d 36       		.byte	0x36
 19476 284e 9F       		.byte	0x9f
 19477 284f 26010000 		.4byte	.LVL265
 19478 2853 34010000 		.4byte	.LVL266
 19479 2857 0200     		.2byte	0x2
 19480 2859 37       		.byte	0x37
 19481 285a 9F       		.byte	0x9f
 19482 285b 34010000 		.4byte	.LVL266
 19483 285f 38010000 		.4byte	.LVL267
 19484 2863 0200     		.2byte	0x2
 19485 2865 36       		.byte	0x36
 19486 2866 9F       		.byte	0x9f
 19487 2867 38010000 		.4byte	.LVL267
 19488 286b 44010000 		.4byte	.LVL268
 19489 286f 0200     		.2byte	0x2
 19490 2871 37       		.byte	0x37
 19491 2872 9F       		.byte	0x9f
 19492 2873 44010000 		.4byte	.LVL268
 19493 2877 5C010000 		.4byte	.LVL270
 19494 287b 0200     		.2byte	0x2
ARM GAS  C:\Users\mathi\AppData\Local\Temp\ccVwcWGw.s 			page 343


 19495 287d 32       		.byte	0x32
 19496 287e 9F       		.byte	0x9f
 19497 287f 5C010000 		.4byte	.LVL270
 19498 2883 62010000 		.4byte	.LVL271
 19499 2887 0200     		.2byte	0x2
 19500 2889 33       		.byte	0x33
 19501 288a 9F       		.byte	0x9f
 19502 288b 62010000 		.4byte	.LVL271
 19503 288f 6C010000 		.4byte	.LVL272
 19504 2893 0200     		.2byte	0x2
 19505 2895 31       		.byte	0x31
 19506 2896 9F       		.byte	0x9f
 19507 2897 6C010000 		.4byte	.LVL272
 19508 289b 86010000 		.4byte	.LVL274
 19509 289f 0200     		.2byte	0x2
 19510 28a1 33       		.byte	0x33
 19511 28a2 9F       		.byte	0x9f
 19512 28a3 86010000 		.4byte	.LVL274
 19513 28a7 8A010000 		.4byte	.LVL275
 19514 28ab 0200     		.2byte	0x2
 19515 28ad 34       		.byte	0x34
 19516 28ae 9F       		.byte	0x9f
 19517 28af 8A010000 		.4byte	.LVL275
 19518 28b3 92010000 		.4byte	.LVL276
 19519 28b7 0200     		.2byte	0x2
 19520 28b9 35       		.byte	0x35
 19521 28ba 9F       		.byte	0x9f
 19522 28bb 92010000 		.4byte	.LVL276
 19523 28bf A0010000 		.4byte	.LVL277
 19524 28c3 0200     		.2byte	0x2
 19525 28c5 32       		.byte	0x32
 19526 28c6 9F       		.byte	0x9f
 19527 28c7 A0010000 		.4byte	.LVL277
 19528 28cb B4010000 		.4byte	.LVL279
 19529 28cf 0200     		.2byte	0x2
 19530 28d1 34       		.byte	0x34
 19531 28d2 9F       		.byte	0x9f
 19532 28d3 B4010000 		.4byte	.LVL279
 19533 28d7 BC010000 		.4byte	.LVL280
 19534 28db 0200     		.2byte	0x2
 19535 28dd 35       		.byte	0x35
 19536 28de 9F       		.byte	0x9f
 19537 28df BC010000 		.4byte	.LVL280
 19538 28e3 C4010000 		.4byte	.LVL281
 19539 28e7 0200     		.2byte	0x2
 19540 28e9 36       		.byte	0x36
 19541 28ea 9F       		.byte	0x9f
 19542 28eb C4010000 		.4byte	.LVL281
 19543 28ef CC010000 		.4byte	.LVL283
 19544 28f3 0200     		.2byte	0x2
 19545 28f5 30       		.byte	0x30
 19546 28f6 9F       		.byte	0x9f
 19547 28f7 CC010000 		.4byte	.LVL283
 19548 28fb D8010000 		.4byte	.LVL286
 19549 28ff 0100     		.2byte	0x1
 19550 2901 52       		.byte	0x52
 19551 2902 D8010000 		.4byte	.LVL286
ARM GAS  C:\Users\mathi\AppData\Local\Temp\ccVwcWGw.s 			page 344


 19552 2906 DC010000 		.4byte	.LVL287
 19553 290a 0200     		.2byte	0x2
 19554 290c 33       		.byte	0x33
 19555 290d 9F       		.byte	0x9f
 19556 290e DC010000 		.4byte	.LVL287
 19557 2912 E6010000 		.4byte	.LVL288
 19558 2916 0200     		.2byte	0x2
 19559 2918 34       		.byte	0x34
 19560 2919 9F       		.byte	0x9f
 19561 291a E6010000 		.4byte	.LVL288
 19562 291e EE010000 		.4byte	.LVL289
 19563 2922 0200     		.2byte	0x2
 19564 2924 35       		.byte	0x35
 19565 2925 9F       		.byte	0x9f
 19566 2926 EE010000 		.4byte	.LVL289
 19567 292a F4010000 		.4byte	.LVL290
 19568 292e 0200     		.2byte	0x2
 19569 2930 34       		.byte	0x34
 19570 2931 9F       		.byte	0x9f
 19571 2932 F4010000 		.4byte	.LVL290
 19572 2936 FC010000 		.4byte	.LVL291
 19573 293a 0200     		.2byte	0x2
 19574 293c 35       		.byte	0x35
 19575 293d 9F       		.byte	0x9f
 19576 293e FC010000 		.4byte	.LVL291
 19577 2942 02020000 		.4byte	.LVL292
 19578 2946 0200     		.2byte	0x2
 19579 2948 36       		.byte	0x36
 19580 2949 9F       		.byte	0x9f
 19581 294a 02020000 		.4byte	.LVL292
 19582 294e 06020000 		.4byte	.LVL293
 19583 2952 0200     		.2byte	0x2
 19584 2954 32       		.byte	0x32
 19585 2955 9F       		.byte	0x9f
 19586 2956 06020000 		.4byte	.LVL293
 19587 295a 0E020000 		.4byte	.LVL294
 19588 295e 0200     		.2byte	0x2
 19589 2960 33       		.byte	0x33
 19590 2961 9F       		.byte	0x9f
 19591 2962 0E020000 		.4byte	.LVL294
 19592 2966 12020000 		.4byte	.LVL295
 19593 296a 0200     		.2byte	0x2
 19594 296c 31       		.byte	0x31
 19595 296d 9F       		.byte	0x9f
 19596 296e 12020000 		.4byte	.LVL295
 19597 2972 22020000 		.4byte	.LVL296
 19598 2976 0200     		.2byte	0x2
 19599 2978 32       		.byte	0x32
 19600 2979 9F       		.byte	0x9f
 19601 297a 22020000 		.4byte	.LVL296
 19602 297e 38020000 		.4byte	.LVL298
 19603 2982 0200     		.2byte	0x2
 19604 2984 35       		.byte	0x35
 19605 2985 9F       		.byte	0x9f
 19606 2986 38020000 		.4byte	.LVL298
 19607 298a 40020000 		.4byte	.LVL299
 19608 298e 0200     		.2byte	0x2
ARM GAS  C:\Users\mathi\AppData\Local\Temp\ccVwcWGw.s 			page 345


 19609 2990 36       		.byte	0x36
 19610 2991 9F       		.byte	0x9f
 19611 2992 40020000 		.4byte	.LVL299
 19612 2996 48020000 		.4byte	.LVL300
 19613 299a 0200     		.2byte	0x2
 19614 299c 35       		.byte	0x35
 19615 299d 9F       		.byte	0x9f
 19616 299e 48020000 		.4byte	.LVL300
 19617 29a2 4E020000 		.4byte	.LVL301
 19618 29a6 0200     		.2byte	0x2
 19619 29a8 36       		.byte	0x36
 19620 29a9 9F       		.byte	0x9f
 19621 29aa 4E020000 		.4byte	.LVL301
 19622 29ae 5C020000 		.4byte	.LVL302
 19623 29b2 0200     		.2byte	0x2
 19624 29b4 37       		.byte	0x37
 19625 29b5 9F       		.byte	0x9f
 19626 29b6 5C020000 		.4byte	.LVL302
 19627 29ba 6E020000 		.4byte	.LVL304
 19628 29be 0200     		.2byte	0x2
 19629 29c0 36       		.byte	0x36
 19630 29c1 9F       		.byte	0x9f
 19631 29c2 6E020000 		.4byte	.LVL304
 19632 29c6 98020000 		.4byte	.LVL308
 19633 29ca 0200     		.2byte	0x2
 19634 29cc 37       		.byte	0x37
 19635 29cd 9F       		.byte	0x9f
 19636 29ce A0020000 		.4byte	.LVL310
 19637 29d2 A8020000 		.4byte	.LFE11
 19638 29d6 0200     		.2byte	0x2
 19639 29d8 33       		.byte	0x33
 19640 29d9 9F       		.byte	0x9f
 19641 29da 00000000 		.4byte	0
 19642 29de 00000000 		.4byte	0
 19643              	.LLST95:
 19644 29e2 40000000 		.4byte	.LVL240
 19645 29e6 6E000000 		.4byte	.LVL241
 19646 29ea 0200     		.2byte	0x2
 19647 29ec 7E       		.byte	0x7e
 19648 29ed 7F       		.sleb128 -1
 19649 29ee B4000000 		.4byte	.LVL250
 19650 29f2 BC000000 		.4byte	.LVL252
 19651 29f6 0200     		.2byte	0x2
 19652 29f8 30       		.byte	0x30
 19653 29f9 9F       		.byte	0x9f
 19654 29fa BC000000 		.4byte	.LVL252
 19655 29fe D2000000 		.4byte	.LVL257
 19656 2a02 0700     		.2byte	0x7
 19657 2a04 91       		.byte	0x91
 19658 2a05 48       		.sleb128 -56
 19659 2a06 06       		.byte	0x6
 19660 2a07 91       		.byte	0x91
 19661 2a08 40       		.sleb128 -64
 19662 2a09 06       		.byte	0x6
 19663 2a0a 22       		.byte	0x22
 19664 2a0b E6000000 		.4byte	.LVL258
 19665 2a0f F0000000 		.4byte	.LVL259
ARM GAS  C:\Users\mathi\AppData\Local\Temp\ccVwcWGw.s 			page 346


 19666 2a13 0700     		.2byte	0x7
 19667 2a15 7E       		.byte	0x7e
 19668 2a16 7F       		.sleb128 -1
 19669 2a17 94       		.byte	0x94
 19670 2a18 01       		.byte	0x1
 19671 2a19 31       		.byte	0x31
 19672 2a1a 25       		.byte	0x25
 19673 2a1b 9F       		.byte	0x9f
 19674 2a1c 44010000 		.4byte	.LVL268
 19675 2a20 50010000 		.4byte	.LVL269
 19676 2a24 0700     		.2byte	0x7
 19677 2a26 7E       		.byte	0x7e
 19678 2a27 7F       		.sleb128 -1
 19679 2a28 94       		.byte	0x94
 19680 2a29 01       		.byte	0x1
 19681 2a2a 32       		.byte	0x32
 19682 2a2b 25       		.byte	0x25
 19683 2a2c 9F       		.byte	0x9f
 19684 2a2d 6C010000 		.4byte	.LVL272
 19685 2a31 74010000 		.4byte	.LVL273
 19686 2a35 0700     		.2byte	0x7
 19687 2a37 7E       		.byte	0x7e
 19688 2a38 7F       		.sleb128 -1
 19689 2a39 94       		.byte	0x94
 19690 2a3a 01       		.byte	0x1
 19691 2a3b 33       		.byte	0x33
 19692 2a3c 25       		.byte	0x25
 19693 2a3d 9F       		.byte	0x9f
 19694 2a3e A0010000 		.4byte	.LVL277
 19695 2a42 AC010000 		.4byte	.LVL278
 19696 2a46 0700     		.2byte	0x7
 19697 2a48 7E       		.byte	0x7e
 19698 2a49 7F       		.sleb128 -1
 19699 2a4a 94       		.byte	0x94
 19700 2a4b 01       		.byte	0x1
 19701 2a4c 34       		.byte	0x34
 19702 2a4d 25       		.byte	0x25
 19703 2a4e 9F       		.byte	0x9f
 19704 2a4f C4010000 		.4byte	.LVL281
 19705 2a53 C6010000 		.4byte	.LVL282
 19706 2a57 0600     		.2byte	0x6
 19707 2a59 91       		.byte	0x91
 19708 2a5a 48       		.sleb128 -56
 19709 2a5b 06       		.byte	0x6
 19710 2a5c 71       		.byte	0x71
 19711 2a5d 00       		.sleb128 0
 19712 2a5e 22       		.byte	0x22
 19713 2a5f C6010000 		.4byte	.LVL282
 19714 2a63 D6010000 		.4byte	.LVL285
 19715 2a67 0700     		.2byte	0x7
 19716 2a69 91       		.byte	0x91
 19717 2a6a 48       		.sleb128 -56
 19718 2a6b 06       		.byte	0x6
 19719 2a6c 91       		.byte	0x91
 19720 2a6d 40       		.sleb128 -64
 19721 2a6e 06       		.byte	0x6
 19722 2a6f 22       		.byte	0x22
ARM GAS  C:\Users\mathi\AppData\Local\Temp\ccVwcWGw.s 			page 347


 19723 2a70 22020000 		.4byte	.LVL296
 19724 2a74 2E020000 		.4byte	.LVL297
 19725 2a78 0700     		.2byte	0x7
 19726 2a7a 7E       		.byte	0x7e
 19727 2a7b 7F       		.sleb128 -1
 19728 2a7c 94       		.byte	0x94
 19729 2a7d 01       		.byte	0x1
 19730 2a7e 35       		.byte	0x35
 19731 2a7f 25       		.byte	0x25
 19732 2a80 9F       		.byte	0x9f
 19733 2a81 5C020000 		.4byte	.LVL302
 19734 2a85 64020000 		.4byte	.LVL303
 19735 2a89 0700     		.2byte	0x7
 19736 2a8b 7E       		.byte	0x7e
 19737 2a8c 7F       		.sleb128 -1
 19738 2a8d 94       		.byte	0x94
 19739 2a8e 01       		.byte	0x1
 19740 2a8f 36       		.byte	0x36
 19741 2a90 25       		.byte	0x25
 19742 2a91 9F       		.byte	0x9f
 19743 2a92 7E020000 		.4byte	.LVL305
 19744 2a96 8A020000 		.4byte	.LVL306
 19745 2a9a 0700     		.2byte	0x7
 19746 2a9c 7E       		.byte	0x7e
 19747 2a9d 7F       		.sleb128 -1
 19748 2a9e 94       		.byte	0x94
 19749 2a9f 01       		.byte	0x1
 19750 2aa0 37       		.byte	0x37
 19751 2aa1 25       		.byte	0x25
 19752 2aa2 9F       		.byte	0x9f
 19753 2aa3 00000000 		.4byte	0
 19754 2aa7 00000000 		.4byte	0
 19755              	.LLST96:
 19756 2aab 0E000000 		.4byte	.LVL236
 19757 2aaf 3C000000 		.4byte	.LVL239
 19758 2ab3 0200     		.2byte	0x2
 19759 2ab5 30       		.byte	0x30
 19760 2ab6 9F       		.byte	0x9f
 19761 2ab7 3C000000 		.4byte	.LVL239
 19762 2abb 7E000000 		.4byte	.LVL242
 19763 2abf 0100     		.2byte	0x1
 19764 2ac1 57       		.byte	0x57
 19765 2ac2 7E000000 		.4byte	.LVL242
 19766 2ac6 B2000000 		.4byte	.LVL249
 19767 2aca 0200     		.2byte	0x2
 19768 2acc 31       		.byte	0x31
 19769 2acd 9F       		.byte	0x9f
 19770 2ace B4000000 		.4byte	.LVL250
 19771 2ad2 FE000000 		.4byte	.LVL260
 19772 2ad6 0100     		.2byte	0x1
 19773 2ad8 57       		.byte	0x57
 19774 2ad9 FE000000 		.4byte	.LVL260
 19775 2add 44010000 		.4byte	.LVL268
 19776 2ae1 0200     		.2byte	0x2
 19777 2ae3 31       		.byte	0x31
 19778 2ae4 9F       		.byte	0x9f
 19779 2ae5 44010000 		.4byte	.LVL268
ARM GAS  C:\Users\mathi\AppData\Local\Temp\ccVwcWGw.s 			page 348


 19780 2ae9 5C010000 		.4byte	.LVL270
 19781 2aed 0100     		.2byte	0x1
 19782 2aef 57       		.byte	0x57
 19783 2af0 5C010000 		.4byte	.LVL270
 19784 2af4 6C010000 		.4byte	.LVL272
 19785 2af8 0200     		.2byte	0x2
 19786 2afa 31       		.byte	0x31
 19787 2afb 9F       		.byte	0x9f
 19788 2afc 6C010000 		.4byte	.LVL272
 19789 2b00 86010000 		.4byte	.LVL274
 19790 2b04 0100     		.2byte	0x1
 19791 2b06 57       		.byte	0x57
 19792 2b07 86010000 		.4byte	.LVL274
 19793 2b0b A0010000 		.4byte	.LVL277
 19794 2b0f 0200     		.2byte	0x2
 19795 2b11 31       		.byte	0x31
 19796 2b12 9F       		.byte	0x9f
 19797 2b13 A0010000 		.4byte	.LVL277
 19798 2b17 B4010000 		.4byte	.LVL279
 19799 2b1b 0100     		.2byte	0x1
 19800 2b1d 57       		.byte	0x57
 19801 2b1e B4010000 		.4byte	.LVL279
 19802 2b22 C4010000 		.4byte	.LVL281
 19803 2b26 0200     		.2byte	0x2
 19804 2b28 31       		.byte	0x31
 19805 2b29 9F       		.byte	0x9f
 19806 2b2a C4010000 		.4byte	.LVL281
 19807 2b2e D8010000 		.4byte	.LVL286
 19808 2b32 0100     		.2byte	0x1
 19809 2b34 57       		.byte	0x57
 19810 2b35 D8010000 		.4byte	.LVL286
 19811 2b39 02020000 		.4byte	.LVL292
 19812 2b3d 0200     		.2byte	0x2
 19813 2b3f 31       		.byte	0x31
 19814 2b40 9F       		.byte	0x9f
 19815 2b41 02020000 		.4byte	.LVL292
 19816 2b45 06020000 		.4byte	.LVL293
 19817 2b49 0100     		.2byte	0x1
 19818 2b4b 57       		.byte	0x57
 19819 2b4c 06020000 		.4byte	.LVL293
 19820 2b50 0E020000 		.4byte	.LVL294
 19821 2b54 0200     		.2byte	0x2
 19822 2b56 31       		.byte	0x31
 19823 2b57 9F       		.byte	0x9f
 19824 2b58 0E020000 		.4byte	.LVL294
 19825 2b5c 12020000 		.4byte	.LVL295
 19826 2b60 0100     		.2byte	0x1
 19827 2b62 57       		.byte	0x57
 19828 2b63 12020000 		.4byte	.LVL295
 19829 2b67 22020000 		.4byte	.LVL296
 19830 2b6b 0200     		.2byte	0x2
 19831 2b6d 31       		.byte	0x31
 19832 2b6e 9F       		.byte	0x9f
 19833 2b6f 22020000 		.4byte	.LVL296
 19834 2b73 38020000 		.4byte	.LVL298
 19835 2b77 0100     		.2byte	0x1
 19836 2b79 57       		.byte	0x57
ARM GAS  C:\Users\mathi\AppData\Local\Temp\ccVwcWGw.s 			page 349


 19837 2b7a 38020000 		.4byte	.LVL298
 19838 2b7e 5C020000 		.4byte	.LVL302
 19839 2b82 0200     		.2byte	0x2
 19840 2b84 31       		.byte	0x31
 19841 2b85 9F       		.byte	0x9f
 19842 2b86 5C020000 		.4byte	.LVL302
 19843 2b8a 6E020000 		.4byte	.LVL304
 19844 2b8e 0100     		.2byte	0x1
 19845 2b90 57       		.byte	0x57
 19846 2b91 6E020000 		.4byte	.LVL304
 19847 2b95 7E020000 		.4byte	.LVL305
 19848 2b99 0200     		.2byte	0x2
 19849 2b9b 31       		.byte	0x31
 19850 2b9c 9F       		.byte	0x9f
 19851 2b9d 7E020000 		.4byte	.LVL305
 19852 2ba1 96020000 		.4byte	.LVL307
 19853 2ba5 0100     		.2byte	0x1
 19854 2ba7 57       		.byte	0x57
 19855 2ba8 98020000 		.4byte	.LVL308
 19856 2bac A0020000 		.4byte	.LVL310
 19857 2bb0 0100     		.2byte	0x1
 19858 2bb2 57       		.byte	0x57
 19859 2bb3 A0020000 		.4byte	.LVL310
 19860 2bb7 A8020000 		.4byte	.LFE11
 19861 2bbb 0200     		.2byte	0x2
 19862 2bbd 31       		.byte	0x31
 19863 2bbe 9F       		.byte	0x9f
 19864 2bbf 00000000 		.4byte	0
 19865 2bc3 00000000 		.4byte	0
 19866              	.LLST97:
 19867 2bc7 00000000 		.4byte	.LVL311
 19868 2bcb 21000000 		.4byte	.LVL313-1
 19869 2bcf 0100     		.2byte	0x1
 19870 2bd1 50       		.byte	0x50
 19871 2bd2 21000000 		.4byte	.LVL313-1
 19872 2bd6 22000000 		.4byte	.LVL313
 19873 2bda 0400     		.2byte	0x4
 19874 2bdc F3       		.byte	0xf3
 19875 2bdd 01       		.uleb128 0x1
 19876 2bde 50       		.byte	0x50
 19877 2bdf 9F       		.byte	0x9f
 19878 2be0 22000000 		.4byte	.LVL313
 19879 2be4 25000000 		.4byte	.LVL314-1
 19880 2be8 0100     		.2byte	0x1
 19881 2bea 50       		.byte	0x50
 19882 2beb 25000000 		.4byte	.LVL314-1
 19883 2bef 2C000000 		.4byte	.LFE12
 19884 2bf3 0400     		.2byte	0x4
 19885 2bf5 F3       		.byte	0xf3
 19886 2bf6 01       		.uleb128 0x1
 19887 2bf7 50       		.byte	0x50
 19888 2bf8 9F       		.byte	0x9f
 19889 2bf9 00000000 		.4byte	0
 19890 2bfd 00000000 		.4byte	0
 19891              	.LLST98:
 19892 2c01 00000000 		.4byte	.LVL311
 19893 2c05 18000000 		.4byte	.LVL312
ARM GAS  C:\Users\mathi\AppData\Local\Temp\ccVwcWGw.s 			page 350


 19894 2c09 0100     		.2byte	0x1
 19895 2c0b 51       		.byte	0x51
 19896 2c0c 18000000 		.4byte	.LVL312
 19897 2c10 21000000 		.4byte	.LVL313-1
 19898 2c14 0100     		.2byte	0x1
 19899 2c16 52       		.byte	0x52
 19900 2c17 21000000 		.4byte	.LVL313-1
 19901 2c1b 22000000 		.4byte	.LVL313
 19902 2c1f 0400     		.2byte	0x4
 19903 2c21 F3       		.byte	0xf3
 19904 2c22 01       		.uleb128 0x1
 19905 2c23 51       		.byte	0x51
 19906 2c24 9F       		.byte	0x9f
 19907 2c25 22000000 		.4byte	.LVL313
 19908 2c29 25000000 		.4byte	.LVL314-1
 19909 2c2d 0100     		.2byte	0x1
 19910 2c2f 51       		.byte	0x51
 19911 2c30 25000000 		.4byte	.LVL314-1
 19912 2c34 2C000000 		.4byte	.LFE12
 19913 2c38 0400     		.2byte	0x4
 19914 2c3a F3       		.byte	0xf3
 19915 2c3b 01       		.uleb128 0x1
 19916 2c3c 51       		.byte	0x51
 19917 2c3d 9F       		.byte	0x9f
 19918 2c3e 00000000 		.4byte	0
 19919 2c42 00000000 		.4byte	0
 19920              	.LLST99:
 19921 2c46 00000000 		.4byte	.LVL315
 19922 2c4a 21000000 		.4byte	.LVL317-1
 19923 2c4e 0100     		.2byte	0x1
 19924 2c50 50       		.byte	0x50
 19925 2c51 21000000 		.4byte	.LVL317-1
 19926 2c55 22000000 		.4byte	.LVL317
 19927 2c59 0400     		.2byte	0x4
 19928 2c5b F3       		.byte	0xf3
 19929 2c5c 01       		.uleb128 0x1
 19930 2c5d 50       		.byte	0x50
 19931 2c5e 9F       		.byte	0x9f
 19932 2c5f 22000000 		.4byte	.LVL317
 19933 2c63 25000000 		.4byte	.LVL318-1
 19934 2c67 0100     		.2byte	0x1
 19935 2c69 50       		.byte	0x50
 19936 2c6a 25000000 		.4byte	.LVL318-1
 19937 2c6e 2C000000 		.4byte	.LFE13
 19938 2c72 0400     		.2byte	0x4
 19939 2c74 F3       		.byte	0xf3
 19940 2c75 01       		.uleb128 0x1
 19941 2c76 50       		.byte	0x50
 19942 2c77 9F       		.byte	0x9f
 19943 2c78 00000000 		.4byte	0
 19944 2c7c 00000000 		.4byte	0
 19945              	.LLST100:
 19946 2c80 00000000 		.4byte	.LVL315
 19947 2c84 18000000 		.4byte	.LVL316
 19948 2c88 0100     		.2byte	0x1
 19949 2c8a 51       		.byte	0x51
 19950 2c8b 18000000 		.4byte	.LVL316
ARM GAS  C:\Users\mathi\AppData\Local\Temp\ccVwcWGw.s 			page 351


 19951 2c8f 21000000 		.4byte	.LVL317-1
 19952 2c93 0100     		.2byte	0x1
 19953 2c95 52       		.byte	0x52
 19954 2c96 21000000 		.4byte	.LVL317-1
 19955 2c9a 22000000 		.4byte	.LVL317
 19956 2c9e 0400     		.2byte	0x4
 19957 2ca0 F3       		.byte	0xf3
 19958 2ca1 01       		.uleb128 0x1
 19959 2ca2 51       		.byte	0x51
 19960 2ca3 9F       		.byte	0x9f
 19961 2ca4 22000000 		.4byte	.LVL317
 19962 2ca8 25000000 		.4byte	.LVL318-1
 19963 2cac 0100     		.2byte	0x1
 19964 2cae 51       		.byte	0x51
 19965 2caf 25000000 		.4byte	.LVL318-1
 19966 2cb3 2C000000 		.4byte	.LFE13
 19967 2cb7 0400     		.2byte	0x4
 19968 2cb9 F3       		.byte	0xf3
 19969 2cba 01       		.uleb128 0x1
 19970 2cbb 51       		.byte	0x51
 19971 2cbc 9F       		.byte	0x9f
 19972 2cbd 00000000 		.4byte	0
 19973 2cc1 00000000 		.4byte	0
 19974              	.LLST101:
 19975 2cc5 00000000 		.4byte	.LVL319
 19976 2cc9 3C000000 		.4byte	.LVL326
 19977 2ccd 0100     		.2byte	0x1
 19978 2ccf 50       		.byte	0x50
 19979 2cd0 3C000000 		.4byte	.LVL326
 19980 2cd4 04020000 		.4byte	.LFE14
 19981 2cd8 0200     		.2byte	0x2
 19982 2cda 91       		.byte	0x91
 19983 2cdb 44       		.sleb128 -60
 19984 2cdc 00000000 		.4byte	0
 19985 2ce0 00000000 		.4byte	0
 19986              	.LLST102:
 19987 2ce4 00000000 		.4byte	.LVL319
 19988 2ce8 3C000000 		.4byte	.LVL326
 19989 2cec 0100     		.2byte	0x1
 19990 2cee 51       		.byte	0x51
 19991 2cef 3C000000 		.4byte	.LVL326
 19992 2cf3 04020000 		.4byte	.LFE14
 19993 2cf7 0400     		.2byte	0x4
 19994 2cf9 F3       		.byte	0xf3
 19995 2cfa 01       		.uleb128 0x1
 19996 2cfb 51       		.byte	0x51
 19997 2cfc 9F       		.byte	0x9f
 19998 2cfd 00000000 		.4byte	0
 19999 2d01 00000000 		.4byte	0
 20000              	.LLST103:
 20001 2d05 00000000 		.4byte	.LVL319
 20002 2d09 3C000000 		.4byte	.LVL326
 20003 2d0d 0100     		.2byte	0x1
 20004 2d0f 52       		.byte	0x52
 20005 2d10 3C000000 		.4byte	.LVL326
 20006 2d14 04020000 		.4byte	.LFE14
 20007 2d18 0300     		.2byte	0x3
ARM GAS  C:\Users\mathi\AppData\Local\Temp\ccVwcWGw.s 			page 352


 20008 2d1a 91       		.byte	0x91
 20009 2d1b AC7F     		.sleb128 -84
 20010 2d1d 00000000 		.4byte	0
 20011 2d21 00000000 		.4byte	0
 20012              	.LLST104:
 20013 2d25 00000000 		.4byte	.LVL319
 20014 2d29 14000000 		.4byte	.LVL321
 20015 2d2d 0100     		.2byte	0x1
 20016 2d2f 53       		.byte	0x53
 20017 2d30 14000000 		.4byte	.LVL321
 20018 2d34 04020000 		.4byte	.LFE14
 20019 2d38 0100     		.2byte	0x1
 20020 2d3a 58       		.byte	0x58
 20021 2d3b 00000000 		.4byte	0
 20022 2d3f 00000000 		.4byte	0
 20023              	.LLST105:
 20024 2d43 00000000 		.4byte	.LVL319
 20025 2d47 B8000000 		.4byte	.LVL342
 20026 2d4b 0200     		.2byte	0x2
 20027 2d4d 91       		.byte	0x91
 20028 2d4e 00       		.sleb128 0
 20029 2d4f B8000000 		.4byte	.LVL342
 20030 2d53 04020000 		.4byte	.LFE14
 20031 2d57 0200     		.2byte	0x2
 20032 2d59 91       		.byte	0x91
 20033 2d5a 00       		.sleb128 0
 20034 2d5b 00000000 		.4byte	0
 20035 2d5f 00000000 		.4byte	0
 20036              	.LLST106:
 20037 2d63 00000000 		.4byte	.LVL319
 20038 2d67 B8000000 		.4byte	.LVL342
 20039 2d6b 0200     		.2byte	0x2
 20040 2d6d 91       		.byte	0x91
 20041 2d6e 04       		.sleb128 4
 20042 2d6f B8000000 		.4byte	.LVL342
 20043 2d73 04020000 		.4byte	.LFE14
 20044 2d77 0200     		.2byte	0x2
 20045 2d79 91       		.byte	0x91
 20046 2d7a 04       		.sleb128 4
 20047 2d7b 00000000 		.4byte	0
 20048 2d7f 00000000 		.4byte	0
 20049              	.LLST107:
 20050 2d83 00000000 		.4byte	.LVL319
 20051 2d87 B8000000 		.4byte	.LVL342
 20052 2d8b 0200     		.2byte	0x2
 20053 2d8d 91       		.byte	0x91
 20054 2d8e 08       		.sleb128 8
 20055 2d8f B8000000 		.4byte	.LVL342
 20056 2d93 04020000 		.4byte	.LFE14
 20057 2d97 0200     		.2byte	0x2
 20058 2d99 91       		.byte	0x91
 20059 2d9a 08       		.sleb128 8
 20060 2d9b 00000000 		.4byte	0
 20061 2d9f 00000000 		.4byte	0
 20062              	.LLST108:
 20063 2da3 00000000 		.4byte	.LVL319
 20064 2da7 B8000000 		.4byte	.LVL342
ARM GAS  C:\Users\mathi\AppData\Local\Temp\ccVwcWGw.s 			page 353


 20065 2dab 0200     		.2byte	0x2
 20066 2dad 91       		.byte	0x91
 20067 2dae 0C       		.sleb128 12
 20068 2daf B8000000 		.4byte	.LVL342
 20069 2db3 04020000 		.4byte	.LFE14
 20070 2db7 0200     		.2byte	0x2
 20071 2db9 91       		.byte	0x91
 20072 2dba 0C       		.sleb128 12
 20073 2dbb 00000000 		.4byte	0
 20074 2dbf 00000000 		.4byte	0
 20075              	.LLST109:
 20076 2dc3 00000000 		.4byte	.LVL319
 20077 2dc7 B8000000 		.4byte	.LVL342
 20078 2dcb 0200     		.2byte	0x2
 20079 2dcd 91       		.byte	0x91
 20080 2dce 10       		.sleb128 16
 20081 2dcf B8000000 		.4byte	.LVL342
 20082 2dd3 04020000 		.4byte	.LFE14
 20083 2dd7 0200     		.2byte	0x2
 20084 2dd9 91       		.byte	0x91
 20085 2dda 10       		.sleb128 16
 20086 2ddb 00000000 		.4byte	0
 20087 2ddf 00000000 		.4byte	0
 20088              	.LLST110:
 20089 2de3 10000000 		.4byte	.LVL320
 20090 2de7 9C000000 		.4byte	.LVL339
 20091 2deb 0200     		.2byte	0x2
 20092 2ded 30       		.byte	0x30
 20093 2dee 9F       		.byte	0x9f
 20094 2def 9C000000 		.4byte	.LVL339
 20095 2df3 9E000000 		.4byte	.LVL340
 20096 2df7 0300     		.2byte	0x3
 20097 2df9 09       		.byte	0x9
 20098 2dfa CE       		.byte	0xce
 20099 2dfb 9F       		.byte	0x9f
 20100 2dfc A6000000 		.4byte	.LVL341
 20101 2e00 B8000000 		.4byte	.LVL342
 20102 2e04 0100     		.2byte	0x1
 20103 2e06 50       		.byte	0x50
 20104 2e07 B8000000 		.4byte	.LVL342
 20105 2e0b 3E010000 		.4byte	.LVL367
 20106 2e0f 0200     		.2byte	0x2
 20107 2e11 30       		.byte	0x30
 20108 2e12 9F       		.byte	0x9f
 20109 2e13 48010000 		.4byte	.LVL368
 20110 2e17 4E010000 		.4byte	.LVL370
 20111 2e1b 0100     		.2byte	0x1
 20112 2e1d 50       		.byte	0x50
 20113 2e1e C6010000 		.4byte	.LVL379
 20114 2e22 F4010000 		.4byte	.LVL388
 20115 2e26 0200     		.2byte	0x2
 20116 2e28 30       		.byte	0x30
 20117 2e29 9F       		.byte	0x9f
 20118 2e2a F4010000 		.4byte	.LVL388
 20119 2e2e F7010000 		.4byte	.LVL389-1
 20120 2e32 0100     		.2byte	0x1
 20121 2e34 50       		.byte	0x50
ARM GAS  C:\Users\mathi\AppData\Local\Temp\ccVwcWGw.s 			page 354


 20122 2e35 F8010000 		.4byte	.LVL389
 20123 2e39 04020000 		.4byte	.LFE14
 20124 2e3d 0200     		.2byte	0x2
 20125 2e3f 30       		.byte	0x30
 20126 2e40 9F       		.byte	0x9f
 20127 2e41 00000000 		.4byte	0
 20128 2e45 00000000 		.4byte	0
 20129              	.LLST111:
 20130 2e49 20000000 		.4byte	.LVL322
 20131 2e4d 3C000000 		.4byte	.LVL326
 20132 2e51 0200     		.2byte	0x2
 20133 2e53 30       		.byte	0x30
 20134 2e54 9F       		.byte	0x9f
 20135 2e55 3C000000 		.4byte	.LVL326
 20136 2e59 9E000000 		.4byte	.LVL340
 20137 2e5d 0100     		.2byte	0x1
 20138 2e5f 5E       		.byte	0x5e
 20139 2e60 B8000000 		.4byte	.LVL342
 20140 2e64 F6000000 		.4byte	.LVL350
 20141 2e68 0100     		.2byte	0x1
 20142 2e6a 5E       		.byte	0x5e
 20143 2e6b F6000000 		.4byte	.LVL350
 20144 2e6f FC000000 		.4byte	.LVL351
 20145 2e73 0300     		.2byte	0x3
 20146 2e75 7E       		.byte	0x7e
 20147 2e76 7F       		.sleb128 -1
 20148 2e77 9F       		.byte	0x9f
 20149 2e78 FC000000 		.4byte	.LVL351
 20150 2e7c 3A010000 		.4byte	.LVL366
 20151 2e80 0100     		.2byte	0x1
 20152 2e82 5E       		.byte	0x5e
 20153 2e83 C6010000 		.4byte	.LVL379
 20154 2e87 F4010000 		.4byte	.LVL388
 20155 2e8b 0100     		.2byte	0x1
 20156 2e8d 5E       		.byte	0x5e
 20157 2e8e F8010000 		.4byte	.LVL389
 20158 2e92 04020000 		.4byte	.LFE14
 20159 2e96 0100     		.2byte	0x1
 20160 2e98 5E       		.byte	0x5e
 20161 2e99 00000000 		.4byte	0
 20162 2e9d 00000000 		.4byte	0
 20163              	.LLST112:
 20164 2ea1 58010000 		.4byte	.LVL372
 20165 2ea5 68010000 		.4byte	.LVL373
 20166 2ea9 0200     		.2byte	0x2
 20167 2eab 30       		.byte	0x30
 20168 2eac 9F       		.byte	0x9f
 20169 2ead 68010000 		.4byte	.LVL373
 20170 2eb1 78010000 		.4byte	.LVL374
 20171 2eb5 0200     		.2byte	0x2
 20172 2eb7 31       		.byte	0x31
 20173 2eb8 9F       		.byte	0x9f
 20174 2eb9 78010000 		.4byte	.LVL374
 20175 2ebd 88010000 		.4byte	.LVL375
 20176 2ec1 0200     		.2byte	0x2
 20177 2ec3 32       		.byte	0x32
 20178 2ec4 9F       		.byte	0x9f
ARM GAS  C:\Users\mathi\AppData\Local\Temp\ccVwcWGw.s 			page 355


 20179 2ec5 88010000 		.4byte	.LVL375
 20180 2ec9 98010000 		.4byte	.LVL376
 20181 2ecd 0200     		.2byte	0x2
 20182 2ecf 33       		.byte	0x33
 20183 2ed0 9F       		.byte	0x9f
 20184 2ed1 98010000 		.4byte	.LVL376
 20185 2ed5 A8010000 		.4byte	.LVL377
 20186 2ed9 0200     		.2byte	0x2
 20187 2edb 34       		.byte	0x34
 20188 2edc 9F       		.byte	0x9f
 20189 2edd A8010000 		.4byte	.LVL377
 20190 2ee1 C0010000 		.4byte	.LVL378
 20191 2ee5 0200     		.2byte	0x2
 20192 2ee7 35       		.byte	0x35
 20193 2ee8 9F       		.byte	0x9f
 20194 2ee9 00000000 		.4byte	0
 20195 2eed 00000000 		.4byte	0
 20196              	.LLST113:
 20197 2ef1 20000000 		.4byte	.LVL322
 20198 2ef5 2A000000 		.4byte	.LVL323
 20199 2ef9 0100     		.2byte	0x1
 20200 2efb 5C       		.byte	0x5c
 20201 2efc 2A000000 		.4byte	.LVL323
 20202 2f00 9C000000 		.4byte	.LVL339
 20203 2f04 0300     		.2byte	0x3
 20204 2f06 09       		.byte	0x9
 20205 2f07 FF       		.byte	0xff
 20206 2f08 9F       		.byte	0x9f
 20207 2f09 B8000000 		.4byte	.LVL342
 20208 2f0d BE000000 		.4byte	.LVL344
 20209 2f11 0300     		.2byte	0x3
 20210 2f13 09       		.byte	0x9
 20211 2f14 FF       		.byte	0xff
 20212 2f15 9F       		.byte	0x9f
 20213 2f16 BE000000 		.4byte	.LVL344
 20214 2f1a FE000000 		.4byte	.LVL352
 20215 2f1e 0100     		.2byte	0x1
 20216 2f20 52       		.byte	0x52
 20217 2f21 FE000000 		.4byte	.LVL352
 20218 2f25 36010000 		.4byte	.LVL365
 20219 2f29 0300     		.2byte	0x3
 20220 2f2b 09       		.byte	0x9
 20221 2f2c FF       		.byte	0xff
 20222 2f2d 9F       		.byte	0x9f
 20223 2f2e 36010000 		.4byte	.LVL365
 20224 2f32 3A010000 		.4byte	.LVL366
 20225 2f36 0100     		.2byte	0x1
 20226 2f38 52       		.byte	0x52
 20227 2f39 C6010000 		.4byte	.LVL379
 20228 2f3d F4010000 		.4byte	.LVL388
 20229 2f41 0300     		.2byte	0x3
 20230 2f43 09       		.byte	0x9
 20231 2f44 FF       		.byte	0xff
 20232 2f45 9F       		.byte	0x9f
 20233 2f46 F8010000 		.4byte	.LVL389
 20234 2f4a 04020000 		.4byte	.LFE14
 20235 2f4e 0300     		.2byte	0x3
ARM GAS  C:\Users\mathi\AppData\Local\Temp\ccVwcWGw.s 			page 356


 20236 2f50 09       		.byte	0x9
 20237 2f51 FF       		.byte	0xff
 20238 2f52 9F       		.byte	0x9f
 20239 2f53 00000000 		.4byte	0
 20240 2f57 00000000 		.4byte	0
 20241              	.LLST114:
 20242 2f5b 20000000 		.4byte	.LVL322
 20243 2f5f 3C000000 		.4byte	.LVL326
 20244 2f63 0100     		.2byte	0x1
 20245 2f65 5C       		.byte	0x5c
 20246 2f66 D8000000 		.4byte	.LVL345
 20247 2f6a FC000000 		.4byte	.LVL351
 20248 2f6e 0100     		.2byte	0x1
 20249 2f70 52       		.byte	0x52
 20250 2f71 FC000000 		.4byte	.LVL351
 20251 2f75 0C010000 		.4byte	.LVL355
 20252 2f79 0100     		.2byte	0x1
 20253 2f7b 5C       		.byte	0x5c
 20254 2f7c 36010000 		.4byte	.LVL365
 20255 2f80 47010000 		.4byte	.LVL368-1
 20256 2f84 0100     		.2byte	0x1
 20257 2f86 5C       		.byte	0x5c
 20258 2f87 00000000 		.4byte	0
 20259 2f8b 00000000 		.4byte	0
 20260              	.LLST115:
 20261 2f8f 2A000000 		.4byte	.LVL323
 20262 2f93 9C000000 		.4byte	.LVL339
 20263 2f97 0600     		.2byte	0x6
 20264 2f99 F2       		.byte	0xf2
 20265 2f9a 49320000 		.4byte	.Ldebug_info0+12873
 20266 2f9e 00       		.sleb128 0
 20267 2f9f B8000000 		.4byte	.LVL342
 20268 2fa3 BE000000 		.4byte	.LVL344
 20269 2fa7 0600     		.2byte	0x6
 20270 2fa9 F2       		.byte	0xf2
 20271 2faa 49320000 		.4byte	.Ldebug_info0+12873
 20272 2fae 00       		.sleb128 0
 20273 2faf FE000000 		.4byte	.LVL352
 20274 2fb3 36010000 		.4byte	.LVL365
 20275 2fb7 0600     		.2byte	0x6
 20276 2fb9 F2       		.byte	0xf2
 20277 2fba 49320000 		.4byte	.Ldebug_info0+12873
 20278 2fbe 00       		.sleb128 0
 20279 2fbf C6010000 		.4byte	.LVL379
 20280 2fc3 F4010000 		.4byte	.LVL388
 20281 2fc7 0600     		.2byte	0x6
 20282 2fc9 F2       		.byte	0xf2
 20283 2fca 49320000 		.4byte	.Ldebug_info0+12873
 20284 2fce 00       		.sleb128 0
 20285 2fcf F8010000 		.4byte	.LVL389
 20286 2fd3 04020000 		.4byte	.LFE14
 20287 2fd7 0600     		.2byte	0x6
 20288 2fd9 F2       		.byte	0xf2
 20289 2fda 49320000 		.4byte	.Ldebug_info0+12873
 20290 2fde 00       		.sleb128 0
 20291 2fdf 00000000 		.4byte	0
 20292 2fe3 00000000 		.4byte	0
ARM GAS  C:\Users\mathi\AppData\Local\Temp\ccVwcWGw.s 			page 357


 20293              	.LLST116:
 20294 2fe7 2A000000 		.4byte	.LVL323
 20295 2feb 3C000000 		.4byte	.LVL326
 20296 2fef 0100     		.2byte	0x1
 20297 2ff1 5C       		.byte	0x5c
 20298 2ff2 FE000000 		.4byte	.LVL352
 20299 2ff6 0C010000 		.4byte	.LVL355
 20300 2ffa 0100     		.2byte	0x1
 20301 2ffc 5C       		.byte	0x5c
 20302 2ffd 00000000 		.4byte	0
 20303 3001 00000000 		.4byte	0
 20304              	.LLST117:
 20305 3005 2A000000 		.4byte	.LVL323
 20306 3009 3C000000 		.4byte	.LVL326
 20307 300d 0100     		.2byte	0x1
 20308 300f 56       		.byte	0x56
 20309 3010 FE000000 		.4byte	.LVL352
 20310 3014 0C010000 		.4byte	.LVL355
 20311 3018 0100     		.2byte	0x1
 20312 301a 56       		.byte	0x56
 20313 301b 00000000 		.4byte	0
 20314 301f 00000000 		.4byte	0
 20315              	.LLST118:
 20316 3023 2A000000 		.4byte	.LVL323
 20317 3027 3C000000 		.4byte	.LVL326
 20318 302b 0100     		.2byte	0x1
 20319 302d 52       		.byte	0x52
 20320 302e 3C000000 		.4byte	.LVL326
 20321 3032 9C000000 		.4byte	.LVL339
 20322 3036 0300     		.2byte	0x3
 20323 3038 91       		.byte	0x91
 20324 3039 AC7F     		.sleb128 -84
 20325 303b B8000000 		.4byte	.LVL342
 20326 303f BE000000 		.4byte	.LVL344
 20327 3043 0300     		.2byte	0x3
 20328 3045 91       		.byte	0x91
 20329 3046 AC7F     		.sleb128 -84
 20330 3048 0C010000 		.4byte	.LVL355
 20331 304c 36010000 		.4byte	.LVL365
 20332 3050 0300     		.2byte	0x3
 20333 3052 91       		.byte	0x91
 20334 3053 AC7F     		.sleb128 -84
 20335 3055 C6010000 		.4byte	.LVL379
 20336 3059 F4010000 		.4byte	.LVL388
 20337 305d 0300     		.2byte	0x3
 20338 305f 91       		.byte	0x91
 20339 3060 AC7F     		.sleb128 -84
 20340 3062 F8010000 		.4byte	.LVL389
 20341 3066 04020000 		.4byte	.LFE14
 20342 306a 0300     		.2byte	0x3
 20343 306c 91       		.byte	0x91
 20344 306d AC7F     		.sleb128 -84
 20345 306f 00000000 		.4byte	0
 20346 3073 00000000 		.4byte	0
 20347              	.LLST119:
 20348 3077 D8000000 		.4byte	.LVL345
 20349 307b F2000000 		.4byte	.LVL349
ARM GAS  C:\Users\mathi\AppData\Local\Temp\ccVwcWGw.s 			page 358


 20350 307f 0100     		.2byte	0x1
 20351 3081 52       		.byte	0x52
 20352 3082 00000000 		.4byte	0
 20353 3086 00000000 		.4byte	0
 20354              	.LLST120:
 20355 308a D8000000 		.4byte	.LVL345
 20356 308e F2000000 		.4byte	.LVL349
 20357 3092 0100     		.2byte	0x1
 20358 3094 56       		.byte	0x56
 20359 3095 00000000 		.4byte	0
 20360 3099 00000000 		.4byte	0
 20361              	.LLST121:
 20362 309d 3E010000 		.4byte	.LVL367
 20363 30a1 48010000 		.4byte	.LVL368
 20364 30a5 0100     		.2byte	0x1
 20365 30a7 58       		.byte	0x58
 20366 30a8 00000000 		.4byte	0
 20367 30ac 00000000 		.4byte	0
 20368              	.LLST122:
 20369 30b0 3E010000 		.4byte	.LVL367
 20370 30b4 48010000 		.4byte	.LVL368
 20371 30b8 0200     		.2byte	0x2
 20372 30ba 91       		.byte	0x91
 20373 30bb 44       		.sleb128 -60
 20374 30bc 00000000 		.4byte	0
 20375 30c0 00000000 		.4byte	0
 20376              	.LLST123:
 20377 30c4 4C010000 		.4byte	.LVL369
 20378 30c8 52010000 		.4byte	.LVL371
 20379 30cc 0300     		.2byte	0x3
 20380 30ce 91       		.byte	0x91
 20381 30cf 4C       		.sleb128 -52
 20382 30d0 9F       		.byte	0x9f
 20383 30d1 52010000 		.4byte	.LVL371
 20384 30d5 57010000 		.4byte	.LVL372-1
 20385 30d9 0100     		.2byte	0x1
 20386 30db 52       		.byte	0x52
 20387 30dc 57010000 		.4byte	.LVL372-1
 20388 30e0 58010000 		.4byte	.LVL372
 20389 30e4 0300     		.2byte	0x3
 20390 30e6 91       		.byte	0x91
 20391 30e7 4C       		.sleb128 -52
 20392 30e8 9F       		.byte	0x9f
 20393 30e9 00000000 		.4byte	0
 20394 30ed 00000000 		.4byte	0
 20395              	.LLST124:
 20396 30f1 4C010000 		.4byte	.LVL369
 20397 30f5 58010000 		.4byte	.LVL372
 20398 30f9 0200     		.2byte	0x2
 20399 30fb 91       		.byte	0x91
 20400 30fc 44       		.sleb128 -60
 20401 30fd 00000000 		.4byte	0
 20402 3101 00000000 		.4byte	0
 20403              	.LLST125:
 20404 3105 00000000 		.4byte	.LVL390
 20405 3109 19000000 		.4byte	.LVL393-1
 20406 310d 0100     		.2byte	0x1
ARM GAS  C:\Users\mathi\AppData\Local\Temp\ccVwcWGw.s 			page 359


 20407 310f 50       		.byte	0x50
 20408 3110 19000000 		.4byte	.LVL393-1
 20409 3114 7C000000 		.4byte	.LFE15
 20410 3118 0100     		.2byte	0x1
 20411 311a 54       		.byte	0x54
 20412 311b 00000000 		.4byte	0
 20413 311f 00000000 		.4byte	0
 20414              	.LLST126:
 20415 3123 00000000 		.4byte	.LVL390
 20416 3127 12000000 		.4byte	.LVL391
 20417 312b 0100     		.2byte	0x1
 20418 312d 51       		.byte	0x51
 20419 312e 12000000 		.4byte	.LVL391
 20420 3132 7C000000 		.4byte	.LFE15
 20421 3136 0100     		.2byte	0x1
 20422 3138 57       		.byte	0x57
 20423 3139 00000000 		.4byte	0
 20424 313d 00000000 		.4byte	0
 20425              	.LLST127:
 20426 3141 16000000 		.4byte	.LVL392
 20427 3145 1A000000 		.4byte	.LVL393
 20428 3149 0200     		.2byte	0x2
 20429 314b 30       		.byte	0x30
 20430 314c 9F       		.byte	0x9f
 20431 314d 1A000000 		.4byte	.LVL393
 20432 3151 2C000000 		.4byte	.LVL395
 20433 3155 0100     		.2byte	0x1
 20434 3157 50       		.byte	0x50
 20435 3158 30000000 		.4byte	.LVL396
 20436 315c 3A000000 		.4byte	.LVL397
 20437 3160 0100     		.2byte	0x1
 20438 3162 50       		.byte	0x50
 20439 3163 3E000000 		.4byte	.LVL398
 20440 3167 48000000 		.4byte	.LVL399
 20441 316b 0100     		.2byte	0x1
 20442 316d 50       		.byte	0x50
 20443 316e 4C000000 		.4byte	.LVL400
 20444 3172 56000000 		.4byte	.LVL401
 20445 3176 0100     		.2byte	0x1
 20446 3178 50       		.byte	0x50
 20447 3179 5A000000 		.4byte	.LVL402
 20448 317d 64000000 		.4byte	.LVL403
 20449 3181 0100     		.2byte	0x1
 20450 3183 50       		.byte	0x50
 20451 3184 68000000 		.4byte	.LVL404
 20452 3188 75000000 		.4byte	.LVL405-1
 20453 318c 0100     		.2byte	0x1
 20454 318e 50       		.byte	0x50
 20455 318f 00000000 		.4byte	0
 20456 3193 00000000 		.4byte	0
 20457              	.LLST146:
 20458 3197 00000000 		.4byte	.LVL551
 20459 319b 15000000 		.4byte	.LVL554-1
 20460 319f 0100     		.2byte	0x1
 20461 31a1 50       		.byte	0x50
 20462 31a2 15000000 		.4byte	.LVL554-1
 20463 31a6 54000000 		.4byte	.LVL563
ARM GAS  C:\Users\mathi\AppData\Local\Temp\ccVwcWGw.s 			page 360


 20464 31aa 0100     		.2byte	0x1
 20465 31ac 55       		.byte	0x55
 20466 31ad 54000000 		.4byte	.LVL563
 20467 31b1 57000000 		.4byte	.LVL564-1
 20468 31b5 0100     		.2byte	0x1
 20469 31b7 50       		.byte	0x50
 20470 31b8 57000000 		.4byte	.LVL564-1
 20471 31bc 58000000 		.4byte	.LVL564
 20472 31c0 0400     		.2byte	0x4
 20473 31c2 F3       		.byte	0xf3
 20474 31c3 01       		.uleb128 0x1
 20475 31c4 50       		.byte	0x50
 20476 31c5 9F       		.byte	0x9f
 20477 31c6 58000000 		.4byte	.LVL564
 20478 31ca 60000000 		.4byte	.LFE19
 20479 31ce 0100     		.2byte	0x1
 20480 31d0 55       		.byte	0x55
 20481 31d1 00000000 		.4byte	0
 20482 31d5 00000000 		.4byte	0
 20483              	.LLST147:
 20484 31d9 00000000 		.4byte	.LVL551
 20485 31dd 10000000 		.4byte	.LVL552
 20486 31e1 0100     		.2byte	0x1
 20487 31e3 51       		.byte	0x51
 20488 31e4 10000000 		.4byte	.LVL552
 20489 31e8 60000000 		.4byte	.LFE19
 20490 31ec 0400     		.2byte	0x4
 20491 31ee F3       		.byte	0xf3
 20492 31ef 01       		.uleb128 0x1
 20493 31f0 51       		.byte	0x51
 20494 31f1 9F       		.byte	0x9f
 20495 31f2 00000000 		.4byte	0
 20496 31f6 00000000 		.4byte	0
 20497              	.LLST148:
 20498 31fa 12000000 		.4byte	.LVL553
 20499 31fe 16000000 		.4byte	.LVL554
 20500 3202 0200     		.2byte	0x2
 20501 3204 30       		.byte	0x30
 20502 3205 9F       		.byte	0x9f
 20503 3206 16000000 		.4byte	.LVL554
 20504 320a 1A000000 		.4byte	.LVL555
 20505 320e 0100     		.2byte	0x1
 20506 3210 50       		.byte	0x50
 20507 3211 1A000000 		.4byte	.LVL555
 20508 3215 28000000 		.4byte	.LVL556
 20509 3219 0100     		.2byte	0x1
 20510 321b 52       		.byte	0x52
 20511 321c 28000000 		.4byte	.LVL556
 20512 3220 2A000000 		.4byte	.LVL557
 20513 3224 0100     		.2byte	0x1
 20514 3226 50       		.byte	0x50
 20515 3227 2E000000 		.4byte	.LVL558
 20516 322b 38000000 		.4byte	.LVL559
 20517 322f 0100     		.2byte	0x1
 20518 3231 50       		.byte	0x50
 20519 3232 3C000000 		.4byte	.LVL560
 20520 3236 4C000000 		.4byte	.LVL562
ARM GAS  C:\Users\mathi\AppData\Local\Temp\ccVwcWGw.s 			page 361


 20521 323a 0100     		.2byte	0x1
 20522 323c 50       		.byte	0x50
 20523 323d 00000000 		.4byte	0
 20524 3241 00000000 		.4byte	0
 20525              	.LLST149:
 20526 3245 42000000 		.4byte	.LVL561
 20527 3249 54000000 		.4byte	.LVL563
 20528 324d 0100     		.2byte	0x1
 20529 324f 55       		.byte	0x55
 20530 3250 54000000 		.4byte	.LVL563
 20531 3254 57000000 		.4byte	.LVL564-1
 20532 3258 0100     		.2byte	0x1
 20533 325a 50       		.byte	0x50
 20534 325b 57000000 		.4byte	.LVL564-1
 20535 325f 58000000 		.4byte	.LVL564
 20536 3263 0400     		.2byte	0x4
 20537 3265 F3       		.byte	0xf3
 20538 3266 01       		.uleb128 0x1
 20539 3267 50       		.byte	0x50
 20540 3268 9F       		.byte	0x9f
 20541 3269 00000000 		.4byte	0
 20542 326d 00000000 		.4byte	0
 20543              	.LLST150:
 20544 3271 00000000 		.4byte	.LVL566
 20545 3275 31000000 		.4byte	.LVL570-1
 20546 3279 0100     		.2byte	0x1
 20547 327b 50       		.byte	0x50
 20548 327c 31000000 		.4byte	.LVL570-1
 20549 3280 08010000 		.4byte	.LFE20
 20550 3284 0100     		.2byte	0x1
 20551 3286 55       		.byte	0x55
 20552 3287 00000000 		.4byte	0
 20553 328b 00000000 		.4byte	0
 20554              	.LLST151:
 20555 328f 00000000 		.4byte	.LVL566
 20556 3293 18000000 		.4byte	.LVL568
 20557 3297 0100     		.2byte	0x1
 20558 3299 51       		.byte	0x51
 20559 329a 18000000 		.4byte	.LVL568
 20560 329e 08010000 		.4byte	.LFE20
 20561 32a2 0400     		.2byte	0x4
 20562 32a4 F3       		.byte	0xf3
 20563 32a5 01       		.uleb128 0x1
 20564 32a6 51       		.byte	0x51
 20565 32a7 9F       		.byte	0x9f
 20566 32a8 00000000 		.4byte	0
 20567 32ac 00000000 		.4byte	0
 20568              	.LLST152:
 20569 32b0 00000000 		.4byte	.LVL566
 20570 32b4 16000000 		.4byte	.LVL567
 20571 32b8 0100     		.2byte	0x1
 20572 32ba 52       		.byte	0x52
 20573 32bb 16000000 		.4byte	.LVL567
 20574 32bf 08010000 		.4byte	.LFE20
 20575 32c3 0400     		.2byte	0x4
 20576 32c5 F3       		.byte	0xf3
 20577 32c6 01       		.uleb128 0x1
ARM GAS  C:\Users\mathi\AppData\Local\Temp\ccVwcWGw.s 			page 362


 20578 32c7 52       		.byte	0x52
 20579 32c8 9F       		.byte	0x9f
 20580 32c9 00000000 		.4byte	0
 20581 32cd 00000000 		.4byte	0
 20582              	.LLST153:
 20583 32d1 00000000 		.4byte	.LVL566
 20584 32d5 31000000 		.4byte	.LVL570-1
 20585 32d9 0100     		.2byte	0x1
 20586 32db 53       		.byte	0x53
 20587 32dc 31000000 		.4byte	.LVL570-1
 20588 32e0 08010000 		.4byte	.LFE20
 20589 32e4 0400     		.2byte	0x4
 20590 32e6 F3       		.byte	0xf3
 20591 32e7 01       		.uleb128 0x1
 20592 32e8 53       		.byte	0x53
 20593 32e9 9F       		.byte	0x9f
 20594 32ea 00000000 		.4byte	0
 20595 32ee 00000000 		.4byte	0
 20596              	.LLST154:
 20597 32f2 00000000 		.4byte	.LVL566
 20598 32f6 A6000000 		.4byte	.LVL586
 20599 32fa 0200     		.2byte	0x2
 20600 32fc 91       		.byte	0x91
 20601 32fd 00       		.sleb128 0
 20602 32fe A6000000 		.4byte	.LVL586
 20603 3302 08010000 		.4byte	.LFE20
 20604 3306 0200     		.2byte	0x2
 20605 3308 91       		.byte	0x91
 20606 3309 00       		.sleb128 0
 20607 330a 00000000 		.4byte	0
 20608 330e 00000000 		.4byte	0
 20609              	.LLST155:
 20610 3312 00000000 		.4byte	.LVL566
 20611 3316 A6000000 		.4byte	.LVL586
 20612 331a 0200     		.2byte	0x2
 20613 331c 91       		.byte	0x91
 20614 331d 04       		.sleb128 4
 20615 331e A6000000 		.4byte	.LVL586
 20616 3322 08010000 		.4byte	.LFE20
 20617 3326 0200     		.2byte	0x2
 20618 3328 91       		.byte	0x91
 20619 3329 04       		.sleb128 4
 20620 332a 00000000 		.4byte	0
 20621 332e 00000000 		.4byte	0
 20622              	.LLST156:
 20623 3332 00000000 		.4byte	.LVL566
 20624 3336 A6000000 		.4byte	.LVL586
 20625 333a 0200     		.2byte	0x2
 20626 333c 91       		.byte	0x91
 20627 333d 08       		.sleb128 8
 20628 333e A6000000 		.4byte	.LVL586
 20629 3342 08010000 		.4byte	.LFE20
 20630 3346 0200     		.2byte	0x2
 20631 3348 91       		.byte	0x91
 20632 3349 08       		.sleb128 8
 20633 334a 00000000 		.4byte	0
 20634 334e 00000000 		.4byte	0
ARM GAS  C:\Users\mathi\AppData\Local\Temp\ccVwcWGw.s 			page 363


 20635              	.LLST157:
 20636 3352 00000000 		.4byte	.LVL566
 20637 3356 A6000000 		.4byte	.LVL586
 20638 335a 0200     		.2byte	0x2
 20639 335c 91       		.byte	0x91
 20640 335d 0C       		.sleb128 12
 20641 335e A6000000 		.4byte	.LVL586
 20642 3362 08010000 		.4byte	.LFE20
 20643 3366 0200     		.2byte	0x2
 20644 3368 91       		.byte	0x91
 20645 3369 0C       		.sleb128 12
 20646 336a 00000000 		.4byte	0
 20647 336e 00000000 		.4byte	0
 20648              	.LLST158:
 20649 3372 1E000000 		.4byte	.LVL569
 20650 3376 36000000 		.4byte	.LVL571
 20651 337a 0200     		.2byte	0x2
 20652 337c 30       		.byte	0x30
 20653 337d 9F       		.byte	0x9f
 20654 337e 36000000 		.4byte	.LVL571
 20655 3382 42000000 		.4byte	.LVL573
 20656 3386 0100     		.2byte	0x1
 20657 3388 54       		.byte	0x54
 20658 3389 4C000000 		.4byte	.LVL575
 20659 338d 4E000000 		.4byte	.LVL576
 20660 3391 0100     		.2byte	0x1
 20661 3393 54       		.byte	0x54
 20662 3394 50000000 		.4byte	.LVL577
 20663 3398 70000000 		.4byte	.LVL579
 20664 339c 0100     		.2byte	0x1
 20665 339e 54       		.byte	0x54
 20666 339f 7A000000 		.4byte	.LVL581
 20667 33a3 7E000000 		.4byte	.LVL582
 20668 33a7 0100     		.2byte	0x1
 20669 33a9 54       		.byte	0x54
 20670 33aa 98000000 		.4byte	.LVL584
 20671 33ae 9A000000 		.4byte	.LVL585
 20672 33b2 0600     		.2byte	0x6
 20673 33b4 70       		.byte	0x70
 20674 33b5 00       		.sleb128 0
 20675 33b6 74       		.byte	0x74
 20676 33b7 00       		.sleb128 0
 20677 33b8 21       		.byte	0x21
 20678 33b9 9F       		.byte	0x9f
 20679 33ba A6000000 		.4byte	.LVL586
 20680 33be C0000000 		.4byte	.LVL588
 20681 33c2 0100     		.2byte	0x1
 20682 33c4 54       		.byte	0x54
 20683 33c5 C2000000 		.4byte	.LVL589
 20684 33c9 D0000000 		.4byte	.LVL591
 20685 33cd 0100     		.2byte	0x1
 20686 33cf 54       		.byte	0x54
 20687 33d0 D2000000 		.4byte	.LVL592
 20688 33d4 E6000000 		.4byte	.LVL594
 20689 33d8 0100     		.2byte	0x1
 20690 33da 54       		.byte	0x54
 20691 33db E8000000 		.4byte	.LVL595
ARM GAS  C:\Users\mathi\AppData\Local\Temp\ccVwcWGw.s 			page 364


 20692 33df F6000000 		.4byte	.LVL597
 20693 33e3 0100     		.2byte	0x1
 20694 33e5 54       		.byte	0x54
 20695 33e6 F8000000 		.4byte	.LVL598
 20696 33ea 00010000 		.4byte	.LVL599
 20697 33ee 0100     		.2byte	0x1
 20698 33f0 54       		.byte	0x54
 20699 33f1 00000000 		.4byte	0
 20700 33f5 00000000 		.4byte	0
 20701              	.LLST159:
 20702 33f9 00000000 		.4byte	.LVL601
 20703 33fd 23000000 		.4byte	.LVL606-1
 20704 3401 0100     		.2byte	0x1
 20705 3403 50       		.byte	0x50
 20706 3404 23000000 		.4byte	.LVL606-1
 20707 3408 3E000000 		.4byte	.LVL609
 20708 340c 0100     		.2byte	0x1
 20709 340e 55       		.byte	0x55
 20710 340f 3E000000 		.4byte	.LVL609
 20711 3413 44000000 		.4byte	.LVL612
 20712 3417 0100     		.2byte	0x1
 20713 3419 50       		.byte	0x50
 20714 341a 44000000 		.4byte	.LVL612
 20715 341e 34010000 		.4byte	.LFE21
 20716 3422 0100     		.2byte	0x1
 20717 3424 55       		.byte	0x55
 20718 3425 00000000 		.4byte	0
 20719 3429 00000000 		.4byte	0
 20720              	.LLST160:
 20721 342d 00000000 		.4byte	.LVL601
 20722 3431 1E000000 		.4byte	.LVL605
 20723 3435 0100     		.2byte	0x1
 20724 3437 51       		.byte	0x51
 20725 3438 1E000000 		.4byte	.LVL605
 20726 343c 3E000000 		.4byte	.LVL609
 20727 3440 0100     		.2byte	0x1
 20728 3442 5B       		.byte	0x5b
 20729 3443 3E000000 		.4byte	.LVL609
 20730 3447 42000000 		.4byte	.LVL611
 20731 344b 0100     		.2byte	0x1
 20732 344d 51       		.byte	0x51
 20733 344e 42000000 		.4byte	.LVL611
 20734 3452 34010000 		.4byte	.LFE21
 20735 3456 0100     		.2byte	0x1
 20736 3458 5B       		.byte	0x5b
 20737 3459 00000000 		.4byte	0
 20738 345d 00000000 		.4byte	0
 20739              	.LLST161:
 20740 3461 00000000 		.4byte	.LVL601
 20741 3465 18000000 		.4byte	.LVL603
 20742 3469 0100     		.2byte	0x1
 20743 346b 52       		.byte	0x52
 20744 346c 18000000 		.4byte	.LVL603
 20745 3470 3E000000 		.4byte	.LVL609
 20746 3474 0400     		.2byte	0x4
 20747 3476 F3       		.byte	0xf3
 20748 3477 01       		.uleb128 0x1
ARM GAS  C:\Users\mathi\AppData\Local\Temp\ccVwcWGw.s 			page 365


 20749 3478 52       		.byte	0x52
 20750 3479 9F       		.byte	0x9f
 20751 347a 3E000000 		.4byte	.LVL609
 20752 347e 40000000 		.4byte	.LVL610
 20753 3482 0100     		.2byte	0x1
 20754 3484 52       		.byte	0x52
 20755 3485 40000000 		.4byte	.LVL610
 20756 3489 34010000 		.4byte	.LFE21
 20757 348d 0400     		.2byte	0x4
 20758 348f F3       		.byte	0xf3
 20759 3490 01       		.uleb128 0x1
 20760 3491 52       		.byte	0x52
 20761 3492 9F       		.byte	0x9f
 20762 3493 00000000 		.4byte	0
 20763 3497 00000000 		.4byte	0
 20764              	.LLST162:
 20765 349b 00000000 		.4byte	.LVL601
 20766 349f 23000000 		.4byte	.LVL606-1
 20767 34a3 0100     		.2byte	0x1
 20768 34a5 53       		.byte	0x53
 20769 34a6 23000000 		.4byte	.LVL606-1
 20770 34aa 3E000000 		.4byte	.LVL609
 20771 34ae 0400     		.2byte	0x4
 20772 34b0 F3       		.byte	0xf3
 20773 34b1 01       		.uleb128 0x1
 20774 34b2 53       		.byte	0x53
 20775 34b3 9F       		.byte	0x9f
 20776 34b4 3E000000 		.4byte	.LVL609
 20777 34b8 49000000 		.4byte	.LVL614-1
 20778 34bc 0100     		.2byte	0x1
 20779 34be 53       		.byte	0x53
 20780 34bf 49000000 		.4byte	.LVL614-1
 20781 34c3 34010000 		.4byte	.LFE21
 20782 34c7 0400     		.2byte	0x4
 20783 34c9 F3       		.byte	0xf3
 20784 34ca 01       		.uleb128 0x1
 20785 34cb 53       		.byte	0x53
 20786 34cc 9F       		.byte	0x9f
 20787 34cd 00000000 		.4byte	0
 20788 34d1 00000000 		.4byte	0
 20789              	.LLST163:
 20790 34d5 0C000000 		.4byte	.LVL602
 20791 34d9 24000000 		.4byte	.LVL606
 20792 34dd 0200     		.2byte	0x2
 20793 34df 30       		.byte	0x30
 20794 34e0 9F       		.byte	0x9f
 20795 34e1 24000000 		.4byte	.LVL606
 20796 34e5 28000000 		.4byte	.LVL607
 20797 34e9 0100     		.2byte	0x1
 20798 34eb 50       		.byte	0x50
 20799 34ec 2E000000 		.4byte	.LVL608
 20800 34f0 3E000000 		.4byte	.LVL609
 20801 34f4 0100     		.2byte	0x1
 20802 34f6 54       		.byte	0x54
 20803 34f7 3E000000 		.4byte	.LVL609
 20804 34fb 4A000000 		.4byte	.LVL614
 20805 34ff 0200     		.2byte	0x2
ARM GAS  C:\Users\mathi\AppData\Local\Temp\ccVwcWGw.s 			page 366


 20806 3501 30       		.byte	0x30
 20807 3502 9F       		.byte	0x9f
 20808 3503 4A000000 		.4byte	.LVL614
 20809 3507 56000000 		.4byte	.LVL616
 20810 350b 0100     		.2byte	0x1
 20811 350d 50       		.byte	0x50
 20812 350e 84000000 		.4byte	.LVL624
 20813 3512 94000000 		.4byte	.LVL625
 20814 3516 0100     		.2byte	0x1
 20815 3518 50       		.byte	0x50
 20816 3519 A2000000 		.4byte	.LVL626
 20817 351d B4000000 		.4byte	.LVL628
 20818 3521 0100     		.2byte	0x1
 20819 3523 50       		.byte	0x50
 20820 3524 24010000 		.4byte	.LVL647
 20821 3528 2C010000 		.4byte	.LVL648
 20822 352c 0100     		.2byte	0x1
 20823 352e 50       		.byte	0x50
 20824 352f 2C010000 		.4byte	.LVL648
 20825 3533 34010000 		.4byte	.LFE21
 20826 3537 0100     		.2byte	0x1
 20827 3539 54       		.byte	0x54
 20828 353a 00000000 		.4byte	0
 20829 353e 00000000 		.4byte	0
 20830              	.LLST164:
 20831 3542 0C000000 		.4byte	.LVL602
 20832 3546 1C000000 		.4byte	.LVL604
 20833 354a 0200     		.2byte	0x2
 20834 354c 30       		.byte	0x30
 20835 354d 9F       		.byte	0x9f
 20836 354e 1C000000 		.4byte	.LVL604
 20837 3552 3E000000 		.4byte	.LVL609
 20838 3556 0100     		.2byte	0x1
 20839 3558 59       		.byte	0x59
 20840 3559 3E000000 		.4byte	.LVL609
 20841 355d 46000000 		.4byte	.LVL613
 20842 3561 0200     		.2byte	0x2
 20843 3563 30       		.byte	0x30
 20844 3564 9F       		.byte	0x9f
 20845 3565 46000000 		.4byte	.LVL613
 20846 3569 34010000 		.4byte	.LFE21
 20847 356d 0100     		.2byte	0x1
 20848 356f 59       		.byte	0x59
 20849 3570 00000000 		.4byte	0
 20850 3574 00000000 		.4byte	0
 20851              	.LLST165:
 20852 3578 0C000000 		.4byte	.LVL602
 20853 357c 2E000000 		.4byte	.LVL608
 20854 3580 0200     		.2byte	0x2
 20855 3582 30       		.byte	0x30
 20856 3583 9F       		.byte	0x9f
 20857 3584 3E000000 		.4byte	.LVL609
 20858 3588 2C010000 		.4byte	.LVL648
 20859 358c 0200     		.2byte	0x2
 20860 358e 30       		.byte	0x30
 20861 358f 9F       		.byte	0x9f
 20862 3590 00000000 		.4byte	0
ARM GAS  C:\Users\mathi\AppData\Local\Temp\ccVwcWGw.s 			page 367


 20863 3594 00000000 		.4byte	0
 20864              	.LLST166:
 20865 3598 50000000 		.4byte	.LVL615
 20866 359c 2C010000 		.4byte	.LVL648
 20867 35a0 0300     		.2byte	0x3
 20868 35a2 08       		.byte	0x8
 20869 35a3 40       		.byte	0x40
 20870 35a4 9F       		.byte	0x9f
 20871 35a5 00000000 		.4byte	0
 20872 35a9 00000000 		.4byte	0
 20873              	.LLST167:
 20874 35ad 50000000 		.4byte	.LVL615
 20875 35b1 2C010000 		.4byte	.LVL648
 20876 35b5 0100     		.2byte	0x1
 20877 35b7 55       		.byte	0x55
 20878 35b8 00000000 		.4byte	0
 20879 35bc 00000000 		.4byte	0
 20880              	.LLST168:
 20881 35c0 7A000000 		.4byte	.LVL622
 20882 35c4 84000000 		.4byte	.LVL624
 20883 35c8 0300     		.2byte	0x3
 20884 35ca 08       		.byte	0x8
 20885 35cb 40       		.byte	0x40
 20886 35cc 9F       		.byte	0x9f
 20887 35cd 00000000 		.4byte	0
 20888 35d1 00000000 		.4byte	0
 20889              	.LLST169:
 20890 35d5 7A000000 		.4byte	.LVL622
 20891 35d9 84000000 		.4byte	.LVL624
 20892 35dd 0100     		.2byte	0x1
 20893 35df 55       		.byte	0x55
 20894 35e0 00000000 		.4byte	0
 20895 35e4 00000000 		.4byte	0
 20896              	.LLST170:
 20897 35e8 AE000000 		.4byte	.LVL627
 20898 35ec 24010000 		.4byte	.LVL647
 20899 35f0 0200     		.2byte	0x2
 20900 35f2 30       		.byte	0x30
 20901 35f3 9F       		.byte	0x9f
 20902 35f4 00000000 		.4byte	0
 20903 35f8 00000000 		.4byte	0
 20904              	.LLST171:
 20905 35fc AE000000 		.4byte	.LVL627
 20906 3600 24010000 		.4byte	.LVL647
 20907 3604 0200     		.2byte	0x2
 20908 3606 31       		.byte	0x31
 20909 3607 9F       		.byte	0x9f
 20910 3608 00000000 		.4byte	0
 20911 360c 00000000 		.4byte	0
 20912              	.LLST172:
 20913 3610 AE000000 		.4byte	.LVL627
 20914 3614 24010000 		.4byte	.LVL647
 20915 3618 0600     		.2byte	0x6
 20916 361a F2       		.byte	0xf2
 20917 361b B0370000 		.4byte	.Ldebug_info0+14256
 20918 361f 00       		.sleb128 0
 20919 3620 00000000 		.4byte	0
ARM GAS  C:\Users\mathi\AppData\Local\Temp\ccVwcWGw.s 			page 368


 20920 3624 00000000 		.4byte	0
 20921              	.LLST173:
 20922 3628 AE000000 		.4byte	.LVL627
 20923 362c 24010000 		.4byte	.LVL647
 20924 3630 0100     		.2byte	0x1
 20925 3632 5B       		.byte	0x5b
 20926 3633 00000000 		.4byte	0
 20927 3637 00000000 		.4byte	0
 20928              	.LLST177:
 20929 363b AE000000 		.4byte	.LVL627
 20930 363f 24010000 		.4byte	.LVL647
 20931 3643 0100     		.2byte	0x1
 20932 3645 55       		.byte	0x55
 20933 3646 00000000 		.4byte	0
 20934 364a 00000000 		.4byte	0
 20935              	.LLST178:
 20936 364e 00000000 		.4byte	.LVL650
 20937 3652 20000000 		.4byte	.LVL655
 20938 3656 0100     		.2byte	0x1
 20939 3658 50       		.byte	0x50
 20940 3659 20000000 		.4byte	.LVL655
 20941 365d 3E000000 		.4byte	.LVL659
 20942 3661 0100     		.2byte	0x1
 20943 3663 55       		.byte	0x55
 20944 3664 3E000000 		.4byte	.LVL659
 20945 3668 42000000 		.4byte	.LVL660
 20946 366c 0100     		.2byte	0x1
 20947 366e 50       		.byte	0x50
 20948 366f 42000000 		.4byte	.LVL660
 20949 3673 40010000 		.4byte	.LFE22
 20950 3677 0100     		.2byte	0x1
 20951 3679 55       		.byte	0x55
 20952 367a 00000000 		.4byte	0
 20953 367e 00000000 		.4byte	0
 20954              	.LLST179:
 20955 3682 00000000 		.4byte	.LVL650
 20956 3686 1E000000 		.4byte	.LVL654
 20957 368a 0100     		.2byte	0x1
 20958 368c 51       		.byte	0x51
 20959 368d 1E000000 		.4byte	.LVL654
 20960 3691 3E000000 		.4byte	.LVL659
 20961 3695 0100     		.2byte	0x1
 20962 3697 59       		.byte	0x59
 20963 3698 3E000000 		.4byte	.LVL659
 20964 369c 42000000 		.4byte	.LVL660
 20965 36a0 0100     		.2byte	0x1
 20966 36a2 51       		.byte	0x51
 20967 36a3 42000000 		.4byte	.LVL660
 20968 36a7 40010000 		.4byte	.LFE22
 20969 36ab 0100     		.2byte	0x1
 20970 36ad 59       		.byte	0x59
 20971 36ae 00000000 		.4byte	0
 20972 36b2 00000000 		.4byte	0
 20973              	.LLST180:
 20974 36b6 00000000 		.4byte	.LVL650
 20975 36ba 1C000000 		.4byte	.LVL653
 20976 36be 0100     		.2byte	0x1
ARM GAS  C:\Users\mathi\AppData\Local\Temp\ccVwcWGw.s 			page 369


 20977 36c0 52       		.byte	0x52
 20978 36c1 1C000000 		.4byte	.LVL653
 20979 36c5 3E000000 		.4byte	.LVL659
 20980 36c9 0400     		.2byte	0x4
 20981 36cb F3       		.byte	0xf3
 20982 36cc 01       		.uleb128 0x1
 20983 36cd 52       		.byte	0x52
 20984 36ce 9F       		.byte	0x9f
 20985 36cf 3E000000 		.4byte	.LVL659
 20986 36d3 42000000 		.4byte	.LVL660
 20987 36d7 0100     		.2byte	0x1
 20988 36d9 52       		.byte	0x52
 20989 36da 42000000 		.4byte	.LVL660
 20990 36de 40010000 		.4byte	.LFE22
 20991 36e2 0400     		.2byte	0x4
 20992 36e4 F3       		.byte	0xf3
 20993 36e5 01       		.uleb128 0x1
 20994 36e6 52       		.byte	0x52
 20995 36e7 9F       		.byte	0x9f
 20996 36e8 00000000 		.4byte	0
 20997 36ec 00000000 		.4byte	0
 20998              	.LLST181:
 20999 36f0 00000000 		.4byte	.LVL650
 21000 36f4 23000000 		.4byte	.LVL656-1
 21001 36f8 0100     		.2byte	0x1
 21002 36fa 53       		.byte	0x53
 21003 36fb 23000000 		.4byte	.LVL656-1
 21004 36ff 3E000000 		.4byte	.LVL659
 21005 3703 0400     		.2byte	0x4
 21006 3705 F3       		.byte	0xf3
 21007 3706 01       		.uleb128 0x1
 21008 3707 53       		.byte	0x53
 21009 3708 9F       		.byte	0x9f
 21010 3709 3E000000 		.4byte	.LVL659
 21011 370d 42000000 		.4byte	.LVL660
 21012 3711 0100     		.2byte	0x1
 21013 3713 53       		.byte	0x53
 21014 3714 42000000 		.4byte	.LVL660
 21015 3718 40010000 		.4byte	.LFE22
 21016 371c 0400     		.2byte	0x4
 21017 371e F3       		.byte	0xf3
 21018 371f 01       		.uleb128 0x1
 21019 3720 53       		.byte	0x53
 21020 3721 9F       		.byte	0x9f
 21021 3722 00000000 		.4byte	0
 21022 3726 00000000 		.4byte	0
 21023              	.LLST182:
 21024 372a 0C000000 		.4byte	.LVL651
 21025 372e 24000000 		.4byte	.LVL656
 21026 3732 0200     		.2byte	0x2
 21027 3734 30       		.byte	0x30
 21028 3735 9F       		.byte	0x9f
 21029 3736 24000000 		.4byte	.LVL656
 21030 373a 28000000 		.4byte	.LVL657
 21031 373e 0100     		.2byte	0x1
 21032 3740 50       		.byte	0x50
 21033 3741 2E000000 		.4byte	.LVL658
ARM GAS  C:\Users\mathi\AppData\Local\Temp\ccVwcWGw.s 			page 370


 21034 3745 3E000000 		.4byte	.LVL659
 21035 3749 0100     		.2byte	0x1
 21036 374b 54       		.byte	0x54
 21037 374c 3E000000 		.4byte	.LVL659
 21038 3750 42000000 		.4byte	.LVL660
 21039 3754 0200     		.2byte	0x2
 21040 3756 30       		.byte	0x30
 21041 3757 9F       		.byte	0x9f
 21042 3758 42000000 		.4byte	.LVL660
 21043 375c 48000000 		.4byte	.LVL661
 21044 3760 0100     		.2byte	0x1
 21045 3762 50       		.byte	0x50
 21046 3763 76000000 		.4byte	.LVL669
 21047 3767 86000000 		.4byte	.LVL670
 21048 376b 0100     		.2byte	0x1
 21049 376d 50       		.byte	0x50
 21050 376e 94000000 		.4byte	.LVL671
 21051 3772 AC000000 		.4byte	.LVL673
 21052 3776 0100     		.2byte	0x1
 21053 3778 50       		.byte	0x50
 21054 3779 2E010000 		.4byte	.LVL693
 21055 377d 36010000 		.4byte	.LVL694
 21056 3781 0100     		.2byte	0x1
 21057 3783 50       		.byte	0x50
 21058 3784 36010000 		.4byte	.LVL694
 21059 3788 40010000 		.4byte	.LFE22
 21060 378c 0100     		.2byte	0x1
 21061 378e 54       		.byte	0x54
 21062 378f 00000000 		.4byte	0
 21063 3793 00000000 		.4byte	0
 21064              	.LLST183:
 21065 3797 0C000000 		.4byte	.LVL651
 21066 379b 1A000000 		.4byte	.LVL652
 21067 379f 0200     		.2byte	0x2
 21068 37a1 30       		.byte	0x30
 21069 37a2 9F       		.byte	0x9f
 21070 37a3 1A000000 		.4byte	.LVL652
 21071 37a7 3E000000 		.4byte	.LVL659
 21072 37ab 0100     		.2byte	0x1
 21073 37ad 5A       		.byte	0x5a
 21074 37ae 3E000000 		.4byte	.LVL659
 21075 37b2 42000000 		.4byte	.LVL660
 21076 37b6 0200     		.2byte	0x2
 21077 37b8 30       		.byte	0x30
 21078 37b9 9F       		.byte	0x9f
 21079 37ba 42000000 		.4byte	.LVL660
 21080 37be 40010000 		.4byte	.LFE22
 21081 37c2 0100     		.2byte	0x1
 21082 37c4 5A       		.byte	0x5a
 21083 37c5 00000000 		.4byte	0
 21084 37c9 00000000 		.4byte	0
 21085              	.LLST184:
 21086 37cd 42000000 		.4byte	.LVL660
 21087 37d1 36010000 		.4byte	.LVL694
 21088 37d5 0200     		.2byte	0x2
 21089 37d7 30       		.byte	0x30
 21090 37d8 9F       		.byte	0x9f
ARM GAS  C:\Users\mathi\AppData\Local\Temp\ccVwcWGw.s 			page 371


 21091 37d9 00000000 		.4byte	0
 21092 37dd 00000000 		.4byte	0
 21093              	.LLST185:
 21094 37e1 42000000 		.4byte	.LVL660
 21095 37e5 36010000 		.4byte	.LVL694
 21096 37e9 0100     		.2byte	0x1
 21097 37eb 55       		.byte	0x55
 21098 37ec 00000000 		.4byte	0
 21099 37f0 00000000 		.4byte	0
 21100              	.LLST186:
 21101 37f4 6C000000 		.4byte	.LVL667
 21102 37f8 76000000 		.4byte	.LVL669
 21103 37fc 0200     		.2byte	0x2
 21104 37fe 30       		.byte	0x30
 21105 37ff 9F       		.byte	0x9f
 21106 3800 00000000 		.4byte	0
 21107 3804 00000000 		.4byte	0
 21108              	.LLST187:
 21109 3808 6C000000 		.4byte	.LVL667
 21110 380c 76000000 		.4byte	.LVL669
 21111 3810 0100     		.2byte	0x1
 21112 3812 55       		.byte	0x55
 21113 3813 00000000 		.4byte	0
 21114 3817 00000000 		.4byte	0
 21115              	.LLST188:
 21116 381b A0000000 		.4byte	.LVL672
 21117 381f 2E010000 		.4byte	.LVL693
 21118 3823 0200     		.2byte	0x2
 21119 3825 31       		.byte	0x31
 21120 3826 9F       		.byte	0x9f
 21121 3827 00000000 		.4byte	0
 21122 382b 00000000 		.4byte	0
 21123              	.LLST189:
 21124 382f A0000000 		.4byte	.LVL672
 21125 3833 2E010000 		.4byte	.LVL693
 21126 3837 0200     		.2byte	0x2
 21127 3839 30       		.byte	0x30
 21128 383a 9F       		.byte	0x9f
 21129 383b 00000000 		.4byte	0
 21130 383f 00000000 		.4byte	0
 21131              	.LLST190:
 21132 3843 A0000000 		.4byte	.LVL672
 21133 3847 2E010000 		.4byte	.LVL693
 21134 384b 0100     		.2byte	0x1
 21135 384d 59       		.byte	0x59
 21136 384e 00000000 		.4byte	0
 21137 3852 00000000 		.4byte	0
 21138              	.LLST191:
 21139 3856 A0000000 		.4byte	.LVL672
 21140 385a 2E010000 		.4byte	.LVL693
 21141 385e 0600     		.2byte	0x6
 21142 3860 F2       		.byte	0xf2
 21143 3861 893A0000 		.4byte	.Ldebug_info0+14985
 21144 3865 00       		.sleb128 0
 21145 3866 00000000 		.4byte	0
 21146 386a 00000000 		.4byte	0
 21147              	.LLST195:
ARM GAS  C:\Users\mathi\AppData\Local\Temp\ccVwcWGw.s 			page 372


 21148 386e A0000000 		.4byte	.LVL672
 21149 3872 2E010000 		.4byte	.LVL693
 21150 3876 0100     		.2byte	0x1
 21151 3878 55       		.byte	0x55
 21152 3879 00000000 		.4byte	0
 21153 387d 00000000 		.4byte	0
 21154              		.section	.debug_aranges,"",%progbits
 21155 0000 D4000000 		.4byte	0xd4
 21156 0004 0200     		.2byte	0x2
 21157 0006 00000000 		.4byte	.Ldebug_info0
 21158 000a 04       		.byte	0x4
 21159 000b 00       		.byte	0
 21160 000c 0000     		.2byte	0
 21161 000e 0000     		.2byte	0
 21162 0010 00000000 		.4byte	.LFB27
 21163 0014 A0010000 		.4byte	.LFE27-.LFB27
 21164 0018 00000000 		.4byte	.LFB3
 21165 001c F8000000 		.4byte	.LFE3-.LFB3
 21166 0020 00000000 		.4byte	.LFB4
 21167 0024 E8000000 		.4byte	.LFE4-.LFB4
 21168 0028 00000000 		.4byte	.LFB5
 21169 002c 5C000000 		.4byte	.LFE5-.LFB5
 21170 0030 00000000 		.4byte	.LFB6
 21171 0034 54000000 		.4byte	.LFE6-.LFB6
 21172 0038 00000000 		.4byte	.LFB7
 21173 003c 4C000000 		.4byte	.LFE7-.LFB7
 21174 0040 00000000 		.4byte	.LFB8
 21175 0044 24010000 		.4byte	.LFE8-.LFB8
 21176 0048 00000000 		.4byte	.LFB9
 21177 004c 34000000 		.4byte	.LFE9-.LFB9
 21178 0050 00000000 		.4byte	.LFB10
 21179 0054 3C000000 		.4byte	.LFE10-.LFB10
 21180 0058 00000000 		.4byte	.LFB11
 21181 005c A8020000 		.4byte	.LFE11-.LFB11
 21182 0060 00000000 		.4byte	.LFB12
 21183 0064 2C000000 		.4byte	.LFE12-.LFB12
 21184 0068 00000000 		.4byte	.LFB13
 21185 006c 2C000000 		.4byte	.LFE13-.LFB13
 21186 0070 00000000 		.4byte	.LFB14
 21187 0074 04020000 		.4byte	.LFE14-.LFB14
 21188 0078 00000000 		.4byte	.LFB15
 21189 007c 7C000000 		.4byte	.LFE15-.LFB15
 21190 0080 00000000 		.4byte	.LFB17
 21191 0084 C0000000 		.4byte	.LFE17-.LFB17
 21192 0088 00000000 		.4byte	.LFB18
 21193 008c 9C020000 		.4byte	.LFE18-.LFB18
 21194 0090 00000000 		.4byte	.LFB19
 21195 0094 60000000 		.4byte	.LFE19-.LFB19
 21196 0098 00000000 		.4byte	.LFB20
 21197 009c 08010000 		.4byte	.LFE20-.LFB20
 21198 00a0 00000000 		.4byte	.LFB21
 21199 00a4 34010000 		.4byte	.LFE21-.LFB21
 21200 00a8 00000000 		.4byte	.LFB22
 21201 00ac 40010000 		.4byte	.LFE22-.LFB22
 21202 00b0 00000000 		.4byte	.LFB23
 21203 00b4 DC010000 		.4byte	.LFE23-.LFB23
 21204 00b8 00000000 		.4byte	.LFB16
ARM GAS  C:\Users\mathi\AppData\Local\Temp\ccVwcWGw.s 			page 373


 21205 00bc 4E040000 		.4byte	.LFE16-.LFB16
 21206 00c0 00000000 		.4byte	.LFB24
 21207 00c4 98000000 		.4byte	.LFE24-.LFB24
 21208 00c8 00000000 		.4byte	.LFB25
 21209 00cc AC000000 		.4byte	.LFE25-.LFB25
 21210 00d0 00000000 		.4byte	0
 21211 00d4 00000000 		.4byte	0
 21212              		.section	.debug_ranges,"",%progbits
 21213              	.Ldebug_ranges0:
 21214 0000 24000000 		.4byte	.LBB42
 21215 0004 2E000000 		.4byte	.LBE42
 21216 0008 3C000000 		.4byte	.LBB50
 21217 000c C0000000 		.4byte	.LBE50
 21218 0010 F4000000 		.4byte	.LBB58
 21219 0014 02010000 		.4byte	.LBE58
 21220 0018 18010000 		.4byte	.LBB59
 21221 001c 24010000 		.4byte	.LBE59
 21222 0020 00000000 		.4byte	0
 21223 0024 00000000 		.4byte	0
 21224 0028 2E000000 		.4byte	.LBB47
 21225 002c 32000000 		.4byte	.LBE47
 21226 0030 C4000000 		.4byte	.LBB51
 21227 0034 CA000000 		.4byte	.LBE51
 21228 0038 00000000 		.4byte	0
 21229 003c 00000000 		.4byte	0
 21230 0040 D4000000 		.4byte	.LBB52
 21231 0044 E4000000 		.4byte	.LBE52
 21232 0048 E6000000 		.4byte	.LBB56
 21233 004c E8000000 		.4byte	.LBE56
 21234 0050 EA000000 		.4byte	.LBB57
 21235 0054 EE000000 		.4byte	.LBE57
 21236 0058 00000000 		.4byte	0
 21237 005c 00000000 		.4byte	0
 21238 0060 2A000000 		.4byte	.LBB74
 21239 0064 38000000 		.4byte	.LBE74
 21240 0068 42000000 		.4byte	.LBB81
 21241 006c 9C000000 		.4byte	.LBE81
 21242 0070 B8000000 		.4byte	.LBB82
 21243 0074 BE000000 		.4byte	.LBE82
 21244 0078 FE000000 		.4byte	.LBB87
 21245 007c 3A010000 		.4byte	.LBE87
 21246 0080 C6010000 		.4byte	.LBB92
 21247 0084 F4010000 		.4byte	.LBE92
 21248 0088 F8010000 		.4byte	.LBB93
 21249 008c 04020000 		.4byte	.LBE93
 21250 0090 00000000 		.4byte	0
 21251 0094 00000000 		.4byte	0
 21252 0098 26000000 		.4byte	.LBB94
 21253 009c 2A000000 		.4byte	.LBE94
 21254 00a0 2C000000 		.4byte	.LBB99
 21255 00a4 2E000000 		.4byte	.LBE99
 21256 00a8 68000000 		.4byte	.LBB100
 21257 00ac 6E000000 		.4byte	.LBE100
 21258 00b0 70000000 		.4byte	.LBB101
 21259 00b4 7A000000 		.4byte	.LBE101
 21260 00b8 00000000 		.4byte	0
 21261 00bc 00000000 		.4byte	0
ARM GAS  C:\Users\mathi\AppData\Local\Temp\ccVwcWGw.s 			page 374


 21262 00c0 4C000000 		.4byte	.LBB108
 21263 00c4 C4000000 		.4byte	.LBE108
 21264 00c8 E8000000 		.4byte	.LBB111
 21265 00cc 92020000 		.4byte	.LBE111
 21266 00d0 00000000 		.4byte	0
 21267 00d4 00000000 		.4byte	0
 21268 00d8 42000000 		.4byte	.LBB114
 21269 00dc 4E000000 		.4byte	.LBE114
 21270 00e0 54000000 		.4byte	.LBB117
 21271 00e4 58000000 		.4byte	.LBE117
 21272 00e8 00000000 		.4byte	0
 21273 00ec 00000000 		.4byte	0
 21274 00f0 10000000 		.4byte	.LBB158
 21275 00f4 12000000 		.4byte	.LBE158
 21276 00f8 16000000 		.4byte	.LBB170
 21277 00fc 18000000 		.4byte	.LBE170
 21278 0100 1C000000 		.4byte	.LBB171
 21279 0104 2A000000 		.4byte	.LBE171
 21280 0108 3C000000 		.4byte	.LBB172
 21281 010c 80000000 		.4byte	.LBE172
 21282 0110 F0000000 		.4byte	.LBB182
 21283 0114 58010000 		.4byte	.LBE182
 21284 0118 00000000 		.4byte	0
 21285 011c 00000000 		.4byte	0
 21286 0120 80000000 		.4byte	.LBB173
 21287 0124 DA000000 		.4byte	.LBE173
 21288 0128 58010000 		.4byte	.LBB183
 21289 012c D4010000 		.4byte	.LBE183
 21290 0130 00000000 		.4byte	0
 21291 0134 00000000 		.4byte	0
 21292 0138 D2000000 		.4byte	.LBB202
 21293 013c D8000000 		.4byte	.LBE202
 21294 0140 DA000000 		.4byte	.LBB206
 21295 0144 34010000 		.4byte	.LBE206
 21296 0148 38010000 		.4byte	.LBB207
 21297 014c 3C010000 		.4byte	.LBE207
 21298 0150 00000000 		.4byte	0
 21299 0154 00000000 		.4byte	0
 21300 0158 44010000 		.4byte	.LBB208
 21301 015c 48010000 		.4byte	.LBE208
 21302 0160 4C010000 		.4byte	.LBB214
 21303 0164 50010000 		.4byte	.LBE214
 21304 0168 54010000 		.4byte	.LBB215
 21305 016c 5A010000 		.4byte	.LBE215
 21306 0170 66010000 		.4byte	.LBB216
 21307 0174 6C010000 		.4byte	.LBE216
 21308 0178 6E010000 		.4byte	.LBB217
 21309 017c 76010000 		.4byte	.LBE217
 21310 0180 00000000 		.4byte	0
 21311 0184 00000000 		.4byte	0
 21312 0188 94010000 		.4byte	.LBB218
 21313 018c 9A010000 		.4byte	.LBE218
 21314 0190 9C010000 		.4byte	.LBB222
 21315 0194 04020000 		.4byte	.LBE222
 21316 0198 08020000 		.4byte	.LBB223
 21317 019c 0C020000 		.4byte	.LBE223
 21318 01a0 00000000 		.4byte	0
ARM GAS  C:\Users\mathi\AppData\Local\Temp\ccVwcWGw.s 			page 375


 21319 01a4 00000000 		.4byte	0
 21320 01a8 30020000 		.4byte	.LBB224
 21321 01ac 34020000 		.4byte	.LBE224
 21322 01b0 42020000 		.4byte	.LBB234
 21323 01b4 46020000 		.4byte	.LBE234
 21324 01b8 4A020000 		.4byte	.LBB235
 21325 01bc 52020000 		.4byte	.LBE235
 21326 01c0 60020000 		.4byte	.LBB239
 21327 01c4 FE020000 		.4byte	.LBE239
 21328 01c8 E4030000 		.4byte	.LBB249
 21329 01cc E8030000 		.4byte	.LBE249
 21330 01d0 EE030000 		.4byte	.LBB250
 21331 01d4 F2030000 		.4byte	.LBE250
 21332 01d8 F8030000 		.4byte	.LBB251
 21333 01dc FE030000 		.4byte	.LBE251
 21334 01e0 04040000 		.4byte	.LBB252
 21335 01e4 08040000 		.4byte	.LBE252
 21336 01e8 38040000 		.4byte	.LBB257
 21337 01ec 3C040000 		.4byte	.LBE257
 21338 01f0 00000000 		.4byte	0
 21339 01f4 00000000 		.4byte	0
 21340 01f8 54020000 		.4byte	.LBB236
 21341 01fc 56020000 		.4byte	.LBE236
 21342 0200 02030000 		.4byte	.LBB240
 21343 0204 0E030000 		.4byte	.LBE240
 21344 0208 00000000 		.4byte	0
 21345 020c 00000000 		.4byte	0
 21346 0210 40030000 		.4byte	.LBB245
 21347 0214 A4030000 		.4byte	.LBE245
 21348 0218 A8030000 		.4byte	.LBB248
 21349 021c AC030000 		.4byte	.LBE248
 21350 0220 00000000 		.4byte	0
 21351 0224 00000000 		.4byte	0
 21352 0228 0E040000 		.4byte	.LBB253
 21353 022c 1A040000 		.4byte	.LBE253
 21354 0230 1E040000 		.4byte	.LBB256
 21355 0234 20040000 		.4byte	.LBE256
 21356 0238 00000000 		.4byte	0
 21357 023c 00000000 		.4byte	0
 21358 0240 10000000 		.4byte	.LBB260
 21359 0244 14000000 		.4byte	.LBE260
 21360 0248 16000000 		.4byte	.LBB265
 21361 024c 7A000000 		.4byte	.LBE265
 21362 0250 7E000000 		.4byte	.LBB266
 21363 0254 80000000 		.4byte	.LBE266
 21364 0258 82000000 		.4byte	.LBB267
 21365 025c 86000000 		.4byte	.LBE267
 21366 0260 00000000 		.4byte	0
 21367 0264 00000000 		.4byte	0
 21368 0268 08000000 		.4byte	.LBB270
 21369 026c 0C000000 		.4byte	.LBE270
 21370 0270 10000000 		.4byte	.LBB278
 21371 0274 12000000 		.4byte	.LBE278
 21372 0278 16000000 		.4byte	.LBB279
 21373 027c 1A000000 		.4byte	.LBE279
 21374 0280 1C000000 		.4byte	.LBB280
 21375 0284 86000000 		.4byte	.LBE280
ARM GAS  C:\Users\mathi\AppData\Local\Temp\ccVwcWGw.s 			page 376


 21376 0288 88000000 		.4byte	.LBB281
 21377 028c 90000000 		.4byte	.LBE281
 21378 0290 92000000 		.4byte	.LBB282
 21379 0294 94000000 		.4byte	.LBE282
 21380 0298 96000000 		.4byte	.LBB283
 21381 029c 9A000000 		.4byte	.LBE283
 21382 02a0 00000000 		.4byte	0
 21383 02a4 00000000 		.4byte	0
 21384 02a8 00000000 		.4byte	.LFB27
 21385 02ac A0010000 		.4byte	.LFE27
 21386 02b0 00000000 		.4byte	.LFB3
 21387 02b4 F8000000 		.4byte	.LFE3
 21388 02b8 00000000 		.4byte	.LFB4
 21389 02bc E8000000 		.4byte	.LFE4
 21390 02c0 00000000 		.4byte	.LFB5
 21391 02c4 5C000000 		.4byte	.LFE5
 21392 02c8 00000000 		.4byte	.LFB6
 21393 02cc 54000000 		.4byte	.LFE6
 21394 02d0 00000000 		.4byte	.LFB7
 21395 02d4 4C000000 		.4byte	.LFE7
 21396 02d8 00000000 		.4byte	.LFB8
 21397 02dc 24010000 		.4byte	.LFE8
 21398 02e0 00000000 		.4byte	.LFB9
 21399 02e4 34000000 		.4byte	.LFE9
 21400 02e8 00000000 		.4byte	.LFB10
 21401 02ec 3C000000 		.4byte	.LFE10
 21402 02f0 00000000 		.4byte	.LFB11
 21403 02f4 A8020000 		.4byte	.LFE11
 21404 02f8 00000000 		.4byte	.LFB12
 21405 02fc 2C000000 		.4byte	.LFE12
 21406 0300 00000000 		.4byte	.LFB13
 21407 0304 2C000000 		.4byte	.LFE13
 21408 0308 00000000 		.4byte	.LFB14
 21409 030c 04020000 		.4byte	.LFE14
 21410 0310 00000000 		.4byte	.LFB15
 21411 0314 7C000000 		.4byte	.LFE15
 21412 0318 00000000 		.4byte	.LFB17
 21413 031c C0000000 		.4byte	.LFE17
 21414 0320 00000000 		.4byte	.LFB18
 21415 0324 9C020000 		.4byte	.LFE18
 21416 0328 00000000 		.4byte	.LFB19
 21417 032c 60000000 		.4byte	.LFE19
 21418 0330 00000000 		.4byte	.LFB20
 21419 0334 08010000 		.4byte	.LFE20
 21420 0338 00000000 		.4byte	.LFB21
 21421 033c 34010000 		.4byte	.LFE21
 21422 0340 00000000 		.4byte	.LFB22
 21423 0344 40010000 		.4byte	.LFE22
 21424 0348 00000000 		.4byte	.LFB23
 21425 034c DC010000 		.4byte	.LFE23
 21426 0350 00000000 		.4byte	.LFB16
 21427 0354 4E040000 		.4byte	.LFE16
 21428 0358 00000000 		.4byte	.LFB24
 21429 035c 98000000 		.4byte	.LFE24
 21430 0360 00000000 		.4byte	.LFB25
 21431 0364 AC000000 		.4byte	.LFE25
 21432 0368 00000000 		.4byte	0
ARM GAS  C:\Users\mathi\AppData\Local\Temp\ccVwcWGw.s 			page 377


 21433 036c 00000000 		.4byte	0
 21434              		.section	.debug_line,"",%progbits
 21435              	.Ldebug_line0:
 21436 0000 600D0000 		.section	.debug_str,"MS",%progbits,1
 21436      02005C03 
 21436      00000201 
 21436      FB0E0D00 
 21436      01010101 
 21437              	.LASF302:
 21438 0000 7365745F 		.ascii	"set_ref_spad_map\000"
 21438      7265665F 
 21438      73706164 
 21438      5F6D6170 
 21438      00
 21439              	.LASF364:
 21440 0011 564C3533 		.ascii	"VL53L0X_WrByte\000"
 21440      4C30585F 
 21440      57724279 
 21440      746500
 21441              	.LASF247:
 21442 0020 564C3533 		.ascii	"VL53L0X_perform_phase_calibration\000"
 21442      4C30585F 
 21442      70657266 
 21442      6F726D5F 
 21442      70686173 
 21443              	.LASF361:
 21444 0042 7369676E 		.ascii	"signalXTalkTotalPerSpad\000"
 21444      616C5854 
 21444      616C6B54 
 21444      6F74616C 
 21444      50657253 
 21445              	.LASF89:
 21446 005a 52656665 		.ascii	"ReferenceSpadType\000"
 21446      72656E63 
 21446      65537061 
 21446      64547970 
 21446      6500
 21447              	.LASF58:
 21448 006c 5369676E 		.ascii	"SignalRateRtnMegaCps\000"
 21448      616C5261 
 21448      74655274 
 21448      6E4D6567 
 21448      61437073 
 21449              	.LASF131:
 21450 0081 5F6D6178 		.ascii	"_maxwds\000"
 21450      77647300 
 21451              	.LASF92:
 21452 0089 50617274 		.ascii	"PartUIDLower\000"
 21452      5549444C 
 21452      6F776572 
 21452      00
 21453              	.LASF334:
 21454 0096 634D6178 		.ascii	"cMaxOffset\000"
 21454      4F666673 
 21454      657400
 21455              	.LASF29:
 21456 00a1 50726F64 		.ascii	"ProductRevisionMajor\000"
ARM GAS  C:\Users\mathi\AppData\Local\Temp\ccVwcWGw.s 			page 378


 21456      75637452 
 21456      65766973 
 21456      696F6E4D 
 21456      616A6F72 
 21457              	.LASF233:
 21458 00b6 564C3533 		.ascii	"VL53L0X_DEV\000"
 21458      4C30585F 
 21458      44455600 
 21459              	.LASF145:
 21460 00c2 5F6F6E5F 		.ascii	"_on_exit_args\000"
 21460      65786974 
 21460      5F617267 
 21460      7300
 21461              	.LASF38:
 21462 00d0 48697374 		.ascii	"HistogramMode\000"
 21462      6F677261 
 21462      6D4D6F64 
 21462      6500
 21463              	.LASF359:
 21464 00de 7854616C 		.ascii	"xTalkStoredMeanRange\000"
 21464      6B53746F 
 21464      7265644D 
 21464      65616E52 
 21464      616E6765 
 21465              	.LASF326:
 21466 00f3 64617461 		.ascii	"dataByte\000"
 21466      42797465 
 21466      00
 21467              	.LASF212:
 21468 00fc 5F776374 		.ascii	"_wctomb_state\000"
 21468      6F6D625F 
 21468      73746174 
 21468      6500
 21469              	.LASF230:
 21470 010a 44657669 		.ascii	"DeviceInfo\000"
 21470      6365496E 
 21470      666F00
 21471              	.LASF41:
 21472 0115 5854616C 		.ascii	"XTalkCompensationEnable\000"
 21472      6B436F6D 
 21472      70656E73 
 21472      6174696F 
 21472      6E456E61 
 21473              	.LASF81:
 21474 012d 50726552 		.ascii	"PreRangeVcselPulsePeriod\000"
 21474      616E6765 
 21474      56637365 
 21474      6C50756C 
 21474      73655065 
 21475              	.LASF209:
 21476 0146 5F723438 		.ascii	"_r48\000"
 21476      00
 21477              	.LASF341:
 21478 014b 564C3533 		.ascii	"VL53L0X_perform_offset_calibration\000"
 21478      4C30585F 
 21478      70657266 
 21478      6F726D5F 
ARM GAS  C:\Users\mathi\AppData\Local\Temp\ccVwcWGw.s 			page 379


 21478      6F666673 
 21479              	.LASF268:
 21480 016e 63757272 		.ascii	"currentSpadIndex\000"
 21480      656E7453 
 21480      70616449 
 21480      6E646578 
 21480      00
 21481              	.LASF136:
 21482 017f 5F5F746D 		.ascii	"__tm_sec\000"
 21482      5F736563 
 21482      00
 21483              	.LASF214:
 21484 0188 5F736967 		.ascii	"_signal_buf\000"
 21484      6E616C5F 
 21484      62756600 
 21485              	.LASF0:
 21486 0194 756E7369 		.ascii	"unsigned int\000"
 21486      676E6564 
 21486      20696E74 
 21486      00
 21487              	.LASF42:
 21488 01a1 5854616C 		.ascii	"XTalkCompensationRangeMilliMeter\000"
 21488      6B436F6D 
 21488      70656E73 
 21488      6174696F 
 21488      6E52616E 
 21489              	.LASF323:
 21490 01c2 6E657874 		.ascii	"next\000"
 21490      00
 21491              	.LASF238:
 21492 01c7 53746174 		.ascii	"Status\000"
 21492      757300
 21493              	.LASF251:
 21494 01ce 72656164 		.ascii	"read_not_write\000"
 21494      5F6E6F74 
 21494      5F777269 
 21494      746500
 21495              	.LASF36:
 21496 01dd 564C3533 		.ascii	"VL53L0X_PowerModes\000"
 21496      4C30585F 
 21496      506F7765 
 21496      724D6F64 
 21496      657300
 21497              	.LASF27:
 21498 01f0 50726F64 		.ascii	"ProductId\000"
 21498      75637449 
 21498      6400
 21499              	.LASF253:
 21500 01fa 70686173 		.ascii	"phase_enable\000"
 21500      655F656E 
 21500      61626C65 
 21500      00
 21501              	.LASF45:
 21502 0207 4C696D69 		.ascii	"LimitChecksEnable\000"
 21502      74436865 
 21502      636B7345 
 21502      6E61626C 
ARM GAS  C:\Users\mathi\AppData\Local\Temp\ccVwcWGw.s 			page 380


 21502      6500
 21503              	.LASF157:
 21504 0219 5F666C61 		.ascii	"_flags\000"
 21504      677300
 21505              	.LASF273:
 21506 0220 696E6465 		.ascii	"index\000"
 21506      7800
 21507              	.LASF70:
 21508 0226 4572726F 		.ascii	"ErrorStatus\000"
 21508      72537461 
 21508      74757300 
 21509              	.LASF59:
 21510 0232 416D6269 		.ascii	"AmbientRateRtnMegaCps\000"
 21510      656E7452 
 21510      61746552 
 21510      746E4D65 
 21510      67614370 
 21511              	.LASF9:
 21512 0248 5F5F696E 		.ascii	"__int32_t\000"
 21512      7433325F 
 21512      7400
 21513              	.LASF174:
 21514 0252 5F657272 		.ascii	"_errno\000"
 21514      6E6F00
 21515              	.LASF343:
 21516 0259 704F6666 		.ascii	"pOffsetMicroMeter\000"
 21516      7365744D 
 21516      6963726F 
 21516      4D657465 
 21516      7200
 21517              	.LASF358:
 21518 026b 7854616C 		.ascii	"xTalkStoredMeanSignalRate\000"
 21518      6B53746F 
 21518      7265644D 
 21518      65616E53 
 21518      69676E61 
 21519              	.LASF246:
 21520 0285 56687653 		.ascii	"VhvSettingsint\000"
 21520      65747469 
 21520      6E677369 
 21520      6E7400
 21521              	.LASF377:
 21522 0294 564C3533 		.ascii	"VL53L0X_GetSequenceStepEnable\000"
 21522      4C30585F 
 21522      47657453 
 21522      65717565 
 21522      6E636553 
 21523              	.LASF303:
 21524 02b2 636F756E 		.ascii	"count_enabled_spads\000"
 21524      745F656E 
 21524      61626C65 
 21524      645F7370 
 21524      61647300 
 21525              	.LASF280:
 21526 02c6 6E656564 		.ascii	"needAptSpads\000"
 21526      41707453 
 21526      70616473 
ARM GAS  C:\Users\mathi\AppData\Local\Temp\ccVwcWGw.s 			page 381


 21526      00
 21527              	.LASF336:
 21528 02d3 564C3533 		.ascii	"VL53L0X_set_offset_calibration_data_micro_meter\000"
 21528      4C30585F 
 21528      7365745F 
 21528      6F666673 
 21528      65745F63 
 21529              	.LASF226:
 21530 0303 5F5F6C6F 		.ascii	"__locale_t\000"
 21530      63616C65 
 21530      5F7400
 21531              	.LASF171:
 21532 030e 5F6D6273 		.ascii	"_mbstate\000"
 21532      74617465 
 21532      00
 21533              	.LASF161:
 21534 0317 5F726561 		.ascii	"_read\000"
 21534      6400
 21535              	.LASF320:
 21536 031d 71756164 		.ascii	"quadrant\000"
 21536      72616E74 
 21536      00
 21537              	.LASF216:
 21538 0326 5F6D6272 		.ascii	"_mbrlen_state\000"
 21538      6C656E5F 
 21538      73746174 
 21538      6500
 21539              	.LASF232:
 21540 0334 564C3533 		.ascii	"VL53L0X_Dev_t\000"
 21540      4C30585F 
 21540      4465765F 
 21540      7400
 21541              	.LASF48:
 21542 0342 57726170 		.ascii	"WrapAroundCheckEnable\000"
 21542      41726F75 
 21542      6E644368 
 21542      65636B45 
 21542      6E61626C 
 21543              	.LASF106:
 21544 0358 506F7765 		.ascii	"PowerMode\000"
 21544      724D6F64 
 21544      6500
 21545              	.LASF277:
 21546 0362 6D696E69 		.ascii	"minimumSpadCount\000"
 21546      6D756D53 
 21546      70616443 
 21546      6F756E74 
 21546      00
 21547              	.LASF342:
 21548 0373 43616C44 		.ascii	"CalDistanceMilliMeter\000"
 21548      69737461 
 21548      6E63654D 
 21548      696C6C69 
 21548      4D657465 
 21549              	.LASF46:
 21550 0389 4C696D69 		.ascii	"LimitChecksStatus\000"
 21550      74436865 
ARM GAS  C:\Users\mathi\AppData\Local\Temp\ccVwcWGw.s 			page 382


 21550      636B7353 
 21550      74617475 
 21550      7300
 21551              	.LASF57:
 21552 039b 52616E67 		.ascii	"RangeDMaxMilliMeter\000"
 21552      65444D61 
 21552      784D696C 
 21552      6C694D65 
 21552      74657200 
 21553              	.LASF307:
 21554 03af 70497341 		.ascii	"pIsAperture\000"
 21554      70657274 
 21554      75726500 
 21555              	.LASF121:
 21556 03bb 5F66706F 		.ascii	"_fpos_t\000"
 21556      735F7400 
 21557              	.LASF227:
 21558 03c3 5F696D70 		.ascii	"_impure_ptr\000"
 21558      7572655F 
 21558      70747200 
 21559              	.LASF152:
 21560 03cf 5F666E73 		.ascii	"_fns\000"
 21560      00
 21561              	.LASF87:
 21562 03d4 52657669 		.ascii	"Revision\000"
 21562      73696F6E 
 21562      00
 21563              	.LASF160:
 21564 03dd 5F636F6F 		.ascii	"_cookie\000"
 21564      6B696500 
 21565              	.LASF32:
 21566 03e5 564C3533 		.ascii	"VL53L0X_DeviceInfo_t\000"
 21566      4C30585F 
 21566      44657669 
 21566      6365496E 
 21566      666F5F74 
 21567              	.LASF96:
 21568 03fa 50617274 		.ascii	"Part2PartOffsetNVMMicroMeter\000"
 21568      32506172 
 21568      744F6666 
 21568      7365744E 
 21568      564D4D69 
 21569              	.LASF293:
 21570 0417 73706164 		.ascii	"spadArray\000"
 21570      41727261 
 21570      7900
 21571              	.LASF237:
 21572 0421 70506861 		.ascii	"pPhaseCal\000"
 21572      73654361 
 21572      6C00
 21573              	.LASF134:
 21574 042b 5F426967 		.ascii	"_Bigint\000"
 21574      696E7400 
 21575              	.LASF142:
 21576 0433 5F5F746D 		.ascii	"__tm_wday\000"
 21576      5F776461 
 21576      7900
ARM GAS  C:\Users\mathi\AppData\Local\Temp\ccVwcWGw.s 			page 383


 21577              	.LASF184:
 21578 043d 5F726573 		.ascii	"_result\000"
 21578      756C7400 
 21579              	.LASF22:
 21580 0445 46697850 		.ascii	"FixPoint1616_t\000"
 21580      6F696E74 
 21580      31363136 
 21580      5F7400
 21581              	.LASF94:
 21582 0454 564C3533 		.ascii	"VL53L0X_DeviceSpecificParameters_t\000"
 21582      4C30585F 
 21582      44657669 
 21582      63655370 
 21582      65636966 
 21583              	.LASF20:
 21584 0477 75696E74 		.ascii	"uint32_t\000"
 21584      33325F74 
 21584      00
 21585              	.LASF15:
 21586 0480 696E7438 		.ascii	"int8_t\000"
 21586      5F7400
 21587              	.LASF138:
 21588 0487 5F5F746D 		.ascii	"__tm_hour\000"
 21588      5F686F75 
 21588      7200
 21589              	.LASF380:
 21590 0491 564C3533 		.ascii	"VL53L0X_SetXTalkCompensationEnable\000"
 21590      4C30585F 
 21590      53657458 
 21590      54616C6B 
 21590      436F6D70 
 21591              	.LASF125:
 21592 04b4 5F5F636F 		.ascii	"__count\000"
 21592      756E7400 
 21593              	.LASF369:
 21594 04bc 564C3533 		.ascii	"VL53L0X_ReadMulti\000"
 21594      4C30585F 
 21594      52656164 
 21594      4D756C74 
 21594      6900
 21595              	.LASF66:
 21596 04ce 48697374 		.ascii	"HistogramType\000"
 21596      6F677261 
 21596      6D547970 
 21596      6500
 21597              	.LASF256:
 21598 04dc 7668765F 		.ascii	"vhv_init_byte\000"
 21598      696E6974 
 21598      5F627974 
 21598      6500
 21599              	.LASF137:
 21600 04ea 5F5F746D 		.ascii	"__tm_min\000"
 21600      5F6D696E 
 21600      00
 21601              	.LASF49:
 21602 04f3 564C3533 		.ascii	"VL53L0X_DeviceParameters_t\000"
 21602      4C30585F 
ARM GAS  C:\Users\mathi\AppData\Local\Temp\ccVwcWGw.s 			page 384


 21602      44657669 
 21602      63655061 
 21602      72616D65 
 21603              	.LASF222:
 21604 050e 5F6E6578 		.ascii	"_nextf\000"
 21604      746600
 21605              	.LASF23:
 21606 0515 564C3533 		.ascii	"VL53L0X_DeviceError\000"
 21606      4C30585F 
 21606      44657669 
 21606      63654572 
 21606      726F7200 
 21607              	.LASF379:
 21608 0529 564C3533 		.ascii	"VL53L0X_SetLimitCheckEnable\000"
 21608      4C30585F 
 21608      5365744C 
 21608      696D6974 
 21608      43686563 
 21609              	.LASF108:
 21610 0545 74617267 		.ascii	"targetRefRate\000"
 21610      65745265 
 21610      66526174 
 21610      6500
 21611              	.LASF17:
 21612 0553 696E7431 		.ascii	"int16_t\000"
 21612      365F7400 
 21613              	.LASF199:
 21614 055b 5F72616E 		.ascii	"_rand48\000"
 21614      64343800 
 21615              	.LASF30:
 21616 0563 50726F64 		.ascii	"ProductRevisionMinor\000"
 21616      75637452 
 21616      65766973 
 21616      696F6E4D 
 21616      696E6F72 
 21617              	.LASF350:
 21618 0578 53657175 		.ascii	"SequenceStepEnabled\000"
 21618      656E6365 
 21618      53746570 
 21618      456E6162 
 21618      6C656400 
 21619              	.LASF266:
 21620 058c 564C3533 		.ascii	"VL53L0X_set_reference_spads\000"
 21620      4C30585F 
 21620      7365745F 
 21620      72656665 
 21620      72656E63 
 21621              	.LASF185:
 21622 05a8 5F726573 		.ascii	"_result_k\000"
 21622      756C745F 
 21622      6B00
 21623              	.LASF97:
 21624 05b2 50617274 		.ascii	"Part2PartOffsetAdjustmentNVMMicroMeter\000"
 21624      32506172 
 21624      744F6666 
 21624      73657441 
 21624      646A7573 
ARM GAS  C:\Users\mathi\AppData\Local\Temp\ccVwcWGw.s 			page 385


 21625              	.LASF14:
 21626 05d9 6C6F6E67 		.ascii	"long long unsigned int\000"
 21626      206C6F6E 
 21626      6720756E 
 21626      7369676E 
 21626      65642069 
 21627              	.LASF51:
 21628 05f0 416D6254 		.ascii	"AmbTuningWindowFactor_K\000"
 21628      756E696E 
 21628      6757696E 
 21628      646F7746 
 21628      6163746F 
 21629              	.LASF205:
 21630 0608 5F617363 		.ascii	"_asctime_buf\000"
 21630      74696D65 
 21630      5F627566 
 21630      00
 21631              	.LASF156:
 21632 0615 5F5F7346 		.ascii	"__sFILE\000"
 21632      494C4500 
 21633              	.LASF133:
 21634 061d 5F776473 		.ascii	"_wds\000"
 21634      00
 21635              	.LASF315:
 21636 0622 656E6162 		.ascii	"enable_spad_bit\000"
 21636      6C655F73 
 21636      7061645F 
 21636      62697400 
 21637              	.LASF325:
 21638 0632 66696E65 		.ascii	"fineOffset\000"
 21638      4F666673 
 21638      657400
 21639              	.LASF276:
 21640 063d 6C617374 		.ascii	"lastSpadArray\000"
 21640      53706164 
 21640      41727261 
 21640      7900
 21641              	.LASF75:
 21642 064b 4F736346 		.ascii	"OscFrequencyMHz\000"
 21642      72657175 
 21642      656E6379 
 21642      4D487A00 
 21643              	.LASF312:
 21644 065b 62697449 		.ascii	"bitIndex\000"
 21644      6E646578 
 21644      00
 21645              	.LASF7:
 21646 0664 5F5F7569 		.ascii	"__uint16_t\000"
 21646      6E743136 
 21646      5F7400
 21647              	.LASF195:
 21648 066f 5F5F4649 		.ascii	"__FILE\000"
 21648      4C4500
 21649              	.LASF308:
 21650 0676 63537061 		.ascii	"cSpadsPerByte\000"
 21650      64735065 
 21650      72427974 
ARM GAS  C:\Users\mathi\AppData\Local\Temp\ccVwcWGw.s 			page 386


 21650      6500
 21651              	.LASF168:
 21652 0684 5F6F6666 		.ascii	"_offset\000"
 21652      73657400 
 21653              	.LASF324:
 21654 068c 73746172 		.ascii	"startIndex\000"
 21654      74496E64 
 21654      657800
 21655              	.LASF319:
 21656 0697 69735F61 		.ascii	"is_aperture\000"
 21656      70657274 
 21656      75726500 
 21657              	.LASF72:
 21658 06a3 52656653 		.ascii	"RefSpadEnables\000"
 21658      70616445 
 21658      6E61626C 
 21658      657300
 21659              	.LASF25:
 21660 06b2 4E616D65 		.ascii	"Name\000"
 21660      00
 21661              	.LASF113:
 21662 06b7 55736549 		.ascii	"UseInternalTuningSettings\000"
 21662      6E746572 
 21662      6E616C54 
 21662      756E696E 
 21662      67536574 
 21663              	.LASF179:
 21664 06d1 5F656D65 		.ascii	"_emergency\000"
 21664      7267656E 
 21664      637900
 21665              	.LASF241:
 21666 06dc 564C3533 		.ascii	"VL53L0X_get_ref_calibration\000"
 21666      4C30585F 
 21666      6765745F 
 21666      7265665F 
 21666      63616C69 
 21667              	.LASF245:
 21668 06f8 72657374 		.ascii	"restore_config\000"
 21668      6F72655F 
 21668      636F6E66 
 21668      696700
 21669              	.LASF114:
 21670 0707 4C696E65 		.ascii	"LinearityCorrectiveGain\000"
 21670      61726974 
 21670      79436F72 
 21670      72656374 
 21670      69766547 
 21671              	.LASF60:
 21672 071f 45666665 		.ascii	"EffectiveSpadRtnCount\000"
 21672      63746976 
 21672      65537061 
 21672      6452746E 
 21672      436F756E 
 21673              	.LASF374:
 21674 0735 564C3533 		.ascii	"VL53L0X_GetOffsetCalibrationDataMicroMeter\000"
 21674      4C30585F 
 21674      4765744F 
ARM GAS  C:\Users\mathi\AppData\Local\Temp\ccVwcWGw.s 			page 387


 21674      66667365 
 21674      7443616C 
 21675              	.LASF269:
 21676 0760 73746172 		.ascii	"startSelect\000"
 21676      7453656C 
 21676      65637400 
 21677              	.LASF304:
 21678 076c 62797465 		.ascii	"byteCount\000"
 21678      436F756E 
 21678      7400
 21679              	.LASF311:
 21680 0776 62797465 		.ascii	"byteIndex\000"
 21680      496E6465 
 21680      7800
 21681              	.LASF102:
 21682 0780 53706164 		.ascii	"SpadData\000"
 21682      44617461 
 21682      00
 21683              	.LASF296:
 21684 0789 6F666673 		.ascii	"offset\000"
 21684      657400
 21685              	.LASF40:
 21686 0790 496E7465 		.ascii	"InterMeasurementPeriodMilliSeconds\000"
 21686      724D6561 
 21686      73757265 
 21686      6D656E74 
 21686      50657269 
 21687              	.LASF88:
 21688 07b3 52656665 		.ascii	"ReferenceSpadCount\000"
 21688      72656E63 
 21688      65537061 
 21688      64436F75 
 21688      6E7400
 21689              	.LASF234:
 21690 07c6 7375626F 		.ascii	"suboptarg\000"
 21690      70746172 
 21690      6700
 21691              	.LASF143:
 21692 07d0 5F5F746D 		.ascii	"__tm_yday\000"
 21692      5F796461 
 21692      7900
 21693              	.LASF178:
 21694 07da 5F696E63 		.ascii	"_inc\000"
 21694      00
 21695              	.LASF151:
 21696 07df 5F696E64 		.ascii	"_ind\000"
 21696      00
 21697              	.LASF347:
 21698 07e4 53746F72 		.ascii	"StoredMeanRange\000"
 21698      65644D65 
 21698      616E5261 
 21698      6E676500 
 21699              	.LASF86:
 21700 07f4 4D6F6475 		.ascii	"ModuleId\000"
 21700      6C654964 
 21700      00
 21701              	.LASF383:
ARM GAS  C:\Users\mathi\AppData\Local\Temp\ccVwcWGw.s 			page 388


 21702 07fd 2E2E2F2E 		.ascii	"../../lib/e-puck2_main-processor/src/sensors/VL53L0"
 21702      2E2F6C69 
 21702      622F652D 
 21702      7075636B 
 21702      325F6D61 
 21703 0830 582F4170 		.ascii	"X/Api/core/src/vl53l0x_api_calibration.c\000"
 21703      692F636F 
 21703      72652F73 
 21703      72632F76 
 21703      6C35336C 
 21704              	.LASF65:
 21705 0859 48697374 		.ascii	"HistogramData\000"
 21705      6F677261 
 21705      6D446174 
 21705      6100
 21706              	.LASF47:
 21707 0867 4C696D69 		.ascii	"LimitChecksValue\000"
 21707      74436865 
 21707      636B7356 
 21707      616C7565 
 21707      00
 21708              	.LASF385:
 21709 0878 6765745F 		.ascii	"get_next_good_spad\000"
 21709      6E657874 
 21709      5F676F6F 
 21709      645F7370 
 21709      616400
 21710              	.LASF348:
 21711 088b 53746F72 		.ascii	"StoredMeanRangeAsInt\000"
 21711      65644D65 
 21711      616E5261 
 21711      6E676541 
 21711      73496E74 
 21712              	.LASF130:
 21713 08a0 5F6E6578 		.ascii	"_next\000"
 21713      7400
 21714              	.LASF353:
 21715 08a6 5854616C 		.ascii	"XTalkCalDistance\000"
 21715      6B43616C 
 21715      44697374 
 21715      616E6365 
 21715      00
 21716              	.LASF218:
 21717 08b7 5F6D6273 		.ascii	"_mbsrtowcs_state\000"
 21717      72746F77 
 21717      63735F73 
 21717      74617465 
 21717      00
 21718              	.LASF264:
 21719 08c8 73706164 		.ascii	"spadsEnabled\000"
 21719      73456E61 
 21719      626C6564 
 21719      00
 21720              	.LASF44:
 21721 08d5 52616E67 		.ascii	"RangeOffsetMicroMeters\000"
 21721      654F6666 
 21721      7365744D 
ARM GAS  C:\Users\mathi\AppData\Local\Temp\ccVwcWGw.s 			page 389


 21721      6963726F 
 21721      4D657465 
 21722              	.LASF258:
 21723 08ec 70537061 		.ascii	"pSpadCount\000"
 21723      64436F75 
 21723      6E7400
 21724              	.LASF328:
 21725 08f7 564C3533 		.ascii	"VL53L0X_apply_offset_adjustment\000"
 21725      4C30585F 
 21725      6170706C 
 21725      795F6F66 
 21725      66736574 
 21726              	.LASF115:
 21727 0917 446D6178 		.ascii	"DmaxCalRangeMilliMeter\000"
 21727      43616C52 
 21727      616E6765 
 21727      4D696C6C 
 21727      694D6574 
 21728              	.LASF283:
 21729 092e 636F6D70 		.ascii	"complete\000"
 21729      6C657465 
 21729      00
 21730              	.LASF126:
 21731 0937 5F5F7661 		.ascii	"__value\000"
 21731      6C756500 
 21732              	.LASF83:
 21733 093f 5369676D 		.ascii	"SigmaEstEffPulseWidth\000"
 21733      61457374 
 21733      45666650 
 21733      756C7365 
 21733      57696474 
 21734              	.LASF259:
 21735 0955 70497341 		.ascii	"pIsApertureSpads\000"
 21735      70657274 
 21735      75726553 
 21735      70616473 
 21735      00
 21736              	.LASF186:
 21737 0966 5F703573 		.ascii	"_p5s\000"
 21737      00
 21738              	.LASF267:
 21739 096b 636F756E 		.ascii	"count\000"
 21739      7400
 21740              	.LASF107:
 21741 0971 53746F70 		.ascii	"StopVariable\000"
 21741      56617269 
 21741      61626C65 
 21741      00
 21742              	.LASF318:
 21743 097e 66696E65 		.ascii	"fineIndex\000"
 21743      496E6465 
 21743      7800
 21744              	.LASF95:
 21745 0988 444D6178 		.ascii	"DMaxData\000"
 21745      44617461 
 21745      00
 21746              	.LASF55:
ARM GAS  C:\Users\mathi\AppData\Local\Temp\ccVwcWGw.s 			page 390


 21747 0991 4D656173 		.ascii	"MeasurementTimeUsec\000"
 21747      7572656D 
 21747      656E7454 
 21747      696D6555 
 21747      73656300 
 21748              	.LASF210:
 21749 09a5 5F6D626C 		.ascii	"_mblen_state\000"
 21749      656E5F73 
 21749      74617465 
 21749      00
 21750              	.LASF368:
 21751 09b2 564C3533 		.ascii	"VL53L0X_ClearInterruptMask\000"
 21751      4C30585F 
 21751      436C6561 
 21751      72496E74 
 21751      65727275 
 21752              	.LASF305:
 21753 09cd 6D617853 		.ascii	"maxSpads\000"
 21753      70616473 
 21753      00
 21754              	.LASF31:
 21755 09d6 63686172 		.ascii	"char\000"
 21755      00
 21756              	.LASF139:
 21757 09db 5F5F746D 		.ascii	"__tm_mday\000"
 21757      5F6D6461 
 21757      7900
 21758              	.LASF192:
 21759 09e5 5F736967 		.ascii	"_sig_func\000"
 21759      5F66756E 
 21759      6300
 21760              	.LASF217:
 21761 09ef 5F6D6272 		.ascii	"_mbrtowc_state\000"
 21761      746F7763 
 21761      5F737461 
 21761      746500
 21762              	.LASF191:
 21763 09fe 5F617465 		.ascii	"_atexit0\000"
 21763      78697430 
 21763      00
 21764              	.LASF236:
 21765 0a07 70566876 		.ascii	"pVhvSettings\000"
 21765      53657474 
 21765      696E6773 
 21765      00
 21766              	.LASF85:
 21767 0a14 52656164 		.ascii	"ReadDataFromDeviceDone\000"
 21767      44617461 
 21767      46726F6D 
 21767      44657669 
 21767      6365446F 
 21768              	.LASF39:
 21769 0a2b 4D656173 		.ascii	"MeasurementTimingBudgetMicroSeconds\000"
 21769      7572656D 
 21769      656E7454 
 21769      696D696E 
 21769      67427564 
ARM GAS  C:\Users\mathi\AppData\Local\Temp\ccVwcWGw.s 			page 391


 21770              	.LASF99:
 21771 0a4f 4C617374 		.ascii	"LastRangeMeasure\000"
 21771      52616E67 
 21771      654D6561 
 21771      73757265 
 21771      00
 21772              	.LASF284:
 21773 0a60 72656653 		.ascii	"refSpadCount_int\000"
 21773      70616443 
 21773      6F756E74 
 21773      5F696E74 
 21773      00
 21774              	.LASF68:
 21775 0a71 42756666 		.ascii	"BufferSize\000"
 21775      65725369 
 21775      7A6500
 21776              	.LASF291:
 21777 0a7c 61706572 		.ascii	"apertureSpads\000"
 21777      74757265 
 21777      53706164 
 21777      7300
 21778              	.LASF275:
 21779 0a8a 72656653 		.ascii	"refSpadCount\000"
 21779      70616443 
 21779      6F756E74 
 21779      00
 21780              	.LASF128:
 21781 0a97 5F666C6F 		.ascii	"_flock_t\000"
 21781      636B5F74 
 21781      00
 21782              	.LASF340:
 21783 0aa0 656E636F 		.ascii	"encodedOffsetVal\000"
 21783      6465644F 
 21783      66667365 
 21783      7456616C 
 21783      00
 21784              	.LASF382:
 21785 0ab1 474E5520 		.ascii	"GNU C11 7.2.1 20170904 (release) [ARM/embedded-7-br"
 21785      43313120 
 21785      372E322E 
 21785      31203230 
 21785      31373039 
 21786 0ae4 616E6368 		.ascii	"anch revision 255204] -mcpu=cortex-m4 -mfloat-abi=h"
 21786      20726576 
 21786      6973696F 
 21786      6E203235 
 21786      35323034 
 21787 0b17 61726420 		.ascii	"ard -mfpu=fpv4-sp-d16 -mno-thumb-interwork -mthumb "
 21787      2D6D6670 
 21787      753D6670 
 21787      76342D73 
 21787      702D6431 
 21788 0b4a 2D676764 		.ascii	"-ggdb -O3 -fomit-frame-pointer -falign-functions=16"
 21788      62202D4F 
 21788      33202D66 
 21788      6F6D6974 
 21788      2D667261 
ARM GAS  C:\Users\mathi\AppData\Local\Temp\ccVwcWGw.s 			page 392


 21789 0b7d 202D666E 		.ascii	" -fno-strict-aliasing -fstack-protector-all -ffunct"
 21789      6F2D7374 
 21789      72696374 
 21789      2D616C69 
 21789      6173696E 
 21790 0bb0 696F6E2D 		.ascii	"ion-sections -fdata-sections -fno-common -fsingle-p"
 21790      73656374 
 21790      696F6E73 
 21790      202D6664 
 21790      6174612D 
 21791 0be3 72656369 		.ascii	"recision-constant\000"
 21791      73696F6E 
 21791      2D636F6E 
 21791      7374616E 
 21791      7400
 21792              	.LASF313:
 21793 0bf5 74656D70 		.ascii	"tempByte\000"
 21793      42797465 
 21793      00
 21794              	.LASF123:
 21795 0bfe 5F5F7763 		.ascii	"__wch\000"
 21795      6800
 21796              	.LASF198:
 21797 0c04 5F696F62 		.ascii	"_iobs\000"
 21797      7300
 21798              	.LASF16:
 21799 0c0a 75696E74 		.ascii	"uint8_t\000"
 21799      385F7400 
 21800              	.LASF288:
 21801 0c12 73746174 		.ascii	"status\000"
 21801      757300
 21802              	.LASF24:
 21803 0c19 564C3533 		.ascii	"VL53L0X_GpioFunctionality\000"
 21803      4C30585F 
 21803      4770696F 
 21803      46756E63 
 21803      74696F6E 
 21804              	.LASF327:
 21805 0c33 73756363 		.ascii	"success\000"
 21805      65737300 
 21806              	.LASF240:
 21807 0c3b 50686173 		.ascii	"PhaseCal\000"
 21807      6543616C 
 21807      00
 21808              	.LASF164:
 21809 0c44 5F636C6F 		.ascii	"_close\000"
 21809      736500
 21810              	.LASF310:
 21811 0c4b 6C617374 		.ascii	"lastBit\000"
 21811      42697400 
 21812              	.LASF182:
 21813 0c53 5F5F7364 		.ascii	"__sdidinit\000"
 21813      6964696E 
 21813      697400
 21814              	.LASF26:
 21815 0c5e 54797065 		.ascii	"Type\000"
 21815      00
ARM GAS  C:\Users\mathi\AppData\Local\Temp\ccVwcWGw.s 			page 393


 21816              	.LASF337:
 21817 0c63 4F666673 		.ascii	"OffsetCalibrationDataMicroMeter\000"
 21817      65744361 
 21817      6C696272 
 21817      6174696F 
 21817      6E446174 
 21818              	.LASF339:
 21819 0c83 634D696E 		.ascii	"cMinOffsetMicroMeter\000"
 21819      4F666673 
 21819      65744D69 
 21819      63726F4D 
 21819      65746572 
 21820              	.LASF35:
 21821 0c98 564C3533 		.ascii	"VL53L0X_HistogramModes\000"
 21821      4C30585F 
 21821      48697374 
 21821      6F677261 
 21821      6D4D6F64 
 21822              	.LASF355:
 21823 0caf 73756D5F 		.ascii	"sum_spads\000"
 21823      73706164 
 21823      7300
 21824              	.LASF357:
 21825 0cb9 7874616C 		.ascii	"xtalk_meas\000"
 21825      6B5F6D65 
 21825      617300
 21826              	.LASF175:
 21827 0cc4 5F737464 		.ascii	"_stdin\000"
 21827      696E00
 21828              	.LASF207:
 21829 0ccb 5F67616D 		.ascii	"_gamma_signgam\000"
 21829      6D615F73 
 21829      69676E67 
 21829      616D00
 21830              	.LASF63:
 21831 0cda 52616E67 		.ascii	"RangeStatus\000"
 21831      65537461 
 21831      74757300 
 21832              	.LASF67:
 21833 0ce6 46697273 		.ascii	"FirstBin\000"
 21833      7442696E 
 21833      00
 21834              	.LASF13:
 21835 0cef 6C6F6E67 		.ascii	"long long int\000"
 21835      206C6F6E 
 21835      6720696E 
 21835      7400
 21836              	.LASF314:
 21837 0cfd 73706164 		.ascii	"spadTypeIdentified\000"
 21837      54797065 
 21837      4964656E 
 21837      74696669 
 21837      656400
 21838              	.LASF321:
 21839 0d10 69734170 		.ascii	"isAperture\000"
 21839      65727475 
 21839      726500
ARM GAS  C:\Users\mathi\AppData\Local\Temp\ccVwcWGw.s 			page 394


 21840              	.LASF333:
 21841 0d1b 52616E67 		.ascii	"RangeOffsetRegister\000"
 21841      654F6666 
 21841      73657452 
 21841      65676973 
 21841      74657200 
 21842              	.LASF34:
 21843 0d2f 564C3533 		.ascii	"VL53L0X_DeviceModes\000"
 21843      4C30585F 
 21843      44657669 
 21843      63654D6F 
 21843      64657300 
 21844              	.LASF154:
 21845 0d43 5F626173 		.ascii	"_base\000"
 21845      6500
 21846              	.LASF187:
 21847 0d49 5F667265 		.ascii	"_freelist\000"
 21847      656C6973 
 21847      7400
 21848              	.LASF363:
 21849 0d53 7854616C 		.ascii	"xTalkCalDistanceAsInt\000"
 21849      6B43616C 
 21849      44697374 
 21849      616E6365 
 21849      4173496E 
 21850              	.LASF201:
 21851 0d69 5F6D756C 		.ascii	"_mult\000"
 21851      7400
 21852              	.LASF354:
 21853 0d6f 70585461 		.ascii	"pXTalkCompensationRateMegaCps\000"
 21853      6C6B436F 
 21853      6D70656E 
 21853      73617469 
 21853      6F6E5261 
 21854              	.LASF129:
 21855 0d8d 5F5F554C 		.ascii	"__ULong\000"
 21855      6F6E6700 
 21856              	.LASF90:
 21857 0d95 52656653 		.ascii	"RefSpadsInitialised\000"
 21857      70616473 
 21857      496E6974 
 21857      69616C69 
 21857      73656400 
 21858              	.LASF346:
 21859 0da9 52616E67 		.ascii	"RangingMeasurementData\000"
 21859      696E674D 
 21859      65617375 
 21859      72656D65 
 21859      6E744461 
 21860              	.LASF219:
 21861 0dc0 5F776372 		.ascii	"_wcrtomb_state\000"
 21861      746F6D62 
 21861      5F737461 
 21861      746500
 21862              	.LASF301:
 21863 0dcf 6765745F 		.ascii	"get_ref_spad_map\000"
 21863      7265665F 
ARM GAS  C:\Users\mathi\AppData\Local\Temp\ccVwcWGw.s 			page 395


 21863      73706164 
 21863      5F6D6170 
 21863      00
 21864              	.LASF158:
 21865 0de0 5F66696C 		.ascii	"_file\000"
 21865      6500
 21866              	.LASF345:
 21867 0de6 746F7461 		.ascii	"total_count\000"
 21867      6C5F636F 
 21867      756E7400 
 21868              	.LASF5:
 21869 0df2 5F5F696E 		.ascii	"__int16_t\000"
 21869      7431365F 
 21869      7400
 21870              	.LASF349:
 21871 0dfc 43616C44 		.ascii	"CalDistanceAsInt_mm\000"
 21871      69737461 
 21871      6E636541 
 21871      73496E74 
 21871      5F6D6D00 
 21872              	.LASF365:
 21873 0e10 564C3533 		.ascii	"VL53L0X_RdByte\000"
 21873      4C30585F 
 21873      52644279 
 21873      746500
 21874              	.LASF183:
 21875 0e1f 5F5F636C 		.ascii	"__cleanup\000"
 21875      65616E75 
 21875      7000
 21876              	.LASF127:
 21877 0e29 5F6D6273 		.ascii	"_mbstate_t\000"
 21877      74617465 
 21877      5F7400
 21878              	.LASF371:
 21879 0e34 564C3533 		.ascii	"VL53L0X_RdWord\000"
 21879      4C30585F 
 21879      5264576F 
 21879      726400
 21880              	.LASF294:
 21881 0e43 73697A65 		.ascii	"size\000"
 21881      00
 21882              	.LASF52:
 21883 0e48 52657453 		.ascii	"RetSignalAt0mm\000"
 21883      69676E61 
 21883      6C417430 
 21883      6D6D00
 21884              	.LASF338:
 21885 0e57 634D6178 		.ascii	"cMaxOffsetMicroMeter\000"
 21885      4F666673 
 21885      65744D69 
 21885      63726F4D 
 21885      65746572 
 21886              	.LASF144:
 21887 0e6c 5F5F746D 		.ascii	"__tm_isdst\000"
 21887      5F697364 
 21887      737400
 21888              	.LASF235:
ARM GAS  C:\Users\mathi\AppData\Local\Temp\ccVwcWGw.s 			page 396


 21889 0e77 72656641 		.ascii	"refArrayQuadrants\000"
 21889      72726179 
 21889      51756164 
 21889      72616E74 
 21889      7300
 21890              	.LASF331:
 21891 0e89 564C3533 		.ascii	"VL53L0X_get_offset_calibration_data_micro_meter\000"
 21891      4C30585F 
 21891      6765745F 
 21891      6F666673 
 21891      65745F63 
 21892              	.LASF248:
 21893 0eb9 564C3533 		.ascii	"VL53L0X_perform_vhv_calibration\000"
 21893      4C30585F 
 21893      70657266 
 21893      6F726D5F 
 21893      7668765F 
 21894              	.LASF220:
 21895 0ed9 5F776373 		.ascii	"_wcsrtombs_state\000"
 21895      72746F6D 
 21895      62735F73 
 21895      74617465 
 21895      00
 21896              	.LASF295:
 21897 0eea 73746172 		.ascii	"start\000"
 21897      7400
 21898              	.LASF329:
 21899 0ef0 436F7272 		.ascii	"CorrectedOffsetMicroMeters\000"
 21899      65637465 
 21899      644F6666 
 21899      7365744D 
 21899      6963726F 
 21900              	.LASF287:
 21901 0f0b 72656653 		.ascii	"refSignalRate\000"
 21901      69676E61 
 21901      6C526174 
 21901      6500
 21902              	.LASF221:
 21903 0f19 5F685F65 		.ascii	"_h_errno\000"
 21903      72726E6F 
 21903      00
 21904              	.LASF274:
 21905 0f22 564C3533 		.ascii	"VL53L0X_perform_ref_spad_management\000"
 21905      4C30585F 
 21905      70657266 
 21905      6F726D5F 
 21905      7265665F 
 21906              	.LASF254:
 21907 0f46 50686173 		.ascii	"PhaseCalint\000"
 21907      6543616C 
 21907      696E7400 
 21908              	.LASF270:
 21909 0f52 73706164 		.ascii	"spadArraySize\000"
 21909      41727261 
 21909      7953697A 
 21909      6500
 21910              	.LASF50:
ARM GAS  C:\Users\mathi\AppData\Local\Temp\ccVwcWGw.s 			page 397


 21911 0f60 564C3533 		.ascii	"VL53L0X_State\000"
 21911      4C30585F 
 21911      53746174 
 21911      6500
 21912              	.LASF53:
 21913 0f6e 564C3533 		.ascii	"VL53L0X_DMaxData_t\000"
 21913      4C30585F 
 21913      444D6178 
 21913      44617461 
 21913      5F7400
 21914              	.LASF2:
 21915 0f81 5F5F696E 		.ascii	"__int8_t\000"
 21915      74385F74 
 21915      00
 21916              	.LASF263:
 21917 0f8a 63537061 		.ascii	"cSpadArraySize\000"
 21917      64417272 
 21917      61795369 
 21917      7A6500
 21918              	.LASF265:
 21919 0f99 69734170 		.ascii	"isApertureSpads\000"
 21919      65727475 
 21919      72655370 
 21919      61647300 
 21920              	.LASF140:
 21921 0fa9 5F5F746D 		.ascii	"__tm_mon\000"
 21921      5F6D6F6E 
 21921      00
 21922              	.LASF37:
 21923 0fb2 44657669 		.ascii	"DeviceMode\000"
 21923      63654D6F 
 21923      646500
 21924              	.LASF43:
 21925 0fbd 5854616C 		.ascii	"XTalkCompensationRateMegaCps\000"
 21925      6B436F6D 
 21925      70656E73 
 21925      6174696F 
 21925      6E526174 
 21926              	.LASF21:
 21927 0fda 6C6F6E67 		.ascii	"long double\000"
 21927      20646F75 
 21927      626C6500 
 21928              	.LASF356:
 21929 0fe6 73756D5F 		.ascii	"sum_signalRate\000"
 21929      7369676E 
 21929      616C5261 
 21929      746500
 21930              	.LASF119:
 21931 0ff5 5F4C4F43 		.ascii	"_LOCK_T\000"
 21931      4B5F5400 
 21932              	.LASF18:
 21933 0ffd 75696E74 		.ascii	"uint16_t\000"
 21933      31365F74 
 21933      00
 21934              	.LASF64:
 21935 1006 564C3533 		.ascii	"VL53L0X_RangingMeasurementData_t\000"
 21935      4C30585F 
ARM GAS  C:\Users\mathi\AppData\Local\Temp\ccVwcWGw.s 			page 398


 21935      52616E67 
 21935      696E674D 
 21935      65617375 
 21936              	.LASF162:
 21937 1027 5F777269 		.ascii	"_write\000"
 21937      746500
 21938              	.LASF242:
 21939 102e 564C3533 		.ascii	"VL53L0X_set_ref_calibration\000"
 21939      4C30585F 
 21939      7365745F 
 21939      7265665F 
 21939      63616C69 
 21940              	.LASF373:
 21941 104a 564C3533 		.ascii	"VL53L0X_get_info_from_device\000"
 21941      4C30585F 
 21941      6765745F 
 21941      696E666F 
 21941      5F66726F 
 21942              	.LASF376:
 21943 1067 564C3533 		.ascii	"VL53L0X_WrWord\000"
 21943      4C30585F 
 21943      5772576F 
 21943      726400
 21944              	.LASF103:
 21945 1076 53657175 		.ascii	"SequenceConfig\000"
 21945      656E6365 
 21945      436F6E66 
 21945      696700
 21946              	.LASF150:
 21947 1085 5F617465 		.ascii	"_atexit\000"
 21947      78697400 
 21948              	.LASF173:
 21949 108d 5F726565 		.ascii	"_reent\000"
 21949      6E7400
 21950              	.LASF255:
 21951 1094 564C3533 		.ascii	"VL53L0X_perform_single_ref_calibration\000"
 21951      4C30585F 
 21951      70657266 
 21951      6F726D5F 
 21951      73696E67 
 21952              	.LASF252:
 21953 10bb 7668765F 		.ascii	"vhv_enable\000"
 21953      656E6162 
 21953      6C6500
 21954              	.LASF290:
 21955 10c6 656E6162 		.ascii	"enable_ref_spads\000"
 21955      6C655F72 
 21955      65665F73 
 21955      70616473 
 21955      00
 21956              	.LASF6:
 21957 10d7 73686F72 		.ascii	"short int\000"
 21957      7420696E 
 21957      7400
 21958              	.LASF286:
 21959 10e1 70657266 		.ascii	"perform_ref_signal_measurement\000"
 21959      6F726D5F 
ARM GAS  C:\Users\mathi\AppData\Local\Temp\ccVwcWGw.s 			page 399


 21959      7265665F 
 21959      7369676E 
 21959      616C5F6D 
 21960              	.LASF309:
 21961 1100 6C617374 		.ascii	"lastByte\000"
 21961      42797465 
 21961      00
 21962              	.LASF322:
 21963 1109 63757272 		.ascii	"curr\000"
 21963      00
 21964              	.LASF10:
 21965 110e 6C6F6E67 		.ascii	"long int\000"
 21965      20696E74 
 21965      00
 21966              	.LASF372:
 21967 1117 564C3533 		.ascii	"VL53L0X_WriteMulti\000"
 21967      4C30585F 
 21967      57726974 
 21967      654D756C 
 21967      746900
 21968              	.LASF366:
 21969 112a 564C3533 		.ascii	"VL53L0X_UpdateByte\000"
 21969      4C30585F 
 21969      55706461 
 21969      74654279 
 21969      746500
 21970              	.LASF91:
 21971 113d 50617274 		.ascii	"PartUIDUpper\000"
 21971      55494455 
 21971      70706572 
 21971      00
 21972              	.LASF110:
 21973 114a 5369676E 		.ascii	"SignalEstimate\000"
 21973      616C4573 
 21973      74696D61 
 21973      746500
 21974              	.LASF386:
 21975 1159 5F5F7374 		.ascii	"__stack_chk_fail\000"
 21975      61636B5F 
 21975      63686B5F 
 21975      6661696C 
 21975      00
 21976              	.LASF231:
 21977 116a 49326344 		.ascii	"I2cDevAddr\000"
 21977      65764164 
 21977      647200
 21978              	.LASF194:
 21979 1175 5F5F7366 		.ascii	"__sf\000"
 21979      00
 21980              	.LASF132:
 21981 117a 5F736967 		.ascii	"_sign\000"
 21981      6E00
 21982              	.LASF330:
 21983 1180 43757272 		.ascii	"CurrentOffsetMicroMeters\000"
 21983      656E744F 
 21983      66667365 
 21983      744D6963 
ARM GAS  C:\Users\mathi\AppData\Local\Temp\ccVwcWGw.s 			page 400


 21983      726F4D65 
 21984              	.LASF344:
 21985 1199 73756D5F 		.ascii	"sum_ranging\000"
 21985      72616E67 
 21985      696E6700 
 21986              	.LASF375:
 21987 11a5 564C3533 		.ascii	"VL53L0X_SetOffsetCalibrationDataMicroMeter\000"
 21987      4C30585F 
 21987      5365744F 
 21987      66667365 
 21987      7443616C 
 21988              	.LASF169:
 21989 11d0 5F646174 		.ascii	"_data\000"
 21989      6100
 21990              	.LASF111:
 21991 11d6 4C617374 		.ascii	"LastSignalRefMcps\000"
 21991      5369676E 
 21991      616C5265 
 21991      664D6370 
 21991      7300
 21992              	.LASF124:
 21993 11e8 5F5F7763 		.ascii	"__wchb\000"
 21993      686200
 21994              	.LASF228:
 21995 11ef 5F676C6F 		.ascii	"_global_impure_ptr\000"
 21995      62616C5F 
 21995      696D7075 
 21995      72655F70 
 21995      747200
 21996              	.LASF78:
 21997 1202 46696E61 		.ascii	"FinalRangeTimeoutMicroSecs\000"
 21997      6C52616E 
 21997      67655469 
 21997      6D656F75 
 21997      744D6963 
 21998              	.LASF141:
 21999 121d 5F5F746D 		.ascii	"__tm_year\000"
 21999      5F796561 
 21999      7200
 22000              	.LASF61:
 22001 1227 5A6F6E65 		.ascii	"ZoneId\000"
 22001      496400
 22002              	.LASF206:
 22003 122e 5F6C6F63 		.ascii	"_localtime_buf\000"
 22003      616C7469 
 22003      6D655F62 
 22003      756600
 22004              	.LASF244:
 22005 123d 6765745F 		.ascii	"get_data_enable\000"
 22005      64617461 
 22005      5F656E61 
 22005      626C6500 
 22006              	.LASF224:
 22007 124d 5F756E75 		.ascii	"_unused\000"
 22007      73656400 
 22008              	.LASF3:
 22009 1255 5F5F7569 		.ascii	"__uint8_t\000"
ARM GAS  C:\Users\mathi\AppData\Local\Temp\ccVwcWGw.s 			page 401


 22009      6E74385F 
 22009      7400
 22010              	.LASF239:
 22011 125f 56687653 		.ascii	"VhvSettings\000"
 22011      65747469 
 22011      6E677300 
 22012              	.LASF250:
 22013 126b 564C3533 		.ascii	"VL53L0X_ref_calibration_io\000"
 22013      4C30585F 
 22013      7265665F 
 22013      63616C69 
 22013      62726174 
 22014              	.LASF190:
 22015 1286 5F6E6577 		.ascii	"_new\000"
 22015      00
 22016              	.LASF384:
 22017 128b 433A5C55 		.ascii	"C:\\Users\\mathi\\Documents\\robotique\\robotics_pr"
 22017      73657273 
 22017      5C6D6174 
 22017      68695C44 
 22017      6F63756D 
 22018 12b9 6F6A6563 		.ascii	"oject\\robotics_project\\robotics_project\000"
 22018      745C726F 
 22018      626F7469 
 22018      63735F70 
 22018      726F6A65 
 22019              	.LASF188:
 22020 12e1 5F637674 		.ascii	"_cvtlen\000"
 22020      6C656E00 
 22021              	.LASF73:
 22022 12e9 52656647 		.ascii	"RefGoodSpadMap\000"
 22022      6F6F6453 
 22022      7061644D 
 22022      617000
 22023              	.LASF213:
 22024 12f8 5F6C3634 		.ascii	"_l64a_buf\000"
 22024      615F6275 
 22024      6600
 22025              	.LASF33:
 22026 1302 564C3533 		.ascii	"VL53L0X_Error\000"
 22026      4C30585F 
 22026      4572726F 
 22026      7200
 22027              	.LASF370:
 22028 1310 564C3533 		.ascii	"VL53L0X_PerformSingleRangingMeasurement\000"
 22028      4C30585F 
 22028      50657266 
 22028      6F726D53 
 22028      696E676C 
 22029              	.LASF378:
 22030 1338 564C3533 		.ascii	"VL53L0X_SetSequenceStepEnable\000"
 22030      4C30585F 
 22030      53657453 
 22030      65717565 
 22030      6E636553 
 22031              	.LASF360:
 22032 1356 7854616C 		.ascii	"xTalkStoredMeanRtnSpads\000"
ARM GAS  C:\Users\mathi\AppData\Local\Temp\ccVwcWGw.s 			page 402


 22032      6B53746F 
 22032      7265644D 
 22032      65616E52 
 22032      746E5370 
 22033              	.LASF306:
 22034 136e 70546F74 		.ascii	"pTotalSpadsEnabled\000"
 22034      616C5370 
 22034      61647345 
 22034      6E61626C 
 22034      656400
 22035              	.LASF167:
 22036 1381 5F626C6B 		.ascii	"_blksize\000"
 22036      73697A65 
 22036      00
 22037              	.LASF135:
 22038 138a 5F5F746D 		.ascii	"__tm\000"
 22038      00
 22039              	.LASF170:
 22040 138f 5F6C6F63 		.ascii	"_lock\000"
 22040      6B00
 22041              	.LASF271:
 22042 1395 6D617853 		.ascii	"maxSpadCount\000"
 22042      70616443 
 22042      6F756E74 
 22042      00
 22043              	.LASF297:
 22044 13a2 73706164 		.ascii	"spadCount\000"
 22044      436F756E 
 22044      7400
 22045              	.LASF316:
 22046 13ac 73706164 		.ascii	"spadIndex\000"
 22046      496E6465 
 22046      7800
 22047              	.LASF98:
 22048 13b6 43757272 		.ascii	"CurrentParameters\000"
 22048      656E7450 
 22048      6172616D 
 22048      65746572 
 22048      7300
 22049              	.LASF12:
 22050 13c8 6C6F6E67 		.ascii	"long unsigned int\000"
 22050      20756E73 
 22050      69676E65 
 22050      6420696E 
 22050      7400
 22051              	.LASF299:
 22052 13da 63757272 		.ascii	"currentSpad\000"
 22052      656E7453 
 22052      70616400 
 22053              	.LASF101:
 22054 13e6 44657669 		.ascii	"DeviceSpecificParameters\000"
 22054      63655370 
 22054      65636966 
 22054      69635061 
 22054      72616D65 
 22055              	.LASF74:
 22056 13ff 564C3533 		.ascii	"VL53L0X_SpadData_t\000"
ARM GAS  C:\Users\mathi\AppData\Local\Temp\ccVwcWGw.s 			page 403


 22056      4C30585F 
 22056      53706164 
 22056      44617461 
 22056      5F7400
 22057              	.LASF197:
 22058 1412 5F6E696F 		.ascii	"_niobs\000"
 22058      627300
 22059              	.LASF122:
 22060 1419 77696E74 		.ascii	"wint_t\000"
 22060      5F7400
 22061              	.LASF112:
 22062 1420 7054756E 		.ascii	"pTuningSettingsPointer\000"
 22062      696E6753 
 22062      65747469 
 22062      6E677350 
 22062      6F696E74 
 22063              	.LASF19:
 22064 1437 696E7433 		.ascii	"int32_t\000"
 22064      325F7400 
 22065              	.LASF147:
 22066 143f 5F64736F 		.ascii	"_dso_handle\000"
 22066      5F68616E 
 22066      646C6500 
 22067              	.LASF281:
 22068 144b 7369676E 		.ascii	"signalRateDiff\000"
 22068      616C5261 
 22068      74654469 
 22068      666600
 22069              	.LASF225:
 22070 145a 5F5F6C6F 		.ascii	"__lock\000"
 22070      636B00
 22071              	.LASF84:
 22072 1461 5369676D 		.ascii	"SigmaEstEffAmbWidth\000"
 22072      61457374 
 22072      45666641 
 22072      6D625769 
 22072      64746800 
 22073              	.LASF300:
 22074 1475 63686563 		.ascii	"checkSpadArray\000"
 22074      6B537061 
 22074      64417272 
 22074      617900
 22075              	.LASF278:
 22076 1484 6E657874 		.ascii	"nextGoodSpad\000"
 22076      476F6F64 
 22076      53706164 
 22076      00
 22077              	.LASF176:
 22078 1491 5F737464 		.ascii	"_stdout\000"
 22078      6F757400 
 22079              	.LASF189:
 22080 1499 5F637674 		.ascii	"_cvtbuf\000"
 22080      62756600 
 22081              	.LASF261:
 22082 14a1 72656653 		.ascii	"refSpadArray\000"
 22082      70616441 
 22082      72726179 
ARM GAS  C:\Users\mathi\AppData\Local\Temp\ccVwcWGw.s 			page 404


 22082      00
 22083              	.LASF4:
 22084 14ae 756E7369 		.ascii	"unsigned char\000"
 22084      676E6564 
 22084      20636861 
 22084      7200
 22085              	.LASF69:
 22086 14bc 4E756D62 		.ascii	"NumberOfBins\000"
 22086      65724F66 
 22086      42696E73 
 22086      00
 22087              	.LASF80:
 22088 14c9 50726552 		.ascii	"PreRangeTimeoutMicroSecs\000"
 22088      616E6765 
 22088      54696D65 
 22088      6F75744D 
 22088      6963726F 
 22089              	.LASF11:
 22090 14e2 5F5F7569 		.ascii	"__uint32_t\000"
 22090      6E743332 
 22090      5F7400
 22091              	.LASF116:
 22092 14ed 446D6178 		.ascii	"DmaxCalSignalRateRtnMegaCps\000"
 22092      43616C53 
 22092      69676E61 
 22092      6C526174 
 22092      6552746E 
 22093              	.LASF79:
 22094 1509 46696E61 		.ascii	"FinalRangeVcselPulsePeriod\000"
 22094      6C52616E 
 22094      67655663 
 22094      73656C50 
 22094      756C7365 
 22095              	.LASF215:
 22096 1524 5F676574 		.ascii	"_getdate_err\000"
 22096      64617465 
 22096      5F657272 
 22096      00
 22097              	.LASF159:
 22098 1531 5F6C6266 		.ascii	"_lbfsize\000"
 22098      73697A65 
 22098      00
 22099              	.LASF282:
 22100 153a 6C617374 		.ascii	"lastSignalRateDiff\000"
 22100      5369676E 
 22100      616C5261 
 22100      74654469 
 22100      666600
 22101              	.LASF117:
 22102 154d 564C3533 		.ascii	"VL53L0X_DevData_t\000"
 22102      4C30585F 
 22102      44657644 
 22102      6174615F 
 22102      7400
 22103              	.LASF148:
 22104 155f 5F666E74 		.ascii	"_fntypes\000"
 22104      79706573 
ARM GAS  C:\Users\mathi\AppData\Local\Temp\ccVwcWGw.s 			page 405


 22104      00
 22105              	.LASF202:
 22106 1568 5F616464 		.ascii	"_add\000"
 22106      00
 22107              	.LASF279:
 22108 156d 7065616B 		.ascii	"peakSignalRateRef\000"
 22108      5369676E 
 22108      616C5261 
 22108      74655265 
 22108      6600
 22109              	.LASF260:
 22110 157f 72656653 		.ascii	"refSpadsInitialised\000"
 22110      70616473 
 22110      496E6974 
 22110      69616C69 
 22110      73656400 
 22111              	.LASF28:
 22112 1593 50726F64 		.ascii	"ProductType\000"
 22112      75637454 
 22112      79706500 
 22113              	.LASF285:
 22114 159f 69734170 		.ascii	"isApertureSpads_int\000"
 22114      65727475 
 22114      72655370 
 22114      6164735F 
 22114      696E7400 
 22115              	.LASF153:
 22116 15b3 5F5F7362 		.ascii	"__sbuf\000"
 22116      756600
 22117              	.LASF272:
 22118 15ba 6C617374 		.ascii	"lastSpadIndex\000"
 22118      53706164 
 22118      496E6465 
 22118      7800
 22119              	.LASF332:
 22120 15c8 704F6666 		.ascii	"pOffsetCalibrationDataMicroMeter\000"
 22120      73657443 
 22120      616C6962 
 22120      72617469 
 22120      6F6E4461 
 22121              	.LASF77:
 22122 15e9 50696E30 		.ascii	"Pin0GpioFunctionality\000"
 22122      4770696F 
 22122      46756E63 
 22122      74696F6E 
 22122      616C6974 
 22123              	.LASF196:
 22124 15ff 5F676C75 		.ascii	"_glue\000"
 22124      6500
 22125              	.LASF335:
 22126 1605 634F6666 		.ascii	"cOffsetRange\000"
 22126      73657452 
 22126      616E6765 
 22126      00
 22127              	.LASF298:
 22128 1612 6C617374 		.ascii	"lastSpad\000"
 22128      53706164 
ARM GAS  C:\Users\mathi\AppData\Local\Temp\ccVwcWGw.s 			page 406


 22128      00
 22129              	.LASF193:
 22130 161b 5F5F7367 		.ascii	"__sglue\000"
 22130      6C756500 
 22131              	.LASF317:
 22132 1623 636F6172 		.ascii	"coarseIndex\000"
 22132      7365496E 
 22132      64657800 
 22133              	.LASF204:
 22134 162f 5F737472 		.ascii	"_strtok_last\000"
 22134      746F6B5F 
 22134      6C617374 
 22134      00
 22135              	.LASF211:
 22136 163c 5F6D6274 		.ascii	"_mbtowc_state\000"
 22136      6F77635F 
 22136      73746174 
 22136      6500
 22137              	.LASF249:
 22138 164a 50686173 		.ascii	"PhaseCalInt\000"
 22138      6543616C 
 22138      496E7400 
 22139              	.LASF181:
 22140 1656 5F6C6F63 		.ascii	"_locale\000"
 22140      616C6500 
 22141              	.LASF118:
 22142 165e 564C3533 		.ascii	"VL53L0X_VcselPeriod\000"
 22142      4C30585F 
 22142      56637365 
 22142      6C506572 
 22142      696F6400 
 22143              	.LASF146:
 22144 1672 5F666E61 		.ascii	"_fnargs\000"
 22144      72677300 
 22145              	.LASF1:
 22146 167a 7369676E 		.ascii	"signed char\000"
 22146      65642063 
 22146      68617200 
 22147              	.LASF100:
 22148 1686 4C617374 		.ascii	"LastHistogramMeasure\000"
 22148      48697374 
 22148      6F677261 
 22148      6D4D6561 
 22148      73757265 
 22149              	.LASF8:
 22150 169b 73686F72 		.ascii	"short unsigned int\000"
 22150      7420756E 
 22150      7369676E 
 22150      65642069 
 22150      6E7400
 22151              	.LASF104:
 22152 16ae 52616E67 		.ascii	"RangeFractionalEnable\000"
 22152      65467261 
 22152      6374696F 
 22152      6E616C45 
 22152      6E61626C 
 22153              	.LASF362:
ARM GAS  C:\Users\mathi\AppData\Local\Temp\ccVwcWGw.s 			page 407


 22154 16c4 7854616C 		.ascii	"xTalkStoredMeanRtnSpadsAsInt\000"
 22154      6B53746F 
 22154      7265644D 
 22154      65616E52 
 22154      746E5370 
 22155              	.LASF56:
 22156 16e1 52616E67 		.ascii	"RangeMilliMeter\000"
 22156      654D696C 
 22156      6C694D65 
 22156      74657200 
 22157              	.LASF109:
 22158 16f1 5369676D 		.ascii	"SigmaEstimate\000"
 22158      61457374 
 22158      696D6174 
 22158      6500
 22159              	.LASF82:
 22160 16ff 5369676D 		.ascii	"SigmaEstRefArray\000"
 22160      61457374 
 22160      52656641 
 22160      72726179 
 22160      00
 22161              	.LASF155:
 22162 1710 5F73697A 		.ascii	"_size\000"
 22162      6500
 22163              	.LASF62:
 22164 1716 52616E67 		.ascii	"RangeFractionalPart\000"
 22164      65467261 
 22164      6374696F 
 22164      6E616C50 
 22164      61727400 
 22165              	.LASF289:
 22166 172a 72616E67 		.ascii	"rangingMeasurementData\000"
 22166      696E674D 
 22166      65617375 
 22166      72656D65 
 22166      6E744461 
 22167              	.LASF351:
 22168 1741 6D656173 		.ascii	"meas\000"
 22168      00
 22169              	.LASF120:
 22170 1746 5F6F6666 		.ascii	"_off_t\000"
 22170      5F7400
 22171              	.LASF76:
 22172 174d 4C617374 		.ascii	"LastEncodedTimeout\000"
 22172      456E636F 
 22172      64656454 
 22172      696D656F 
 22172      757400
 22173              	.LASF166:
 22174 1760 5F6E6275 		.ascii	"_nbuf\000"
 22174      6600
 22175              	.LASF203:
 22176 1766 5F756E75 		.ascii	"_unused_rand\000"
 22176      7365645F 
 22176      72616E64 
 22176      00
 22177              	.LASF257:
ARM GAS  C:\Users\mathi\AppData\Local\Temp\ccVwcWGw.s 			page 408


 22178 1773 564C3533 		.ascii	"VL53L0X_get_reference_spads\000"
 22178      4C30585F 
 22178      6765745F 
 22178      72656665 
 22178      72656E63 
 22179              	.LASF367:
 22180 178f 564C3533 		.ascii	"VL53L0X_measurement_poll_for_completion\000"
 22180      4C30585F 
 22180      6D656173 
 22180      7572656D 
 22180      656E745F 
 22181              	.LASF292:
 22182 17b7 676F6F64 		.ascii	"goodSpadArray\000"
 22182      53706164 
 22182      41727261 
 22182      7900
 22183              	.LASF180:
 22184 17c5 5F756E73 		.ascii	"_unspecified_locale_info\000"
 22184      70656369 
 22184      66696564 
 22184      5F6C6F63 
 22184      616C655F 
 22185              	.LASF172:
 22186 17de 5F666C61 		.ascii	"_flags2\000"
 22186      67733200 
 22187              	.LASF149:
 22188 17e6 5F69735F 		.ascii	"_is_cxa\000"
 22188      63786100 
 22189              	.LASF381:
 22190 17ee 564C3533 		.ascii	"VL53L0X_SetXTalkCompensationRateMegaCps\000"
 22190      4C30585F 
 22190      53657458 
 22190      54616C6B 
 22190      436F6D70 
 22191              	.LASF105:
 22192 1816 50616C53 		.ascii	"PalState\000"
 22192      74617465 
 22192      00
 22193              	.LASF54:
 22194 181f 54696D65 		.ascii	"TimeStamp\000"
 22194      5374616D 
 22194      7000
 22195              	.LASF200:
 22196 1829 5F736565 		.ascii	"_seed\000"
 22196      6400
 22197              	.LASF208:
 22198 182f 5F72616E 		.ascii	"_rand_next\000"
 22198      645F6E65 
 22198      787400
 22199              	.LASF71:
 22200 183a 564C3533 		.ascii	"VL53L0X_HistogramMeasurementData_t\000"
 22200      4C30585F 
 22200      48697374 
 22200      6F677261 
 22200      6D4D6561 
 22201              	.LASF229:
 22202 185d 44617461 		.ascii	"Data\000"
ARM GAS  C:\Users\mathi\AppData\Local\Temp\ccVwcWGw.s 			page 409


 22202      00
 22203              	.LASF163:
 22204 1862 5F736565 		.ascii	"_seek\000"
 22204      6B00
 22205              	.LASF262:
 22206 1868 634D6178 		.ascii	"cMaxSpadCount\000"
 22206      53706164 
 22206      436F756E 
 22206      7400
 22207              	.LASF177:
 22208 1876 5F737464 		.ascii	"_stderr\000"
 22208      65727200 
 22209              	.LASF223:
 22210 187e 5F6E6D61 		.ascii	"_nmalloc\000"
 22210      6C6C6F63 
 22210      00
 22211              	.LASF165:
 22212 1887 5F756275 		.ascii	"_ubuf\000"
 22212      6600
 22213              	.LASF352:
 22214 188d 564C3533 		.ascii	"VL53L0X_perform_xtalk_calibration\000"
 22214      4C30585F 
 22214      70657266 
 22214      6F726D5F 
 22214      7874616C 
 22215              	.LASF93:
 22216 18af 5369676E 		.ascii	"SignalRateMeasFixed400mm\000"
 22216      616C5261 
 22216      74654D65 
 22216      61734669 
 22216      78656434 
 22217              	.LASF243:
 22218 18c8 564C3533 		.ascii	"VL53L0X_perform_ref_calibration\000"
 22218      4C30585F 
 22218      70657266 
 22218      6F726D5F 
 22218      7265665F 
 22219              		.ident	"GCC: (GNU Tools for Arm Embedded Processors 7-2017-q4-major) 7.2.1 20170904 (release) [ARM
ARM GAS  C:\Users\mathi\AppData\Local\Temp\ccVwcWGw.s 			page 410


DEFINED SYMBOLS
                            *ABS*:00000000 vl53l0x_api_calibration.c
C:\Users\mathi\AppData\Local\Temp\ccVwcWGw.s:18     .text.enable_ref_spads.constprop.1:00000000 $t
C:\Users\mathi\AppData\Local\Temp\ccVwcWGw.s:25     .text.enable_ref_spads.constprop.1:00000000 enable_ref_spads.constprop.1
C:\Users\mathi\AppData\Local\Temp\ccVwcWGw.s:417    .text.enable_ref_spads.constprop.1:00000198 $d
C:\Users\mathi\AppData\Local\Temp\ccVwcWGw.s:423    .text.VL53L0X_perform_xtalk_calibration:00000000 $t
C:\Users\mathi\AppData\Local\Temp\ccVwcWGw.s:431    .text.VL53L0X_perform_xtalk_calibration:00000000 VL53L0X_perform_xtalk_calibration
C:\Users\mathi\AppData\Local\Temp\ccVwcWGw.s:645    .text.VL53L0X_perform_xtalk_calibration:000000f4 $d
C:\Users\mathi\AppData\Local\Temp\ccVwcWGw.s:650    .text.VL53L0X_perform_offset_calibration:00000000 $t
C:\Users\mathi\AppData\Local\Temp\ccVwcWGw.s:658    .text.VL53L0X_perform_offset_calibration:00000000 VL53L0X_perform_offset_calibration
C:\Users\mathi\AppData\Local\Temp\ccVwcWGw.s:839    .text.VL53L0X_perform_offset_calibration:000000e4 $d
C:\Users\mathi\AppData\Local\Temp\ccVwcWGw.s:844    .text.VL53L0X_set_offset_calibration_data_micro_meter:00000000 $t
C:\Users\mathi\AppData\Local\Temp\ccVwcWGw.s:852    .text.VL53L0X_set_offset_calibration_data_micro_meter:00000000 VL53L0X_set_offset_calibration_data_micro_meter
C:\Users\mathi\AppData\Local\Temp\ccVwcWGw.s:924    .text.VL53L0X_set_offset_calibration_data_micro_meter:00000050 $d
C:\Users\mathi\AppData\Local\Temp\ccVwcWGw.s:931    .text.VL53L0X_get_offset_calibration_data_micro_meter:00000000 $t
C:\Users\mathi\AppData\Local\Temp\ccVwcWGw.s:939    .text.VL53L0X_get_offset_calibration_data_micro_meter:00000000 VL53L0X_get_offset_calibration_data_micro_meter
C:\Users\mathi\AppData\Local\Temp\ccVwcWGw.s:1014   .text.VL53L0X_get_offset_calibration_data_micro_meter:00000050 $d
C:\Users\mathi\AppData\Local\Temp\ccVwcWGw.s:1019   .text.VL53L0X_apply_offset_adjustment:00000000 $t
C:\Users\mathi\AppData\Local\Temp\ccVwcWGw.s:1027   .text.VL53L0X_apply_offset_adjustment:00000000 VL53L0X_apply_offset_adjustment
C:\Users\mathi\AppData\Local\Temp\ccVwcWGw.s:1108   .text.VL53L0X_apply_offset_adjustment:00000048 $d
C:\Users\mathi\AppData\Local\Temp\ccVwcWGw.s:1113   .text.get_next_good_spad:00000000 $t
C:\Users\mathi\AppData\Local\Temp\ccVwcWGw.s:1121   .text.get_next_good_spad:00000000 get_next_good_spad
C:\Users\mathi\AppData\Local\Temp\ccVwcWGw.s:1392   .text.get_next_good_spad:00000120 $d
C:\Users\mathi\AppData\Local\Temp\ccVwcWGw.s:1397   .text.is_aperture:00000000 $t
C:\Users\mathi\AppData\Local\Temp\ccVwcWGw.s:1405   .text.is_aperture:00000000 is_aperture
C:\Users\mathi\AppData\Local\Temp\ccVwcWGw.s:1450   .text.is_aperture:0000002c $d
C:\Users\mathi\AppData\Local\Temp\ccVwcWGw.s:1456   .text.enable_spad_bit:00000000 $t
C:\Users\mathi\AppData\Local\Temp\ccVwcWGw.s:1464   .text.enable_spad_bit:00000000 enable_spad_bit
C:\Users\mathi\AppData\Local\Temp\ccVwcWGw.s:1529   .text.enable_spad_bit:00000038 $d
C:\Users\mathi\AppData\Local\Temp\ccVwcWGw.s:1534   .text.count_enabled_spads:00000000 $t
C:\Users\mathi\AppData\Local\Temp\ccVwcWGw.s:1542   .text.count_enabled_spads:00000000 count_enabled_spads
C:\Users\mathi\AppData\Local\Temp\ccVwcWGw.s:2047   .text.count_enabled_spads:0000029c $d
C:\Users\mathi\AppData\Local\Temp\ccVwcWGw.s:2051   .text.count_enabled_spads:000002a0 $t
C:\Users\mathi\AppData\Local\Temp\ccVwcWGw.s:2058   .text.set_ref_spad_map:00000000 $t
C:\Users\mathi\AppData\Local\Temp\ccVwcWGw.s:2066   .text.set_ref_spad_map:00000000 set_ref_spad_map
C:\Users\mathi\AppData\Local\Temp\ccVwcWGw.s:2111   .text.set_ref_spad_map:00000028 $d
C:\Users\mathi\AppData\Local\Temp\ccVwcWGw.s:2116   .text.get_ref_spad_map:00000000 $t
C:\Users\mathi\AppData\Local\Temp\ccVwcWGw.s:2124   .text.get_ref_spad_map:00000000 get_ref_spad_map
C:\Users\mathi\AppData\Local\Temp\ccVwcWGw.s:2169   .text.get_ref_spad_map:00000028 $d
C:\Users\mathi\AppData\Local\Temp\ccVwcWGw.s:2174   .text.enable_ref_spads:00000000 $t
C:\Users\mathi\AppData\Local\Temp\ccVwcWGw.s:2182   .text.enable_ref_spads:00000000 enable_ref_spads
C:\Users\mathi\AppData\Local\Temp\ccVwcWGw.s:2627   .text.enable_ref_spads:000001fc $d
C:\Users\mathi\AppData\Local\Temp\ccVwcWGw.s:2635   .text.perform_ref_signal_measurement:00000000 $t
C:\Users\mathi\AppData\Local\Temp\ccVwcWGw.s:2643   .text.perform_ref_signal_measurement:00000000 perform_ref_signal_measurement
C:\Users\mathi\AppData\Local\Temp\ccVwcWGw.s:2752   .text.perform_ref_signal_measurement:00000078 $d
C:\Users\mathi\AppData\Local\Temp\ccVwcWGw.s:2757   .text.VL53L0X_set_reference_spads:00000000 $t
C:\Users\mathi\AppData\Local\Temp\ccVwcWGw.s:2765   .text.VL53L0X_set_reference_spads:00000000 VL53L0X_set_reference_spads
C:\Users\mathi\AppData\Local\Temp\ccVwcWGw.s:2940   .text.VL53L0X_set_reference_spads:000000b8 $d
C:\Users\mathi\AppData\Local\Temp\ccVwcWGw.s:2946   .text.VL53L0X_get_reference_spads:00000000 $t
C:\Users\mathi\AppData\Local\Temp\ccVwcWGw.s:2954   .text.VL53L0X_get_reference_spads:00000000 VL53L0X_get_reference_spads
C:\Users\mathi\AppData\Local\Temp\ccVwcWGw.s:3548   .text.VL53L0X_get_reference_spads:00000298 $d
C:\Users\mathi\AppData\Local\Temp\ccVwcWGw.s:3553   .text.VL53L0X_perform_single_ref_calibration:00000000 $t
C:\Users\mathi\AppData\Local\Temp\ccVwcWGw.s:3561   .text.VL53L0X_perform_single_ref_calibration:00000000 VL53L0X_perform_single_ref_calibration
C:\Users\mathi\AppData\Local\Temp\ccVwcWGw.s:3667   .text.VL53L0X_perform_single_ref_calibration:0000005c $d
C:\Users\mathi\AppData\Local\Temp\ccVwcWGw.s:3672   .text.VL53L0X_ref_calibration_io:00000000 $t
C:\Users\mathi\AppData\Local\Temp\ccVwcWGw.s:3680   .text.VL53L0X_ref_calibration_io:00000000 VL53L0X_ref_calibration_io
C:\Users\mathi\AppData\Local\Temp\ccVwcWGw.s:3891   .text.VL53L0X_ref_calibration_io:00000104 $d
ARM GAS  C:\Users\mathi\AppData\Local\Temp\ccVwcWGw.s 			page 411


C:\Users\mathi\AppData\Local\Temp\ccVwcWGw.s:3896   .text.VL53L0X_perform_vhv_calibration:00000000 $t
C:\Users\mathi\AppData\Local\Temp\ccVwcWGw.s:3904   .text.VL53L0X_perform_vhv_calibration:00000000 VL53L0X_perform_vhv_calibration
C:\Users\mathi\AppData\Local\Temp\ccVwcWGw.s:4168   .text.VL53L0X_perform_vhv_calibration:00000130 $d
C:\Users\mathi\AppData\Local\Temp\ccVwcWGw.s:4173   .text.VL53L0X_perform_phase_calibration:00000000 $t
C:\Users\mathi\AppData\Local\Temp\ccVwcWGw.s:4181   .text.VL53L0X_perform_phase_calibration:00000000 VL53L0X_perform_phase_calibration
C:\Users\mathi\AppData\Local\Temp\ccVwcWGw.s:4450   .text.VL53L0X_perform_phase_calibration:0000013c $d
C:\Users\mathi\AppData\Local\Temp\ccVwcWGw.s:4455   .text.VL53L0X_perform_ref_calibration:00000000 $t
C:\Users\mathi\AppData\Local\Temp\ccVwcWGw.s:4463   .text.VL53L0X_perform_ref_calibration:00000000 VL53L0X_perform_ref_calibration
C:\Users\mathi\AppData\Local\Temp\ccVwcWGw.s:4917   .text.VL53L0X_perform_ref_calibration:000001d8 $d
C:\Users\mathi\AppData\Local\Temp\ccVwcWGw.s:4922   .text.VL53L0X_perform_ref_spad_management:00000000 $t
C:\Users\mathi\AppData\Local\Temp\ccVwcWGw.s:4930   .text.VL53L0X_perform_ref_spad_management:00000000 VL53L0X_perform_ref_spad_management
C:\Users\mathi\AppData\Local\Temp\ccVwcWGw.s:5550   .text.VL53L0X_perform_ref_spad_management:000002f0 $d
C:\Users\mathi\AppData\Local\Temp\ccVwcWGw.s:5555   .text.VL53L0X_perform_ref_spad_management:000002f8 $t
C:\Users\mathi\AppData\Local\Temp\ccVwcWGw.s:5851   .text.VL53L0X_set_ref_calibration:00000000 $t
C:\Users\mathi\AppData\Local\Temp\ccVwcWGw.s:5859   .text.VL53L0X_set_ref_calibration:00000000 VL53L0X_set_ref_calibration
C:\Users\mathi\AppData\Local\Temp\ccVwcWGw.s:6022   .text.VL53L0X_set_ref_calibration:00000094 $d
C:\Users\mathi\AppData\Local\Temp\ccVwcWGw.s:6027   .text.VL53L0X_get_ref_calibration:00000000 $t
C:\Users\mathi\AppData\Local\Temp\ccVwcWGw.s:6035   .text.VL53L0X_get_ref_calibration:00000000 VL53L0X_get_ref_calibration
C:\Users\mathi\AppData\Local\Temp\ccVwcWGw.s:6224   .text.VL53L0X_get_ref_calibration:000000a8 $d
C:\Users\mathi\AppData\Local\Temp\ccVwcWGw.s:6234   .data.refArrayQuadrants:00000000 refArrayQuadrants
C:\Users\mathi\AppData\Local\Temp\ccVwcWGw.s:6230   .data.refArrayQuadrants:00000000 $d

UNDEFINED SYMBOLS
VL53L0X_WriteMulti
VL53L0X_ReadMulti
__stack_chk_fail
__stack_chk_guard
VL53L0X_SetXTalkCompensationEnable
VL53L0X_SetLimitCheckEnable
VL53L0X_PerformSingleRangingMeasurement
VL53L0X_SetXTalkCompensationRateMegaCps
VL53L0X_SetOffsetCalibrationDataMicroMeter
VL53L0X_GetSequenceStepEnable
VL53L0X_SetSequenceStepEnable
VL53L0X_WrWord
VL53L0X_RdWord
VL53L0X_get_info_from_device
VL53L0X_GetOffsetCalibrationDataMicroMeter
VL53L0X_WrByte
VL53L0X_measurement_poll_for_completion
VL53L0X_ClearInterruptMask
VL53L0X_UpdateByte
VL53L0X_RdByte
