ARM GAS  C:\Users\mathi\AppData\Local\Temp\cczy9ud6.s 			page 1


   1              		.cpu cortex-m4
   2              		.eabi_attribute 27, 1
   3              		.eabi_attribute 28, 1
   4              		.eabi_attribute 20, 1
   5              		.eabi_attribute 21, 1
   6              		.eabi_attribute 23, 3
   7              		.eabi_attribute 24, 1
   8              		.eabi_attribute 25, 1
   9              		.eabi_attribute 26, 1
  10              		.eabi_attribute 30, 2
  11              		.eabi_attribute 34, 1
  12              		.eabi_attribute 18, 4
  13              		.file	"vl53l0x_i2c_platform.c"
  14              		.text
  15              	.Ltext0:
  16              		.cfi_sections	.debug_frame
  17              		.section	.text.VL53L0X_write_multi,"ax",%progbits
  18              		.align	1
  19              		.p2align 4,,15
  20              		.global	VL53L0X_write_multi
  21              		.syntax unified
  22              		.thumb
  23              		.thumb_func
  24              		.fpu fpv4-sp-d16
  25              		.type	VL53L0X_write_multi, %function
  26              	VL53L0X_write_multi:
  27              	.LFB256:
  28              		.file 1 "../../lib/e-puck2_main-processor/src/sensors/VL53L0X/Api/platform/src/vl53l0x_i2c_platfor
  29              		.loc 1 8 0
  30              		.cfi_startproc
  31              		@ args = 0, pretend = 0, frame = 40
  32              		@ frame_needed = 0, uses_anonymous_args = 0
  33              	.LVL0:
  34 0000 2DE9F041 		push	{r4, r5, r6, r7, r8, lr}
  35              		.cfi_def_cfa_offset 24
  36              		.cfi_offset 4, -24
  37              		.cfi_offset 5, -20
  38              		.cfi_offset 6, -16
  39              		.cfi_offset 7, -12
  40              		.cfi_offset 8, -8
  41              		.cfi_offset 14, -4
  42 0004 1E4E     		ldr	r6, .L15
  43 0006 8EB0     		sub	sp, sp, #56
  44              		.cfi_def_cfa_offset 80
  45              		.loc 1 15 0
  46 0008 5C1C     		adds	r4, r3, #1
  47              		.loc 1 17 0
  48 000a 8DF81410 		strb	r1, [sp, #20]
  49              		.loc 1 8 0
  50 000e 3168     		ldr	r1, [r6]
  51              	.LVL1:
  52 0010 0D91     		str	r1, [sp, #52]
  53 0012 8046     		mov	r8, r0
  54              	.LVL2:
  55              		.loc 1 15 0
  56 0014 E4B2     		uxtb	r4, r4
  57              	.LVL3:
ARM GAS  C:\Users\mathi\AppData\Local\Temp\cczy9ud6.s 			page 2


  58              		.loc 1 19 0
  59 0016 2BB1     		cbz	r3, .L2
  60 0018 1146     		mov	r1, r2
  61 001a 0DF11500 		add	r0, sp, #21
  62              	.LVL4:
  63 001e 1A46     		mov	r2, r3
  64              	.LVL5:
  65 0020 FFF7FEFF 		bl	memcpy
  66              	.LVL6:
  67              	.L2:
  68              		.loc 1 23 0
  69 0024 174D     		ldr	r5, .L15+4
  70 0026 2846     		mov	r0, r5
  71 0028 FFF7FEFF 		bl	i2cAcquireBus
  72              	.LVL7:
  73              		.loc 1 24 0
  74 002c 3222     		movs	r2, #50
  75 002e 0292     		str	r2, [sp, #8]
  76 0030 0027     		movs	r7, #0
  77 0032 04AA     		add	r2, sp, #16
  78 0034 2346     		mov	r3, r4
  79 0036 CDE90027 		strd	r2, r7, [sp]
  80 003a 4FEA5801 		lsr	r1, r8, #1
  81 003e 2846     		mov	r0, r5
  82 0040 05AA     		add	r2, sp, #20
  83 0042 FFF7FEFF 		bl	i2cMasterTransmitTimeout
  84              	.LVL8:
  85              		.loc 1 26 0
  86 0046 0446     		mov	r4, r0
  87              	.LVL9:
  88 0048 50B9     		cbnz	r0, .L12
  89              		.loc 1 34 0
  90 004a 2846     		mov	r0, r5
  91              	.LVL10:
  92 004c FFF7FEFF 		bl	i2cReleaseBus
  93              	.LVL11:
  94              		.loc 1 35 0
  95 0050 2046     		mov	r0, r4
  96              	.L1:
  97              		.loc 1 36 0
  98 0052 0D9A     		ldr	r2, [sp, #52]
  99 0054 3368     		ldr	r3, [r6]
 100 0056 9A42     		cmp	r2, r3
 101 0058 10D1     		bne	.L13
 102 005a 0EB0     		add	sp, sp, #56
 103              		.cfi_remember_state
 104              		.cfi_def_cfa_offset 24
 105              		@ sp needed
 106 005c BDE8F081 		pop	{r4, r5, r6, r7, r8, pc}
 107              	.LVL12:
 108              	.L12:
 109              		.cfi_restore_state
 110              	.LBB4:
 111              	.LBB5:
 112              		.loc 1 27 0
 113 0060 2B78     		ldrb	r3, [r5]	@ zero_extendqisi2
 114 0062 052B     		cmp	r3, #5
ARM GAS  C:\Users\mathi\AppData\Local\Temp\cczy9ud6.s 			page 3


 115 0064 05D0     		beq	.L14
 116              	.LVL13:
 117              	.L4:
 118              		.loc 1 31 0
 119 0066 0748     		ldr	r0, .L15+4
 120 0068 FFF7FEFF 		bl	i2cReleaseBus
 121              	.LVL14:
 122 006c 6FF01300 		mvn	r0, #19
 123 0070 EFE7     		b	.L1
 124              	.LVL15:
 125              	.L14:
 126              		.loc 1 28 0
 127 0072 FFF7FEFF 		bl	i2c_stop
 128              	.LVL16:
 129              		.loc 1 29 0
 130 0076 FFF7FEFF 		bl	i2c_start
 131              	.LVL17:
 132 007a F4E7     		b	.L4
 133              	.LVL18:
 134              	.L13:
 135              	.LBE5:
 136              	.LBE4:
 137              		.loc 1 36 0
 138 007c FFF7FEFF 		bl	__stack_chk_fail
 139              	.LVL19:
 140              	.L16:
 141              		.align	2
 142              	.L15:
 143 0080 00000000 		.word	__stack_chk_guard
 144 0084 00000000 		.word	I2CD1
 145              		.cfi_endproc
 146              	.LFE256:
 147              		.size	VL53L0X_write_multi, .-VL53L0X_write_multi
 148              		.section	.text.VL53L0X_read_multi,"ax",%progbits
 149              		.align	1
 150              		.p2align 4,,15
 151              		.global	VL53L0X_read_multi
 152              		.syntax unified
 153              		.thumb
 154              		.thumb_func
 155              		.fpu fpv4-sp-d16
 156              		.type	VL53L0X_read_multi, %function
 157              	VL53L0X_read_multi:
 158              	.LFB257:
 159              		.loc 1 38 0
 160              		.cfi_startproc
 161              		@ args = 0, pretend = 0, frame = 8
 162              		@ frame_needed = 0, uses_anonymous_args = 0
 163              	.LVL20:
 164 0000 2DE9F047 		push	{r4, r5, r6, r7, r8, r9, r10, lr}
 165              		.cfi_def_cfa_offset 32
 166              		.cfi_offset 4, -32
 167              		.cfi_offset 5, -28
 168              		.cfi_offset 6, -24
 169              		.cfi_offset 7, -20
 170              		.cfi_offset 8, -16
 171              		.cfi_offset 9, -12
ARM GAS  C:\Users\mathi\AppData\Local\Temp\cczy9ud6.s 			page 4


 172              		.cfi_offset 10, -8
 173              		.cfi_offset 14, -4
 174 0004 1B4E     		ldr	r6, .L26
 175              		.loc 1 45 0
 176 0006 1C4D     		ldr	r5, .L26+4
 177              		.loc 1 38 0
 178 0008 3468     		ldr	r4, [r6]
 179 000a 86B0     		sub	sp, sp, #24
 180              		.cfi_def_cfa_offset 56
 181              		.loc 1 38 0
 182 000c 9146     		mov	r9, r2
 183 000e 0594     		str	r4, [sp, #20]
 184              		.loc 1 43 0
 185 0010 06AC     		add	r4, sp, #24
 186              		.loc 1 38 0
 187 0012 9A46     		mov	r10, r3
 188              		.loc 1 43 0
 189 0014 04F8081D 		strb	r1, [r4, #-8]!
 190              		.loc 1 38 0
 191 0018 8046     		mov	r8, r0
 192              	.LVL21:
 193              		.loc 1 46 0
 194 001a 3227     		movs	r7, #50
 195              		.loc 1 45 0
 196 001c 2846     		mov	r0, r5
 197              	.LVL22:
 198 001e FFF7FEFF 		bl	i2cAcquireBus
 199              	.LVL23:
 200              		.loc 1 46 0
 201 0022 CDF804A0 		str	r10, [sp, #4]
 202 0026 2246     		mov	r2, r4
 203 0028 CDF80090 		str	r9, [sp]
 204 002c 4FEA5801 		lsr	r1, r8, #1
 205 0030 2846     		mov	r0, r5
 206 0032 0297     		str	r7, [sp, #8]
 207 0034 0123     		movs	r3, #1
 208 0036 FFF7FEFF 		bl	i2cMasterTransmitTimeout
 209              	.LVL24:
 210              		.loc 1 48 0
 211 003a 58B9     		cbnz	r0, .L23
 212 003c 0446     		mov	r4, r0
 213              		.loc 1 56 0
 214 003e 2846     		mov	r0, r5
 215              	.LVL25:
 216 0040 FFF7FEFF 		bl	i2cReleaseBus
 217              	.LVL26:
 218              		.loc 1 57 0
 219 0044 2046     		mov	r0, r4
 220              	.LVL27:
 221              	.L17:
 222              		.loc 1 58 0
 223 0046 059A     		ldr	r2, [sp, #20]
 224 0048 3368     		ldr	r3, [r6]
 225 004a 9A42     		cmp	r2, r3
 226 004c 10D1     		bne	.L24
 227 004e 06B0     		add	sp, sp, #24
 228              		.cfi_remember_state
ARM GAS  C:\Users\mathi\AppData\Local\Temp\cczy9ud6.s 			page 5


 229              		.cfi_def_cfa_offset 32
 230              		@ sp needed
 231 0050 BDE8F087 		pop	{r4, r5, r6, r7, r8, r9, r10, pc}
 232              	.LVL28:
 233              	.L23:
 234              		.cfi_restore_state
 235              	.LBB8:
 236              	.LBB9:
 237              		.loc 1 49 0
 238 0054 2B78     		ldrb	r3, [r5]	@ zero_extendqisi2
 239 0056 052B     		cmp	r3, #5
 240 0058 05D0     		beq	.L25
 241              	.LVL29:
 242              	.L19:
 243              		.loc 1 53 0
 244 005a 0748     		ldr	r0, .L26+4
 245 005c FFF7FEFF 		bl	i2cReleaseBus
 246              	.LVL30:
 247 0060 6FF01300 		mvn	r0, #19
 248 0064 EFE7     		b	.L17
 249              	.LVL31:
 250              	.L25:
 251              		.loc 1 50 0
 252 0066 FFF7FEFF 		bl	i2c_stop
 253              	.LVL32:
 254              		.loc 1 51 0
 255 006a FFF7FEFF 		bl	i2c_start
 256              	.LVL33:
 257 006e F4E7     		b	.L19
 258              	.LVL34:
 259              	.L24:
 260              	.LBE9:
 261              	.LBE8:
 262              		.loc 1 58 0
 263 0070 FFF7FEFF 		bl	__stack_chk_fail
 264              	.LVL35:
 265              	.L27:
 266              		.align	2
 267              	.L26:
 268 0074 00000000 		.word	__stack_chk_guard
 269 0078 00000000 		.word	I2CD1
 270              		.cfi_endproc
 271              	.LFE257:
 272              		.size	VL53L0X_read_multi, .-VL53L0X_read_multi
 273              		.section	.text.VL53L0X_write_byte,"ax",%progbits
 274              		.align	1
 275              		.p2align 4,,15
 276              		.global	VL53L0X_write_byte
 277              		.syntax unified
 278              		.thumb
 279              		.thumb_func
 280              		.fpu fpv4-sp-d16
 281              		.type	VL53L0X_write_byte, %function
 282              	VL53L0X_write_byte:
 283              	.LFB258:
 284              		.loc 1 60 0
 285              		.cfi_startproc
ARM GAS  C:\Users\mathi\AppData\Local\Temp\cczy9ud6.s 			page 6


 286              		@ args = 0, pretend = 0, frame = 40
 287              		@ frame_needed = 0, uses_anonymous_args = 0
 288              	.LVL36:
 289 0000 F0B5     		push	{r4, r5, r6, r7, lr}
 290              		.cfi_def_cfa_offset 20
 291              		.cfi_offset 4, -20
 292              		.cfi_offset 5, -16
 293              		.cfi_offset 6, -12
 294              		.cfi_offset 7, -8
 295              		.cfi_offset 14, -4
 296              	.LBB14:
 297              	.LBB15:
 298              		.loc 1 23 0
 299 0002 1A4D     		ldr	r5, .L37
 300              	.LBE15:
 301              	.LBE14:
 302              		.loc 1 60 0
 303 0004 1A4E     		ldr	r6, .L37+4
 304 0006 8FB0     		sub	sp, sp, #60
 305              		.cfi_def_cfa_offset 80
 306              		.loc 1 60 0
 307 0008 3368     		ldr	r3, [r6]
 308              	.LBB22:
 309              	.LBB18:
 310              		.loc 1 17 0
 311 000a 8DF81410 		strb	r1, [sp, #20]
 312              	.LBE18:
 313              	.LBE22:
 314              		.loc 1 60 0
 315 000e 0746     		mov	r7, r0
 316              	.LBB23:
 317              	.LBB19:
 318              		.loc 1 23 0
 319 0010 2846     		mov	r0, r5
 320              	.LVL37:
 321              		.loc 1 20 0
 322 0012 8DF81520 		strb	r2, [sp, #21]
 323              	.LBE19:
 324              	.LBE23:
 325              		.loc 1 60 0
 326 0016 0D93     		str	r3, [sp, #52]
 327              	.LVL38:
 328              	.LBB24:
 329              	.LBB20:
 330              		.loc 1 24 0
 331 0018 3224     		movs	r4, #50
 332              		.loc 1 23 0
 333 001a FFF7FEFF 		bl	i2cAcquireBus
 334              	.LVL39:
 335              		.loc 1 24 0
 336 001e 0022     		movs	r2, #0
 337 0020 04AB     		add	r3, sp, #16
 338 0022 CDE90124 		strd	r2, r4, [sp, #4]
 339 0026 0093     		str	r3, [sp]
 340 0028 7908     		lsrs	r1, r7, #1
 341 002a 2846     		mov	r0, r5
 342 002c 0223     		movs	r3, #2
ARM GAS  C:\Users\mathi\AppData\Local\Temp\cczy9ud6.s 			page 7


 343 002e 05AA     		add	r2, sp, #20
 344 0030 FFF7FEFF 		bl	i2cMasterTransmitTimeout
 345              	.LVL40:
 346              		.loc 1 26 0
 347 0034 50B9     		cbnz	r0, .L34
 348 0036 0446     		mov	r4, r0
 349              		.loc 1 34 0
 350 0038 2846     		mov	r0, r5
 351              	.LVL41:
 352 003a FFF7FEFF 		bl	i2cReleaseBus
 353              	.LVL42:
 354              		.loc 1 35 0
 355 003e 2046     		mov	r0, r4
 356              	.LVL43:
 357              	.L28:
 358              	.LBE20:
 359              	.LBE24:
 360              		.loc 1 62 0
 361 0040 0D9A     		ldr	r2, [sp, #52]
 362 0042 3368     		ldr	r3, [r6]
 363 0044 9A42     		cmp	r2, r3
 364 0046 0FD1     		bne	.L35
 365 0048 0FB0     		add	sp, sp, #60
 366              		.cfi_remember_state
 367              		.cfi_def_cfa_offset 20
 368              		@ sp needed
 369 004a F0BD     		pop	{r4, r5, r6, r7, pc}
 370              	.LVL44:
 371              	.L34:
 372              		.cfi_restore_state
 373              	.LBB25:
 374              	.LBB21:
 375              	.LBB16:
 376              	.LBB17:
 377              		.loc 1 27 0
 378 004c 2B78     		ldrb	r3, [r5]	@ zero_extendqisi2
 379 004e 052B     		cmp	r3, #5
 380 0050 05D0     		beq	.L36
 381              	.LVL45:
 382              	.L30:
 383              		.loc 1 31 0
 384 0052 0648     		ldr	r0, .L37
 385 0054 FFF7FEFF 		bl	i2cReleaseBus
 386              	.LVL46:
 387 0058 6FF01300 		mvn	r0, #19
 388 005c F0E7     		b	.L28
 389              	.LVL47:
 390              	.L36:
 391              		.loc 1 28 0
 392 005e FFF7FEFF 		bl	i2c_stop
 393              	.LVL48:
 394              		.loc 1 29 0
 395 0062 FFF7FEFF 		bl	i2c_start
 396              	.LVL49:
 397 0066 F4E7     		b	.L30
 398              	.LVL50:
 399              	.L35:
ARM GAS  C:\Users\mathi\AppData\Local\Temp\cczy9ud6.s 			page 8


 400              	.LBE17:
 401              	.LBE16:
 402              	.LBE21:
 403              	.LBE25:
 404              		.loc 1 62 0
 405 0068 FFF7FEFF 		bl	__stack_chk_fail
 406              	.LVL51:
 407              	.L38:
 408              		.align	2
 409              	.L37:
 410 006c 00000000 		.word	I2CD1
 411 0070 00000000 		.word	__stack_chk_guard
 412              		.cfi_endproc
 413              	.LFE258:
 414              		.size	VL53L0X_write_byte, .-VL53L0X_write_byte
 415              		.section	.text.VL53L0X_write_word,"ax",%progbits
 416              		.align	1
 417              		.p2align 4,,15
 418              		.global	VL53L0X_write_word
 419              		.syntax unified
 420              		.thumb
 421              		.thumb_func
 422              		.fpu fpv4-sp-d16
 423              		.type	VL53L0X_write_word, %function
 424              	VL53L0X_write_word:
 425              	.LFB259:
 426              		.loc 1 64 0
 427              		.cfi_startproc
 428              		@ args = 0, pretend = 0, frame = 40
 429              		@ frame_needed = 0, uses_anonymous_args = 0
 430              	.LVL52:
 431 0000 F0B5     		push	{r4, r5, r6, r7, lr}
 432              		.cfi_def_cfa_offset 20
 433              		.cfi_offset 4, -20
 434              		.cfi_offset 5, -16
 435              		.cfi_offset 6, -12
 436              		.cfi_offset 7, -8
 437              		.cfi_offset 14, -4
 438              	.LBB30:
 439              	.LBB31:
 440              		.loc 1 23 0
 441 0002 1C4D     		ldr	r5, .L48
 442              	.LBE31:
 443              	.LBE30:
 444              		.loc 1 64 0
 445 0004 1C4E     		ldr	r6, .L48+4
 446 0006 8FB0     		sub	sp, sp, #60
 447              		.cfi_def_cfa_offset 80
 448              		.loc 1 64 0
 449 0008 3368     		ldr	r3, [r6]
 450              	.LBB38:
 451              	.LBB34:
 452              		.loc 1 17 0
 453 000a 8DF81410 		strb	r1, [sp, #20]
 454              	.LBE34:
 455              	.LBE38:
 456              		.loc 1 64 0
ARM GAS  C:\Users\mathi\AppData\Local\Temp\cczy9ud6.s 			page 9


 457 000e 0746     		mov	r7, r0
 458              		.loc 1 67 0
 459 0010 110A     		lsrs	r1, r2, #8
 460              	.LVL53:
 461              	.LBB39:
 462              	.LBB35:
 463              		.loc 1 23 0
 464 0012 2846     		mov	r0, r5
 465              	.LVL54:
 466              	.LBE35:
 467              	.LBE39:
 468              		.loc 1 66 0
 469 0014 8DF81620 		strb	r2, [sp, #22]
 470              		.loc 1 67 0
 471 0018 8DF81510 		strb	r1, [sp, #21]
 472              		.loc 1 64 0
 473 001c 0D93     		str	r3, [sp, #52]
 474              	.LVL55:
 475              	.LBB40:
 476              	.LBB36:
 477              		.loc 1 24 0
 478 001e 3224     		movs	r4, #50
 479              		.loc 1 23 0
 480 0020 FFF7FEFF 		bl	i2cAcquireBus
 481              	.LVL56:
 482              		.loc 1 24 0
 483 0024 0022     		movs	r2, #0
 484 0026 04AB     		add	r3, sp, #16
 485 0028 CDE90124 		strd	r2, r4, [sp, #4]
 486 002c 0093     		str	r3, [sp]
 487 002e 7908     		lsrs	r1, r7, #1
 488 0030 2846     		mov	r0, r5
 489 0032 0323     		movs	r3, #3
 490 0034 05AA     		add	r2, sp, #20
 491 0036 FFF7FEFF 		bl	i2cMasterTransmitTimeout
 492              	.LVL57:
 493              		.loc 1 26 0
 494 003a 50B9     		cbnz	r0, .L45
 495 003c 0446     		mov	r4, r0
 496              		.loc 1 34 0
 497 003e 2846     		mov	r0, r5
 498              	.LVL58:
 499 0040 FFF7FEFF 		bl	i2cReleaseBus
 500              	.LVL59:
 501              		.loc 1 35 0
 502 0044 2046     		mov	r0, r4
 503              	.LVL60:
 504              	.L39:
 505              	.LBE36:
 506              	.LBE40:
 507              		.loc 1 69 0
 508 0046 0D9A     		ldr	r2, [sp, #52]
 509 0048 3368     		ldr	r3, [r6]
 510 004a 9A42     		cmp	r2, r3
 511 004c 0FD1     		bne	.L46
 512 004e 0FB0     		add	sp, sp, #60
 513              		.cfi_remember_state
ARM GAS  C:\Users\mathi\AppData\Local\Temp\cczy9ud6.s 			page 10


 514              		.cfi_def_cfa_offset 20
 515              		@ sp needed
 516 0050 F0BD     		pop	{r4, r5, r6, r7, pc}
 517              	.LVL61:
 518              	.L45:
 519              		.cfi_restore_state
 520              	.LBB41:
 521              	.LBB37:
 522              	.LBB32:
 523              	.LBB33:
 524              		.loc 1 27 0
 525 0052 2B78     		ldrb	r3, [r5]	@ zero_extendqisi2
 526 0054 052B     		cmp	r3, #5
 527 0056 05D0     		beq	.L47
 528              	.LVL62:
 529              	.L41:
 530              		.loc 1 31 0
 531 0058 0648     		ldr	r0, .L48
 532 005a FFF7FEFF 		bl	i2cReleaseBus
 533              	.LVL63:
 534 005e 6FF01300 		mvn	r0, #19
 535 0062 F0E7     		b	.L39
 536              	.LVL64:
 537              	.L47:
 538              		.loc 1 28 0
 539 0064 FFF7FEFF 		bl	i2c_stop
 540              	.LVL65:
 541              		.loc 1 29 0
 542 0068 FFF7FEFF 		bl	i2c_start
 543              	.LVL66:
 544 006c F4E7     		b	.L41
 545              	.LVL67:
 546              	.L46:
 547              	.LBE33:
 548              	.LBE32:
 549              	.LBE37:
 550              	.LBE41:
 551              		.loc 1 69 0
 552 006e FFF7FEFF 		bl	__stack_chk_fail
 553              	.LVL68:
 554              	.L49:
 555 0072 00BF     		.align	2
 556              	.L48:
 557 0074 00000000 		.word	I2CD1
 558 0078 00000000 		.word	__stack_chk_guard
 559              		.cfi_endproc
 560              	.LFE259:
 561              		.size	VL53L0X_write_word, .-VL53L0X_write_word
 562              		.section	.text.VL53L0X_write_dword,"ax",%progbits
 563              		.align	1
 564              		.p2align 4,,15
 565              		.global	VL53L0X_write_dword
 566              		.syntax unified
 567              		.thumb
 568              		.thumb_func
 569              		.fpu fpv4-sp-d16
 570              		.type	VL53L0X_write_dword, %function
ARM GAS  C:\Users\mathi\AppData\Local\Temp\cczy9ud6.s 			page 11


 571              	VL53L0X_write_dword:
 572              	.LFB260:
 573              		.loc 1 71 0
 574              		.cfi_startproc
 575              		@ args = 0, pretend = 0, frame = 40
 576              		@ frame_needed = 0, uses_anonymous_args = 0
 577              	.LVL69:
 578 0000 F0B5     		push	{r4, r5, r6, r7, lr}
 579              		.cfi_def_cfa_offset 20
 580              		.cfi_offset 4, -20
 581              		.cfi_offset 5, -16
 582              		.cfi_offset 6, -12
 583              		.cfi_offset 7, -8
 584              		.cfi_offset 14, -4
 585              	.LBB46:
 586              	.LBB47:
 587              		.loc 1 23 0
 588 0002 1F4D     		ldr	r5, .L59
 589              	.LBE47:
 590              	.LBE46:
 591              		.loc 1 71 0
 592 0004 1F4E     		ldr	r6, .L59+4
 593 0006 8FB0     		sub	sp, sp, #60
 594              		.cfi_def_cfa_offset 80
 595              		.loc 1 71 0
 596 0008 0746     		mov	r7, r0
 597              		.loc 1 75 0
 598 000a 100A     		lsrs	r0, r2, #8
 599              	.LVL70:
 600              		.loc 1 71 0
 601 000c 3368     		ldr	r3, [r6]
 602              	.LBB54:
 603              	.LBB50:
 604              		.loc 1 17 0
 605 000e 8DF81410 		strb	r1, [sp, #20]
 606              	.LBE50:
 607              	.LBE54:
 608              		.loc 1 74 0
 609 0012 8DF81820 		strb	r2, [sp, #24]
 610              		.loc 1 76 0
 611 0016 110C     		lsrs	r1, r2, #16
 612              	.LVL71:
 613              		.loc 1 75 0
 614 0018 8DF81700 		strb	r0, [sp, #23]
 615              		.loc 1 77 0
 616 001c 120E     		lsrs	r2, r2, #24
 617              	.LVL72:
 618              	.LBB55:
 619              	.LBB51:
 620              		.loc 1 23 0
 621 001e 2846     		mov	r0, r5
 622              	.LBE51:
 623              	.LBE55:
 624              		.loc 1 76 0
 625 0020 8DF81610 		strb	r1, [sp, #22]
 626              		.loc 1 77 0
 627 0024 8DF81520 		strb	r2, [sp, #21]
ARM GAS  C:\Users\mathi\AppData\Local\Temp\cczy9ud6.s 			page 12


 628              		.loc 1 71 0
 629 0028 0D93     		str	r3, [sp, #52]
 630              	.LVL73:
 631              	.LBB56:
 632              	.LBB52:
 633              		.loc 1 24 0
 634 002a 3224     		movs	r4, #50
 635              		.loc 1 23 0
 636 002c FFF7FEFF 		bl	i2cAcquireBus
 637              	.LVL74:
 638              		.loc 1 24 0
 639 0030 0022     		movs	r2, #0
 640 0032 04AB     		add	r3, sp, #16
 641 0034 CDE90124 		strd	r2, r4, [sp, #4]
 642 0038 0093     		str	r3, [sp]
 643 003a 7908     		lsrs	r1, r7, #1
 644 003c 2846     		mov	r0, r5
 645 003e 0523     		movs	r3, #5
 646 0040 05AA     		add	r2, sp, #20
 647 0042 FFF7FEFF 		bl	i2cMasterTransmitTimeout
 648              	.LVL75:
 649              		.loc 1 26 0
 650 0046 50B9     		cbnz	r0, .L56
 651 0048 0446     		mov	r4, r0
 652              		.loc 1 34 0
 653 004a 2846     		mov	r0, r5
 654              	.LVL76:
 655 004c FFF7FEFF 		bl	i2cReleaseBus
 656              	.LVL77:
 657              		.loc 1 35 0
 658 0050 2046     		mov	r0, r4
 659              	.LVL78:
 660              	.L50:
 661              	.LBE52:
 662              	.LBE56:
 663              		.loc 1 80 0
 664 0052 0D9A     		ldr	r2, [sp, #52]
 665 0054 3368     		ldr	r3, [r6]
 666 0056 9A42     		cmp	r2, r3
 667 0058 0FD1     		bne	.L57
 668 005a 0FB0     		add	sp, sp, #60
 669              		.cfi_remember_state
 670              		.cfi_def_cfa_offset 20
 671              		@ sp needed
 672 005c F0BD     		pop	{r4, r5, r6, r7, pc}
 673              	.LVL79:
 674              	.L56:
 675              		.cfi_restore_state
 676              	.LBB57:
 677              	.LBB53:
 678              	.LBB48:
 679              	.LBB49:
 680              		.loc 1 27 0
 681 005e 2B78     		ldrb	r3, [r5]	@ zero_extendqisi2
 682 0060 052B     		cmp	r3, #5
 683 0062 05D0     		beq	.L58
 684              	.LVL80:
ARM GAS  C:\Users\mathi\AppData\Local\Temp\cczy9ud6.s 			page 13


 685              	.L52:
 686              		.loc 1 31 0
 687 0064 0648     		ldr	r0, .L59
 688 0066 FFF7FEFF 		bl	i2cReleaseBus
 689              	.LVL81:
 690 006a 6FF01300 		mvn	r0, #19
 691 006e F0E7     		b	.L50
 692              	.LVL82:
 693              	.L58:
 694              		.loc 1 28 0
 695 0070 FFF7FEFF 		bl	i2c_stop
 696              	.LVL83:
 697              		.loc 1 29 0
 698 0074 FFF7FEFF 		bl	i2c_start
 699              	.LVL84:
 700 0078 F4E7     		b	.L52
 701              	.LVL85:
 702              	.L57:
 703              	.LBE49:
 704              	.LBE48:
 705              	.LBE53:
 706              	.LBE57:
 707              		.loc 1 80 0
 708 007a FFF7FEFF 		bl	__stack_chk_fail
 709              	.LVL86:
 710              	.L60:
 711 007e 00BF     		.align	2
 712              	.L59:
 713 0080 00000000 		.word	I2CD1
 714 0084 00000000 		.word	__stack_chk_guard
 715              		.cfi_endproc
 716              	.LFE260:
 717              		.size	VL53L0X_write_dword, .-VL53L0X_write_dword
 718              		.section	.text.VL53L0X_read_byte,"ax",%progbits
 719              		.align	1
 720              		.p2align 4,,15
 721              		.global	VL53L0X_read_byte
 722              		.syntax unified
 723              		.thumb
 724              		.thumb_func
 725              		.fpu fpv4-sp-d16
 726              		.type	VL53L0X_read_byte, %function
 727              	VL53L0X_read_byte:
 728              	.LFB261:
 729              		.loc 1 82 0
 730              		.cfi_startproc
 731              		@ args = 0, pretend = 0, frame = 8
 732              		@ frame_needed = 0, uses_anonymous_args = 0
 733              	.LVL87:
 734 0000 2DE9F043 		push	{r4, r5, r6, r7, r8, r9, lr}
 735              		.cfi_def_cfa_offset 28
 736              		.cfi_offset 4, -28
 737              		.cfi_offset 5, -24
 738              		.cfi_offset 6, -20
 739              		.cfi_offset 7, -16
 740              		.cfi_offset 8, -12
 741              		.cfi_offset 9, -8
ARM GAS  C:\Users\mathi\AppData\Local\Temp\cczy9ud6.s 			page 14


 742              		.cfi_offset 14, -4
 743 0004 87B0     		sub	sp, sp, #28
 744              		.cfi_def_cfa_offset 56
 745              	.LBB62:
 746              	.LBB63:
 747              		.loc 1 45 0
 748 0006 1A4D     		ldr	r5, .L70
 749              	.LBE63:
 750              	.LBE62:
 751              		.loc 1 82 0
 752 0008 1A4E     		ldr	r6, .L70+4
 753              	.LBB71:
 754              	.LBB66:
 755              		.loc 1 43 0
 756 000a 06AC     		add	r4, sp, #24
 757              	.LBE66:
 758              	.LBE71:
 759              		.loc 1 82 0
 760 000c 3368     		ldr	r3, [r6]
 761              	.LBB72:
 762              	.LBB67:
 763              		.loc 1 43 0
 764 000e 04F8081D 		strb	r1, [r4, #-8]!
 765              	.LBE67:
 766              	.LBE72:
 767              		.loc 1 82 0
 768 0012 8046     		mov	r8, r0
 769              	.LVL88:
 770              	.LBB73:
 771              	.LBB68:
 772              		.loc 1 45 0
 773 0014 2846     		mov	r0, r5
 774              	.LVL89:
 775              	.LBE68:
 776              	.LBE73:
 777              		.loc 1 82 0
 778 0016 9146     		mov	r9, r2
 779 0018 0593     		str	r3, [sp, #20]
 780              	.LBB74:
 781              	.LBB69:
 782              		.loc 1 46 0
 783 001a 3227     		movs	r7, #50
 784              		.loc 1 45 0
 785 001c FFF7FEFF 		bl	i2cAcquireBus
 786              	.LVL90:
 787              		.loc 1 46 0
 788 0020 0123     		movs	r3, #1
 789 0022 CDF80090 		str	r9, [sp]
 790 0026 2246     		mov	r2, r4
 791 0028 28FA03F1 		lsr	r1, r8, r3
 792 002c 2846     		mov	r0, r5
 793 002e CDE90137 		strd	r3, r7, [sp, #4]
 794 0032 FFF7FEFF 		bl	i2cMasterTransmitTimeout
 795              	.LVL91:
 796              		.loc 1 48 0
 797 0036 58B9     		cbnz	r0, .L67
 798 0038 0446     		mov	r4, r0
ARM GAS  C:\Users\mathi\AppData\Local\Temp\cczy9ud6.s 			page 15


 799              		.loc 1 56 0
 800 003a 2846     		mov	r0, r5
 801              	.LVL92:
 802 003c FFF7FEFF 		bl	i2cReleaseBus
 803              	.LVL93:
 804              		.loc 1 57 0
 805 0040 2046     		mov	r0, r4
 806              	.LVL94:
 807              	.L61:
 808              	.LBE69:
 809              	.LBE74:
 810              		.loc 1 84 0
 811 0042 059A     		ldr	r2, [sp, #20]
 812 0044 3368     		ldr	r3, [r6]
 813 0046 9A42     		cmp	r2, r3
 814 0048 10D1     		bne	.L68
 815 004a 07B0     		add	sp, sp, #28
 816              		.cfi_remember_state
 817              		.cfi_def_cfa_offset 28
 818              		@ sp needed
 819 004c BDE8F083 		pop	{r4, r5, r6, r7, r8, r9, pc}
 820              	.LVL95:
 821              	.L67:
 822              		.cfi_restore_state
 823              	.LBB75:
 824              	.LBB70:
 825              	.LBB64:
 826              	.LBB65:
 827              		.loc 1 49 0
 828 0050 2B78     		ldrb	r3, [r5]	@ zero_extendqisi2
 829 0052 052B     		cmp	r3, #5
 830 0054 05D0     		beq	.L69
 831              	.LVL96:
 832              	.L63:
 833              		.loc 1 53 0
 834 0056 0648     		ldr	r0, .L70
 835 0058 FFF7FEFF 		bl	i2cReleaseBus
 836              	.LVL97:
 837 005c 6FF01300 		mvn	r0, #19
 838 0060 EFE7     		b	.L61
 839              	.LVL98:
 840              	.L69:
 841              		.loc 1 50 0
 842 0062 FFF7FEFF 		bl	i2c_stop
 843              	.LVL99:
 844              		.loc 1 51 0
 845 0066 FFF7FEFF 		bl	i2c_start
 846              	.LVL100:
 847 006a F4E7     		b	.L63
 848              	.LVL101:
 849              	.L68:
 850              	.LBE65:
 851              	.LBE64:
 852              	.LBE70:
 853              	.LBE75:
 854              		.loc 1 84 0
 855 006c FFF7FEFF 		bl	__stack_chk_fail
ARM GAS  C:\Users\mathi\AppData\Local\Temp\cczy9ud6.s 			page 16


 856              	.LVL102:
 857              	.L71:
 858              		.align	2
 859              	.L70:
 860 0070 00000000 		.word	I2CD1
 861 0074 00000000 		.word	__stack_chk_guard
 862              		.cfi_endproc
 863              	.LFE261:
 864              		.size	VL53L0X_read_byte, .-VL53L0X_read_byte
 865              		.section	.text.VL53L0X_read_word,"ax",%progbits
 866              		.align	1
 867              		.p2align 4,,15
 868              		.global	VL53L0X_read_word
 869              		.syntax unified
 870              		.thumb
 871              		.thumb_func
 872              		.fpu fpv4-sp-d16
 873              		.type	VL53L0X_read_word, %function
 874              	VL53L0X_read_word:
 875              	.LFB262:
 876              		.loc 1 86 0
 877              		.cfi_startproc
 878              		@ args = 0, pretend = 0, frame = 16
 879              		@ frame_needed = 0, uses_anonymous_args = 0
 880              	.LVL103:
 881 0000 2DE9F041 		push	{r4, r5, r6, r7, r8, lr}
 882              		.cfi_def_cfa_offset 24
 883              		.cfi_offset 4, -24
 884              		.cfi_offset 5, -20
 885              		.cfi_offset 6, -16
 886              		.cfi_offset 7, -12
 887              		.cfi_offset 8, -8
 888              		.cfi_offset 14, -4
 889              	.LBB80:
 890              	.LBB81:
 891              		.loc 1 45 0
 892 0004 1D4D     		ldr	r5, .L81
 893              	.LBE81:
 894              	.LBE80:
 895              		.loc 1 86 0
 896 0006 1E4E     		ldr	r6, .L81+4
 897 0008 88B0     		sub	sp, sp, #32
 898              		.cfi_def_cfa_offset 56
 899              	.LBB89:
 900              	.LBB84:
 901              		.loc 1 43 0
 902 000a 08AC     		add	r4, sp, #32
 903              	.LBE84:
 904              	.LBE89:
 905              		.loc 1 86 0
 906 000c 3368     		ldr	r3, [r6]
 907              	.LBB90:
 908              	.LBB85:
 909              		.loc 1 43 0
 910 000e 04F80C1D 		strb	r1, [r4, #-12]!
 911              	.LBE85:
 912              	.LBE90:
ARM GAS  C:\Users\mathi\AppData\Local\Temp\cczy9ud6.s 			page 17


 913              		.loc 1 86 0
 914 0012 8046     		mov	r8, r0
 915              	.LVL104:
 916              	.LBB91:
 917              	.LBB86:
 918              		.loc 1 45 0
 919 0014 2846     		mov	r0, r5
 920              	.LVL105:
 921              	.LBE86:
 922              	.LBE91:
 923              		.loc 1 86 0
 924 0016 0793     		str	r3, [sp, #28]
 925 0018 1746     		mov	r7, r2
 926              	.LBB92:
 927              	.LBB87:
 928              		.loc 1 45 0
 929 001a FFF7FEFF 		bl	i2cAcquireBus
 930              	.LVL106:
 931              		.loc 1 46 0
 932 001e 3223     		movs	r3, #50
 933 0020 4FF0020C 		mov	ip, #2
 934 0024 0293     		str	r3, [sp, #8]
 935 0026 06AB     		add	r3, sp, #24
 936              	.LVL107:
 937 0028 CDE9003C 		strd	r3, ip, [sp]
 938 002c 2246     		mov	r2, r4
 939 002e 4FEA5801 		lsr	r1, r8, #1
 940 0032 2846     		mov	r0, r5
 941 0034 0123     		movs	r3, #1
 942              	.LVL108:
 943 0036 FFF7FEFF 		bl	i2cMasterTransmitTimeout
 944              	.LVL109:
 945              		.loc 1 48 0
 946 003a 78B9     		cbnz	r0, .L78
 947 003c 0446     		mov	r4, r0
 948              		.loc 1 56 0
 949 003e 2846     		mov	r0, r5
 950              	.LVL110:
 951 0040 FFF7FEFF 		bl	i2cReleaseBus
 952              	.LVL111:
 953              		.loc 1 57 0
 954 0044 2046     		mov	r0, r4
 955              	.LVL112:
 956              	.L75:
 957              	.LBE87:
 958              	.LBE92:
 959              		.loc 1 94 0
 960 0046 BDF81830 		ldrh	r3, [sp, #24]
 961              		.loc 1 97 0
 962 004a 079A     		ldr	r2, [sp, #28]
 963              		.loc 1 94 0
 964 004c 5BBA     		rev16	r3, r3
 965 004e 3B80     		strh	r3, [r7]	@ movhi
 966              		.loc 1 97 0
 967 0050 3368     		ldr	r3, [r6]
 968 0052 9A42     		cmp	r2, r3
 969 0054 10D1     		bne	.L79
ARM GAS  C:\Users\mathi\AppData\Local\Temp\cczy9ud6.s 			page 18


 970 0056 08B0     		add	sp, sp, #32
 971              		.cfi_remember_state
 972              		.cfi_def_cfa_offset 24
 973              		@ sp needed
 974 0058 BDE8F081 		pop	{r4, r5, r6, r7, r8, pc}
 975              	.LVL113:
 976              	.L78:
 977              		.cfi_restore_state
 978              	.LBB93:
 979              	.LBB88:
 980              	.LBB82:
 981              	.LBB83:
 982              		.loc 1 49 0
 983 005c 2B78     		ldrb	r3, [r5]	@ zero_extendqisi2
 984 005e 052B     		cmp	r3, #5
 985 0060 05D0     		beq	.L80
 986              	.LVL114:
 987              	.L74:
 988              		.loc 1 53 0
 989 0062 0648     		ldr	r0, .L81
 990 0064 FFF7FEFF 		bl	i2cReleaseBus
 991              	.LVL115:
 992 0068 6FF01300 		mvn	r0, #19
 993 006c EBE7     		b	.L75
 994              	.LVL116:
 995              	.L80:
 996              		.loc 1 50 0
 997 006e FFF7FEFF 		bl	i2c_stop
 998              	.LVL117:
 999              		.loc 1 51 0
 1000 0072 FFF7FEFF 		bl	i2c_start
 1001              	.LVL118:
 1002 0076 F4E7     		b	.L74
 1003              	.LVL119:
 1004              	.L79:
 1005              	.LBE83:
 1006              	.LBE82:
 1007              	.LBE88:
 1008              	.LBE93:
 1009              		.loc 1 97 0
 1010 0078 FFF7FEFF 		bl	__stack_chk_fail
 1011              	.LVL120:
 1012              	.L82:
 1013              		.align	2
 1014              	.L81:
 1015 007c 00000000 		.word	I2CD1
 1016 0080 00000000 		.word	__stack_chk_guard
 1017              		.cfi_endproc
 1018              	.LFE262:
 1019              		.size	VL53L0X_read_word, .-VL53L0X_read_word
 1020              		.section	.text.VL53L0X_read_dword,"ax",%progbits
 1021              		.align	1
 1022              		.p2align 4,,15
 1023              		.global	VL53L0X_read_dword
 1024              		.syntax unified
 1025              		.thumb
 1026              		.thumb_func
ARM GAS  C:\Users\mathi\AppData\Local\Temp\cczy9ud6.s 			page 19


 1027              		.fpu fpv4-sp-d16
 1028              		.type	VL53L0X_read_dword, %function
 1029              	VL53L0X_read_dword:
 1030              	.LFB263:
 1031              		.loc 1 99 0
 1032              		.cfi_startproc
 1033              		@ args = 0, pretend = 0, frame = 16
 1034              		@ frame_needed = 0, uses_anonymous_args = 0
 1035              	.LVL121:
 1036 0000 2DE9F041 		push	{r4, r5, r6, r7, r8, lr}
 1037              		.cfi_def_cfa_offset 24
 1038              		.cfi_offset 4, -24
 1039              		.cfi_offset 5, -20
 1040              		.cfi_offset 6, -16
 1041              		.cfi_offset 7, -12
 1042              		.cfi_offset 8, -8
 1043              		.cfi_offset 14, -4
 1044              	.LBB98:
 1045              	.LBB99:
 1046              		.loc 1 45 0
 1047 0004 224F     		ldr	r7, .L92
 1048              	.LBE99:
 1049              	.LBE98:
 1050              		.loc 1 99 0
 1051 0006 234D     		ldr	r5, .L92+4
 1052 0008 88B0     		sub	sp, sp, #32
 1053              		.cfi_def_cfa_offset 56
 1054              	.LBB107:
 1055              	.LBB102:
 1056              		.loc 1 43 0
 1057 000a 08AC     		add	r4, sp, #32
 1058              	.LBE102:
 1059              	.LBE107:
 1060              		.loc 1 99 0
 1061 000c 2B68     		ldr	r3, [r5]
 1062              	.LBB108:
 1063              	.LBB103:
 1064              		.loc 1 43 0
 1065 000e 04F80C1D 		strb	r1, [r4, #-12]!
 1066              	.LBE103:
 1067              	.LBE108:
 1068              		.loc 1 99 0
 1069 0012 8046     		mov	r8, r0
 1070              	.LVL122:
 1071              	.LBB109:
 1072              	.LBB104:
 1073              		.loc 1 45 0
 1074 0014 3846     		mov	r0, r7
 1075              	.LVL123:
 1076              	.LBE104:
 1077              	.LBE109:
 1078              		.loc 1 99 0
 1079 0016 0793     		str	r3, [sp, #28]
 1080 0018 1646     		mov	r6, r2
 1081              	.LBB110:
 1082              	.LBB105:
 1083              		.loc 1 45 0
ARM GAS  C:\Users\mathi\AppData\Local\Temp\cczy9ud6.s 			page 20


 1084 001a FFF7FEFF 		bl	i2cAcquireBus
 1085              	.LVL124:
 1086              		.loc 1 46 0
 1087 001e 3223     		movs	r3, #50
 1088 0020 4FF0040C 		mov	ip, #4
 1089 0024 0293     		str	r3, [sp, #8]
 1090 0026 06AB     		add	r3, sp, #24
 1091              	.LVL125:
 1092 0028 CDE9003C 		strd	r3, ip, [sp]
 1093 002c 2246     		mov	r2, r4
 1094 002e 4FEA5801 		lsr	r1, r8, #1
 1095 0032 3846     		mov	r0, r7
 1096 0034 0123     		movs	r3, #1
 1097              	.LVL126:
 1098 0036 FFF7FEFF 		bl	i2cMasterTransmitTimeout
 1099              	.LVL127:
 1100              		.loc 1 48 0
 1101 003a C0B9     		cbnz	r0, .L89
 1102 003c 0446     		mov	r4, r0
 1103              		.loc 1 56 0
 1104 003e 3846     		mov	r0, r7
 1105              	.LVL128:
 1106 0040 FFF7FEFF 		bl	i2cReleaseBus
 1107              	.LVL129:
 1108              		.loc 1 57 0
 1109 0044 2046     		mov	r0, r4
 1110              	.LVL130:
 1111              	.L86:
 1112 0046 BDF81830 		ldrh	r3, [sp, #24]
 1113              	.LBE105:
 1114              	.LBE110:
 1115              		.loc 1 108 0
 1116 004a 9DF81A10 		ldrb	r1, [sp, #26]	@ zero_extendqisi2
 1117              		.loc 1 110 0
 1118 004e 9DF81B20 		ldrb	r2, [sp, #27]	@ zero_extendqisi2
 1119 0052 5BBA     		rev16	r3, r3
 1120 0054 9BB2     		uxth	r3, r3
 1121              	.LVL131:
 1122              		.loc 1 108 0
 1123 0056 41EA0323 		orr	r3, r1, r3, lsl #8
 1124              	.LVL132:
 1125              		.loc 1 110 0
 1126 005a 42EA0323 		orr	r3, r2, r3, lsl #8
 1127              	.LVL133:
 1128              		.loc 1 112 0
 1129 005e 3360     		str	r3, [r6]
 1130              		.loc 1 115 0
 1131 0060 079A     		ldr	r2, [sp, #28]
 1132 0062 2B68     		ldr	r3, [r5]
 1133              	.LVL134:
 1134 0064 9A42     		cmp	r2, r3
 1135 0066 10D1     		bne	.L90
 1136 0068 08B0     		add	sp, sp, #32
 1137              		.cfi_remember_state
 1138              		.cfi_def_cfa_offset 24
 1139              		@ sp needed
 1140 006a BDE8F081 		pop	{r4, r5, r6, r7, r8, pc}
ARM GAS  C:\Users\mathi\AppData\Local\Temp\cczy9ud6.s 			page 21


 1141              	.LVL135:
 1142              	.L89:
 1143              		.cfi_restore_state
 1144              	.LBB111:
 1145              	.LBB106:
 1146              	.LBB100:
 1147              	.LBB101:
 1148              		.loc 1 49 0
 1149 006e 3B78     		ldrb	r3, [r7]	@ zero_extendqisi2
 1150 0070 052B     		cmp	r3, #5
 1151 0072 05D0     		beq	.L91
 1152              	.LVL136:
 1153              	.L85:
 1154              		.loc 1 53 0
 1155 0074 0648     		ldr	r0, .L92
 1156 0076 FFF7FEFF 		bl	i2cReleaseBus
 1157              	.LVL137:
 1158 007a 6FF01300 		mvn	r0, #19
 1159 007e E2E7     		b	.L86
 1160              	.LVL138:
 1161              	.L91:
 1162              		.loc 1 50 0
 1163 0080 FFF7FEFF 		bl	i2c_stop
 1164              	.LVL139:
 1165              		.loc 1 51 0
 1166 0084 FFF7FEFF 		bl	i2c_start
 1167              	.LVL140:
 1168 0088 F4E7     		b	.L85
 1169              	.LVL141:
 1170              	.L90:
 1171              	.LBE101:
 1172              	.LBE100:
 1173              	.LBE106:
 1174              	.LBE111:
 1175              		.loc 1 115 0
 1176 008a FFF7FEFF 		bl	__stack_chk_fail
 1177              	.LVL142:
 1178              	.L93:
 1179 008e 00BF     		.align	2
 1180              	.L92:
 1181 0090 00000000 		.word	I2CD1
 1182 0094 00000000 		.word	__stack_chk_guard
 1183              		.cfi_endproc
 1184              	.LFE263:
 1185              		.size	VL53L0X_read_dword, .-VL53L0X_read_dword
 1186              		.text
 1187              	.Letext0:
 1188              		.file 2 "c:\\eclipse_e-puck2\\tools\\gcc-arm-none-eabi-7-2017-q4-major-win32\\arm-none-eabi\\inclu
 1189              		.file 3 "c:\\eclipse_e-puck2\\tools\\gcc-arm-none-eabi-7-2017-q4-major-win32\\arm-none-eabi\\inclu
 1190              		.file 4 "c:\\eclipse_e-puck2\\tools\\gcc-arm-none-eabi-7-2017-q4-major-win32\\lib\\gcc\\arm-none-e
 1191              		.file 5 "../../lib/e-puck2_main-processor/src/sensors/VL53L0X/Api/platform/src/../inc/../../core/i
 1192              		.file 6 "../../lib/e-puck2_main-processor/ChibiOS//os/rt/ports/ARMCMx/compilers/GCC/chtypes.h"
 1193              		.file 7 "../../lib/e-puck2_main-processor/ChibiOS//os/rt/include/chsystypes.h"
 1194              		.file 8 "../../lib/e-puck2_main-processor/ChibiOS//os/rt/include/chschd.h"
 1195              		.file 9 "../../lib/e-puck2_main-processor/ChibiOS//os/ext/CMSIS/include/core_cm4.h"
 1196              		.file 10 "../../lib/e-puck2_main-processor/ChibiOS//os/ext/CMSIS/ST/system_stm32f4xx.h"
 1197              		.file 11 "../../lib/e-puck2_main-processor/ChibiOS//os/ext/CMSIS/ST/stm32f407xx.h"
ARM GAS  C:\Users\mathi\AppData\Local\Temp\cczy9ud6.s 			page 22


 1198              		.file 12 "../../lib/e-puck2_main-processor/ChibiOS//os/rt/ports/ARMCMx/chcore.h"
 1199              		.file 13 "../../lib/e-puck2_main-processor/ChibiOS//os/rt/ports/ARMCMx/chcore_v7m.h"
 1200              		.file 14 "../../lib/e-puck2_main-processor/ChibiOS//os/rt/include/chdebug.h"
 1201              		.file 15 "../../lib/e-puck2_main-processor/ChibiOS//os/rt/include/chtm.h"
 1202              		.file 16 "../../lib/e-puck2_main-processor/ChibiOS//os/rt/include/chstats.h"
 1203              		.file 17 "../../lib/e-puck2_main-processor/ChibiOS//os/rt/include/chsem.h"
 1204              		.file 18 "../../lib/e-puck2_main-processor/ChibiOS//os/rt/include/chmtx.h"
 1205              		.file 19 "../../lib/e-puck2_main-processor/ChibiOS//os/rt/include/chregistry.h"
 1206              		.file 20 "../../lib/e-puck2_main-processor/ChibiOS//os/rt/include/chevents.h"
 1207              		.file 21 "../../lib/e-puck2_main-processor/ChibiOS//os/rt/include/chqueues.h"
 1208              		.file 22 "../../lib/e-puck2_main-processor/ChibiOS//os/hal/ports/STM32/STM32F4xx/stm32_dma.h"
 1209              		.file 23 "../../lib/e-puck2_main-processor/ChibiOS//os/hal/include/hal_ioblock.h"
 1210              		.file 24 "../../lib/e-puck2_main-processor/ChibiOS//os/hal/ports/STM32/LLD/GPIOv2/pal_lld.h"
 1211              		.file 25 "../../lib/e-puck2_main-processor/ChibiOS//os/hal/include/adc.h"
 1212              		.file 26 "../../lib/e-puck2_main-processor/ChibiOS//os/hal/ports/STM32/STM32F4xx/adc_lld.h"
 1213              		.file 27 "../../lib/e-puck2_main-processor/ChibiOS//os/hal/include/can.h"
 1214              		.file 28 "../../lib/e-puck2_main-processor/ChibiOS//os/hal/ports/STM32/LLD/can_lld.h"
 1215              		.file 29 "../../lib/e-puck2_main-processor/ChibiOS//os/hal/include/dac.h"
 1216              		.file 30 "../../lib/e-puck2_main-processor/ChibiOS//os/hal/ports/STM32/LLD/DACv1/dac_lld.h"
 1217              		.file 31 "../../lib/e-puck2_main-processor/ChibiOS//os/hal/include/ext.h"
 1218              		.file 32 "../../lib/e-puck2_main-processor/ChibiOS//os/hal/ports/STM32/LLD/ext_lld.h"
 1219              		.file 33 "../../lib/e-puck2_main-processor/ChibiOS//os/hal/include/gpt.h"
 1220              		.file 34 "../../lib/e-puck2_main-processor/ChibiOS//os/hal/ports/STM32/LLD/TIMv1/gpt_lld.h"
 1221              		.file 35 "../../lib/e-puck2_main-processor/ChibiOS//os/hal/ports/STM32/LLD/TIMv1/stm32_tim.h"
 1222              		.file 36 "../../lib/e-puck2_main-processor/ChibiOS//os/hal/include/i2c.h"
 1223              		.file 37 "../../lib/e-puck2_main-processor/ChibiOS//os/hal/ports/STM32/LLD/I2Cv1/i2c_lld.h"
 1224              		.file 38 "../../lib/e-puck2_main-processor/ChibiOS//os/hal/include/i2s.h"
 1225              		.file 39 "../../lib/e-puck2_main-processor/ChibiOS//os/hal/ports/STM32/LLD/SPIv1/i2s_lld.h"
 1226              		.file 40 "../../lib/e-puck2_main-processor/ChibiOS//os/hal/include/pwm.h"
 1227              		.file 41 "../../lib/e-puck2_main-processor/ChibiOS//os/hal/ports/STM32/LLD/TIMv1/pwm_lld.h"
 1228              		.file 42 "../../lib/e-puck2_main-processor/ChibiOS//os/hal/include/serial.h"
 1229              		.file 43 "../../lib/e-puck2_main-processor/ChibiOS//os/hal/ports/STM32/LLD/USARTv1/serial_lld.h"
 1230              		.file 44 "../../lib/e-puck2_main-processor/ChibiOS//os/hal/include/sdc.h"
 1231              		.file 45 "../../lib/e-puck2_main-processor/ChibiOS//os/hal/ports/STM32/LLD/sdc_lld.h"
 1232              		.file 46 "../../lib/e-puck2_main-processor/ChibiOS//os/hal/include/spi.h"
 1233              		.file 47 "../../lib/e-puck2_main-processor/ChibiOS//os/hal/ports/STM32/LLD/SPIv1/spi_lld.h"
 1234              		.file 48 "../../lib/e-puck2_main-processor/ChibiOS//os/hal/include/usb.h"
 1235              		.file 49 "../../lib/e-puck2_main-processor/ChibiOS//os/hal/ports/STM32/LLD/OTGv1/usb_lld.h"
 1236              		.file 50 "../../lib/e-puck2_main-processor/ChibiOS//os/hal/ports/STM32/LLD/OTGv1/stm32_otg.h"
 1237              		.file 51 "../../lib/e-puck2_main-processor/src/i2c_bus.h"
 1238              		.file 52 "<built-in>"