ARM GAS  C:\Users\mathi\AppData\Local\Temp\ccnu9GWW.s 			page 1


   1              		.cpu cortex-m4
   2              		.eabi_attribute 27, 1
   3              		.eabi_attribute 28, 1
   4              		.eabi_attribute 20, 1
   5              		.eabi_attribute 21, 1
   6              		.eabi_attribute 23, 3
   7              		.eabi_attribute 24, 1
   8              		.eabi_attribute 25, 1
   9              		.eabi_attribute 26, 1
  10              		.eabi_attribute 30, 2
  11              		.eabi_attribute 34, 1
  12              		.eabi_attribute 18, 4
  13              		.file	"vm-buffer.c"
  14              		.text
  15              	.Ltext0:
  16              		.cfi_sections	.debug_frame
  17              		.section	.text.AsebaSendMessage,"ax",%progbits
  18              		.align	1
  19              		.p2align 4,,15
  20              		.global	AsebaSendMessage
  21              		.syntax unified
  22              		.thumb
  23              		.thumb_func
  24              		.fpu fpv4-sp-d16
  25              		.type	AsebaSendMessage, %function
  26              	AsebaSendMessage:
  27              	.LFB6:
  28              		.file 1 "../../lib/e-puck2_main-processor/aseba/transport/buffer/vm-buffer.c"
  29              		.loc 1 73 0
  30              		.cfi_startproc
  31              		@ args = 0, pretend = 0, frame = 8
  32              		@ frame_needed = 0, uses_anonymous_args = 0
  33              	.LVL0:
  34 0000 2DE9F047 		push	{r4, r5, r6, r7, r8, r9, r10, lr}
  35              		.cfi_def_cfa_offset 32
  36              		.cfi_offset 4, -32
  37              		.cfi_offset 5, -28
  38              		.cfi_offset 6, -24
  39              		.cfi_offset 7, -20
  40              		.cfi_offset 8, -16
  41              		.cfi_offset 9, -12
  42              		.cfi_offset 10, -8
  43              		.cfi_offset 14, -4
  44 0004 DFF804C1 		ldr	ip, .L33+8
  45              	.LBB93:
  46              	.LBB94:
  47              	.LBB95:
  48              	.LBB96:
  49              		.loc 1 41 0
  50 0008 3E4C     		ldr	r4, .L33
  51              	.LBE96:
  52              	.LBE95:
  53              	.LBE94:
  54              	.LBE93:
  55              		.loc 1 73 0
  56 000a DCF80050 		ldr	r5, [ip]
  57              	.LBB106:
ARM GAS  C:\Users\mathi\AppData\Local\Temp\ccnu9GWW.s 			page 2


  58              	.LBB103:
  59              	.LBB100:
  60              	.LBB97:
  61              		.loc 1 41 0
  62 000e DFF800E1 		ldr	lr, .L33+12
  63 0012 2170     		strb	r1, [r4]
  64              	.LBE97:
  65              	.LBE100:
  66              	.LBE103:
  67              	.LBE106:
  68              		.loc 1 73 0
  69 0014 82B0     		sub	sp, sp, #8
  70              		.cfi_def_cfa_offset 40
  71              	.LBB107:
  72              	.LBB104:
  73              	.LBB101:
  74              	.LBB98:
  75              		.loc 1 41 0
  76 0016 C1F30726 		ubfx	r6, r1, #8, #8
  77              	.LBE98:
  78              	.LBE101:
  79              	.LBE104:
  80              	.LBE107:
  81              		.loc 1 73 0
  82 001a 0195     		str	r5, [sp, #4]
  83              	.LVL1:
  84              	.LBB108:
  85              	.LBB105:
  86              	.LBB102:
  87              	.LBB99:
  88              		.loc 1 41 0
  89 001c 0225     		movs	r5, #2
  90 001e 6670     		strb	r6, [r4, #1]
  91 0020 CEF80050 		str	r5, [lr]
  92              	.LBE99:
  93              	.LBE102:
  94              	.LBE105:
  95              	.LBE108:
  96              		.loc 1 78 0
  97 0024 002B     		cmp	r3, #0
  98 0026 68D0     		beq	.L10
  99 0028 9846     		mov	r8, r3
 100 002a 6519     		adds	r5, r4, r5
 101 002c 131D     		adds	r3, r2, #4
 102              	.LVL2:
 103 002e A11D     		adds	r1, r4, #6
 104              	.LVL3:
 105 0030 9142     		cmp	r1, r2
 106 0032 88BF     		it	hi
 107 0034 AB42     		cmphi	r3, r5
 108 0036 53D8     		bhi	.L3
 109 0038 B8F10A0F 		cmp	r8, #10
 110 003c 50D9     		bls	.L3
 111              		.loc 1 79 0
 112 003e 1378     		ldrb	r3, [r2]	@ zero_extendqisi2
 113              	.LVL4:
 114              	.LBB109:
ARM GAS  C:\Users\mathi\AppData\Local\Temp\ccnu9GWW.s 			page 3


 115              	.LBB110:
 116              	.LBB111:
 117              		.loc 1 41 0
 118 0040 A370     		strb	r3, [r4, #2]
 119              	.LVL5:
 120 0042 A8F10209 		sub	r9, r8, #2
 121              	.LBE111:
 122              	.LBE110:
 123              	.LBE109:
 124              		.loc 1 79 0
 125 0046 5378     		ldrb	r3, [r2, #1]	@ zero_extendqisi2
 126              	.LVL6:
 127              	.LBB136:
 128              	.LBB124:
 129              	.LBB112:
 130              		.loc 1 41 0
 131 0048 E370     		strb	r3, [r4, #3]
 132              	.LVL7:
 133 004a 1FFA89F9 		uxth	r9, r9
 134 004e 4FEA990A 		lsr	r10, r9, #2
 135 0052 961C     		adds	r6, r2, #2
 136 0054 2546     		mov	r5, r4
 137 0056 0021     		movs	r1, #0
 138              	.LVL8:
 139              	.L4:
 140 0058 0131     		adds	r1, r1, #1
 141 005a 8FB2     		uxth	r7, r1
 142              	.LBE112:
 143              	.LBE124:
 144              	.LBE136:
 145              		.loc 1 79 0 discriminator 3
 146 005c 56F8043B 		ldr	r3, [r6], #4	@ unaligned
 147              	.LVL9:
 148              	.LBB137:
 149              	.LBB125:
 150              	.LBB113:
 151              		.loc 1 41 0 discriminator 3
 152 0060 45F8043F 		str	r3, [r5, #4]!
 153              	.LVL10:
 154 0064 BA45     		cmp	r10, r7
 155 0066 F7D8     		bhi	.L4
 156 0068 29F00301 		bic	r1, r9, #3
 157 006c 89B2     		uxth	r1, r1
 158 006e 8B1C     		adds	r3, r1, #2
 159 0070 8945     		cmp	r9, r1
 160 0072 9EB2     		uxth	r6, r3
 161 0074 01F10405 		add	r5, r1, #4
 162 0078 1ED0     		beq	.L30
 163              	.LVL11:
 164              	.LBE113:
 165              	.LBE125:
 166              	.LBE137:
 167              		.loc 1 78 0
 168 007a CB1C     		adds	r3, r1, #3
 169 007c 9BB2     		uxth	r3, r3
 170              		.loc 1 79 0
 171 007e 965D     		ldrb	r6, [r2, r6]	@ zero_extendqisi2
ARM GAS  C:\Users\mathi\AppData\Local\Temp\ccnu9GWW.s 			page 4


 172              	.LVL12:
 173              	.LBB138:
 174              	.LBB126:
 175              	.LBB114:
 176              		.loc 1 41 0
 177 0080 6655     		strb	r6, [r4, r5]
 178              	.LVL13:
 179              	.LBE114:
 180              	.LBE126:
 181              	.LBE138:
 182              		.loc 1 78 0
 183 0082 9845     		cmp	r8, r3
 184              	.LBB139:
 185              	.LBB127:
 186              	.LBB115:
 187              		.loc 1 41 0
 188 0084 01F10506 		add	r6, r1, #5
 189              	.LBE115:
 190              	.LBE127:
 191              	.LBE139:
 192              		.loc 1 78 0
 193 0088 16D9     		bls	.L30
 194 008a ADB2     		uxth	r5, r5
 195              		.loc 1 79 0
 196 008c D35C     		ldrb	r3, [r2, r3]	@ zero_extendqisi2
 197              	.LVL14:
 198              	.LBB140:
 199              	.LBB128:
 200              	.LBB116:
 201              		.loc 1 41 0
 202 008e A355     		strb	r3, [r4, r6]
 203              	.LVL15:
 204              	.LBE116:
 205              	.LBE128:
 206              	.LBE140:
 207              		.loc 1 78 0
 208 0090 A845     		cmp	r8, r5
 209              	.LBB141:
 210              	.LBB129:
 211              	.LBB117:
 212              		.loc 1 41 0
 213 0092 01F10603 		add	r3, r1, #6
 214              	.LBE117:
 215              	.LBE129:
 216              	.LBE141:
 217              		.loc 1 78 0
 218 0096 0FD9     		bls	.L30
 219 0098 B6B2     		uxth	r6, r6
 220              		.loc 1 79 0
 221 009a 555D     		ldrb	r5, [r2, r5]	@ zero_extendqisi2
 222              	.LVL16:
 223              	.LBB142:
 224              	.LBB130:
 225              	.LBB118:
 226              		.loc 1 41 0
 227 009c E554     		strb	r5, [r4, r3]
 228              	.LVL17:
ARM GAS  C:\Users\mathi\AppData\Local\Temp\ccnu9GWW.s 			page 5


 229              	.LBE118:
 230              	.LBE130:
 231              	.LBE142:
 232              		.loc 1 78 0
 233 009e B045     		cmp	r8, r6
 234              	.LBB143:
 235              	.LBB131:
 236              	.LBB119:
 237              		.loc 1 41 0
 238 00a0 01F10705 		add	r5, r1, #7
 239              	.LBE119:
 240              	.LBE131:
 241              	.LBE143:
 242              		.loc 1 78 0
 243 00a4 08D9     		bls	.L30
 244              		.loc 1 79 0
 245 00a6 965D     		ldrb	r6, [r2, r6]	@ zero_extendqisi2
 246              	.LVL18:
 247              	.LBB144:
 248              	.LBB132:
 249              	.LBB120:
 250              		.loc 1 41 0
 251 00a8 6655     		strb	r6, [r4, r5]
 252              	.LVL19:
 253              	.LBE120:
 254              	.LBE132:
 255              	.LBE144:
 256              		.loc 1 78 0
 257 00aa 9BB2     		uxth	r3, r3
 258              	.LVL20:
 259 00ac 9845     		cmp	r8, r3
 260              	.LBB145:
 261              	.LBB133:
 262              	.LBB121:
 263              		.loc 1 41 0
 264 00ae 01F10801 		add	r1, r1, #8
 265              	.LBE121:
 266              	.LBE133:
 267              	.LBE145:
 268              		.loc 1 79 0
 269 00b2 84BF     		itt	hi
 270 00b4 D35C     		ldrbhi	r3, [r2, r3]	@ zero_extendqisi2
 271              	.LVL21:
 272              	.LBB146:
 273              	.LBB134:
 274              	.LBB122:
 275              		.loc 1 41 0
 276 00b6 6354     		strbhi	r3, [r4, r1]
 277              	.LVL22:
 278              	.L30:
 279 00b8 08F1FF35 		add	r5, r8, #-1
 280              	.LVL23:
 281              	.L7:
 282 00bc AAB2     		uxth	r2, r5
 283 00be 0332     		adds	r2, r2, #3
 284 00c0 08F10203 		add	r3, r8, #2
 285 00c4 CEF80020 		str	r2, [lr]
ARM GAS  C:\Users\mathi\AppData\Local\Temp\ccnu9GWW.s 			page 6


 286 00c8 9AB2     		uxth	r2, r3
 287              	.L2:
 288              	.LBE122:
 289              	.LBE134:
 290              	.LBE146:
 291              		.loc 1 81 0
 292 00ca 0199     		ldr	r1, [sp, #4]
 293 00cc DCF80030 		ldr	r3, [ip]
 294 00d0 9942     		cmp	r1, r3
 295 00d2 14D1     		bne	.L32
 296 00d4 0B49     		ldr	r1, .L33
 297              		.loc 1 82 0
 298 00d6 02B0     		add	sp, sp, #8
 299              		.cfi_remember_state
 300              		.cfi_def_cfa_offset 32
 301              		@ sp needed
 302 00d8 BDE8F047 		pop	{r4, r5, r6, r7, r8, r9, r10, lr}
 303              		.cfi_restore 14
 304              		.cfi_restore 10
 305              		.cfi_restore 9
 306              		.cfi_restore 8
 307              		.cfi_restore 7
 308              		.cfi_restore 6
 309              		.cfi_restore 5
 310              		.cfi_restore 4
 311              		.cfi_def_cfa_offset 0
 312              		.loc 1 81 0
 313 00dc FFF7FEBF 		b	AsebaSendBuffer
 314              	.LVL24:
 315              	.L3:
 316              		.cfi_restore_state
 317 00e0 08F1FF35 		add	r5, r8, #-1
 318 00e4 084B     		ldr	r3, .L33+4
 319 00e6 12FA85F4 		uxtah	r4, r2, r5
 320 00ea 013A     		subs	r2, r2, #1
 321              	.LVL25:
 322              	.L6:
 323              		.loc 1 79 0
 324 00ec 12F8011F 		ldrb	r1, [r2, #1]!	@ zero_extendqisi2
 325              	.LVL26:
 326              	.LBB147:
 327              	.LBB135:
 328              	.LBB123:
 329              		.loc 1 41 0
 330 00f0 03F8011F 		strb	r1, [r3, #1]!
 331              	.LVL27:
 332              	.LBE123:
 333              	.LBE135:
 334              	.LBE147:
 335              		.loc 1 78 0
 336 00f4 A242     		cmp	r2, r4
 337 00f6 F9D1     		bne	.L6
 338 00f8 E0E7     		b	.L7
 339              	.LVL28:
 340              	.L10:
 341 00fa 2A46     		mov	r2, r5
 342              	.LVL29:
ARM GAS  C:\Users\mathi\AppData\Local\Temp\ccnu9GWW.s 			page 7


 343 00fc E5E7     		b	.L2
 344              	.LVL30:
 345              	.L32:
 346              		.loc 1 81 0
 347 00fe FFF7FEFF 		bl	__stack_chk_fail
 348              	.LVL31:
 349              	.L34:
 350 0102 00BF     		.align	2
 351              	.L33:
 352 0104 00000000 		.word	.LANCHOR0
 353 0108 01000000 		.word	.LANCHOR0+1
 354 010c 00000000 		.word	__stack_chk_guard
 355 0110 00000000 		.word	.LANCHOR1
 356              		.cfi_endproc
 357              	.LFE6:
 358              		.size	AsebaSendMessage, .-AsebaSendMessage
 359              		.section	.text.AsebaSendVariables,"ax",%progbits
 360              		.align	1
 361              		.p2align 4,,15
 362              		.global	AsebaSendVariables
 363              		.syntax unified
 364              		.thumb
 365              		.thumb_func
 366              		.fpu fpv4-sp-d16
 367              		.type	AsebaSendVariables, %function
 368              	AsebaSendVariables:
 369              	.LFB7:
 370              		.loc 1 99 0
 371              		.cfi_startproc
 372              		@ args = 0, pretend = 0, frame = 8
 373              		@ frame_needed = 0, uses_anonymous_args = 0
 374              	.LVL32:
 375 0000 F0B5     		push	{r4, r5, r6, r7, lr}
 376              		.cfi_def_cfa_offset 20
 377              		.cfi_offset 4, -20
 378              		.cfi_offset 5, -16
 379              		.cfi_offset 6, -12
 380              		.cfi_offset 7, -8
 381              		.cfi_offset 14, -4
 382 0002 1A4D     		ldr	r5, .L44
 383              	.LBB148:
 384              	.LBB149:
 385              	.LBB150:
 386              	.LBB151:
 387              		.loc 1 41 0
 388 0004 1A4B     		ldr	r3, .L44+4
 389              	.LBE151:
 390              	.LBE150:
 391              	.LBE149:
 392              	.LBE148:
 393              		.loc 1 99 0
 394 0006 2C68     		ldr	r4, [r5]
 395              	.LBB158:
 396              	.LBB159:
 397              	.LBB160:
 398              	.LBB161:
 399              		.loc 1 41 0
ARM GAS  C:\Users\mathi\AppData\Local\Temp\ccnu9GWW.s 			page 8


 400 0008 1A4E     		ldr	r6, .L44+8
 401 000a 9970     		strb	r1, [r3, #2]
 402              	.LBE161:
 403              	.LBE160:
 404              	.LBE159:
 405              	.LBE158:
 406              		.loc 1 99 0
 407 000c 83B0     		sub	sp, sp, #12
 408              		.cfi_def_cfa_offset 32
 409              		.loc 1 105 0
 410 000e 0A44     		add	r2, r2, r1
 411              	.LVL33:
 412              		.loc 1 99 0
 413 0010 0194     		str	r4, [sp, #4]
 414              	.LVL34:
 415              	.LBB174:
 416              	.LBB170:
 417              	.LBB166:
 418              	.LBB162:
 419              		.loc 1 41 0
 420 0012 C1F30724 		ubfx	r4, r1, #8, #8
 421              	.LBE162:
 422              	.LBE166:
 423              	.LBE170:
 424              	.LBE174:
 425              	.LBB175:
 426              	.LBB156:
 427              	.LBB154:
 428              	.LBB152:
 429 0016 49F20507 		movw	r7, #36869
 430              	.LBE152:
 431              	.LBE154:
 432              	.LBE156:
 433              	.LBE175:
 434              	.LBB176:
 435              	.LBB171:
 436              	.LBB167:
 437              	.LBB163:
 438 001a DC70     		strb	r4, [r3, #3]
 439              	.LBE163:
 440              	.LBE167:
 441              	.LBE171:
 442              	.LBE176:
 443              		.loc 1 105 0
 444 001c 9142     		cmp	r1, r2
 445              	.LBB177:
 446              	.LBB172:
 447              	.LBB168:
 448              	.LBB164:
 449              		.loc 1 41 0
 450 001e 4FF00404 		mov	r4, #4
 451              	.LBE164:
 452              	.LBE168:
 453              	.LBE172:
 454              	.LBE177:
 455              	.LBB178:
 456              	.LBB157:
ARM GAS  C:\Users\mathi\AppData\Local\Temp\ccnu9GWW.s 			page 9


 457              	.LBB155:
 458              	.LBB153:
 459 0022 1F80     		strh	r7, [r3]	@ movhi
 460              	.LVL35:
 461              	.LBE153:
 462              	.LBE155:
 463              	.LBE157:
 464              	.LBE178:
 465              	.LBB179:
 466              	.LBB173:
 467              	.LBB169:
 468              	.LBB165:
 469 0024 3460     		str	r4, [r6]
 470              	.LBE165:
 471              	.LBE169:
 472              	.LBE173:
 473              	.LBE179:
 474              		.loc 1 105 0
 475 0026 13DA     		bge	.L40
 476 0028 C3F10607 		rsb	r7, r3, #6
 477              	.LVL36:
 478              	.L37:
 479              		.loc 1 106 0 discriminator 3
 480 002c C468     		ldr	r4, [r0, #12]
 481 002e 34F91140 		ldrsh	r4, [r4, r1, lsl #1]
 482              	.LVL37:
 483              	.LBB180:
 484              	.LBB181:
 485              	.LBB182:
 486              	.LBB183:
 487              		.loc 1 41 0 discriminator 3
 488 0032 1C71     		strb	r4, [r3, #4]
 489              	.LVL38:
 490              	.LBE183:
 491              	.LBE182:
 492              	.LBE181:
 493              	.LBE180:
 494              		.loc 1 105 0 discriminator 3
 495 0034 0131     		adds	r1, r1, #1
 496              	.LVL39:
 497 0036 89B2     		uxth	r1, r1
 498              	.LBB190:
 499              	.LBB188:
 500              	.LBB186:
 501              	.LBB184:
 502              		.loc 1 41 0 discriminator 3
 503 0038 C4F30724 		ubfx	r4, r4, #8, #8
 504              	.LVL40:
 505              	.LBE184:
 506              	.LBE186:
 507              	.LBE188:
 508              	.LBE190:
 509              		.loc 1 105 0 discriminator 3
 510 003c 9142     		cmp	r1, r2
 511              	.LBB191:
 512              	.LBB189:
 513              	.LBB187:
ARM GAS  C:\Users\mathi\AppData\Local\Temp\ccnu9GWW.s 			page 10


 514              	.LBB185:
 515              		.loc 1 41 0 discriminator 3
 516 003e 5C71     		strb	r4, [r3, #5]
 517              	.LVL41:
 518 0040 07EB0304 		add	r4, r7, r3
 519 0044 03F10203 		add	r3, r3, #2
 520              	.LBE185:
 521              	.LBE187:
 522              	.LBE189:
 523              	.LBE191:
 524              		.loc 1 105 0 discriminator 3
 525 0048 F0DB     		blt	.L37
 526 004a 3460     		str	r4, [r6]
 527 004c A2B2     		uxth	r2, r4
 528 004e 00E0     		b	.L36
 529              	.LVL42:
 530              	.L40:
 531              		.loc 1 105 0 is_stmt 0
 532 0050 2246     		mov	r2, r4
 533              	.LVL43:
 534              	.L36:
 535              		.loc 1 108 0 is_stmt 1
 536 0052 0199     		ldr	r1, [sp, #4]
 537              	.LVL44:
 538 0054 2B68     		ldr	r3, [r5]
 539 0056 9942     		cmp	r1, r3
 540 0058 05D1     		bne	.L43
 541 005a 0549     		ldr	r1, .L44+4
 542              		.loc 1 129 0
 543 005c 03B0     		add	sp, sp, #12
 544              		.cfi_remember_state
 545              		.cfi_def_cfa_offset 20
 546              		@ sp needed
 547 005e BDE8F040 		pop	{r4, r5, r6, r7, lr}
 548              		.cfi_restore 14
 549              		.cfi_restore 7
 550              		.cfi_restore 6
 551              		.cfi_restore 5
 552              		.cfi_restore 4
 553              		.cfi_def_cfa_offset 0
 554              		.loc 1 108 0
 555 0062 FFF7FEBF 		b	AsebaSendBuffer
 556              	.LVL45:
 557              	.L43:
 558              		.cfi_restore_state
 559 0066 FFF7FEFF 		bl	__stack_chk_fail
 560              	.LVL46:
 561              	.L45:
 562 006a 00BF     		.align	2
 563              	.L44:
 564 006c 00000000 		.word	__stack_chk_guard
 565 0070 00000000 		.word	.LANCHOR0
 566 0074 00000000 		.word	.LANCHOR1
 567              		.cfi_endproc
 568              	.LFE7:
 569              		.size	AsebaSendVariables, .-AsebaSendVariables
 570              		.section	.text.AsebaSendDescription,"ax",%progbits
ARM GAS  C:\Users\mathi\AppData\Local\Temp\ccnu9GWW.s 			page 11


 571              		.align	1
 572              		.p2align 4,,15
 573              		.global	AsebaSendDescription
 574              		.syntax unified
 575              		.thumb
 576              		.thumb_func
 577              		.fpu fpv4-sp-d16
 578              		.type	AsebaSendDescription, %function
 579              	AsebaSendDescription:
 580              	.LFB8:
 581              		.loc 1 132 0
 582              		.cfi_startproc
 583              		@ args = 0, pretend = 0, frame = 56
 584              		@ frame_needed = 0, uses_anonymous_args = 0
 585              	.LVL47:
 586 0000 2DE9F04F 		push	{r4, r5, r6, r7, r8, r9, r10, fp, lr}
 587              		.cfi_def_cfa_offset 36
 588              		.cfi_offset 4, -36
 589              		.cfi_offset 5, -32
 590              		.cfi_offset 6, -28
 591              		.cfi_offset 7, -24
 592              		.cfi_offset 8, -20
 593              		.cfi_offset 9, -16
 594              		.cfi_offset 10, -12
 595              		.cfi_offset 11, -8
 596              		.cfi_offset 14, -4
 597 0004 BC4B     		ldr	r3, .L122
 598              	.LBB305:
 599              	.LBB306:
 600              	.LBB307:
 601              	.LBB308:
 602              		.loc 1 41 0
 603 0006 BD4C     		ldr	r4, .L122+4
 604              	.LBE308:
 605              	.LBE307:
 606              	.LBE306:
 607              	.LBE305:
 608              		.loc 1 132 0
 609 0008 1B68     		ldr	r3, [r3]
 610 000a 8FB0     		sub	sp, sp, #60
 611              		.cfi_def_cfa_offset 96
 612              		.loc 1 132 0
 613 000c 0546     		mov	r5, r0
 614 000e 0D93     		str	r3, [sp, #52]
 615 0010 0190     		str	r0, [sp, #4]
 616              		.loc 1 133 0
 617 0012 FFF7FEFF 		bl	AsebaGetVMDescription
 618              	.LVL48:
 619 0016 0646     		mov	r6, r0
 620              	.LVL49:
 621              		.loc 1 135 0
 622 0018 2846     		mov	r0, r5
 623              	.LVL50:
 624 001a FFF7FEFF 		bl	AsebaGetNativeFunctionsDescriptions
 625              	.LVL51:
 626 001e 0746     		mov	r7, r0
 627              		.loc 1 136 0
ARM GAS  C:\Users\mathi\AppData\Local\Temp\ccnu9GWW.s 			page 12


 628 0020 2846     		mov	r0, r5
 629 0022 FFF7FEFF 		bl	AsebaGetLocalEventsDescriptions
 630              	.LVL52:
 631              	.LBB312:
 632              	.LBB311:
 633              	.LBB310:
 634              	.LBB309:
 635              		.loc 1 41 0
 636 0026 4FF41043 		mov	r3, #36864
 637 002a 2380     		strh	r3, [r4]	@ movhi
 638              	.LBE309:
 639              	.LBE310:
 640              	.LBE311:
 641              	.LBE312:
 642              		.loc 1 143 0
 643 002c D6F80090 		ldr	r9, [r6]
 644              	.LBB313:
 645              	.LBB314:
 646              	.LBB315:
 647              	.LBB316:
 648              	.LBB317:
 649              		.loc 1 41 0
 650 0030 B34D     		ldr	r5, .L122+8
 651              	.LVL53:
 652              	.LBE317:
 653              	.LBE316:
 654              	.LBE315:
 655              	.LBE314:
 656              	.LBE313:
 657              		.loc 1 136 0
 658 0032 8046     		mov	r8, r0
 659              	.LBB329:
 660              	.LBB327:
 661              		.loc 1 64 0
 662 0034 4846     		mov	r0, r9
 663 0036 FFF7FEFF 		bl	strlen
 664              	.LVL54:
 665              		.loc 1 65 0
 666 003a A070     		strb	r0, [r4, #2]
 667              		.loc 1 66 0
 668 003c 99F80010 		ldrb	r1, [r9]	@ zero_extendqisi2
 669              	.LBB322:
 670              	.LBB320:
 671              	.LBB318:
 672              		.loc 1 41 0
 673 0040 0323     		movs	r3, #3
 674              	.LBE318:
 675              	.LBE320:
 676              	.LBE322:
 677              	.LBE327:
 678              	.LBE329:
 679              		.loc 1 134 0
 680 0042 06F1040B 		add	fp, r6, #4
 681              	.LVL55:
 682              	.LBB330:
 683              	.LBB328:
 684              	.LBB323:
ARM GAS  C:\Users\mathi\AppData\Local\Temp\ccnu9GWW.s 			page 13


 685              	.LBB321:
 686              	.LBB319:
 687              		.loc 1 41 0
 688 0046 2B60     		str	r3, [r5]
 689              	.LBE319:
 690              	.LBE321:
 691              	.LBE323:
 692              		.loc 1 66 0
 693 0048 89B3     		cbz	r1, .L78
 694 004a 4A46     		mov	r2, r9
 695 004c C9F1040C 		rsb	ip, r9, #4
 696 0050 A01C     		adds	r0, r4, #2
 697              	.LVL56:
 698              	.L48:
 699              	.LBB324:
 700              	.LBB325:
 701              	.LBB326:
 702              		.loc 1 41 0
 703 0052 00F8011F 		strb	r1, [r0, #1]!
 704 0056 0CEB0203 		add	r3, ip, r2
 705              	.LBE326:
 706              	.LBE325:
 707              	.LBE324:
 708              		.loc 1 66 0
 709 005a 12F8011F 		ldrb	r1, [r2, #1]!	@ zero_extendqisi2
 710              	.LVL57:
 711 005e 0029     		cmp	r1, #0
 712 0060 F7D1     		bne	.L48
 713 0062 03F10E0C 		add	ip, r3, #14
 714 0066 1FFA8CF2 		uxth	r2, ip
 715              	.LVL58:
 716 006a 0392     		str	r2, [sp, #12]
 717 006c 03F10D02 		add	r2, r3, #13
 718 0070 0292     		str	r2, [sp, #8]
 719 0072 03F10B02 		add	r2, r3, #11
 720 0076 0A92     		str	r2, [sp, #40]
 721 0078 03F10C02 		add	r2, r3, #12
 722 007c 0492     		str	r2, [sp, #16]
 723 007e 03F10902 		add	r2, r3, #9
 724 0082 0B92     		str	r2, [sp, #44]
 725 0084 03F10A02 		add	r2, r3, #10
 726 0088 0692     		str	r2, [sp, #24]
 727 008a DA1D     		adds	r2, r3, #7
 728 008c 0592     		str	r2, [sp, #20]
 729 008e 03F10802 		add	r2, r3, #8
 730 0092 0792     		str	r2, [sp, #28]
 731 0094 9A1D     		adds	r2, r3, #6
 732 0096 0892     		str	r2, [sp, #32]
 733 0098 DA1C     		adds	r2, r3, #3
 734 009a 1046     		mov	r0, r2
 735              	.LVL59:
 736 009c 1A1D     		adds	r2, r3, #4
 737 009e 03F1050A 		add	r10, r3, #5
 738 00a2 0992     		str	r2, [sp, #36]
 739 00a4 03F10109 		add	r9, r3, #1
 740 00a8 03F1020E 		add	lr, r3, #2
 741 00ac 1DE0     		b	.L47
ARM GAS  C:\Users\mathi\AppData\Local\Temp\ccnu9GWW.s 			page 14


 742              	.LVL60:
 743              	.L78:
 744 00ae 0722     		movs	r2, #7
 745 00b0 0992     		str	r2, [sp, #36]
 746 00b2 0622     		movs	r2, #6
 747 00b4 1046     		mov	r0, r2
 748              	.LVL61:
 749 00b6 0922     		movs	r2, #9
 750 00b8 0892     		str	r2, [sp, #32]
 751 00ba 0B22     		movs	r2, #11
 752 00bc 0792     		str	r2, [sp, #28]
 753 00be 0A21     		movs	r1, #10
 754 00c0 0D22     		movs	r2, #13
 755 00c2 CDE90512 		strd	r1, r2, [sp, #20]
 756 00c6 0C22     		movs	r2, #12
 757 00c8 0B92     		str	r2, [sp, #44]
 758 00ca 0F22     		movs	r2, #15
 759 00cc 0492     		str	r2, [sp, #16]
 760 00ce 0E22     		movs	r2, #14
 761 00d0 4FF0110C 		mov	ip, #17
 762 00d4 0A92     		str	r2, [sp, #40]
 763 00d6 1022     		movs	r2, #16
 764 00d8 CDF80CC0 		str	ip, [sp, #12]
 765 00dc 4FF0050E 		mov	lr, #5
 766 00e0 4FF00409 		mov	r9, #4
 767              	.LVL62:
 768 00e4 4FF0080A 		mov	r10, #8
 769 00e8 0292     		str	r2, [sp, #8]
 770              	.L47:
 771              	.LVL63:
 772              	.LBE328:
 773              	.LBE330:
 774              	.LBB331:
 775              	.LBB332:
 776              	.LBB333:
 777              	.LBB334:
 778              		.loc 1 41 0
 779 00ea 0521     		movs	r1, #5
 780 00ec 0022     		movs	r2, #0
 781 00ee E154     		strb	r1, [r4, r3]
 782              	.LVL64:
 783 00f0 04F80920 		strb	r2, [r4, r9]
 784              	.LVL65:
 785              	.LBE334:
 786              	.LBE333:
 787              	.LBE332:
 788              	.LBE331:
 789              		.loc 1 147 0
 790 00f4 0199     		ldr	r1, [sp, #4]
 791 00f6 4B88     		ldrh	r3, [r1, #2]
 792              	.LVL66:
 793              	.LBB335:
 794              	.LBB336:
 795              	.LBB337:
 796              	.LBB338:
 797              		.loc 1 41 0
 798 00f8 04F80E30 		strb	r3, [r4, lr]
ARM GAS  C:\Users\mathi\AppData\Local\Temp\ccnu9GWW.s 			page 15


 799              	.LVL67:
 800 00fc C3F30723 		ubfx	r3, r3, #8, #8
 801              	.LVL68:
 802 0100 2354     		strb	r3, [r4, r0]
 803              	.LVL69:
 804              	.LBE338:
 805              	.LBE337:
 806              	.LBE336:
 807              	.LBE335:
 808              	.LBB339:
 809              	.LBB340:
 810              	.LBB341:
 811              	.LBB342:
 812 0102 0998     		ldr	r0, [sp, #36]
 813              	.LBE342:
 814              	.LBE341:
 815              	.LBE340:
 816              	.LBE339:
 817              		.loc 1 148 0
 818 0104 0B8A     		ldrh	r3, [r1, #16]
 819              	.LVL70:
 820              	.LBB346:
 821              	.LBB345:
 822              	.LBB344:
 823              	.LBB343:
 824              		.loc 1 41 0
 825 0106 2354     		strb	r3, [r4, r0]
 826              	.LVL71:
 827 0108 C3F30723 		ubfx	r3, r3, #8, #8
 828              	.LVL72:
 829 010c 04F80A30 		strb	r3, [r4, r10]
 830              	.LVL73:
 831              	.LBE343:
 832              	.LBE344:
 833              	.LBE345:
 834              	.LBE346:
 835              		.loc 1 149 0
 836 0110 0B89     		ldrh	r3, [r1, #8]
 837              	.LVL74:
 838              	.LBB347:
 839              	.LBB348:
 840              	.LBB349:
 841              	.LBB350:
 842              		.loc 1 41 0
 843 0112 0899     		ldr	r1, [sp, #32]
 844 0114 6354     		strb	r3, [r4, r1]
 845              	.LVL75:
 846 0116 0599     		ldr	r1, [sp, #20]
 847 0118 C3F30723 		ubfx	r3, r3, #8, #8
 848              	.LVL76:
 849 011c 6354     		strb	r3, [r4, r1]
 850              	.LVL77:
 851              	.LBE350:
 852              	.LBE349:
 853              	.LBE348:
 854              	.LBE347:
 855              		.loc 1 152 0
ARM GAS  C:\Users\mathi\AppData\Local\Temp\ccnu9GWW.s 			page 16


 856 011e B388     		ldrh	r3, [r6, #4]
 857 0120 002B     		cmp	r3, #0
 858 0122 00F07981 		beq	.L79
 859              	.LVL78:
 860              	.L50:
 861              		.loc 1 152 0 is_stmt 0 discriminator 3
 862 0126 0132     		adds	r2, r2, #1
 863              	.LVL79:
 864 0128 92B2     		uxth	r2, r2
 865              	.LVL80:
 866 012a 3BF83230 		ldrh	r3, [fp, r2, lsl #3]
 867 012e 002B     		cmp	r3, #0
 868 0130 F9D1     		bne	.L50
 869 0132 130A     		lsrs	r3, r2, #8
 870 0134 D2B2     		uxtb	r2, r2
 871              	.LVL81:
 872              	.L49:
 873              	.LBB351:
 874              	.LBB352:
 875              	.LBB353:
 876              	.LBB354:
 877              		.loc 1 41 0 is_stmt 1
 878 0136 0799     		ldr	r1, [sp, #28]
 879 0138 6254     		strb	r2, [r4, r1]
 880              	.LVL82:
 881 013a 0B9A     		ldr	r2, [sp, #44]
 882 013c A354     		strb	r3, [r4, r2]
 883              	.LVL83:
 884              	.LBE354:
 885              	.LBE353:
 886              	.LBE352:
 887              	.LBE351:
 888              		.loc 1 157 0
 889 013e D8F80020 		ldr	r2, [r8]
 890 0142 002A     		cmp	r2, #0
 891 0144 00F06681 		beq	.L80
 892 0148 0022     		movs	r2, #0
 893              	.LVL84:
 894              	.L52:
 895              		.loc 1 157 0 is_stmt 0 discriminator 3
 896 014a 0132     		adds	r2, r2, #1
 897              	.LVL85:
 898 014c 92B2     		uxth	r2, r2
 899              	.LVL86:
 900 014e 58F83230 		ldr	r3, [r8, r2, lsl #3]
 901 0152 002B     		cmp	r3, #0
 902 0154 F9D1     		bne	.L52
 903 0156 D3B2     		uxtb	r3, r2
 904 0158 120A     		lsrs	r2, r2, #8
 905              	.LVL87:
 906              	.L51:
 907              	.LBB355:
 908              	.LBB356:
 909              	.LBB357:
 910              	.LBB358:
 911              		.loc 1 41 0 is_stmt 1
 912 015a 0699     		ldr	r1, [sp, #24]
ARM GAS  C:\Users\mathi\AppData\Local\Temp\ccnu9GWW.s 			page 17


 913 015c 6354     		strb	r3, [r4, r1]
 914              	.LVL88:
 915 015e 0A9B     		ldr	r3, [sp, #40]
 916 0160 E254     		strb	r2, [r4, r3]
 917              	.LVL89:
 918              	.LBE358:
 919              	.LBE357:
 920              	.LBE356:
 921              	.LBE355:
 922              		.loc 1 162 0
 923 0162 3868     		ldr	r0, [r7]
 924 0164 0028     		cmp	r0, #0
 925 0166 00F05381 		beq	.L81
 926 016a 0020     		movs	r0, #0
 927              	.LVL90:
 928              	.L54:
 929              		.loc 1 162 0 is_stmt 0 discriminator 3
 930 016c 0130     		adds	r0, r0, #1
 931              	.LVL91:
 932 016e 80B2     		uxth	r0, r0
 933              	.LVL92:
 934 0170 57F82030 		ldr	r3, [r7, r0, lsl #2]
 935 0174 002B     		cmp	r3, #0
 936 0176 F9D1     		bne	.L54
 937 0178 4FEA102E 		lsr	lr, r0, #8
 938 017c C0B2     		uxtb	r0, r0
 939              	.LVL93:
 940              	.L53:
 941              	.LBB359:
 942              	.LBB360:
 943              	.LBB361:
 944              	.LBB362:
 945              		.loc 1 41 0 is_stmt 1
 946 017e 049B     		ldr	r3, [sp, #16]
 947              	.LBE362:
 948              	.LBE361:
 949              	.LBE360:
 950              	.LBE359:
 951              		.loc 1 167 0
 952 0180 039A     		ldr	r2, [sp, #12]
 953              	.LBB369:
 954              	.LBB367:
 955              	.LBB365:
 956              	.LBB363:
 957              		.loc 1 41 0
 958 0182 E054     		strb	r0, [r4, r3]
 959              	.LVL94:
 960 0184 029B     		ldr	r3, [sp, #8]
 961              	.LBE363:
 962              	.LBE365:
 963              	.LBE367:
 964              	.LBE369:
 965              		.loc 1 167 0
 966 0186 5D49     		ldr	r1, .L122+4
 967 0188 0198     		ldr	r0, [sp, #4]
 968              	.LBB370:
 969              	.LBB368:
ARM GAS  C:\Users\mathi\AppData\Local\Temp\ccnu9GWW.s 			page 18


 970              	.LBB366:
 971              	.LBB364:
 972              		.loc 1 41 0
 973 018a C5F800C0 		str	ip, [r5]
 974 018e 04F803E0 		strb	lr, [r4, r3]
 975              	.LVL95:
 976              	.LBE364:
 977              	.LBE366:
 978              	.LBE368:
 979              	.LBE370:
 980              		.loc 1 167 0
 981 0192 FFF7FEFF 		bl	AsebaSendBuffer
 982              	.LVL96:
 983              		.loc 1 170 0
 984 0196 D6F80890 		ldr	r9, [r6, #8]
 985 019a B9F1000F 		cmp	r9, #0
 986 019e 32D0     		beq	.L55
 987              	.LBB371:
 988              	.LBB372:
 989              	.LBB373:
 990              	.LBB374:
 991              	.LBB375:
 992              		.loc 1 41 0
 993 01a0 0297     		str	r7, [sp, #8]
 994 01a2 4F46     		mov	r7, r9
 995              	.LVL97:
 996 01a4 DDF80490 		ldr	r9, [sp, #4]
 997              	.LBE375:
 998              	.LBE374:
 999              	.LBE373:
 1000              	.LBE372:
 1001              	.LBE371:
 1002              		.loc 1 170 0
 1003 01a8 5A46     		mov	r2, fp
 1004 01aa 0026     		movs	r6, #0
 1005              	.LVL98:
 1006              	.LBB384:
 1007              	.LBB385:
 1008              	.LBB386:
 1009              	.LBB387:
 1010              		.loc 1 41 0
 1011 01ac 49F2010A 		movw	r10, #36865
 1012              	.LVL99:
 1013              	.L58:
 1014              		.loc 1 41 0 is_stmt 0 discriminator 3
 1015 01b0 A4F800A0 		strh	r10, [r4]	@ movhi
 1016              	.LVL100:
 1017              	.LBE387:
 1018              	.LBE386:
 1019              	.LBE385:
 1020              	.LBE384:
 1021              		.loc 1 176 0 is_stmt 1 discriminator 3
 1022 01b4 1388     		ldrh	r3, [r2]
 1023              	.LVL101:
 1024              	.LBB388:
 1025              	.LBB389:
 1026              	.LBB390:
ARM GAS  C:\Users\mathi\AppData\Local\Temp\ccnu9GWW.s 			page 19


 1027              	.LBB391:
 1028              		.loc 1 41 0 discriminator 3
 1029 01b6 A370     		strb	r3, [r4, #2]
 1030              	.LVL102:
 1031              	.LBE391:
 1032              	.LBE390:
 1033              	.LBE389:
 1034              	.LBE388:
 1035              	.LBB395:
 1036              	.LBB382:
 1037              		.loc 1 64 0 discriminator 3
 1038 01b8 3846     		mov	r0, r7
 1039              	.LBE382:
 1040              	.LBE395:
 1041              	.LBB396:
 1042              	.LBB394:
 1043              	.LBB393:
 1044              	.LBB392:
 1045              		.loc 1 41 0 discriminator 3
 1046 01ba C3F30723 		ubfx	r3, r3, #8, #8
 1047              	.LVL103:
 1048 01be E370     		strb	r3, [r4, #3]
 1049              	.LVL104:
 1050              	.LBE392:
 1051              	.LBE393:
 1052              	.LBE394:
 1053              	.LBE396:
 1054              	.LBB397:
 1055              	.LBB383:
 1056              		.loc 1 64 0 discriminator 3
 1057 01c0 FFF7FEFF 		bl	strlen
 1058              	.LVL105:
 1059              		.loc 1 65 0 discriminator 3
 1060 01c4 2071     		strb	r0, [r4, #4]
 1061              		.loc 1 66 0 discriminator 3
 1062 01c6 3B78     		ldrb	r3, [r7]	@ zero_extendqisi2
 1063              	.LBB378:
 1064              	.LBB377:
 1065              	.LBB376:
 1066              		.loc 1 41 0 discriminator 3
 1067 01c8 0522     		movs	r2, #5
 1068 01ca 2A60     		str	r2, [r5]
 1069              	.LBE376:
 1070              	.LBE377:
 1071              	.LBE378:
 1072              		.loc 1 66 0 discriminator 3
 1073 01cc 73B1     		cbz	r3, .L82
 1074 01ce 4D4A     		ldr	r2, .L122+12
 1075              		.loc 1 66 0 is_stmt 0
 1076 01d0 3846     		mov	r0, r7
 1077              	.LVL106:
 1078 01d2 C7F1060C 		rsb	ip, r7, #6
 1079              	.LVL107:
 1080              	.L57:
 1081              	.LBB379:
 1082              	.LBB380:
 1083              	.LBB381:
ARM GAS  C:\Users\mathi\AppData\Local\Temp\ccnu9GWW.s 			page 20


 1084              		.loc 1 41 0 is_stmt 1
 1085 01d6 02F8013F 		strb	r3, [r2, #1]!
 1086 01da 0CEB0001 		add	r1, ip, r0
 1087              	.LBE381:
 1088              	.LBE380:
 1089              	.LBE379:
 1090              		.loc 1 66 0
 1091 01de 10F8013F 		ldrb	r3, [r0, #1]!	@ zero_extendqisi2
 1092              	.LVL108:
 1093 01e2 002B     		cmp	r3, #0
 1094 01e4 F7D1     		bne	.L57
 1095 01e6 2960     		str	r1, [r5]
 1096 01e8 8AB2     		uxth	r2, r1
 1097              	.LVL109:
 1098 01ea 00E0     		b	.L56
 1099              	.LVL110:
 1100              	.L82:
 1101 01ec 0522     		movs	r2, #5
 1102              	.LVL111:
 1103              	.L56:
 1104              	.LBE383:
 1105              	.LBE397:
 1106              		.loc 1 170 0
 1107 01ee 0136     		adds	r6, r6, #1
 1108              	.LVL112:
 1109              		.loc 1 180 0
 1110 01f0 4249     		ldr	r1, .L122+4
 1111 01f2 4846     		mov	r0, r9
 1112              		.loc 1 170 0
 1113 01f4 B6B2     		uxth	r6, r6
 1114              		.loc 1 180 0
 1115 01f6 FFF7FEFF 		bl	AsebaSendBuffer
 1116              	.LVL113:
 1117              		.loc 1 170 0
 1118 01fa 0BEBC602 		add	r2, fp, r6, lsl #3
 1119 01fe 5768     		ldr	r7, [r2, #4]
 1120 0200 002F     		cmp	r7, #0
 1121 0202 D5D1     		bne	.L58
 1122 0204 029F     		ldr	r7, [sp, #8]
 1123              	.LVL114:
 1124              	.L55:
 1125              		.loc 1 184 0
 1126 0206 D8F80030 		ldr	r3, [r8]
 1127 020a 002B     		cmp	r3, #0
 1128 020c 4CD0     		beq	.L59
 1129 020e 0026     		movs	r6, #0
 1130              	.LBB398:
 1131              	.LBB399:
 1132              	.LBB400:
 1133              	.LBB401:
 1134              	.LBB402:
 1135              		.loc 1 41 0
 1136 0210 0297     		str	r7, [sp, #8]
 1137 0212 B246     		mov	r10, r6
 1138 0214 4746     		mov	r7, r8
 1139              	.LVL115:
 1140              	.L64:
ARM GAS  C:\Users\mathi\AppData\Local\Temp\ccnu9GWW.s 			page 21


 1141              	.LBE402:
 1142              	.LBE401:
 1143              	.LBE400:
 1144              	.LBE399:
 1145              	.LBE398:
 1146              	.LBB410:
 1147              	.LBB411:
 1148              	.LBB412:
 1149              	.LBB413:
 1150              		.loc 1 41 0 is_stmt 0 discriminator 3
 1151 0216 49F20203 		movw	r3, 36866	@ movhi
 1152 021a 2380     		strh	r3, [r4]	@ movhi
 1153              	.LVL116:
 1154              	.LBE413:
 1155              	.LBE412:
 1156              	.LBE411:
 1157              	.LBE410:
 1158              		.loc 1 190 0 is_stmt 1 discriminator 3
 1159 021c 3E68     		ldr	r6, [r7]
 1160              	.LVL117:
 1161              	.LBB414:
 1162              	.LBB409:
 1163              		.loc 1 64 0 discriminator 3
 1164 021e 3046     		mov	r0, r6
 1165 0220 FFF7FEFF 		bl	strlen
 1166              	.LVL118:
 1167              		.loc 1 65 0 discriminator 3
 1168 0224 A070     		strb	r0, [r4, #2]
 1169              		.loc 1 66 0 discriminator 3
 1170 0226 3378     		ldrb	r3, [r6]	@ zero_extendqisi2
 1171              	.LBB405:
 1172              	.LBB404:
 1173              	.LBB403:
 1174              		.loc 1 41 0 discriminator 3
 1175 0228 0322     		movs	r2, #3
 1176 022a 2A60     		str	r2, [r5]
 1177              	.LBE403:
 1178              	.LBE404:
 1179              	.LBE405:
 1180              		.loc 1 66 0 discriminator 3
 1181 022c 73B1     		cbz	r3, .L83
 1182 022e 364A     		ldr	r2, .L122+16
 1183              		.loc 1 66 0 is_stmt 0
 1184 0230 3046     		mov	r0, r6
 1185              	.LVL119:
 1186 0232 C6F10406 		rsb	r6, r6, #4
 1187              	.LVL120:
 1188              	.L61:
 1189              	.LBB406:
 1190              	.LBB407:
 1191              	.LBB408:
 1192              		.loc 1 41 0 is_stmt 1
 1193 0236 02F8013F 		strb	r3, [r2, #1]!
 1194 023a 06EB0009 		add	r9, r6, r0
 1195              	.LBE408:
 1196              	.LBE407:
 1197              	.LBE406:
ARM GAS  C:\Users\mathi\AppData\Local\Temp\ccnu9GWW.s 			page 22


 1198              		.loc 1 66 0
 1199 023e 10F8013F 		ldrb	r3, [r0, #1]!	@ zero_extendqisi2
 1200              	.LVL121:
 1201 0242 002B     		cmp	r3, #0
 1202 0244 F7D1     		bne	.L61
 1203 0246 09F1010B 		add	fp, r9, #1
 1204 024a 03E0     		b	.L60
 1205              	.LVL122:
 1206              	.L83:
 1207 024c 4FF0040B 		mov	fp, #4
 1208 0250 4FF00309 		mov	r9, #3
 1209              	.LVL123:
 1210              	.L60:
 1211              	.LBE409:
 1212              	.LBE414:
 1213              		.loc 1 191 0
 1214 0254 7E68     		ldr	r6, [r7, #4]
 1215              	.LVL124:
 1216              	.LBB415:
 1217              	.LBB416:
 1218              		.loc 1 64 0
 1219 0256 3046     		mov	r0, r6
 1220 0258 FFF7FEFF 		bl	strlen
 1221              	.LVL125:
 1222              		.loc 1 65 0
 1223 025c 04F80900 		strb	r0, [r4, r9]
 1224              		.loc 1 66 0
 1225 0260 3178     		ldrb	r1, [r6]	@ zero_extendqisi2
 1226              	.LBB417:
 1227              	.LBB418:
 1228              	.LBB419:
 1229              		.loc 1 41 0
 1230 0262 C5F800B0 		str	fp, [r5]
 1231              	.LBE419:
 1232              	.LBE418:
 1233              	.LBE417:
 1234              		.loc 1 66 0
 1235 0266 71B1     		cbz	r1, .L62
 1236 0268 0BF1FF30 		add	r0, fp, #-1
 1237              	.LVL126:
 1238 026c 2044     		add	r0, r0, r4
 1239 026e ABEB0602 		sub	r2, fp, r6
 1240 0272 731C     		adds	r3, r6, #1
 1241              	.LVL127:
 1242              	.L63:
 1243              	.LBB420:
 1244              	.LBB421:
 1245              	.LBB422:
 1246              		.loc 1 41 0
 1247 0274 00F8011F 		strb	r1, [r0, #1]!
 1248 0278 D618     		adds	r6, r2, r3
 1249              	.LBE422:
 1250              	.LBE421:
 1251              	.LBE420:
 1252              		.loc 1 66 0
 1253 027a 13F8011B 		ldrb	r1, [r3], #1	@ zero_extendqisi2
 1254              	.LVL128:
ARM GAS  C:\Users\mathi\AppData\Local\Temp\ccnu9GWW.s 			page 23


 1255 027e 0029     		cmp	r1, #0
 1256 0280 F8D1     		bne	.L63
 1257 0282 2E60     		str	r6, [r5]
 1258 0284 B346     		mov	fp, r6
 1259              	.LVL129:
 1260              	.L62:
 1261              	.LBE416:
 1262              	.LBE415:
 1263              		.loc 1 184 0
 1264 0286 0AF1010A 		add	r10, r10, #1
 1265              	.LVL130:
 1266 028a 1FFA8AFA 		uxth	r10, r10
 1267              		.loc 1 194 0
 1268 028e 1FFA8BF2 		uxth	r2, fp
 1269 0292 1A49     		ldr	r1, .L122+4
 1270 0294 0198     		ldr	r0, [sp, #4]
 1271 0296 FFF7FEFF 		bl	AsebaSendBuffer
 1272              	.LVL131:
 1273              		.loc 1 184 0
 1274 029a 58F83A30 		ldr	r3, [r8, r10, lsl #3]
 1275 029e 08EBCA07 		add	r7, r8, r10, lsl #3
 1276 02a2 002B     		cmp	r3, #0
 1277 02a4 B7D1     		bne	.L64
 1278 02a6 029F     		ldr	r7, [sp, #8]
 1279              	.LVL132:
 1280              	.L59:
 1281              		.loc 1 198 0
 1282 02a8 3B68     		ldr	r3, [r7]
 1283 02aa 002B     		cmp	r3, #0
 1284 02ac 49D0     		beq	.L46
 1285 02ae 0023     		movs	r3, #0
 1286 02b0 BB46     		mov	fp, r7
 1287 02b2 0297     		str	r7, [sp, #8]
 1288 02b4 9846     		mov	r8, r3
 1289              	.LVL133:
 1290              	.L76:
 1291              	.LBB423:
 1292              	.LBB424:
 1293              	.LBB425:
 1294              	.LBB426:
 1295              	.LBB427:
 1296              		.loc 1 41 0
 1297 02b6 49F20303 		movw	r3, #36867
 1298 02ba 2380     		strh	r3, [r4]	@ movhi
 1299              	.LVL134:
 1300              	.LBE427:
 1301              	.LBE426:
 1302              	.LBE425:
 1303              	.LBE424:
 1304              		.loc 1 207 0
 1305 02bc DBF80030 		ldr	r3, [fp]
 1306 02c0 1E68     		ldr	r6, [r3]
 1307              	.LVL135:
 1308              	.LBB428:
 1309              	.LBB429:
 1310              		.loc 1 64 0
 1311 02c2 3046     		mov	r0, r6
ARM GAS  C:\Users\mathi\AppData\Local\Temp\ccnu9GWW.s 			page 24


 1312 02c4 FFF7FEFF 		bl	strlen
 1313              	.LVL136:
 1314              		.loc 1 65 0
 1315 02c8 A070     		strb	r0, [r4, #2]
 1316              		.loc 1 66 0
 1317 02ca 3278     		ldrb	r2, [r6]	@ zero_extendqisi2
 1318              	.LBB430:
 1319              	.LBB431:
 1320              	.LBB432:
 1321              		.loc 1 41 0
 1322 02cc 0323     		movs	r3, #3
 1323 02ce 2B60     		str	r3, [r5]
 1324              	.LBE432:
 1325              	.LBE431:
 1326              	.LBE430:
 1327              		.loc 1 66 0
 1328 02d0 002A     		cmp	r2, #0
 1329 02d2 3ED0     		beq	.L84
 1330 02d4 3046     		mov	r0, r6
 1331              	.LVL137:
 1332 02d6 0C4E     		ldr	r6, .L122+16
 1333              	.LVL138:
 1334 02d8 C0F10407 		rsb	r7, r0, #4
 1335              	.LVL139:
 1336              	.L67:
 1337              	.LBB433:
 1338              	.LBB434:
 1339              	.LBB435:
 1340              		.loc 1 41 0
 1341 02dc 06F8012F 		strb	r2, [r6, #1]!
 1342 02e0 07EB000A 		add	r10, r7, r0
 1343              	.LBE435:
 1344              	.LBE434:
 1345              	.LBE433:
 1346              		.loc 1 66 0
 1347 02e4 10F8012F 		ldrb	r2, [r0, #1]!	@ zero_extendqisi2
 1348              	.LVL140:
 1349 02e8 002A     		cmp	r2, #0
 1350 02ea F7D1     		bne	.L67
 1351 02ec 0AF10107 		add	r7, r10, #1
 1352 02f0 0AF10209 		add	r9, r10, #2
 1353 02f4 31E0     		b	.L66
 1354              	.L123:
 1355 02f6 00BF     		.align	2
 1356              	.L122:
 1357 02f8 00000000 		.word	__stack_chk_guard
 1358 02fc 00000000 		.word	.LANCHOR0
 1359 0300 00000000 		.word	.LANCHOR1
 1360 0304 04000000 		.word	.LANCHOR0+4
 1361 0308 02000000 		.word	.LANCHOR0+2
 1362              	.LVL141:
 1363              	.L86:
 1364              	.LBE429:
 1365              	.LBE428:
 1366              	.LBB437:
 1367              	.LBB438:
 1368 030c 1746     		mov	r7, r2
ARM GAS  C:\Users\mathi\AppData\Local\Temp\ccnu9GWW.s 			page 25


 1369              	.LVL142:
 1370              	.L73:
 1371              	.LBE438:
 1372              	.LBE437:
 1373              		.loc 1 212 0
 1374 030e 1FFA8AF0 		uxth	r0, r10
 1375              	.LVL143:
 1376 0312 00F1010A 		add	r10, r0, #1
 1377 0316 DBF80030 		ldr	r3, [fp]
 1378 031a 33F93A30 		ldrsh	r3, [r3, r10, lsl #3]
 1379 031e 002B     		cmp	r3, #0
 1380 0320 51D1     		bne	.L75
 1381              	.LVL144:
 1382              	.L72:
 1383              		.loc 1 219 0 discriminator 2
 1384 0322 BAB2     		uxth	r2, r7
 1385 0324 3E49     		ldr	r1, .L124
 1386 0326 0198     		ldr	r0, [sp, #4]
 1387              	.LBE423:
 1388              		.loc 1 198 0 discriminator 2
 1389 0328 08F10108 		add	r8, r8, #1
 1390              	.LVL145:
 1391              	.LBB468:
 1392              		.loc 1 219 0 discriminator 2
 1393 032c FFF7FEFF 		bl	AsebaSendBuffer
 1394              	.LVL146:
 1395              	.LBE468:
 1396              		.loc 1 198 0 discriminator 2
 1397 0330 1FFA88F8 		uxth	r8, r8
 1398              	.LVL147:
 1399 0334 029B     		ldr	r3, [sp, #8]
 1400 0336 03EB880B 		add	fp, r3, r8, lsl #2
 1401 033a 53F82830 		ldr	r3, [r3, r8, lsl #2]
 1402 033e 002B     		cmp	r3, #0
 1403 0340 B9D1     		bne	.L76
 1404              	.LVL148:
 1405              	.L46:
 1406              		.loc 1 221 0
 1407 0342 384B     		ldr	r3, .L124+4
 1408 0344 0D9A     		ldr	r2, [sp, #52]
 1409 0346 1B68     		ldr	r3, [r3]
 1410 0348 9A42     		cmp	r2, r3
 1411 034a 67D1     		bne	.L121
 1412 034c 0FB0     		add	sp, sp, #60
 1413              		.cfi_remember_state
 1414              		.cfi_def_cfa_offset 36
 1415              		@ sp needed
 1416 034e BDE8F08F 		pop	{r4, r5, r6, r7, r8, r9, r10, fp, pc}
 1417              	.LVL149:
 1418              	.L84:
 1419              		.cfi_restore_state
 1420              	.LBB469:
 1421              	.LBB446:
 1422              	.LBB436:
 1423              		.loc 1 66 0
 1424 0352 9A46     		mov	r10, r3
 1425 0354 4FF00509 		mov	r9, #5
ARM GAS  C:\Users\mathi\AppData\Local\Temp\ccnu9GWW.s 			page 26


 1426 0358 0427     		movs	r7, #4
 1427              	.LVL150:
 1428              	.L66:
 1429              	.LBE436:
 1430              	.LBE446:
 1431              		.loc 1 208 0
 1432 035a DBF80020 		ldr	r2, [fp]
 1433 035e 5668     		ldr	r6, [r2, #4]
 1434              	.LVL151:
 1435              	.LBB447:
 1436              	.LBB448:
 1437              		.loc 1 64 0
 1438 0360 3046     		mov	r0, r6
 1439 0362 FFF7FEFF 		bl	strlen
 1440              	.LVL152:
 1441              		.loc 1 65 0
 1442 0366 04F80A00 		strb	r0, [r4, r10]
 1443              		.loc 1 66 0
 1444 036a 3278     		ldrb	r2, [r6]	@ zero_extendqisi2
 1445              	.LBB449:
 1446              	.LBB450:
 1447              	.LBB451:
 1448              		.loc 1 41 0
 1449 036c 2F60     		str	r7, [r5]
 1450              	.LBE451:
 1451              	.LBE450:
 1452              	.LBE449:
 1453              		.loc 1 66 0
 1454 036e 6AB1     		cbz	r2, .L68
 1455 0370 781E     		subs	r0, r7, #1
 1456              	.LVL153:
 1457 0372 2044     		add	r0, r0, r4
 1458 0374 BF1B     		subs	r7, r7, r6
 1459 0376 731C     		adds	r3, r6, #1
 1460              	.LVL154:
 1461              	.L69:
 1462              	.LBB452:
 1463              	.LBB453:
 1464              	.LBB454:
 1465              		.loc 1 41 0
 1466 0378 00F8012F 		strb	r2, [r0, #1]!
 1467 037c FE18     		adds	r6, r7, r3
 1468              	.LBE454:
 1469              	.LBE453:
 1470              	.LBE452:
 1471              		.loc 1 66 0
 1472 037e 13F8012B 		ldrb	r2, [r3], #1	@ zero_extendqisi2
 1473              	.LVL155:
 1474 0382 002A     		cmp	r2, #0
 1475 0384 F8D1     		bne	.L69
 1476 0386 06F10109 		add	r9, r6, #1
 1477 038a 3746     		mov	r7, r6
 1478              	.LVL156:
 1479              	.L68:
 1480              	.LBE448:
 1481              	.LBE447:
 1482              		.loc 1 209 0
ARM GAS  C:\Users\mathi\AppData\Local\Temp\ccnu9GWW.s 			page 27


 1483 038c DBF80060 		ldr	r6, [fp]
 1484 0390 B6F90820 		ldrsh	r2, [r6, #8]
 1485 0394 002A     		cmp	r2, #0
 1486 0396 39D0     		beq	.L85
 1487 0398 0123     		movs	r3, #1
 1488              	.LVL157:
 1489              	.L71:
 1490              		.loc 1 209 0 is_stmt 0 discriminator 3
 1491 039a 9AB2     		uxth	r2, r3
 1492              	.LVL158:
 1493 039c 531C     		adds	r3, r2, #1
 1494 039e 36F93310 		ldrsh	r1, [r6, r3, lsl #3]
 1495 03a2 0029     		cmp	r1, #0
 1496 03a4 F9D1     		bne	.L71
 1497 03a6 D3B2     		uxtb	r3, r2
 1498 03a8 120A     		lsrs	r2, r2, #8
 1499              	.LVL159:
 1500              	.L70:
 1501              	.LBB455:
 1502              	.LBB456:
 1503              	.LBB457:
 1504              	.LBB458:
 1505              		.loc 1 41 0 is_stmt 1
 1506 03aa E355     		strb	r3, [r4, r7]
 1507              	.LVL160:
 1508 03ac 04F80920 		strb	r2, [r4, r9]
 1509              	.LVL161:
 1510              	.LBE458:
 1511              	.LBE457:
 1512              	.LBE456:
 1513              	.LBE455:
 1514              		.loc 1 212 0
 1515 03b0 DBF80030 		ldr	r3, [fp]
 1516 03b4 B3F90830 		ldrsh	r3, [r3, #8]
 1517              	.LBB462:
 1518              	.LBB461:
 1519              	.LBB460:
 1520              	.LBB459:
 1521              		.loc 1 41 0
 1522 03b8 0237     		adds	r7, r7, #2
 1523 03ba 2F60     		str	r7, [r5]
 1524              	.LBE459:
 1525              	.LBE460:
 1526              	.LBE461:
 1527              	.LBE462:
 1528              		.loc 1 212 0
 1529 03bc 002B     		cmp	r3, #0
 1530 03be B0D0     		beq	.L72
 1531 03c0 0020     		movs	r0, #0
 1532 03c2 4FF0010A 		mov	r10, #1
 1533              	.LVL162:
 1534              	.L75:
 1535              	.LBB463:
 1536              	.LBB464:
 1537              	.LBB465:
 1538              	.LBB466:
 1539              		.loc 1 41 0 discriminator 3
ARM GAS  C:\Users\mathi\AppData\Local\Temp\ccnu9GWW.s 			page 28


 1540 03c6 04EB0709 		add	r9, r4, r7
 1541 03ca E355     		strb	r3, [r4, r7]
 1542              	.LVL163:
 1543 03cc C3F30723 		ubfx	r3, r3, #8, #8
 1544              	.LVL164:
 1545 03d0 89F80130 		strb	r3, [r9, #1]
 1546              	.LVL165:
 1547              	.LBE466:
 1548              	.LBE465:
 1549              	.LBE464:
 1550              	.LBE463:
 1551              		.loc 1 215 0 discriminator 3
 1552 03d4 DBF80030 		ldr	r3, [fp]
 1553 03d8 03EBC003 		add	r3, r3, r0, lsl #3
 1554 03dc DE68     		ldr	r6, [r3, #12]
 1555              	.LVL166:
 1556              	.LBB467:
 1557              	.LBB445:
 1558              		.loc 1 64 0 discriminator 3
 1559 03de 3046     		mov	r0, r6
 1560 03e0 FFF7FEFF 		bl	strlen
 1561              	.LVL167:
 1562              		.loc 1 65 0 discriminator 3
 1563 03e4 89F80200 		strb	r0, [r9, #2]
 1564              		.loc 1 66 0 discriminator 3
 1565 03e8 3378     		ldrb	r3, [r6]	@ zero_extendqisi2
 1566              	.LBB439:
 1567              	.LBB440:
 1568              	.LBB441:
 1569              		.loc 1 41 0 discriminator 3
 1570 03ea FA1C     		adds	r2, r7, #3
 1571 03ec 2A60     		str	r2, [r5]
 1572              	.LBE441:
 1573              	.LBE440:
 1574              	.LBE439:
 1575              		.loc 1 66 0 discriminator 3
 1576 03ee 002B     		cmp	r3, #0
 1577 03f0 8CD0     		beq	.L86
 1578 03f2 391D     		adds	r1, r7, #4
 1579              		.loc 1 66 0 is_stmt 0
 1580 03f4 3046     		mov	r0, r6
 1581              	.LVL168:
 1582 03f6 891B     		subs	r1, r1, r6
 1583 03f8 2244     		add	r2, r2, r4
 1584              	.LVL169:
 1585              	.L74:
 1586              	.LBB442:
 1587              	.LBB443:
 1588              	.LBB444:
 1589              		.loc 1 41 0 is_stmt 1
 1590 03fa 02F8013B 		strb	r3, [r2], #1
 1591 03fe 0F18     		adds	r7, r1, r0
 1592              	.LBE444:
 1593              	.LBE443:
 1594              	.LBE442:
 1595              		.loc 1 66 0
 1596 0400 10F8013F 		ldrb	r3, [r0, #1]!	@ zero_extendqisi2
ARM GAS  C:\Users\mathi\AppData\Local\Temp\ccnu9GWW.s 			page 29


 1597              	.LVL170:
 1598 0404 002B     		cmp	r3, #0
 1599 0406 F8D1     		bne	.L74
 1600 0408 2F60     		str	r7, [r5]
 1601 040a 80E7     		b	.L73
 1602              	.LVL171:
 1603              	.L85:
 1604              	.LBE445:
 1605              	.LBE467:
 1606              		.loc 1 209 0
 1607 040c 1346     		mov	r3, r2
 1608 040e CCE7     		b	.L70
 1609              	.LVL172:
 1610              	.L81:
 1611              	.LBE469:
 1612              		.loc 1 162 0
 1613 0410 8646     		mov	lr, r0
 1614 0412 B4E6     		b	.L53
 1615              	.L80:
 1616              		.loc 1 157 0
 1617 0414 1346     		mov	r3, r2
 1618 0416 A0E6     		b	.L51
 1619              	.L79:
 1620              		.loc 1 152 0
 1621 0418 1A46     		mov	r2, r3
 1622 041a 8CE6     		b	.L49
 1623              	.LVL173:
 1624              	.L121:
 1625              		.loc 1 221 0
 1626 041c FFF7FEFF 		bl	__stack_chk_fail
 1627              	.LVL174:
 1628              	.L125:
 1629              		.align	2
 1630              	.L124:
 1631 0420 00000000 		.word	.LANCHOR0
 1632 0424 00000000 		.word	__stack_chk_guard
 1633              		.cfi_endproc
 1634              	.LFE8:
 1635              		.size	AsebaSendDescription, .-AsebaSendDescription
 1636              		.section	.text.AsebaProcessIncomingEvents,"ax",%progbits
 1637              		.align	1
 1638              		.p2align 4,,15
 1639              		.global	AsebaProcessIncomingEvents
 1640              		.syntax unified
 1641              		.thumb
 1642              		.thumb_func
 1643              		.fpu fpv4-sp-d16
 1644              		.type	AsebaProcessIncomingEvents, %function
 1645              	AsebaProcessIncomingEvents:
 1646              	.LFB9:
 1647              		.loc 1 224 0
 1648              		.cfi_startproc
 1649              		@ args = 0, pretend = 0, frame = 8
 1650              		@ frame_needed = 0, uses_anonymous_args = 0
 1651              	.LVL175:
 1652 0000 F0B5     		push	{r4, r5, r6, r7, lr}
 1653              		.cfi_def_cfa_offset 20
ARM GAS  C:\Users\mathi\AppData\Local\Temp\ccnu9GWW.s 			page 30


 1654              		.cfi_offset 4, -20
 1655              		.cfi_offset 5, -16
 1656              		.cfi_offset 6, -12
 1657              		.cfi_offset 7, -8
 1658              		.cfi_offset 14, -4
 1659 0002 2B4D     		ldr	r5, .L148
 1660              		.loc 1 228 0
 1661 0004 2B4E     		ldr	r6, .L148+4
 1662              		.loc 1 224 0
 1663 0006 2B68     		ldr	r3, [r5]
 1664 0008 83B0     		sub	sp, sp, #12
 1665              		.cfi_def_cfa_offset 32
 1666              		.loc 1 224 0
 1667 000a 0446     		mov	r4, r0
 1668 000c 0193     		str	r3, [sp, #4]
 1669              		.loc 1 226 0
 1670 000e FFF7FEFF 		bl	AsebaGetVMDescription
 1671              	.LVL176:
 1672              		.loc 1 228 0
 1673 0012 3146     		mov	r1, r6
 1674              		.loc 1 226 0
 1675 0014 0746     		mov	r7, r0
 1676              	.LVL177:
 1677              		.loc 1 228 0
 1678 0016 0DF10203 		add	r3, sp, #2
 1679 001a 2046     		mov	r0, r4
 1680              	.LVL178:
 1681 001c 40F20622 		movw	r2, #518
 1682 0020 FFF7FEFF 		bl	AsebaGetBuffer
 1683              	.LVL179:
 1684              		.loc 1 230 0
 1685 0024 0028     		cmp	r0, #0
 1686 0026 35D0     		beq	.L126
 1687              	.LBB470:
 1688              		.loc 1 234 0
 1689 0028 0238     		subs	r0, r0, #2
 1690              	.LVL180:
 1691              		.loc 1 232 0
 1692 002a 3188     		ldrh	r1, [r6]
 1693              	.LVL181:
 1694              		.loc 1 234 0
 1695 002c 00EBD070 		add	r0, r0, r0, lsr #31
 1696 0030 4010     		asrs	r0, r0, #1
 1697              		.loc 1 235 0
 1698 0032 0A04     		lsls	r2, r1, #16
 1699              		.loc 1 234 0
 1700 0034 83B2     		uxth	r3, r0
 1701              	.LVL182:
 1702              		.loc 1 235 0
 1703 0036 33D4     		bmi	.L128
 1704              		.loc 1 238 0
 1705 0038 228B     		ldrh	r2, [r4, #24]
 1706 003a 02F00302 		and	r2, r2, #3
 1707 003e 032A     		cmp	r2, #3
 1708 0040 28D0     		beq	.L126
 1709              	.LBB471:
 1710              		.loc 1 242 0
ARM GAS  C:\Users\mathi\AppData\Local\Temp\ccnu9GWW.s 			page 31


 1711 0042 BA89     		ldrh	r2, [r7, #12]
 1712              	.LVL183:
 1713              		.loc 1 243 0
 1714 0044 B7F814E0 		ldrh	lr, [r7, #20]
 1715              	.LVL184:
 1716              		.loc 1 245 0
 1717 0048 E768     		ldr	r7, [r4, #12]
 1718              	.LVL185:
 1719 004a BDF802C0 		ldrh	ip, [sp, #2]
 1720 004e 27F812C0 		strh	ip, [r7, r2, lsl #1]	@ movhi
 1721 0052 0132     		adds	r2, r2, #1
 1722              	.LVL186:
 1723 0054 92B2     		uxth	r2, r2
 1724              	.LVL187:
 1725              		.loc 1 246 0
 1726 0056 BEF1000F 		cmp	lr, #0
 1727 005a 18D0     		beq	.L129
 1728 005c B8B1     		cbz	r0, .L129
 1729 005e 3046     		mov	r0, r6
 1730 0060 0EF1FF37 		add	r7, lr, #-1
 1731 0064 5E1E     		subs	r6, r3, #1
 1732 0066 531C     		adds	r3, r2, #1
 1733              	.LVL188:
 1734 0068 13FA86F6 		uxtah	r6, r3, r6
 1735              	.LVL189:
 1736 006c BFB2     		uxth	r7, r7
 1737 006e 00F1020C 		add	ip, r0, #2
 1738 0072 0CEB470C 		add	ip, ip, r7, lsl #1
 1739 0076 7600     		lsls	r6, r6, #1
 1740 0078 5300     		lsls	r3, r2, #1
 1741 007a 02E0     		b	.L130
 1742              	.LVL190:
 1743              	.L146:
 1744 007c 0233     		adds	r3, r3, #2
 1745              		.loc 1 246 0 is_stmt 0 discriminator 3
 1746 007e 9E42     		cmp	r6, r3
 1747 0080 05D0     		beq	.L129
 1748              	.L130:
 1749              		.loc 1 247 0 is_stmt 1 discriminator 4
 1750 0082 30F8022F 		ldrh	r2, [r0, #2]!
 1751 0086 E768     		ldr	r7, [r4, #12]
 1752              		.loc 1 246 0 discriminator 4
 1753 0088 8445     		cmp	ip, r0
 1754              		.loc 1 247 0 discriminator 4
 1755 008a FA52     		strh	r2, [r7, r3]	@ movhi
 1756              		.loc 1 246 0 discriminator 4
 1757 008c F6D1     		bne	.L146
 1758              	.L129:
 1759              		.loc 1 248 0
 1760 008e 2046     		mov	r0, r4
 1761 0090 FFF7FEFF 		bl	AsebaVMSetupEvent
 1762              	.LVL191:
 1763              	.L126:
 1764              	.LBE471:
 1765              	.LBE470:
 1766              		.loc 1 257 0
 1767 0094 019A     		ldr	r2, [sp, #4]
ARM GAS  C:\Users\mathi\AppData\Local\Temp\ccnu9GWW.s 			page 32


 1768 0096 2B68     		ldr	r3, [r5]
 1769 0098 9A42     		cmp	r2, r3
 1770 009a 06D1     		bne	.L147
 1771 009c 03B0     		add	sp, sp, #12
 1772              		.cfi_remember_state
 1773              		.cfi_def_cfa_offset 20
 1774              		@ sp needed
 1775 009e F0BD     		pop	{r4, r5, r6, r7, pc}
 1776              	.LVL192:
 1777              	.L128:
 1778              		.cfi_restore_state
 1779              	.LBB472:
 1780              		.loc 1 254 0
 1781 00a0 B21C     		adds	r2, r6, #2
 1782 00a2 2046     		mov	r0, r4
 1783 00a4 FFF7FEFF 		bl	AsebaVMDebugMessage
 1784              	.LVL193:
 1785              	.LBE472:
 1786              		.loc 1 257 0
 1787 00a8 F4E7     		b	.L126
 1788              	.LVL194:
 1789              	.L147:
 1790 00aa FFF7FEFF 		bl	__stack_chk_fail
 1791              	.LVL195:
 1792              	.L149:
 1793 00ae 00BF     		.align	2
 1794              	.L148:
 1795 00b0 00000000 		.word	__stack_chk_guard
 1796 00b4 00000000 		.word	.LANCHOR0
 1797              		.cfi_endproc
 1798              	.LFE9:
 1799              		.size	AsebaProcessIncomingEvents, .-AsebaProcessIncomingEvents
 1800              		.section	.bss.buffer,"aw",%nobits
 1801              		.align	2
 1802              		.set	.LANCHOR0,. + 0
 1803              		.type	buffer, %object
 1804              		.size	buffer, 518
 1805              	buffer:
 1806 0000 00000000 		.space	518
 1806      00000000 
 1806      00000000 
 1806      00000000 
 1806      00000000 
 1807              		.section	.bss.buffer_pos,"aw",%nobits
 1808              		.align	2
 1809              		.set	.LANCHOR1,. + 0
 1810              		.type	buffer_pos, %object
 1811              		.size	buffer_pos, 4
 1812              	buffer_pos:
 1813 0000 00000000 		.space	4
 1814              		.text
 1815              	.Letext0:
 1816              		.file 2 "c:\\eclipse_e-puck2\\tools\\gcc-arm-none-eabi-7-2017-q4-major-win32\\arm-none-eabi\\inclu
 1817              		.file 3 "c:\\eclipse_e-puck2\\tools\\gcc-arm-none-eabi-7-2017-q4-major-win32\\arm-none-eabi\\inclu
 1818              		.file 4 "c:\\eclipse_e-puck2\\tools\\gcc-arm-none-eabi-7-2017-q4-major-win32\\lib\\gcc\\arm-none-e
 1819              		.file 5 "c:\\eclipse_e-puck2\\tools\\gcc-arm-none-eabi-7-2017-q4-major-win32\\arm-none-eabi\\inclu
 1820              		.file 6 "c:\\eclipse_e-puck2\\tools\\gcc-arm-none-eabi-7-2017-q4-major-win32\\arm-none-eabi\\inclu
ARM GAS  C:\Users\mathi\AppData\Local\Temp\ccnu9GWW.s 			page 33


 1821              		.file 7 "../../lib/e-puck2_main-processor/aseba/transport/buffer/../../common/types.h"
 1822              		.file 8 "../../lib/e-puck2_main-processor/aseba/transport/buffer/../../vm/vm.h"
 1823              		.file 9 "../../lib/e-puck2_main-processor/aseba/transport/buffer/../../vm/natives.h"
 1824              		.file 10 "../../lib/e-puck2_main-processor/aseba/transport/buffer/../../common/consts.h"
 1825              		.file 11 "../../lib/e-puck2_main-processor/aseba/transport/buffer/vm-buffer.h"
 1826              		.file 12 "c:\\eclipse_e-puck2\\tools\\gcc-arm-none-eabi-7-2017-q4-major-win32\\arm-none-eabi\\incl