ARM GAS  C:\Users\mathi\AppData\Local\Temp\ccF8t5t9.s 			page 1


   1              		.cpu cortex-m4
   2              		.eabi_attribute 27, 1
   3              		.eabi_attribute 28, 1
   4              		.eabi_attribute 20, 1
   5              		.eabi_attribute 21, 1
   6              		.eabi_attribute 23, 3
   7              		.eabi_attribute 24, 1
   8              		.eabi_attribute 25, 1
   9              		.eabi_attribute 26, 1
  10              		.eabi_attribute 30, 2
  11              		.eabi_attribute 34, 1
  12              		.eabi_attribute 18, 4
  13              		.file	"vm.c"
  14              		.text
  15              	.Ltext0:
  16              		.cfi_sections	.debug_frame
  17              		.section	.text.AsebaVMDoBinaryOperation,"ax",%progbits
  18              		.align	1
  19              		.p2align 4,,15
  20              		.syntax unified
  21              		.thumb
  22              		.thumb_func
  23              		.fpu fpv4-sp-d16
  24              		.type	AsebaVMDoBinaryOperation, %function
  25              	AsebaVMDoBinaryOperation:
  26              	.LFB3:
  27              		.file 1 "../../lib/e-puck2_main-processor/aseba/vm/vm.c"
  28              		.loc 1 91 0
  29              		.cfi_startproc
  30              		@ args = 0, pretend = 0, frame = 8
  31              		@ frame_needed = 0, uses_anonymous_args = 0
  32              	.LVL0:
  33 0000 30B5     		push	{r4, r5, lr}
  34              		.cfi_def_cfa_offset 12
  35              		.cfi_offset 4, -12
  36              		.cfi_offset 5, -8
  37              		.cfi_offset 14, -4
  38 0002 3C4C     		ldr	r4, .L41
  39 0004 83B0     		sub	sp, sp, #12
  40              		.cfi_def_cfa_offset 24
  41              		.loc 1 91 0
  42 0006 2568     		ldr	r5, [r4]
  43 0008 0195     		str	r5, [sp, #4]
  44 000a 0546     		mov	r5, r0
  45              		.loc 1 92 0
  46 000c 112B     		cmp	r3, #17
  47 000e 36D8     		bhi	.L29
  48 0010 DFE803F0 		tbb	[pc, r3]
  49              	.LVL1:
  50              	.L4:
  51 0014 0E       		.byte	(.L3-.L4)/2
  52 0015 17       		.byte	(.L5-.L4)/2
  53 0016 1A       		.byte	(.L6-.L4)/2
  54 0017 1D       		.byte	(.L7-.L4)/2
  55 0018 20       		.byte	(.L8-.L4)/2
  56 0019 24       		.byte	(.L9-.L4)/2
  57 001a 37       		.byte	(.L10-.L4)/2
ARM GAS  C:\Users\mathi\AppData\Local\Temp\ccF8t5t9.s 			page 2


  58 001b 3F       		.byte	(.L11-.L4)/2
  59 001c 42       		.byte	(.L12-.L4)/2
  60 001d 45       		.byte	(.L13-.L4)/2
  61 001e 48       		.byte	(.L14-.L4)/2
  62 001f 4D       		.byte	(.L15-.L4)/2
  63 0020 51       		.byte	(.L16-.L4)/2
  64 0021 56       		.byte	(.L17-.L4)/2
  65 0022 5B       		.byte	(.L18-.L4)/2
  66 0023 60       		.byte	(.L19-.L4)/2
  67 0024 65       		.byte	(.L20-.L4)/2
  68 0025 09       		.byte	(.L21-.L4)/2
  69              		.p2align 1
  70              	.L21:
  71              		.loc 1 140 0
  72 0026 51B3     		cbz	r1, .L29
  73              	.L38:
  74 0028 101C     		adds	r0, r2, #0
  75 002a 18BF     		it	ne
  76 002c 0120     		movne	r0, #1
  77 002e 02E0     		b	.L2
  78              	.L3:
  79              		.loc 1 94 0
  80 0030 01FA02F2 		lsl	r2, r1, r2
  81              	.LVL2:
  82 0034 10B2     		sxth	r0, r2
  83              	.LVL3:
  84              	.L2:
  85              		.loc 1 148 0
  86 0036 019A     		ldr	r2, [sp, #4]
  87 0038 2368     		ldr	r3, [r4]
  88 003a 9A42     		cmp	r2, r3
  89 003c 57D1     		bne	.L40
  90 003e 03B0     		add	sp, sp, #12
  91              		.cfi_remember_state
  92              		.cfi_def_cfa_offset 12
  93              		@ sp needed
  94 0040 30BD     		pop	{r4, r5, pc}
  95              	.LVL4:
  96              	.L5:
  97              		.cfi_restore_state
  98              		.loc 1 95 0
  99 0042 41FA02F0 		asr	r0, r1, r2
 100 0046 F6E7     		b	.L2
 101              	.L6:
 102              		.loc 1 96 0
 103 0048 0A44     		add	r2, r2, r1
 104              	.LVL5:
 105 004a 10B2     		sxth	r0, r2
 106 004c F3E7     		b	.L2
 107              	.LVL6:
 108              	.L7:
 109              		.loc 1 97 0
 110 004e 8A1A     		subs	r2, r1, r2
 111              	.LVL7:
 112 0050 10B2     		sxth	r0, r2
 113 0052 F0E7     		b	.L2
 114              	.LVL8:
ARM GAS  C:\Users\mathi\AppData\Local\Temp\ccF8t5t9.s 			page 3


 115              	.L8:
 116              		.loc 1 98 0
 117 0054 11FB02F2 		smulbb	r2, r1, r2
 118              	.LVL9:
 119 0058 10B2     		sxth	r0, r2
 120 005a ECE7     		b	.L2
 121              	.LVL10:
 122              	.L9:
 123              		.loc 1 101 0
 124 005c 002A     		cmp	r2, #0
 125 005e 42D1     		bne	.L22
 126              	.L36:
 127              		.loc 1 103 0
 128 0060 254B     		ldr	r3, .L41+4
 129              	.LVL11:
 130 0062 1BB1     		cbz	r3, .L23
 131              		.loc 1 104 0
 132 0064 0021     		movs	r1, #0
 133              	.LVL12:
 134 0066 2846     		mov	r0, r5
 135 0068 FFF7FEFF 		bl	AsebaVMErrorCB
 136              	.LVL13:
 137              	.L23:
 138              		.loc 1 105 0
 139 006c 0223     		movs	r3, #2
 140 006e 2B83     		strh	r3, [r5, #24]	@ movhi
 141              		.loc 1 106 0
 142 0070 05F11A02 		add	r2, r5, #26
 143 0074 2846     		mov	r0, r5
 144 0076 49F20701 		movw	r1, #36871
 145 007a FFF7FEFF 		bl	AsebaSendMessage
 146              	.LVL14:
 147              	.L29:
 148              		.loc 1 146 0
 149 007e 0020     		movs	r0, #0
 150 0080 D9E7     		b	.L2
 151              	.LVL15:
 152              	.L10:
 153              		.loc 1 115 0
 154 0082 002A     		cmp	r2, #0
 155 0084 ECD0     		beq	.L36
 156              		.loc 1 125 0
 157 0086 91FBF2F0 		sdiv	r0, r1, r2
 158 008a 02FB1012 		mls	r2, r2, r0, r1
 159              	.LVL16:
 160 008e 10B2     		sxth	r0, r2
 161 0090 D1E7     		b	.L2
 162              	.LVL17:
 163              	.L11:
 164              		.loc 1 128 0
 165 0092 41EA0200 		orr	r0, r1, r2
 166 0096 CEE7     		b	.L2
 167              	.L12:
 168              		.loc 1 129 0
 169 0098 81EA0200 		eor	r0, r1, r2
 170 009c CBE7     		b	.L2
 171              	.L13:
ARM GAS  C:\Users\mathi\AppData\Local\Temp\ccF8t5t9.s 			page 4


 172              		.loc 1 130 0
 173 009e 01EA0200 		and	r0, r1, r2
 174 00a2 C8E7     		b	.L2
 175              	.L14:
 176              		.loc 1 132 0
 177 00a4 881A     		subs	r0, r1, r2
 178 00a6 B0FA80F0 		clz	r0, r0
 179 00aa 4009     		lsrs	r0, r0, #5
 180 00ac C3E7     		b	.L2
 181              	.L15:
 182              		.loc 1 133 0
 183 00ae 881A     		subs	r0, r1, r2
 184 00b0 18BF     		it	ne
 185 00b2 0120     		movne	r0, #1
 186 00b4 BFE7     		b	.L2
 187              	.L16:
 188              		.loc 1 134 0
 189 00b6 9142     		cmp	r1, r2
 190 00b8 D4BF     		ite	le
 191 00ba 0020     		movle	r0, #0
 192 00bc 0120     		movgt	r0, #1
 193 00be BAE7     		b	.L2
 194              	.L17:
 195              		.loc 1 135 0
 196 00c0 9142     		cmp	r1, r2
 197 00c2 B4BF     		ite	lt
 198 00c4 0020     		movlt	r0, #0
 199 00c6 0120     		movge	r0, #1
 200 00c8 B5E7     		b	.L2
 201              	.L18:
 202              		.loc 1 136 0
 203 00ca 9142     		cmp	r1, r2
 204 00cc ACBF     		ite	ge
 205 00ce 0020     		movge	r0, #0
 206 00d0 0120     		movlt	r0, #1
 207 00d2 B0E7     		b	.L2
 208              	.L19:
 209              		.loc 1 137 0
 210 00d4 9142     		cmp	r1, r2
 211 00d6 CCBF     		ite	gt
 212 00d8 0020     		movgt	r0, #0
 213 00da 0120     		movle	r0, #1
 214 00dc ABE7     		b	.L2
 215              	.L20:
 216              		.loc 1 139 0
 217 00de 0029     		cmp	r1, #0
 218 00e0 A2D0     		beq	.L38
 219 00e2 0120     		movs	r0, #1
 220 00e4 A7E7     		b	.L2
 221              	.L22:
 222              		.loc 1 111 0
 223 00e6 91FBF2F2 		sdiv	r2, r1, r2
 224              	.LVL18:
 225 00ea 10B2     		sxth	r0, r2
 226 00ec A3E7     		b	.L2
 227              	.LVL19:
 228              	.L40:
ARM GAS  C:\Users\mathi\AppData\Local\Temp\ccF8t5t9.s 			page 5


 229              		.loc 1 148 0
 230 00ee FFF7FEFF 		bl	__stack_chk_fail
 231              	.LVL20:
 232              	.L42:
 233 00f2 00BF     		.align	2
 234              	.L41:
 235 00f4 00000000 		.word	__stack_chk_guard
 236 00f8 00000000 		.word	AsebaVMErrorCB
 237              		.cfi_endproc
 238              	.LFE3:
 239              		.size	AsebaVMDoBinaryOperation, .-AsebaVMDoBinaryOperation
 240              		.section	.text.AsebaVMInit,"ax",%progbits
 241              		.align	1
 242              		.p2align 4,,15
 243              		.global	AsebaVMInit
 244              		.syntax unified
 245              		.thumb
 246              		.thumb_func
 247              		.fpu fpv4-sp-d16
 248              		.type	AsebaVMInit, %function
 249              	AsebaVMInit:
 250              	.LFB0:
 251              		.loc 1 45 0
 252              		.cfi_startproc
 253              		@ args = 0, pretend = 0, frame = 8
 254              		@ frame_needed = 0, uses_anonymous_args = 0
 255              	.LVL21:
 256 0000 10B5     		push	{r4, lr}
 257              		.cfi_def_cfa_offset 8
 258              		.cfi_offset 4, -8
 259              		.cfi_offset 14, -4
 260 0002 0B4B     		ldr	r3, .L48
 261              		.loc 1 51 0
 262 0004 4268     		ldr	r2, [r0, #4]
 263              		.loc 1 45 0
 264 0006 1968     		ldr	r1, [r3]
 265 0008 82B0     		sub	sp, sp, #8
 266              		.cfi_def_cfa_offset 16
 267              		.loc 1 45 0
 268 000a 0191     		str	r1, [sp, #4]
 269              		.loc 1 47 0
 270 000c 0021     		movs	r1, #0
 271 000e 8161     		str	r1, [r0, #24]
 272              		.loc 1 48 0
 273 0010 C187     		strh	r1, [r0, #62]	@ movhi
 274              		.loc 1 51 0
 275 0012 1180     		strh	r1, [r2]	@ movhi
 276              		.loc 1 52 0
 277 0014 019C     		ldr	r4, [sp, #4]
 278 0016 1B68     		ldr	r3, [r3]
 279 0018 0289     		ldrh	r2, [r0, #8]
 280 001a C068     		ldr	r0, [r0, #12]
 281              	.LVL22:
 282 001c 9C42     		cmp	r4, r3
 283 001e 05D1     		bne	.L47
 284 0020 5200     		lsls	r2, r2, #1
 285              		.loc 1 53 0
ARM GAS  C:\Users\mathi\AppData\Local\Temp\ccF8t5t9.s 			page 6


 286 0022 02B0     		add	sp, sp, #8
 287              		.cfi_remember_state
 288              		.cfi_def_cfa_offset 8
 289              		@ sp needed
 290 0024 BDE81040 		pop	{r4, lr}
 291              		.cfi_restore 14
 292              		.cfi_restore 4
 293              		.cfi_def_cfa_offset 0
 294              		.loc 1 52 0
 295 0028 FFF7FEBF 		b	memset
 296              	.LVL23:
 297              	.L47:
 298              		.cfi_restore_state
 299 002c FFF7FEFF 		bl	__stack_chk_fail
 300              	.LVL24:
 301              	.L49:
 302              		.align	2
 303              	.L48:
 304 0030 00000000 		.word	__stack_chk_guard
 305              		.cfi_endproc
 306              	.LFE0:
 307              		.size	AsebaVMInit, .-AsebaVMInit
 308              		.section	.text.AsebaVMGetEventAddress,"ax",%progbits
 309              		.align	1
 310              		.p2align 4,,15
 311              		.global	AsebaVMGetEventAddress
 312              		.syntax unified
 313              		.thumb
 314              		.thumb_func
 315              		.fpu fpv4-sp-d16
 316              		.type	AsebaVMGetEventAddress, %function
 317              	AsebaVMGetEventAddress:
 318              	.LFB1:
 319              		.loc 1 56 0
 320              		.cfi_startproc
 321              		@ args = 0, pretend = 0, frame = 8
 322              		@ frame_needed = 0, uses_anonymous_args = 0
 323              	.LVL25:
 324 0000 70B5     		push	{r4, r5, r6, lr}
 325              		.cfi_def_cfa_offset 16
 326              		.cfi_offset 4, -16
 327              		.cfi_offset 5, -12
 328              		.cfi_offset 6, -8
 329              		.cfi_offset 14, -4
 330              		.loc 1 57 0
 331 0002 4468     		ldr	r4, [r0, #4]
 332              		.loc 1 56 0
 333 0004 124E     		ldr	r6, .L62
 334              		.loc 1 57 0
 335 0006 2588     		ldrh	r5, [r4]
 336              	.LVL26:
 337              		.loc 1 56 0
 338 0008 3368     		ldr	r3, [r6]
 339 000a 82B0     		sub	sp, sp, #8
 340              		.cfi_def_cfa_offset 24
 341              		.loc 1 61 0
 342 000c 012D     		cmp	r5, #1
ARM GAS  C:\Users\mathi\AppData\Local\Temp\ccF8t5t9.s 			page 7


 343              		.loc 1 56 0
 344 000e 0193     		str	r3, [sp, #4]
 345              		.loc 1 61 0
 346 0010 0ED9     		bls	.L56
 347              		.loc 1 62 0
 348 0012 6388     		ldrh	r3, [r4, #2]
 349 0014 8B42     		cmp	r3, r1
 350 0016 16D0     		beq	.L57
 351 0018 0323     		movs	r3, #3
 352 001a 06E0     		b	.L53
 353              	.LVL27:
 354              	.L54:
 355 001c 34F81320 		ldrh	r2, [r4, r3, lsl #1]
 356 0020 8A42     		cmp	r2, r1
 357 0022 03F10200 		add	r0, r3, #2
 358 0026 0AD0     		beq	.L60
 359 0028 0346     		mov	r3, r0
 360              	.LVL28:
 361              	.L53:
 362              		.loc 1 61 0 discriminator 2
 363 002a 9AB2     		uxth	r2, r3
 364 002c 9542     		cmp	r5, r2
 365 002e F5D8     		bhi	.L54
 366              	.LVL29:
 367              	.L56:
 368              		.loc 1 64 0
 369 0030 0020     		movs	r0, #0
 370              	.L51:
 371              		.loc 1 65 0
 372 0032 019A     		ldr	r2, [sp, #4]
 373 0034 3368     		ldr	r3, [r6]
 374 0036 9A42     		cmp	r2, r3
 375 0038 07D1     		bne	.L61
 376 003a 02B0     		add	sp, sp, #8
 377              		.cfi_remember_state
 378              		.cfi_def_cfa_offset 16
 379              		@ sp needed
 380 003c 70BD     		pop	{r4, r5, r6, pc}
 381              	.LVL30:
 382              	.L60:
 383              		.cfi_restore_state
 384 003e 0133     		adds	r3, r3, #1
 385              	.LVL31:
 386 0040 5B00     		lsls	r3, r3, #1
 387              	.L52:
 388              		.loc 1 63 0
 389 0042 E05A     		ldrh	r0, [r4, r3]
 390 0044 F5E7     		b	.L51
 391              	.LVL32:
 392              	.L57:
 393              		.loc 1 62 0
 394 0046 0423     		movs	r3, #4
 395 0048 FBE7     		b	.L52
 396              	.LVL33:
 397              	.L61:
 398              		.loc 1 65 0
 399 004a FFF7FEFF 		bl	__stack_chk_fail
ARM GAS  C:\Users\mathi\AppData\Local\Temp\ccF8t5t9.s 			page 8


 400              	.LVL34:
 401              	.L63:
 402 004e 00BF     		.align	2
 403              	.L62:
 404 0050 00000000 		.word	__stack_chk_guard
 405              		.cfi_endproc
 406              	.LFE1:
 407              		.size	AsebaVMGetEventAddress, .-AsebaVMGetEventAddress
 408              		.section	.text.AsebaVMSetupEvent,"ax",%progbits
 409              		.align	1
 410              		.p2align 4,,15
 411              		.global	AsebaVMSetupEvent
 412              		.syntax unified
 413              		.thumb
 414              		.thumb_func
 415              		.fpu fpv4-sp-d16
 416              		.type	AsebaVMSetupEvent, %function
 417              	AsebaVMSetupEvent:
 418              	.LFB2:
 419              		.loc 1 69 0
 420              		.cfi_startproc
 421              		@ args = 0, pretend = 0, frame = 8
 422              		@ frame_needed = 0, uses_anonymous_args = 0
 423              	.LVL35:
 424 0000 F0B5     		push	{r4, r5, r6, r7, lr}
 425              		.cfi_def_cfa_offset 20
 426              		.cfi_offset 4, -20
 427              		.cfi_offset 5, -16
 428              		.cfi_offset 6, -12
 429              		.cfi_offset 7, -8
 430              		.cfi_offset 14, -4
 431              	.LBB65:
 432              	.LBB66:
 433              		.loc 1 57 0
 434 0002 4668     		ldr	r6, [r0, #4]
 435              	.LBE66:
 436              	.LBE65:
 437              		.loc 1 69 0
 438 0004 244D     		ldr	r5, .L85
 439              	.LBB72:
 440              	.LBB67:
 441              		.loc 1 57 0
 442 0006 3788     		ldrh	r7, [r6]
 443              	.LBE67:
 444              	.LBE72:
 445              		.loc 1 69 0
 446 0008 2B68     		ldr	r3, [r5]
 447 000a 83B0     		sub	sp, sp, #12
 448              		.cfi_def_cfa_offset 32
 449              	.LBB73:
 450              	.LBB68:
 451              		.loc 1 61 0
 452 000c 012F     		cmp	r7, #1
 453              	.LBE68:
 454              	.LBE73:
 455              		.loc 1 69 0
 456 000e 0193     		str	r3, [sp, #4]
ARM GAS  C:\Users\mathi\AppData\Local\Temp\ccF8t5t9.s 			page 9


 457              	.LVL36:
 458              	.LBB74:
 459              	.LBB69:
 460              		.loc 1 61 0
 461 0010 0FD9     		bls	.L72
 462              		.loc 1 62 0
 463 0012 7388     		ldrh	r3, [r6, #2]
 464 0014 8B42     		cmp	r3, r1
 465 0016 0446     		mov	r4, r0
 466 0018 3AD0     		beq	.L73
 467 001a 0323     		movs	r3, #3
 468 001c 06E0     		b	.L67
 469              	.LVL37:
 470              	.L69:
 471 001e 36F81320 		ldrh	r2, [r6, r3, lsl #1]
 472 0022 8A42     		cmp	r2, r1
 473 0024 03F10200 		add	r0, r3, #2
 474 0028 0BD0     		beq	.L82
 475 002a 0346     		mov	r3, r0
 476              	.LVL38:
 477              	.L67:
 478              		.loc 1 61 0
 479 002c 9AB2     		uxth	r2, r3
 480 002e 9742     		cmp	r7, r2
 481 0030 F5D8     		bhi	.L69
 482              	.LVL39:
 483              	.L72:
 484              		.loc 1 64 0
 485 0032 0026     		movs	r6, #0
 486              	.LVL40:
 487              	.L65:
 488              	.LBE69:
 489              	.LBE74:
 490              		.loc 1 88 0
 491 0034 019A     		ldr	r2, [sp, #4]
 492 0036 2B68     		ldr	r3, [r5]
 493 0038 9A42     		cmp	r2, r3
 494 003a 3046     		mov	r0, r6
 495 003c 2AD1     		bne	.L83
 496 003e 03B0     		add	sp, sp, #12
 497              		.cfi_remember_state
 498              		.cfi_def_cfa_offset 20
 499              		@ sp needed
 500 0040 F0BD     		pop	{r4, r5, r6, r7, pc}
 501              	.LVL41:
 502              	.L82:
 503              		.cfi_restore_state
 504 0042 0133     		adds	r3, r3, #1
 505              	.LVL42:
 506 0044 5B00     		lsls	r3, r3, #1
 507              	.L66:
 508              	.LBB75:
 509              	.LBB70:
 510              		.loc 1 63 0
 511 0046 F65A     		ldrh	r6, [r6, r3]
 512              	.LVL43:
 513              	.LBE70:
ARM GAS  C:\Users\mathi\AppData\Local\Temp\ccF8t5t9.s 			page 10


 514              	.LBE75:
 515              		.loc 1 71 0
 516 0048 002E     		cmp	r6, #0
 517 004a F3D0     		beq	.L65
 518              		.loc 1 74 0
 519 004c 238B     		ldrh	r3, [r4, #24]
 520 004e DA07     		lsls	r2, r3, #31
 521 0050 14D4     		bmi	.L84
 522              	.LVL44:
 523              	.L70:
 524              		.loc 1 81 0
 525 0052 43F00107 		orr	r7, r3, #1
 526              		.loc 1 80 0
 527 0056 4FF6FF72 		movw	r2, #65535
 528              		.loc 1 84 0
 529 005a 9B07     		lsls	r3, r3, #30
 530              		.loc 1 79 0
 531 005c 6683     		strh	r6, [r4, #26]	@ movhi
 532              		.loc 1 80 0
 533 005e A283     		strh	r2, [r4, #28]	@ movhi
 534              		.loc 1 81 0
 535 0060 2783     		strh	r7, [r4, #24]	@ movhi
 536              		.loc 1 84 0
 537 0062 E7D5     		bpl	.L65
 538              	.LVL45:
 539              	.LBB76:
 540              	.LBB77:
 541              		.loc 1 719 0
 542 0064 2046     		mov	r0, r4
 543 0066 0423     		movs	r3, #4
 544 0068 6A46     		mov	r2, sp
 545 006a 49F20A01 		movw	r1, #36874
 546              		.loc 1 717 0
 547 006e ADF80060 		strh	r6, [sp]	@ movhi
 548              		.loc 1 718 0
 549 0072 ADF80270 		strh	r7, [sp, #2]	@ movhi
 550              		.loc 1 719 0
 551 0076 FFF7FEFF 		bl	AsebaSendMessage
 552              	.LVL46:
 553 007a DBE7     		b	.L65
 554              	.LVL47:
 555              	.L84:
 556              	.LBE77:
 557              	.LBE76:
 558              		.loc 1 76 0
 559 007c 0223     		movs	r3, #2
 560 007e 04F11A02 		add	r2, r4, #26
 561 0082 49F20801 		movw	r1, #36872
 562              	.LVL48:
 563 0086 2046     		mov	r0, r4
 564 0088 FFF7FEFF 		bl	AsebaSendMessage
 565              	.LVL49:
 566 008c 238B     		ldrh	r3, [r4, #24]
 567 008e E0E7     		b	.L70
 568              	.LVL50:
 569              	.L73:
 570              	.LBB78:
ARM GAS  C:\Users\mathi\AppData\Local\Temp\ccF8t5t9.s 			page 11


 571              	.LBB71:
 572              		.loc 1 62 0
 573 0090 0423     		movs	r3, #4
 574 0092 D8E7     		b	.L66
 575              	.LVL51:
 576              	.L83:
 577              	.LBE71:
 578              	.LBE78:
 579              		.loc 1 88 0
 580 0094 FFF7FEFF 		bl	__stack_chk_fail
 581              	.LVL52:
 582              	.L86:
 583              		.align	2
 584              	.L85:
 585 0098 00000000 		.word	__stack_chk_guard
 586              		.cfi_endproc
 587              	.LFE2:
 588              		.size	AsebaVMSetupEvent, .-AsebaVMSetupEvent
 589              		.section	.text.AsebaVMStep,"ax",%progbits
 590              		.align	1
 591              		.p2align 4,,15
 592              		.global	AsebaVMStep
 593              		.syntax unified
 594              		.thumb
 595              		.thumb_func
 596              		.fpu fpv4-sp-d16
 597              		.type	AsebaVMStep, %function
 598              	AsebaVMStep:
 599              	.LFB5:
 600              		.loc 1 170 0
 601              		.cfi_startproc
 602              		@ args = 0, pretend = 0, frame = 16
 603              		@ frame_needed = 0, uses_anonymous_args = 0
 604              	.LVL53:
 605 0000 F0B5     		push	{r4, r5, r6, r7, lr}
 606              		.cfi_def_cfa_offset 20
 607              		.cfi_offset 4, -20
 608              		.cfi_offset 5, -16
 609              		.cfi_offset 6, -12
 610              		.cfi_offset 7, -8
 611              		.cfi_offset 14, -4
 612              		.loc 1 171 0
 613 0002 4268     		ldr	r2, [r0, #4]
 614 0004 418B     		ldrh	r1, [r0, #26]
 615              		.loc 1 170 0
 616 0006 A84E     		ldr	r6, .L132
 617              		.loc 1 171 0
 618 0008 32F81150 		ldrh	r5, [r2, r1, lsl #1]
 619              	.LVL54:
 620              		.loc 1 170 0
 621 000c 3368     		ldr	r3, [r6]
 622 000e 85B0     		sub	sp, sp, #20
 623              		.cfi_def_cfa_offset 40
 624              		.loc 1 170 0
 625 0010 0446     		mov	r4, r0
 626 0012 0393     		str	r3, [sp, #12]
 627              		.loc 1 178 0
ARM GAS  C:\Users\mathi\AppData\Local\Temp\ccF8t5t9.s 			page 12


 628 0014 2B0B     		lsrs	r3, r5, #12
 629              		.loc 1 171 0
 630 0016 4800     		lsls	r0, r1, #1
 631              	.LVL55:
 632              		.loc 1 178 0
 633 0018 0E2B     		cmp	r3, #14
 634 001a 24D8     		bhi	.L87
 635 001c DFE813F0 		tbh	[pc, r3, lsl #1]
 636              	.L90:
 637 0020 3300     		.2byte	(.L89-.L90)/2
 638 0022 3800     		.2byte	(.L91-.L90)/2
 639 0024 4500     		.2byte	(.L92-.L90)/2
 640 0026 5200     		.2byte	(.L93-.L90)/2
 641 0028 6200     		.2byte	(.L94-.L90)/2
 642 002a 7200     		.2byte	(.L95-.L90)/2
 643 002c 8900     		.2byte	(.L96-.L90)/2
 644 002e 0F00     		.2byte	(.L97-.L90)/2
 645 0030 A600     		.2byte	(.L98-.L90)/2
 646 0032 BF00     		.2byte	(.L99-.L90)/2
 647 0034 C400     		.2byte	(.L100-.L90)/2
 648 0036 E600     		.2byte	(.L101-.L90)/2
 649 0038 F700     		.2byte	(.L102-.L90)/2
 650 003a 0001     		.2byte	(.L103-.L90)/2
 651 003c 2A00     		.2byte	(.L104-.L90)/2
 652              		.p2align 1
 653              	.L97:
 654              	.LBB94:
 655              		.loc 1 360 0
 656 003e B4F91C10 		ldrsh	r1, [r4, #28]
 657 0042 6269     		ldr	r2, [r4, #20]
 658              	.LBB95:
 659              	.LBB96:
 660              		.loc 1 153 0
 661 0044 EDB2     		uxtb	r5, r5
 662              	.LVL56:
 663 0046 012D     		cmp	r5, #1
 664              	.LBE96:
 665              	.LBE95:
 666              		.loc 1 360 0
 667 0048 32F91130 		ldrsh	r3, [r2, r1, lsl #1]
 668              	.LVL57:
 669              	.LBB99:
 670              	.LBB97:
 671              		.loc 1 153 0
 672 004c 00F01B81 		beq	.L110
 673 0050 C0F02081 		bcc	.L111
 674 0054 022D     		cmp	r5, #2
 675 0056 40F01B81 		bne	.L130
 676              		.loc 1 157 0
 677 005a DB43     		mvns	r3, r3
 678              	.LVL58:
 679              	.L109:
 680              	.LBE97:
 681              	.LBE99:
 682              		.loc 1 366 0
 683 005c 22F81130 		strh	r3, [r2, r1, lsl #1]	@ movhi
 684              	.LVL59:
ARM GAS  C:\Users\mathi\AppData\Local\Temp\ccF8t5t9.s 			page 13


 685              		.loc 1 369 0
 686 0060 638B     		ldrh	r3, [r4, #26]
 687 0062 0133     		adds	r3, r3, #1
 688 0064 6383     		strh	r3, [r4, #26]	@ movhi
 689              	.LVL60:
 690              	.L87:
 691              	.LBE94:
 692              		.loc 1 532 0
 693 0066 039A     		ldr	r2, [sp, #12]
 694 0068 3368     		ldr	r3, [r6]
 695 006a 9A42     		cmp	r2, r3
 696 006c 40F01981 		bne	.L131
 697 0070 05B0     		add	sp, sp, #20
 698              		.cfi_remember_state
 699              		.cfi_def_cfa_offset 20
 700              		@ sp needed
 701 0072 F0BD     		pop	{r4, r5, r6, r7, pc}
 702              	.LVL61:
 703              	.L104:
 704              		.cfi_restore_state
 705              		.loc 1 522 0
 706 0074 B4F91C30 		ldrsh	r3, [r4, #28]
 707 0078 6269     		ldr	r2, [r4, #20]
 708 007a 591E     		subs	r1, r3, #1
 709 007c A183     		strh	r1, [r4, #28]	@ movhi
 710 007e 32F81330 		ldrh	r3, [r2, r3, lsl #1]
 711 0082 6383     		strh	r3, [r4, #26]	@ movhi
 712              		.loc 1 532 0
 713 0084 EFE7     		b	.L87
 714              	.L89:
 715              		.loc 1 183 0
 716 0086 238B     		ldrh	r3, [r4, #24]
 717 0088 23F00103 		bic	r3, r3, #1
 718 008c 2383     		strh	r3, [r4, #24]	@ movhi
 719              		.loc 1 185 0
 720 008e EAE7     		b	.L87
 721              	.L91:
 722              	.LVL62:
 723              	.LBB101:
 724              		.loc 1 199 0
 725 0090 A38B     		ldrh	r3, [r4, #28]
 726 0092 6269     		ldr	r2, [r4, #20]
 727 0094 0133     		adds	r3, r3, #1
 728 0096 1BB2     		sxth	r3, r3
 729              		.loc 1 190 0
 730 0098 45F30B05 		sbfx	r5, r5, #0, #12
 731              	.LVL63:
 732              		.loc 1 199 0
 733 009c A383     		strh	r3, [r4, #28]	@ movhi
 734              	.LVL64:
 735 009e 22F81350 		strh	r5, [r2, r3, lsl #1]	@ movhi
 736              		.loc 1 202 0
 737 00a2 638B     		ldrh	r3, [r4, #26]
 738 00a4 0133     		adds	r3, r3, #1
 739 00a6 6383     		strh	r3, [r4, #26]	@ movhi
 740              	.LBE101:
 741              		.loc 1 204 0
ARM GAS  C:\Users\mathi\AppData\Local\Temp\ccF8t5t9.s 			page 14


 742 00a8 DDE7     		b	.L87
 743              	.LVL65:
 744              	.L92:
 745              		.loc 1 216 0
 746 00aa A38B     		ldrh	r3, [r4, #28]
 747 00ac 6169     		ldr	r1, [r4, #20]
 748 00ae 0244     		add	r2, r2, r0
 749 00b0 0133     		adds	r3, r3, #1
 750 00b2 1BB2     		sxth	r3, r3
 751 00b4 5288     		ldrh	r2, [r2, #2]
 752 00b6 A383     		strh	r3, [r4, #28]	@ movhi
 753 00b8 21F81320 		strh	r2, [r1, r3, lsl #1]	@ movhi
 754              		.loc 1 219 0
 755 00bc 638B     		ldrh	r3, [r4, #26]
 756 00be 0233     		adds	r3, r3, #2
 757 00c0 6383     		strh	r3, [r4, #26]	@ movhi
 758              		.loc 1 221 0
 759 00c2 D0E7     		b	.L87
 760              	.L93:
 761              	.LVL66:
 762              	.LBB102:
 763              		.loc 1 237 0
 764 00c4 A38B     		ldrh	r3, [r4, #28]
 765 00c6 E168     		ldr	r1, [r4, #12]
 766 00c8 6269     		ldr	r2, [r4, #20]
 767 00ca 0133     		adds	r3, r3, #1
 768 00cc 1BB2     		sxth	r3, r3
 769 00ce C5F30B05 		ubfx	r5, r5, #0, #12
 770              	.LVL67:
 771 00d2 A383     		strh	r3, [r4, #28]	@ movhi
 772              	.LVL68:
 773 00d4 31F91510 		ldrsh	r1, [r1, r5, lsl #1]
 774 00d8 22F81310 		strh	r1, [r2, r3, lsl #1]	@ movhi
 775              		.loc 1 240 0
 776 00dc 638B     		ldrh	r3, [r4, #26]
 777 00de 0133     		adds	r3, r3, #1
 778 00e0 6383     		strh	r3, [r4, #26]	@ movhi
 779              	.LBE102:
 780              		.loc 1 242 0
 781 00e2 C0E7     		b	.L87
 782              	.LVL69:
 783              	.L94:
 784              	.LBB103:
 785              		.loc 1 258 0
 786 00e4 B4F91C30 		ldrsh	r3, [r4, #28]
 787 00e8 6169     		ldr	r1, [r4, #20]
 788 00ea 5A1E     		subs	r2, r3, #1
 789 00ec A283     		strh	r2, [r4, #28]	@ movhi
 790 00ee C5F30B05 		ubfx	r5, r5, #0, #12
 791              	.LVL70:
 792 00f2 E268     		ldr	r2, [r4, #12]
 793 00f4 31F91330 		ldrsh	r3, [r1, r3, lsl #1]
 794 00f8 22F81530 		strh	r3, [r2, r5, lsl #1]	@ movhi
 795              		.loc 1 261 0
 796 00fc 638B     		ldrh	r3, [r4, #26]
 797 00fe 0133     		adds	r3, r3, #1
 798 0100 6383     		strh	r3, [r4, #26]	@ movhi
ARM GAS  C:\Users\mathi\AppData\Local\Temp\ccF8t5t9.s 			page 15


 799              	.LBE103:
 800              		.loc 1 263 0
 801 0102 B0E7     		b	.L87
 802              	.LVL71:
 803              	.L95:
 804              	.LBB104:
 805              		.loc 1 280 0
 806 0104 0244     		add	r2, r2, r0
 807              		.loc 1 281 0
 808 0106 6369     		ldr	r3, [r4, #20]
 809 0108 B4F91C00 		ldrsh	r0, [r4, #28]
 810              		.loc 1 280 0
 811 010c B2F802C0 		ldrh	ip, [r2, #2]
 812              	.LVL72:
 813              		.loc 1 281 0
 814 0110 33F81070 		ldrh	r7, [r3, r0, lsl #1]
 815              	.LVL73:
 816              		.loc 1 284 0
 817 0114 BC45     		cmp	ip, r7
 818 0116 40F29E80 		bls	.L129
 819              		.loc 1 298 0
 820 011a C5F30B05 		ubfx	r5, r5, #0, #12
 821              	.LVL74:
 822 011e E268     		ldr	r2, [r4, #12]
 823 0120 2F44     		add	r7, r7, r5
 824              	.LVL75:
 825 0122 32F91720 		ldrsh	r2, [r2, r7, lsl #1]
 826 0126 23F81020 		strh	r2, [r3, r0, lsl #1]	@ movhi
 827              	.LVL76:
 828              		.loc 1 301 0
 829 012a 638B     		ldrh	r3, [r4, #26]
 830 012c 0233     		adds	r3, r3, #2
 831 012e 6383     		strh	r3, [r4, #26]	@ movhi
 832              	.LBE104:
 833              		.loc 1 303 0
 834 0130 99E7     		b	.L87
 835              	.LVL77:
 836              	.L96:
 837              	.LBB105:
 838              		.loc 1 321 0
 839 0132 0244     		add	r2, r2, r0
 840              		.loc 1 323 0
 841 0134 B4F91C30 		ldrsh	r3, [r4, #28]
 842              		.loc 1 322 0
 843 0138 6069     		ldr	r0, [r4, #20]
 844              		.loc 1 321 0
 845 013a B2F802C0 		ldrh	ip, [r2, #2]
 846              	.LVL78:
 847              		.loc 1 323 0
 848 013e 30F81370 		ldrh	r7, [r0, r3, lsl #1]
 849              	.LVL79:
 850              		.loc 1 326 0
 851 0142 BC45     		cmp	ip, r7
 852              		.loc 1 323 0
 853 0144 4FEA4303 		lsl	r3, r3, #1
 854              	.LVL80:
 855              		.loc 1 326 0
ARM GAS  C:\Users\mathi\AppData\Local\Temp\ccF8t5t9.s 			page 16


 856 0148 40F28580 		bls	.L129
 857              		.loc 1 322 0
 858 014c 0344     		add	r3, r3, r0
 859              		.loc 1 340 0
 860 014e C5F30B05 		ubfx	r5, r5, #0, #12
 861              	.LVL81:
 862 0152 E268     		ldr	r2, [r4, #12]
 863              		.loc 1 322 0
 864 0154 33F9023C 		ldrsh	r3, [r3, #-2]
 865              		.loc 1 340 0
 866 0158 2F44     		add	r7, r7, r5
 867              	.LVL82:
 868 015a 22F81730 		strh	r3, [r2, r7, lsl #1]	@ movhi
 869              	.LVL83:
 870              		.loc 1 341 0
 871 015e A28B     		ldrh	r2, [r4, #28]
 872              		.loc 1 344 0
 873 0160 638B     		ldrh	r3, [r4, #26]
 874              		.loc 1 341 0
 875 0162 023A     		subs	r2, r2, #2
 876              		.loc 1 344 0
 877 0164 0233     		adds	r3, r3, #2
 878              		.loc 1 341 0
 879 0166 A283     		strh	r2, [r4, #28]	@ movhi
 880              		.loc 1 344 0
 881 0168 6383     		strh	r3, [r4, #26]	@ movhi
 882              	.LBE105:
 883              		.loc 1 346 0
 884 016a 7CE7     		b	.L87
 885              	.LVL84:
 886              	.L98:
 887              	.LBB107:
 888              		.loc 1 385 0
 889 016c B4F91C70 		ldrsh	r7, [r4, #28]
 890 0170 6069     		ldr	r0, [r4, #20]
 891              	.LVL85:
 892              		.loc 1 386 0
 893 0172 07F10042 		add	r2, r7, #-2147483648
 894 0176 013A     		subs	r2, r2, #1
 895              		.loc 1 389 0
 896 0178 EBB2     		uxtb	r3, r5
 897 017a 30F91210 		ldrsh	r1, [r0, r2, lsl #1]
 898 017e 30F91720 		ldrsh	r2, [r0, r7, lsl #1]
 899 0182 2046     		mov	r0, r4
 900              	.LVL86:
 901 0184 FFF7FEFF 		bl	AsebaVMDoBinaryOperation
 902              	.LVL87:
 903              		.loc 1 392 0
 904 0188 A38B     		ldrh	r3, [r4, #28]
 905              		.loc 1 393 0
 906 018a 6269     		ldr	r2, [r4, #20]
 907              		.loc 1 392 0
 908 018c 013B     		subs	r3, r3, #1
 909 018e 1BB2     		sxth	r3, r3
 910 0190 A383     		strh	r3, [r4, #28]	@ movhi
 911              		.loc 1 393 0
 912 0192 22F81300 		strh	r0, [r2, r3, lsl #1]	@ movhi
ARM GAS  C:\Users\mathi\AppData\Local\Temp\ccF8t5t9.s 			page 17


 913              		.loc 1 396 0
 914 0196 638B     		ldrh	r3, [r4, #26]
 915 0198 0133     		adds	r3, r3, #1
 916 019a 6383     		strh	r3, [r4, #26]	@ movhi
 917              	.LBE107:
 918              		.loc 1 398 0
 919 019c 63E7     		b	.L87
 920              	.LVL88:
 921              	.L99:
 922              	.LBB108:
 923              		.loc 1 403 0
 924 019e 45F30B05 		sbfx	r5, r5, #0, #12
 925              	.LVL89:
 926              		.loc 1 412 0
 927 01a2 2944     		add	r1, r1, r5
 928              	.LVL90:
 929 01a4 6183     		strh	r1, [r4, #26]	@ movhi
 930              	.LVL91:
 931              	.LBE108:
 932              		.loc 1 414 0
 933 01a6 5EE7     		b	.L87
 934              	.LVL92:
 935              	.L100:
 936              	.LBB109:
 937              		.loc 1 430 0
 938 01a8 B4F91C20 		ldrsh	r2, [r4, #28]
 939 01ac 6169     		ldr	r1, [r4, #20]
 940              	.LVL93:
 941              		.loc 1 431 0
 942 01ae 02F10043 		add	r3, r2, #-2147483648
 943 01b2 013B     		subs	r3, r3, #1
 944              		.loc 1 432 0
 945 01b4 31F91220 		ldrsh	r2, [r1, r2, lsl #1]
 946              	.LVL94:
 947 01b8 31F91310 		ldrsh	r1, [r1, r3, lsl #1]
 948              	.LVL95:
 949 01bc 2046     		mov	r0, r4
 950 01be EBB2     		uxtb	r3, r5
 951              	.LVL96:
 952 01c0 FFF7FEFF 		bl	AsebaVMDoBinaryOperation
 953              	.LVL97:
 954              		.loc 1 433 0
 955 01c4 A38B     		ldrh	r3, [r4, #28]
 956 01c6 023B     		subs	r3, r3, #2
 957 01c8 A383     		strh	r3, [r4, #28]	@ movhi
 958              		.loc 1 436 0
 959 01ca 0028     		cmp	r0, #0
 960 01cc 34D0     		beq	.L113
 961              		.loc 1 436 0 is_stmt 0 discriminator 1
 962 01ce 05F44075 		and	r5, r5, #768
 963              	.LVL98:
 964 01d2 B5F5407F 		cmp	r5, #768
 965 01d6 6168     		ldr	r1, [r4, #4]
 966 01d8 608B     		ldrh	r0, [r4, #26]
 967              	.LVL99:
 968 01da 5ED0     		beq	.L114
 969 01dc 0223     		movs	r3, #2
ARM GAS  C:\Users\mathi\AppData\Local\Temp\ccF8t5t9.s 			page 18


 970              	.L115:
 971              		.loc 1 449 0 is_stmt 1
 972 01de 31F81020 		ldrh	r2, [r1, r0, lsl #1]
 973 01e2 42F40072 		orr	r2, r2, #512
 974 01e6 21F81020 		strh	r2, [r1, r0, lsl #1]	@ movhi
 975 01ea 30E0     		b	.L116
 976              	.LVL100:
 977              	.L101:
 978              	.LBE109:
 979              	.LBB110:
 980              		.loc 1 469 0
 981 01ec 1318     		adds	r3, r2, r0
 982              		.loc 1 475 0
 983 01ee E268     		ldr	r2, [r4, #12]
 984              	.LVL101:
 985 01f0 9988     		ldrh	r1, [r3, #4]
 986 01f2 5888     		ldrh	r0, [r3, #2]
 987              	.LVL102:
 988 01f4 4B00     		lsls	r3, r1, #1
 989 01f6 9BB2     		uxth	r3, r3
 990 01f8 02EB4002 		add	r2, r2, r0, lsl #1
 991 01fc C5F30B01 		ubfx	r1, r5, #0, #12
 992 0200 2046     		mov	r0, r4
 993 0202 FFF7FEFF 		bl	AsebaSendMessage
 994              	.LVL103:
 995              		.loc 1 478 0
 996 0206 638B     		ldrh	r3, [r4, #26]
 997 0208 0333     		adds	r3, r3, #3
 998 020a 6383     		strh	r3, [r4, #26]	@ movhi
 999              	.LBE110:
 1000              		.loc 1 480 0
 1001 020c 2BE7     		b	.L87
 1002              	.L102:
 1003              		.loc 1 486 0
 1004 020e C5F30B01 		ubfx	r1, r5, #0, #12
 1005 0212 2046     		mov	r0, r4
 1006 0214 FFF7FEFF 		bl	AsebaNativeFunction
 1007              	.LVL104:
 1008              		.loc 1 489 0
 1009 0218 638B     		ldrh	r3, [r4, #26]
 1010 021a 0133     		adds	r3, r3, #1
 1011 021c 6383     		strh	r3, [r4, #26]	@ movhi
 1012              		.loc 1 491 0
 1013 021e 22E7     		b	.L87
 1014              	.L103:
 1015              	.LVL105:
 1016              	.LBB111:
 1017              		.loc 1 505 0
 1018 0220 A38B     		ldrh	r3, [r4, #28]
 1019 0222 6269     		ldr	r2, [r4, #20]
 1020 0224 0133     		adds	r3, r3, #1
 1021 0226 1BB2     		sxth	r3, r3
 1022 0228 0131     		adds	r1, r1, #1
 1023              		.loc 1 496 0
 1024 022a C5F30B05 		ubfx	r5, r5, #0, #12
 1025              	.LVL106:
 1026              		.loc 1 505 0
ARM GAS  C:\Users\mathi\AppData\Local\Temp\ccF8t5t9.s 			page 19


 1027 022e A383     		strh	r3, [r4, #28]	@ movhi
 1028              	.LVL107:
 1029 0230 22F81310 		strh	r1, [r2, r3, lsl #1]	@ movhi
 1030              		.loc 1 508 0
 1031 0234 6583     		strh	r5, [r4, #26]	@ movhi
 1032              	.LBE111:
 1033              		.loc 1 510 0
 1034 0236 16E7     		b	.L87
 1035              	.LVL108:
 1036              	.L113:
 1037              	.LBB112:
 1038              		.loc 1 444 0
 1039 0238 638B     		ldrh	r3, [r4, #26]
 1040 023a 6168     		ldr	r1, [r4, #4]
 1041 023c 0133     		adds	r3, r3, #1
 1042 023e 5A00     		lsls	r2, r3, #1
 1043              		.loc 1 451 0
 1044 0240 023A     		subs	r2, r2, #2
 1045              		.loc 1 444 0
 1046 0242 31F81330 		ldrh	r3, [r1, r3, lsl #1]
 1047              	.LVL109:
 1048              		.loc 1 451 0
 1049 0246 885A     		ldrh	r0, [r1, r2]
 1050              	.LVL110:
 1051 0248 20F40070 		bic	r0, r0, #512
 1052 024c 8852     		strh	r0, [r1, r2]	@ movhi
 1053              	.LVL111:
 1054              	.L116:
 1055              		.loc 1 460 0
 1056 024e 628B     		ldrh	r2, [r4, #26]
 1057 0250 1344     		add	r3, r3, r2
 1058 0252 6383     		strh	r3, [r4, #26]	@ movhi
 1059              	.LBE112:
 1060              		.loc 1 462 0
 1061 0254 07E7     		b	.L87
 1062              	.LVL112:
 1063              	.L129:
 1064              	.LBB113:
 1065              	.LBB106:
 1066              		.loc 1 332 0
 1067 0256 0223     		movs	r3, #2
 1068 0258 2383     		strh	r3, [r4, #24]	@ movhi
 1069              		.loc 1 333 0
 1070 025a 01AA     		add	r2, sp, #4
 1071 025c 0623     		movs	r3, #6
 1072              		.loc 1 329 0
 1073 025e ADF80410 		strh	r1, [sp, #4]	@ movhi
 1074              		.loc 1 333 0
 1075 0262 2046     		mov	r0, r4
 1076 0264 49F20601 		movw	r1, #36870
 1077              		.loc 1 330 0
 1078 0268 ADF806C0 		strh	ip, [sp, #6]	@ movhi
 1079              		.loc 1 331 0
 1080 026c ADF80870 		strh	r7, [sp, #8]	@ movhi
 1081              		.loc 1 333 0
 1082 0270 FFF7FEFF 		bl	AsebaSendMessage
 1083              	.LVL113:
ARM GAS  C:\Users\mathi\AppData\Local\Temp\ccF8t5t9.s 			page 20


 1084              		.loc 1 334 0
 1085 0274 0D4B     		ldr	r3, .L132+4
 1086 0276 002B     		cmp	r3, #0
 1087 0278 3FF4F5AE 		beq	.L87
 1088              		.loc 1 335 0
 1089 027c 2046     		mov	r0, r4
 1090 027e 0021     		movs	r1, #0
 1091 0280 FFF7FEFF 		bl	AsebaVMErrorCB
 1092              	.LVL114:
 1093 0284 EFE6     		b	.L87
 1094              	.LVL115:
 1095              	.L110:
 1096              	.LBE106:
 1097              	.LBE113:
 1098              	.LBB114:
 1099              	.LBB100:
 1100              	.LBB98:
 1101              		.loc 1 156 0
 1102 0286 002B     		cmp	r3, #0
 1103 0288 B8BF     		it	lt
 1104 028a 5B42     		rsblt	r3, r3, #0
 1105              	.LVL116:
 1106 028c 1BB2     		sxth	r3, r3
 1107 028e E5E6     		b	.L109
 1108              	.LVL117:
 1109              	.L130:
 1110              		.loc 1 163 0
 1111 0290 0023     		movs	r3, #0
 1112              	.LVL118:
 1113 0292 E3E6     		b	.L109
 1114              	.LVL119:
 1115              	.L111:
 1116              		.loc 1 155 0
 1117 0294 5B42     		negs	r3, r3
 1118              	.LVL120:
 1119 0296 1BB2     		sxth	r3, r3
 1120              	.LVL121:
 1121 0298 E0E6     		b	.L109
 1122              	.LVL122:
 1123              	.L114:
 1124              	.LBE98:
 1125              	.LBE100:
 1126              	.LBE114:
 1127              	.LBB115:
 1128              		.loc 1 444 0
 1129 029a 431C     		adds	r3, r0, #1
 1130 029c 31F81330 		ldrh	r3, [r1, r3, lsl #1]
 1131              	.LVL123:
 1132 02a0 9DE7     		b	.L115
 1133              	.LVL124:
 1134              	.L131:
 1135              	.LBE115:
 1136              		.loc 1 532 0
 1137 02a2 FFF7FEFF 		bl	__stack_chk_fail
 1138              	.LVL125:
 1139              	.L133:
 1140 02a6 00BF     		.align	2
ARM GAS  C:\Users\mathi\AppData\Local\Temp\ccF8t5t9.s 			page 21


 1141              	.L132:
 1142 02a8 00000000 		.word	__stack_chk_guard
 1143 02ac 00000000 		.word	AsebaVMErrorCB
 1144              		.cfi_endproc
 1145              	.LFE5:
 1146              		.size	AsebaVMStep, .-AsebaVMStep
 1147              		.section	.text.AsebaVMEmitNodeSpecificError,"ax",%progbits
 1148              		.align	1
 1149              		.p2align 4,,15
 1150              		.global	AsebaVMEmitNodeSpecificError
 1151              		.syntax unified
 1152              		.thumb
 1153              		.thumb_func
 1154              		.fpu fpv4-sp-d16
 1155              		.type	AsebaVMEmitNodeSpecificError, %function
 1156              	AsebaVMEmitNodeSpecificError:
 1157              	.LFB6:
 1158              		.loc 1 535 0
 1159              		.cfi_startproc
 1160              		@ args = 0, pretend = 0, frame = 8
 1161              		@ frame_needed = 1, uses_anonymous_args = 0
 1162              	.LVL126:
 1163 0000 2DE9F04F 		push	{r4, r5, r6, r7, r8, r9, r10, fp, lr}
 1164              		.cfi_def_cfa_offset 36
 1165              		.cfi_offset 4, -36
 1166              		.cfi_offset 5, -32
 1167              		.cfi_offset 6, -28
 1168              		.cfi_offset 7, -24
 1169              		.cfi_offset 8, -20
 1170              		.cfi_offset 9, -16
 1171              		.cfi_offset 10, -12
 1172              		.cfi_offset 11, -8
 1173              		.cfi_offset 14, -4
 1174 0004 DFF87890 		ldr	r9, .L142+4
 1175 0008 83B0     		sub	sp, sp, #12
 1176              		.cfi_def_cfa_offset 48
 1177 000a 00AF     		add	r7, sp, #0
 1178              		.cfi_def_cfa_register 7
 1179              		.loc 1 535 0
 1180 000c D9F80030 		ldr	r3, [r9]
 1181 0010 7B60     		str	r3, [r7, #4]
 1182 0012 0546     		mov	r5, r0
 1183              		.loc 1 536 0
 1184 0014 0846     		mov	r0, r1
 1185              	.LVL127:
 1186              		.loc 1 535 0
 1187 0016 8A46     		mov	r10, r1
 1188              		.loc 1 536 0
 1189 0018 FFF7FEFF 		bl	strlen
 1190              	.LVL128:
 1191 001c 1FFA80FB 		uxth	fp, r0
 1192              		.loc 1 538 0
 1193 0020 0BF10A03 		add	r3, fp, #10
 1194 0024 6946     		mov	r1, sp
 1195 0026 DB08     		lsrs	r3, r3, #3
 1196 0028 A1EBC303 		sub	r3, r1, r3, lsl #3
 1197              		.loc 1 545 0
ARM GAS  C:\Users\mathi\AppData\Local\Temp\ccF8t5t9.s 			page 22


 1198 002c 134A     		ldr	r2, .L142
 1199              		.loc 1 538 0
 1200 002e 9D46     		mov	sp, r3
 1201              		.loc 1 536 0
 1202 0030 8046     		mov	r8, r0
 1203              		.loc 1 538 0
 1204 0032 6C46     		mov	r4, sp
 1205              		.loc 1 536 0
 1206 0034 5E46     		mov	r6, fp
 1207              	.LVL129:
 1208              		.loc 1 545 0
 1209 0036 1AB1     		cbz	r2, .L135
 1210              		.loc 1 546 0
 1211 0038 5146     		mov	r1, r10
 1212 003a 2846     		mov	r0, r5
 1213 003c FFF7FEFF 		bl	AsebaVMErrorCB
 1214              	.LVL130:
 1215              	.L135:
 1216              		.loc 1 548 0
 1217 0040 0223     		movs	r3, #2
 1218 0042 2B83     		strh	r3, [r5, #24]	@ movhi
 1219              		.loc 1 550 0
 1220 0044 6B8B     		ldrh	r3, [r5, #26]
 1221 0046 2380     		strh	r3, [r4]	@ movhi
 1222              		.loc 1 552 0
 1223 0048 5A46     		mov	r2, fp
 1224 004a 5146     		mov	r1, r10
 1225              		.loc 1 551 0
 1226 004c 84F80280 		strb	r8, [r4, #2]
 1227              		.loc 1 552 0
 1228 0050 E01C     		adds	r0, r4, #3
 1229 0052 FFF7FEFF 		bl	memcpy
 1230              	.LVL131:
 1231              		.loc 1 554 0
 1232 0056 F31C     		adds	r3, r6, #3
 1233 0058 9BB2     		uxth	r3, r3
 1234 005a 2246     		mov	r2, r4
 1235 005c 2846     		mov	r0, r5
 1236 005e 49F20901 		movw	r1, #36873
 1237 0062 FFF7FEFF 		bl	AsebaSendMessage
 1238              	.LVL132:
 1239              		.loc 1 555 0
 1240 0066 7A68     		ldr	r2, [r7, #4]
 1241 0068 D9F80030 		ldr	r3, [r9]
 1242 006c 9A42     		cmp	r2, r3
 1243 006e 03D1     		bne	.L141
 1244 0070 0C37     		adds	r7, r7, #12
 1245              		.cfi_remember_state
 1246              		.cfi_def_cfa_offset 36
 1247 0072 BD46     		mov	sp, r7
 1248              		.cfi_def_cfa_register 13
 1249              		@ sp needed
 1250 0074 BDE8F08F 		pop	{r4, r5, r6, r7, r8, r9, r10, fp, pc}
 1251              	.LVL133:
 1252              	.L141:
 1253              		.cfi_restore_state
 1254 0078 FFF7FEFF 		bl	__stack_chk_fail
ARM GAS  C:\Users\mathi\AppData\Local\Temp\ccF8t5t9.s 			page 23


 1255              	.LVL134:
 1256              	.L143:
 1257              		.align	2
 1258              	.L142:
 1259 007c 00000000 		.word	AsebaVMErrorCB
 1260 0080 00000000 		.word	__stack_chk_guard
 1261              		.cfi_endproc
 1262              	.LFE6:
 1263              		.size	AsebaVMEmitNodeSpecificError, .-AsebaVMEmitNodeSpecificError
 1264              		.section	.text.AsebaVMCheckBreakpoint,"ax",%progbits
 1265              		.align	1
 1266              		.p2align 4,,15
 1267              		.global	AsebaVMCheckBreakpoint
 1268              		.syntax unified
 1269              		.thumb
 1270              		.thumb_func
 1271              		.fpu fpv4-sp-d16
 1272              		.type	AsebaVMCheckBreakpoint, %function
 1273              	AsebaVMCheckBreakpoint:
 1274              	.LFB7:
 1275              		.loc 1 561 0
 1276              		.cfi_startproc
 1277              		@ args = 0, pretend = 0, frame = 8
 1278              		@ frame_needed = 0, uses_anonymous_args = 0
 1279              	.LVL135:
 1280 0000 10B5     		push	{r4, lr}
 1281              		.cfi_def_cfa_offset 8
 1282              		.cfi_offset 4, -8
 1283              		.cfi_offset 14, -4
 1284 0002 3349     		ldr	r1, .L169
 1285 0004 82B0     		sub	sp, sp, #8
 1286              		.cfi_def_cfa_offset 16
 1287              		.loc 1 561 0
 1288 0006 0346     		mov	r3, r0
 1289              		.loc 1 563 0
 1290 0008 C08F     		ldrh	r0, [r0, #62]
 1291              	.LVL136:
 1292              		.loc 1 561 0
 1293 000a 0A68     		ldr	r2, [r1]
 1294 000c 0192     		str	r2, [sp, #4]
 1295              	.LVL137:
 1296              		.loc 1 563 0
 1297 000e 0028     		cmp	r0, #0
 1298 0010 4FD0     		beq	.L145
 1299              		.loc 1 565 0
 1300 0012 5A8B     		ldrh	r2, [r3, #26]
 1301 0014 DC8B     		ldrh	r4, [r3, #30]
 1302 0016 9442     		cmp	r4, r2
 1303 0018 51D0     		beq	.L147
 1304              	.LVL138:
 1305              		.loc 1 563 0
 1306 001a 0128     		cmp	r0, #1
 1307 001c 48D9     		bls	.L163
 1308              		.loc 1 565 0
 1309 001e 1C8C     		ldrh	r4, [r3, #32]
 1310 0020 9442     		cmp	r4, r2
 1311 0022 4CD0     		beq	.L147
ARM GAS  C:\Users\mathi\AppData\Local\Temp\ccF8t5t9.s 			page 24


 1312              	.LVL139:
 1313              		.loc 1 563 0
 1314 0024 0228     		cmp	r0, #2
 1315 0026 43D0     		beq	.L163
 1316              		.loc 1 565 0
 1317 0028 5C8C     		ldrh	r4, [r3, #34]
 1318 002a 9442     		cmp	r4, r2
 1319 002c 47D0     		beq	.L147
 1320              	.LVL140:
 1321              		.loc 1 563 0
 1322 002e 0328     		cmp	r0, #3
 1323 0030 3ED0     		beq	.L163
 1324              		.loc 1 565 0
 1325 0032 9C8C     		ldrh	r4, [r3, #36]
 1326 0034 9442     		cmp	r4, r2
 1327 0036 42D0     		beq	.L147
 1328              	.LVL141:
 1329              		.loc 1 563 0
 1330 0038 0428     		cmp	r0, #4
 1331 003a 39D0     		beq	.L163
 1332              		.loc 1 565 0
 1333 003c DC8C     		ldrh	r4, [r3, #38]
 1334 003e 9442     		cmp	r4, r2
 1335 0040 3DD0     		beq	.L147
 1336              	.LVL142:
 1337              		.loc 1 563 0
 1338 0042 0528     		cmp	r0, #5
 1339 0044 34D0     		beq	.L163
 1340              		.loc 1 565 0
 1341 0046 1C8D     		ldrh	r4, [r3, #40]
 1342 0048 9442     		cmp	r4, r2
 1343 004a 38D0     		beq	.L147
 1344              	.LVL143:
 1345              		.loc 1 563 0
 1346 004c 0628     		cmp	r0, #6
 1347 004e 2FD0     		beq	.L163
 1348              		.loc 1 565 0
 1349 0050 5C8D     		ldrh	r4, [r3, #42]
 1350 0052 9442     		cmp	r4, r2
 1351 0054 33D0     		beq	.L147
 1352              	.LVL144:
 1353              		.loc 1 563 0
 1354 0056 0728     		cmp	r0, #7
 1355 0058 2AD0     		beq	.L163
 1356              		.loc 1 565 0
 1357 005a 9C8D     		ldrh	r4, [r3, #44]
 1358 005c 9442     		cmp	r4, r2
 1359 005e 2ED0     		beq	.L147
 1360              	.LVL145:
 1361              		.loc 1 563 0
 1362 0060 0828     		cmp	r0, #8
 1363 0062 25D0     		beq	.L163
 1364              		.loc 1 565 0
 1365 0064 DC8D     		ldrh	r4, [r3, #46]
 1366 0066 9442     		cmp	r4, r2
 1367 0068 29D0     		beq	.L147
 1368              	.LVL146:
ARM GAS  C:\Users\mathi\AppData\Local\Temp\ccF8t5t9.s 			page 25


 1369              		.loc 1 563 0
 1370 006a 0928     		cmp	r0, #9
 1371 006c 20D0     		beq	.L163
 1372              		.loc 1 565 0
 1373 006e 1C8E     		ldrh	r4, [r3, #48]
 1374 0070 9442     		cmp	r4, r2
 1375 0072 24D0     		beq	.L147
 1376              	.LVL147:
 1377              		.loc 1 563 0
 1378 0074 0A28     		cmp	r0, #10
 1379 0076 1BD0     		beq	.L163
 1380              		.loc 1 565 0
 1381 0078 5C8E     		ldrh	r4, [r3, #50]
 1382 007a 9442     		cmp	r4, r2
 1383 007c 1FD0     		beq	.L147
 1384              	.LVL148:
 1385              		.loc 1 563 0
 1386 007e 0B28     		cmp	r0, #11
 1387 0080 16D0     		beq	.L163
 1388              		.loc 1 565 0
 1389 0082 9C8E     		ldrh	r4, [r3, #52]
 1390 0084 9442     		cmp	r4, r2
 1391 0086 1AD0     		beq	.L147
 1392              	.LVL149:
 1393              		.loc 1 563 0
 1394 0088 0C28     		cmp	r0, #12
 1395 008a 11D0     		beq	.L163
 1396              		.loc 1 565 0
 1397 008c DC8E     		ldrh	r4, [r3, #54]
 1398 008e 9442     		cmp	r4, r2
 1399 0090 15D0     		beq	.L147
 1400              	.LVL150:
 1401              		.loc 1 563 0
 1402 0092 0D28     		cmp	r0, #13
 1403 0094 0CD0     		beq	.L163
 1404              		.loc 1 565 0
 1405 0096 1C8F     		ldrh	r4, [r3, #56]
 1406 0098 9442     		cmp	r4, r2
 1407 009a 10D0     		beq	.L147
 1408              	.LVL151:
 1409              		.loc 1 563 0
 1410 009c 0E28     		cmp	r0, #14
 1411 009e 07D0     		beq	.L163
 1412              		.loc 1 565 0
 1413 00a0 5C8F     		ldrh	r4, [r3, #58]
 1414 00a2 9442     		cmp	r4, r2
 1415 00a4 0BD0     		beq	.L147
 1416              	.LVL152:
 1417              		.loc 1 563 0
 1418 00a6 0F28     		cmp	r0, #15
 1419 00a8 02D0     		beq	.L163
 1420              		.loc 1 565 0
 1421 00aa 988F     		ldrh	r0, [r3, #60]
 1422 00ac 9042     		cmp	r0, r2
 1423 00ae 06D0     		beq	.L147
 1424              	.LVL153:
 1425              	.L163:
ARM GAS  C:\Users\mathi\AppData\Local\Temp\ccF8t5t9.s 			page 26


 1426              		.loc 1 572 0
 1427 00b0 0020     		movs	r0, #0
 1428              	.L145:
 1429              		.loc 1 573 0
 1430 00b2 019A     		ldr	r2, [sp, #4]
 1431 00b4 0B68     		ldr	r3, [r1]
 1432              	.LVL154:
 1433 00b6 9A42     		cmp	r2, r3
 1434 00b8 07D1     		bne	.L168
 1435 00ba 02B0     		add	sp, sp, #8
 1436              		.cfi_remember_state
 1437              		.cfi_def_cfa_offset 8
 1438              		@ sp needed
 1439 00bc 10BD     		pop	{r4, pc}
 1440              	.LVL155:
 1441              	.L147:
 1442              		.cfi_restore_state
 1443              		.loc 1 567 0
 1444 00be 1A8B     		ldrh	r2, [r3, #24]
 1445 00c0 42F00202 		orr	r2, r2, #2
 1446 00c4 1A83     		strh	r2, [r3, #24]	@ movhi
 1447              		.loc 1 568 0
 1448 00c6 0120     		movs	r0, #1
 1449 00c8 F3E7     		b	.L145
 1450              	.LVL156:
 1451              	.L168:
 1452              		.loc 1 573 0
 1453 00ca FFF7FEFF 		bl	__stack_chk_fail
 1454              	.LVL157:
 1455              	.L170:
 1456 00ce 00BF     		.align	2
 1457              	.L169:
 1458 00d0 00000000 		.word	__stack_chk_guard
 1459              		.cfi_endproc
 1460              	.LFE7:
 1461              		.size	AsebaVMCheckBreakpoint, .-AsebaVMCheckBreakpoint
 1462              		.section	.text.AsebaDebugBareRun,"ax",%progbits
 1463              		.align	1
 1464              		.p2align 4,,15
 1465              		.global	AsebaDebugBareRun
 1466              		.syntax unified
 1467              		.thumb
 1468              		.thumb_func
 1469              		.fpu fpv4-sp-d16
 1470              		.type	AsebaDebugBareRun, %function
 1471              	AsebaDebugBareRun:
 1472              	.LFB8:
 1473              		.loc 1 578 0
 1474              		.cfi_startproc
 1475              		@ args = 0, pretend = 0, frame = 16
 1476              		@ frame_needed = 0, uses_anonymous_args = 0
 1477              	.LVL158:
 1478 0000 2DE9F047 		push	{r4, r5, r6, r7, r8, r9, r10, lr}
 1479              		.cfi_def_cfa_offset 32
 1480              		.cfi_offset 4, -32
 1481              		.cfi_offset 5, -28
 1482              		.cfi_offset 6, -24
ARM GAS  C:\Users\mathi\AppData\Local\Temp\ccF8t5t9.s 			page 27


 1483              		.cfi_offset 7, -20
 1484              		.cfi_offset 8, -16
 1485              		.cfi_offset 9, -12
 1486              		.cfi_offset 10, -8
 1487              		.cfi_offset 14, -4
 1488 0004 B64E     		ldr	r6, .L268
 1489              		.loc 1 579 0
 1490 0006 028B     		ldrh	r2, [r0, #24]
 1491              		.loc 1 578 0
 1492 0008 3368     		ldr	r3, [r6]
 1493 000a 84B0     		sub	sp, sp, #16
 1494              		.cfi_def_cfa_offset 48
 1495              		.loc 1 578 0
 1496 000c 0446     		mov	r4, r0
 1497 000e 0393     		str	r3, [sp, #12]
 1498              		.loc 1 579 0
 1499 0010 42F00403 		orr	r3, r2, #4
 1500 0014 0383     		strh	r3, [r0, #24]	@ movhi
 1501              		.loc 1 581 0
 1502 0016 0029     		cmp	r1, #0
 1503 0018 5CD1     		bne	.L252
 1504              	.LBB150:
 1505              	.LBB151:
 1506              	.LBB152:
 1507              	.LBB153:
 1508              		.loc 1 334 0
 1509 001a DFF8C882 		ldr	r8, .L268+4
 1510 001e 03F0050C 		and	ip, r3, #5
 1511              	.LBE153:
 1512              	.LBE152:
 1513              	.LBB155:
 1514              		.loc 1 430 0
 1515 0022 6FF00047 		mvn	r7, #-2147483648
 1516              		.loc 1 436 0
 1517 0026 4FF00209 		mov	r9, #2
 1518              	.LVL159:
 1519              	.L172:
 1520 002a BCF1050F 		cmp	ip, #5
 1521 002e 46D1     		bne	.L173
 1522 0030 618B     		ldrh	r1, [r4, #26]
 1523 0032 6068     		ldr	r0, [r4, #4]
 1524              	.LBE155:
 1525              		.loc 1 171 0
 1526 0034 30F81150 		ldrh	r5, [r0, r1, lsl #1]
 1527              		.loc 1 178 0
 1528 0038 2A0B     		lsrs	r2, r5, #12
 1529              	.L228:
 1530              	.LVL160:
 1531 003a 0E2A     		cmp	r2, #14
 1532 003c FDD8     		bhi	.L228
 1533 003e DFE812F0 		tbh	[pc, r2, lsl #1]
 1534              	.L229:
 1535 0042 6601     		.2byte	(.L202-.L229)/2
 1536 0044 6D01     		.2byte	(.L204-.L229)/2
 1537 0046 7D01     		.2byte	(.L205-.L229)/2
 1538 0048 8E01     		.2byte	(.L206-.L229)/2
 1539 004a 9B01     		.2byte	(.L207-.L229)/2
ARM GAS  C:\Users\mathi\AppData\Local\Temp\ccF8t5t9.s 			page 28


 1540 004c A801     		.2byte	(.L208-.L229)/2
 1541 004e BC01     		.2byte	(.L211-.L229)/2
 1542 0050 DD01     		.2byte	(.L214-.L229)/2
 1543 0052 EF01     		.2byte	(.L219-.L229)/2
 1544 0054 0502     		.2byte	(.L220-.L229)/2
 1545 0056 0A02     		.2byte	(.L221-.L229)/2
 1546 0058 3402     		.2byte	(.L224-.L229)/2
 1547 005a 4B02     		.2byte	(.L225-.L229)/2
 1548 005c 5102     		.2byte	(.L226-.L229)/2
 1549 005e 6002     		.2byte	(.L227-.L229)/2
 1550              	.LVL161:
 1551              		.p2align 1
 1552              	.L186:
 1553              	.LBE151:
 1554              	.LBE150:
 1555              	.LBB187:
 1556              	.LBB188:
 1557              	.LBB189:
 1558              		.loc 1 430 0
 1559 0060 B4F91C30 		ldrsh	r3, [r4, #28]
 1560 0064 6269     		ldr	r2, [r4, #20]
 1561 0066 3B44     		add	r3, r3, r7
 1562              	.LVL162:
 1563              		.loc 1 431 0
 1564 0068 02EB4300 		add	r0, r2, r3, lsl #1
 1565              		.loc 1 432 0
 1566 006c 32F91310 		ldrsh	r1, [r2, r3, lsl #1]
 1567 0070 B0F90220 		ldrsh	r2, [r0, #2]
 1568              	.LVL163:
 1569 0074 5FFA8AF3 		uxtb	r3, r10
 1570              	.LVL164:
 1571 0078 2046     		mov	r0, r4
 1572 007a FFF7FEFF 		bl	AsebaVMDoBinaryOperation
 1573              	.LVL165:
 1574              		.loc 1 433 0
 1575 007e A38B     		ldrh	r3, [r4, #28]
 1576 0080 023B     		subs	r3, r3, #2
 1577 0082 A383     		strh	r3, [r4, #28]	@ movhi
 1578              		.loc 1 436 0
 1579 0084 0028     		cmp	r0, #0
 1580 0086 00F07782 		beq	.L199
 1581 008a 0AF4407A 		and	r10, r10, #768
 1582              	.LVL166:
 1583 008e BAF5407F 		cmp	r10, #768
 1584 0092 6268     		ldr	r2, [r4, #4]
 1585 0094 608B     		ldrh	r0, [r4, #26]
 1586              	.LVL167:
 1587 0096 00F09B82 		beq	.L200
 1588 009a 0221     		movs	r1, #2
 1589              	.L230:
 1590              		.loc 1 449 0
 1591 009c 32F81030 		ldrh	r3, [r2, r0, lsl #1]
 1592 00a0 43F40073 		orr	r3, r3, #512
 1593 00a4 22F81030 		strh	r3, [r2, r0, lsl #1]	@ movhi
 1594              	.L231:
 1595              		.loc 1 460 0
 1596 00a8 628B     		ldrh	r2, [r4, #26]
ARM GAS  C:\Users\mathi\AppData\Local\Temp\ccF8t5t9.s 			page 29


 1597 00aa 238B     		ldrh	r3, [r4, #24]
 1598 00ac 0A44     		add	r2, r2, r1
 1599 00ae 6283     		strh	r2, [r4, #26]	@ movhi
 1600              	.L174:
 1601              	.LVL168:
 1602              	.LBE189:
 1603              	.LBE188:
 1604              	.LBE187:
 1605              		.loc 1 584 0
 1606 00b0 03F00502 		and	r2, r3, #5
 1607              		.loc 1 590 0
 1608 00b4 013D     		subs	r5, r5, #1
 1609              	.LVL169:
 1610              		.loc 1 584 0
 1611 00b6 052A     		cmp	r2, #5
 1612              		.loc 1 590 0
 1613 00b8 ADB2     		uxth	r5, r5
 1614              	.LVL170:
 1615              		.loc 1 584 0
 1616 00ba 00D1     		bne	.L173
 1617              		.loc 1 585 0
 1618 00bc BDB9     		cbnz	r5, .L201
 1619              	.LVL171:
 1620              	.L173:
 1621              		.loc 1 604 0
 1622 00be 0399     		ldr	r1, [sp, #12]
 1623 00c0 3268     		ldr	r2, [r6]
 1624              		.loc 1 603 0
 1625 00c2 23F00403 		bic	r3, r3, #4
 1626              		.loc 1 604 0
 1627 00c6 9142     		cmp	r1, r2
 1628              		.loc 1 603 0
 1629 00c8 2383     		strh	r3, [r4, #24]	@ movhi
 1630              		.loc 1 604 0
 1631 00ca 40F08982 		bne	.L267
 1632 00ce 04B0     		add	sp, sp, #16
 1633              		.cfi_remember_state
 1634              		.cfi_def_cfa_offset 32
 1635              		@ sp needed
 1636 00d0 BDE8F087 		pop	{r4, r5, r6, r7, r8, r9, r10, pc}
 1637              	.LVL172:
 1638              	.L252:
 1639              		.cfi_restore_state
 1640              		.loc 1 584 0
 1641 00d4 02F00502 		and	r2, r2, #5
 1642 00d8 42F00402 		orr	r2, r2, #4
 1643 00dc 052A     		cmp	r2, #5
 1644 00de EED1     		bne	.L173
 1645              	.LBB223:
 1646              	.LBB217:
 1647              	.LBB190:
 1648              	.LBB191:
 1649              		.loc 1 334 0
 1650 00e0 DFF80092 		ldr	r9, .L268+4
 1651 00e4 0D46     		mov	r5, r1
 1652              	.LBE191:
 1653              	.LBE190:
ARM GAS  C:\Users\mathi\AppData\Local\Temp\ccF8t5t9.s 			page 30


 1654              	.LBB193:
 1655              		.loc 1 430 0
 1656 00e6 6FF00047 		mvn	r7, #-2147483648
 1657              		.loc 1 436 0
 1658 00ea 4FF00208 		mov	r8, #2
 1659              	.LVL173:
 1660              	.L201:
 1661              	.LBE193:
 1662              		.loc 1 171 0
 1663 00ee 618B     		ldrh	r1, [r4, #26]
 1664 00f0 6068     		ldr	r0, [r4, #4]
 1665 00f2 30F811A0 		ldrh	r10, [r0, r1, lsl #1]
 1666              	.LVL174:
 1667              		.loc 1 178 0
 1668 00f6 4FEA1A32 		lsr	r2, r10, #12
 1669              		.loc 1 171 0
 1670 00fa 4FEA410C 		lsl	ip, r1, #1
 1671              		.loc 1 178 0
 1672 00fe 0E2A     		cmp	r2, #14
 1673 0100 D6D8     		bhi	.L174
 1674 0102 0FF2080E 		adr	lr, .L176
 1675 0106 5EF822F0 		ldr	pc, [lr, r2, lsl #2]
 1676 010a 00BF     		.p2align 2
 1677              	.L176:
 1678 010c 05030000 		.word	.L175+1
 1679 0110 E9020000 		.word	.L177+1
 1680 0114 D1020000 		.word	.L178+1
 1681 0118 AF020000 		.word	.L179+1
 1682 011c 8D020000 		.word	.L180+1
 1683 0120 5F020000 		.word	.L181+1
 1684 0124 25020000 		.word	.L182+1
 1685 0128 F3010000 		.word	.L183+1
 1686 012c BD010000 		.word	.L184+1
 1687 0130 B1010000 		.word	.L185+1
 1688 0134 61000000 		.word	.L186+1
 1689 0138 8D010000 		.word	.L187+1
 1690 013c 79010000 		.word	.L188+1
 1691 0140 5D010000 		.word	.L189+1
 1692 0144 49010000 		.word	.L190+1
 1693              		.p2align 1
 1694              	.L190:
 1695              		.loc 1 522 0
 1696 0148 B4F91C30 		ldrsh	r3, [r4, #28]
 1697 014c 6269     		ldr	r2, [r4, #20]
 1698 014e 591E     		subs	r1, r3, #1
 1699 0150 A183     		strh	r1, [r4, #28]	@ movhi
 1700 0152 32F81320 		ldrh	r2, [r2, r3, lsl #1]
 1701 0156 6283     		strh	r2, [r4, #26]	@ movhi
 1702 0158 238B     		ldrh	r3, [r4, #24]
 1703 015a A9E7     		b	.L174
 1704              	.L189:
 1705              	.LVL175:
 1706              	.LBB194:
 1707              		.loc 1 505 0
 1708 015c A38B     		ldrh	r3, [r4, #28]
 1709 015e 6269     		ldr	r2, [r4, #20]
 1710 0160 0133     		adds	r3, r3, #1
ARM GAS  C:\Users\mathi\AppData\Local\Temp\ccF8t5t9.s 			page 31


 1711 0162 1BB2     		sxth	r3, r3
 1712 0164 0131     		adds	r1, r1, #1
 1713 0166 A383     		strh	r3, [r4, #28]	@ movhi
 1714 0168 22F81310 		strh	r1, [r2, r3, lsl #1]	@ movhi
 1715              		.loc 1 496 0
 1716 016c CAF30B0A 		ubfx	r10, r10, #0, #12
 1717              	.LVL176:
 1718              		.loc 1 508 0
 1719 0170 A4F81AA0 		strh	r10, [r4, #26]	@ movhi
 1720 0174 238B     		ldrh	r3, [r4, #24]
 1721 0176 9BE7     		b	.L174
 1722              	.LVL177:
 1723              	.L188:
 1724              	.LBE194:
 1725              		.loc 1 486 0
 1726 0178 CAF30B01 		ubfx	r1, r10, #0, #12
 1727 017c 2046     		mov	r0, r4
 1728 017e FFF7FEFF 		bl	AsebaNativeFunction
 1729              	.LVL178:
 1730              		.loc 1 489 0
 1731 0182 628B     		ldrh	r2, [r4, #26]
 1732 0184 238B     		ldrh	r3, [r4, #24]
 1733 0186 0132     		adds	r2, r2, #1
 1734 0188 6283     		strh	r2, [r4, #26]	@ movhi
 1735 018a 91E7     		b	.L174
 1736              	.L187:
 1737              	.LVL179:
 1738              	.LBB195:
 1739              		.loc 1 469 0
 1740 018c 6044     		add	r0, r0, ip
 1741              	.LVL180:
 1742              		.loc 1 475 0
 1743 018e E268     		ldr	r2, [r4, #12]
 1744 0190 8388     		ldrh	r3, [r0, #4]
 1745 0192 4088     		ldrh	r0, [r0, #2]
 1746 0194 5B00     		lsls	r3, r3, #1
 1747 0196 02EB4002 		add	r2, r2, r0, lsl #1
 1748 019a 9BB2     		uxth	r3, r3
 1749 019c CAF30B01 		ubfx	r1, r10, #0, #12
 1750 01a0 2046     		mov	r0, r4
 1751 01a2 FFF7FEFF 		bl	AsebaSendMessage
 1752              	.LVL181:
 1753              		.loc 1 478 0
 1754 01a6 628B     		ldrh	r2, [r4, #26]
 1755 01a8 238B     		ldrh	r3, [r4, #24]
 1756 01aa 0332     		adds	r2, r2, #3
 1757 01ac 6283     		strh	r2, [r4, #26]	@ movhi
 1758 01ae 7FE7     		b	.L174
 1759              	.L185:
 1760              	.LVL182:
 1761              	.LBE195:
 1762              	.LBB196:
 1763              		.loc 1 403 0
 1764 01b0 4AF30B0A 		sbfx	r10, r10, #0, #12
 1765              	.LVL183:
 1766              		.loc 1 412 0
 1767 01b4 5144     		add	r1, r1, r10
ARM GAS  C:\Users\mathi\AppData\Local\Temp\ccF8t5t9.s 			page 32


 1768              	.LVL184:
 1769 01b6 6183     		strh	r1, [r4, #26]	@ movhi
 1770              	.LVL185:
 1771              	.L257:
 1772 01b8 238B     		ldrh	r3, [r4, #24]
 1773 01ba 79E7     		b	.L174
 1774              	.LVL186:
 1775              	.L184:
 1776              	.LBE196:
 1777              	.LBB197:
 1778              		.loc 1 385 0
 1779 01bc B4F91C10 		ldrsh	r1, [r4, #28]
 1780 01c0 6069     		ldr	r0, [r4, #20]
 1781 01c2 3944     		add	r1, r1, r7
 1782              	.LVL187:
 1783              		.loc 1 386 0
 1784 01c4 00EB4102 		add	r2, r0, r1, lsl #1
 1785              		.loc 1 389 0
 1786 01c8 5FFA8AF3 		uxtb	r3, r10
 1787 01cc B2F90220 		ldrsh	r2, [r2, #2]
 1788 01d0 30F91110 		ldrsh	r1, [r0, r1, lsl #1]
 1789              	.LVL188:
 1790 01d4 2046     		mov	r0, r4
 1791              	.LVL189:
 1792 01d6 FFF7FEFF 		bl	AsebaVMDoBinaryOperation
 1793              	.LVL190:
 1794              		.loc 1 392 0
 1795 01da A38B     		ldrh	r3, [r4, #28]
 1796              		.loc 1 393 0
 1797 01dc 6269     		ldr	r2, [r4, #20]
 1798              		.loc 1 392 0
 1799 01de 013B     		subs	r3, r3, #1
 1800 01e0 1BB2     		sxth	r3, r3
 1801 01e2 A383     		strh	r3, [r4, #28]	@ movhi
 1802              		.loc 1 393 0
 1803 01e4 22F81300 		strh	r0, [r2, r3, lsl #1]	@ movhi
 1804              		.loc 1 396 0
 1805 01e8 628B     		ldrh	r2, [r4, #26]
 1806 01ea 238B     		ldrh	r3, [r4, #24]
 1807 01ec 0132     		adds	r2, r2, #1
 1808 01ee 6283     		strh	r2, [r4, #26]	@ movhi
 1809 01f0 5EE7     		b	.L174
 1810              	.LVL191:
 1811              	.L183:
 1812              	.LBE197:
 1813              	.LBB198:
 1814              		.loc 1 360 0
 1815 01f2 B4F91C10 		ldrsh	r1, [r4, #28]
 1816 01f6 6269     		ldr	r2, [r4, #20]
 1817              	.LBB199:
 1818              	.LBB200:
 1819              		.loc 1 153 0
 1820 01f8 5FFA8AFA 		uxtb	r10, r10
 1821              	.LVL192:
 1822 01fc BAF1010F 		cmp	r10, #1
 1823              	.LBE200:
 1824              	.LBE199:
ARM GAS  C:\Users\mathi\AppData\Local\Temp\ccF8t5t9.s 			page 33


 1825              		.loc 1 360 0
 1826 0200 32F91130 		ldrsh	r3, [r2, r1, lsl #1]
 1827              	.LVL193:
 1828              	.LBB204:
 1829              	.LBB201:
 1830              		.loc 1 153 0
 1831 0204 00F0D781 		beq	.L196
 1832 0208 C0F0D281 		bcc	.L197
 1833 020c BAF1020F 		cmp	r10, #2
 1834 0210 00F0CA81 		beq	.L198
 1835              		.loc 1 163 0
 1836 0214 0023     		movs	r3, #0
 1837              	.LVL194:
 1838              	.L195:
 1839              	.LBE201:
 1840              	.LBE204:
 1841              		.loc 1 366 0
 1842 0216 22F81130 		strh	r3, [r2, r1, lsl #1]	@ movhi
 1843              	.LVL195:
 1844              		.loc 1 369 0
 1845 021a 628B     		ldrh	r2, [r4, #26]
 1846 021c 238B     		ldrh	r3, [r4, #24]
 1847 021e 0132     		adds	r2, r2, #1
 1848 0220 6283     		strh	r2, [r4, #26]	@ movhi
 1849 0222 45E7     		b	.L174
 1850              	.LVL196:
 1851              	.L182:
 1852              	.LBE198:
 1853              	.LBB207:
 1854              		.loc 1 321 0
 1855 0224 6044     		add	r0, r0, ip
 1856              		.loc 1 323 0
 1857 0226 B4F91C30 		ldrsh	r3, [r4, #28]
 1858              		.loc 1 322 0
 1859 022a 6269     		ldr	r2, [r4, #20]
 1860              		.loc 1 321 0
 1861 022c 4088     		ldrh	r0, [r0, #2]
 1862              	.LVL197:
 1863              		.loc 1 323 0
 1864 022e 32F813C0 		ldrh	ip, [r2, r3, lsl #1]
 1865              	.LVL198:
 1866              		.loc 1 326 0
 1867 0232 6045     		cmp	r0, ip
 1868              		.loc 1 323 0
 1869 0234 4FEA4303 		lsl	r3, r3, #1
 1870              	.LVL199:
 1871              		.loc 1 326 0
 1872 0238 40F26C81 		bls	.L264
 1873              		.loc 1 322 0
 1874 023c 1344     		add	r3, r3, r2
 1875              		.loc 1 340 0
 1876 023e CAF30B0A 		ubfx	r10, r10, #0, #12
 1877              	.LVL200:
 1878 0242 E268     		ldr	r2, [r4, #12]
 1879              	.LVL201:
 1880              		.loc 1 322 0
 1881 0244 33F9023C 		ldrsh	r3, [r3, #-2]
ARM GAS  C:\Users\mathi\AppData\Local\Temp\ccF8t5t9.s 			page 34


 1882              		.loc 1 340 0
 1883 0248 D444     		add	ip, ip, r10
 1884              	.LVL202:
 1885 024a 22F81C30 		strh	r3, [r2, ip, lsl #1]	@ movhi
 1886              	.LVL203:
 1887              		.loc 1 341 0
 1888 024e A18B     		ldrh	r1, [r4, #28]
 1889              		.loc 1 344 0
 1890 0250 628B     		ldrh	r2, [r4, #26]
 1891 0252 238B     		ldrh	r3, [r4, #24]
 1892              		.loc 1 341 0
 1893 0254 0239     		subs	r1, r1, #2
 1894              		.loc 1 344 0
 1895 0256 0232     		adds	r2, r2, #2
 1896              		.loc 1 341 0
 1897 0258 A183     		strh	r1, [r4, #28]	@ movhi
 1898              		.loc 1 344 0
 1899 025a 6283     		strh	r2, [r4, #26]	@ movhi
 1900 025c 28E7     		b	.L174
 1901              	.LVL204:
 1902              	.L181:
 1903              	.LBE207:
 1904              	.LBB208:
 1905              		.loc 1 280 0
 1906 025e 6044     		add	r0, r0, ip
 1907              		.loc 1 281 0
 1908 0260 B4F91C20 		ldrsh	r2, [r4, #28]
 1909 0264 6369     		ldr	r3, [r4, #20]
 1910              		.loc 1 280 0
 1911 0266 4088     		ldrh	r0, [r0, #2]
 1912              	.LVL205:
 1913              		.loc 1 281 0
 1914 0268 33F812C0 		ldrh	ip, [r3, r2, lsl #1]
 1915              	.LVL206:
 1916              		.loc 1 284 0
 1917 026c 6045     		cmp	r0, ip
 1918 026e 40F25181 		bls	.L264
 1919              		.loc 1 298 0
 1920 0272 CAF30B0A 		ubfx	r10, r10, #0, #12
 1921              	.LVL207:
 1922 0276 D444     		add	ip, ip, r10
 1923              	.LVL208:
 1924 0278 E168     		ldr	r1, [r4, #12]
 1925              	.LVL209:
 1926 027a 31F91C10 		ldrsh	r1, [r1, ip, lsl #1]
 1927              	.LVL210:
 1928              	.L258:
 1929 027e 23F81210 		strh	r1, [r3, r2, lsl #1]	@ movhi
 1930              		.loc 1 301 0
 1931 0282 628B     		ldrh	r2, [r4, #26]
 1932 0284 238B     		ldrh	r3, [r4, #24]
 1933 0286 0232     		adds	r2, r2, #2
 1934 0288 6283     		strh	r2, [r4, #26]	@ movhi
 1935 028a 11E7     		b	.L174
 1936              	.LVL211:
 1937              	.L180:
 1938              	.LBE208:
ARM GAS  C:\Users\mathi\AppData\Local\Temp\ccF8t5t9.s 			page 35


 1939              	.LBB209:
 1940              		.loc 1 258 0
 1941 028c B4F91C30 		ldrsh	r3, [r4, #28]
 1942 0290 6169     		ldr	r1, [r4, #20]
 1943 0292 5A1E     		subs	r2, r3, #1
 1944 0294 A283     		strh	r2, [r4, #28]	@ movhi
 1945 0296 CAF30B0A 		ubfx	r10, r10, #0, #12
 1946              	.LVL212:
 1947 029a E268     		ldr	r2, [r4, #12]
 1948 029c 31F91330 		ldrsh	r3, [r1, r3, lsl #1]
 1949 02a0 22F81A30 		strh	r3, [r2, r10, lsl #1]	@ movhi
 1950              		.loc 1 261 0
 1951 02a4 628B     		ldrh	r2, [r4, #26]
 1952 02a6 238B     		ldrh	r3, [r4, #24]
 1953 02a8 0132     		adds	r2, r2, #1
 1954 02aa 6283     		strh	r2, [r4, #26]	@ movhi
 1955 02ac 00E7     		b	.L174
 1956              	.LVL213:
 1957              	.L179:
 1958              	.LBE209:
 1959              	.LBB210:
 1960              		.loc 1 237 0
 1961 02ae A38B     		ldrh	r3, [r4, #28]
 1962 02b0 E168     		ldr	r1, [r4, #12]
 1963 02b2 6269     		ldr	r2, [r4, #20]
 1964 02b4 0133     		adds	r3, r3, #1
 1965 02b6 1BB2     		sxth	r3, r3
 1966 02b8 CAF30B0A 		ubfx	r10, r10, #0, #12
 1967              	.LVL214:
 1968 02bc A383     		strh	r3, [r4, #28]	@ movhi
 1969              	.LVL215:
 1970 02be 31F91A10 		ldrsh	r1, [r1, r10, lsl #1]
 1971 02c2 22F81310 		strh	r1, [r2, r3, lsl #1]	@ movhi
 1972              		.loc 1 240 0
 1973 02c6 628B     		ldrh	r2, [r4, #26]
 1974 02c8 238B     		ldrh	r3, [r4, #24]
 1975 02ca 0132     		adds	r2, r2, #1
 1976 02cc 6283     		strh	r2, [r4, #26]	@ movhi
 1977 02ce EFE6     		b	.L174
 1978              	.LVL216:
 1979              	.L178:
 1980              	.LBE210:
 1981              		.loc 1 216 0
 1982 02d0 A28B     		ldrh	r2, [r4, #28]
 1983 02d2 6369     		ldr	r3, [r4, #20]
 1984 02d4 6044     		add	r0, r0, ip
 1985 02d6 0132     		adds	r2, r2, #1
 1986 02d8 12B2     		sxth	r2, r2
 1987 02da 4188     		ldrh	r1, [r0, #2]
 1988 02dc A283     		strh	r2, [r4, #28]	@ movhi
 1989 02de CEE7     		b	.L258
 1990              	.L269:
 1991              		.align	2
 1992              	.L268:
 1993 02e0 00000000 		.word	__stack_chk_guard
 1994 02e4 00000000 		.word	AsebaVMErrorCB
 1995              	.L177:
ARM GAS  C:\Users\mathi\AppData\Local\Temp\ccF8t5t9.s 			page 36


 1996              	.LVL217:
 1997              	.LBB211:
 1998              		.loc 1 199 0
 1999 02e8 A38B     		ldrh	r3, [r4, #28]
 2000 02ea 6269     		ldr	r2, [r4, #20]
 2001 02ec 0133     		adds	r3, r3, #1
 2002 02ee 1BB2     		sxth	r3, r3
 2003              		.loc 1 190 0
 2004 02f0 4AF30B0A 		sbfx	r10, r10, #0, #12
 2005              	.LVL218:
 2006              		.loc 1 199 0
 2007 02f4 A383     		strh	r3, [r4, #28]	@ movhi
 2008              	.LVL219:
 2009 02f6 22F813A0 		strh	r10, [r2, r3, lsl #1]	@ movhi
 2010              		.loc 1 202 0
 2011 02fa 628B     		ldrh	r2, [r4, #26]
 2012 02fc 238B     		ldrh	r3, [r4, #24]
 2013 02fe 0132     		adds	r2, r2, #1
 2014 0300 6283     		strh	r2, [r4, #26]	@ movhi
 2015 0302 D5E6     		b	.L174
 2016              	.LVL220:
 2017              	.L175:
 2018              	.LBE211:
 2019              		.loc 1 183 0
 2020 0304 23F00103 		bic	r3, r3, #1
 2021 0308 9BB2     		uxth	r3, r3
 2022 030a 2383     		strh	r3, [r4, #24]	@ movhi
 2023 030c D0E6     		b	.L174
 2024              	.LVL221:
 2025              	.L202:
 2026              	.LBE217:
 2027              	.LBE223:
 2028              	.LBB224:
 2029              	.LBB181:
 2030 030e 23F00103 		bic	r3, r3, #1
 2031 0312 9BB2     		uxth	r3, r3
 2032 0314 2383     		strh	r3, [r4, #24]	@ movhi
 2033              	.LVL222:
 2034 0316 03F0050C 		and	ip, r3, #5
 2035 031a 86E6     		b	.L172
 2036              	.LVL223:
 2037              	.L204:
 2038              	.LBB156:
 2039              		.loc 1 199 0
 2040 031c A38B     		ldrh	r3, [r4, #28]
 2041 031e 6269     		ldr	r2, [r4, #20]
 2042 0320 0133     		adds	r3, r3, #1
 2043 0322 1BB2     		sxth	r3, r3
 2044              		.loc 1 190 0
 2045 0324 45F30B05 		sbfx	r5, r5, #0, #12
 2046              	.LVL224:
 2047              		.loc 1 199 0
 2048 0328 A383     		strh	r3, [r4, #28]	@ movhi
 2049              	.LVL225:
 2050 032a 22F81350 		strh	r5, [r2, r3, lsl #1]	@ movhi
 2051              	.L259:
 2052              	.LBE156:
ARM GAS  C:\Users\mathi\AppData\Local\Temp\ccF8t5t9.s 			page 37


 2053              		.loc 1 489 0
 2054 032e 628B     		ldrh	r2, [r4, #26]
 2055 0330 238B     		ldrh	r3, [r4, #24]
 2056 0332 0132     		adds	r2, r2, #1
 2057 0334 6283     		strh	r2, [r4, #26]	@ movhi
 2058 0336 03F0050C 		and	ip, r3, #5
 2059 033a 76E6     		b	.L172
 2060              	.LVL226:
 2061              	.L205:
 2062              		.loc 1 216 0
 2063 033c A38B     		ldrh	r3, [r4, #28]
 2064 033e 6269     		ldr	r2, [r4, #20]
 2065 0340 0131     		adds	r1, r1, #1
 2066              	.LVL227:
 2067 0342 0133     		adds	r3, r3, #1
 2068 0344 1BB2     		sxth	r3, r3
 2069 0346 30F81110 		ldrh	r1, [r0, r1, lsl #1]
 2070              	.LVL228:
 2071 034a A383     		strh	r3, [r4, #28]	@ movhi
 2072              	.LVL229:
 2073 034c 22F81310 		strh	r1, [r2, r3, lsl #1]	@ movhi
 2074              	.L260:
 2075              	.LBB157:
 2076              		.loc 1 301 0
 2077 0350 628B     		ldrh	r2, [r4, #26]
 2078 0352 238B     		ldrh	r3, [r4, #24]
 2079 0354 0232     		adds	r2, r2, #2
 2080 0356 6283     		strh	r2, [r4, #26]	@ movhi
 2081 0358 03F0050C 		and	ip, r3, #5
 2082 035c 65E6     		b	.L172
 2083              	.LVL230:
 2084              	.L206:
 2085              	.LBE157:
 2086              	.LBB158:
 2087              		.loc 1 237 0
 2088 035e A38B     		ldrh	r3, [r4, #28]
 2089 0360 E168     		ldr	r1, [r4, #12]
 2090              	.LVL231:
 2091 0362 6269     		ldr	r2, [r4, #20]
 2092 0364 0133     		adds	r3, r3, #1
 2093 0366 1BB2     		sxth	r3, r3
 2094 0368 C5F30B05 		ubfx	r5, r5, #0, #12
 2095              	.LVL232:
 2096 036c A383     		strh	r3, [r4, #28]	@ movhi
 2097              	.LVL233:
 2098 036e 31F91510 		ldrsh	r1, [r1, r5, lsl #1]
 2099 0372 22F81310 		strh	r1, [r2, r3, lsl #1]	@ movhi
 2100 0376 DAE7     		b	.L259
 2101              	.LVL234:
 2102              	.L207:
 2103              	.LBE158:
 2104              	.LBB159:
 2105              		.loc 1 258 0
 2106 0378 B4F91C30 		ldrsh	r3, [r4, #28]
 2107 037c 6169     		ldr	r1, [r4, #20]
 2108              	.LVL235:
 2109 037e 5A1E     		subs	r2, r3, #1
ARM GAS  C:\Users\mathi\AppData\Local\Temp\ccF8t5t9.s 			page 38


 2110 0380 A283     		strh	r2, [r4, #28]	@ movhi
 2111              	.LVL236:
 2112 0382 C5F30B05 		ubfx	r5, r5, #0, #12
 2113              	.LVL237:
 2114 0386 E268     		ldr	r2, [r4, #12]
 2115 0388 31F91330 		ldrsh	r3, [r1, r3, lsl #1]
 2116 038c 22F81530 		strh	r3, [r2, r5, lsl #1]	@ movhi
 2117 0390 CDE7     		b	.L259
 2118              	.LVL238:
 2119              	.L208:
 2120              	.LBE159:
 2121              	.LBB160:
 2122              		.loc 1 280 0
 2123 0392 4B1C     		adds	r3, r1, #1
 2124              		.loc 1 281 0
 2125 0394 B4F91CE0 		ldrsh	lr, [r4, #28]
 2126 0398 6269     		ldr	r2, [r4, #20]
 2127              		.loc 1 280 0
 2128 039a 30F81300 		ldrh	r0, [r0, r3, lsl #1]
 2129              	.LVL239:
 2130              		.loc 1 281 0
 2131 039e 32F81EC0 		ldrh	ip, [r2, lr, lsl #1]
 2132              	.LVL240:
 2133              		.loc 1 284 0
 2134 03a2 6045     		cmp	r0, ip
 2135 03a4 40F2CE80 		bls	.L266
 2136              		.loc 1 298 0
 2137 03a8 C5F30B05 		ubfx	r5, r5, #0, #12
 2138              	.LVL241:
 2139 03ac E368     		ldr	r3, [r4, #12]
 2140 03ae AC44     		add	ip, ip, r5
 2141              	.LVL242:
 2142 03b0 33F91C30 		ldrsh	r3, [r3, ip, lsl #1]
 2143 03b4 22F81E30 		strh	r3, [r2, lr, lsl #1]	@ movhi
 2144              	.LVL243:
 2145 03b8 CAE7     		b	.L260
 2146              	.LVL244:
 2147              	.L211:
 2148              	.LBE160:
 2149              	.LBB161:
 2150              		.loc 1 323 0
 2151 03ba B4F91C30 		ldrsh	r3, [r4, #28]
 2152              		.loc 1 322 0
 2153 03be D4F814E0 		ldr	lr, [r4, #20]
 2154              		.loc 1 321 0
 2155 03c2 4A1C     		adds	r2, r1, #1
 2156              		.loc 1 323 0
 2157 03c4 3EF813C0 		ldrh	ip, [lr, r3, lsl #1]
 2158              		.loc 1 321 0
 2159 03c8 30F81200 		ldrh	r0, [r0, r2, lsl #1]
 2160              	.LVL245:
 2161              		.loc 1 326 0
 2162 03cc 6045     		cmp	r0, ip
 2163              		.loc 1 323 0
 2164 03ce 4FEA4303 		lsl	r3, r3, #1
 2165              	.LVL246:
 2166              		.loc 1 326 0
ARM GAS  C:\Users\mathi\AppData\Local\Temp\ccF8t5t9.s 			page 39


 2167 03d2 40F2B780 		bls	.L266
 2168              		.loc 1 322 0
 2169 03d6 7344     		add	r3, r3, lr
 2170              		.loc 1 340 0
 2171 03d8 C5F30B05 		ubfx	r5, r5, #0, #12
 2172              	.LVL247:
 2173 03dc AC44     		add	ip, ip, r5
 2174              	.LVL248:
 2175 03de E268     		ldr	r2, [r4, #12]
 2176              		.loc 1 322 0
 2177 03e0 33F9023C 		ldrsh	r3, [r3, #-2]
 2178              		.loc 1 340 0
 2179 03e4 22F81C30 		strh	r3, [r2, ip, lsl #1]	@ movhi
 2180              	.LVL249:
 2181              		.loc 1 341 0
 2182 03e8 A18B     		ldrh	r1, [r4, #28]
 2183              		.loc 1 344 0
 2184 03ea 628B     		ldrh	r2, [r4, #26]
 2185 03ec 238B     		ldrh	r3, [r4, #24]
 2186              		.loc 1 341 0
 2187 03ee 0239     		subs	r1, r1, #2
 2188              		.loc 1 344 0
 2189 03f0 0232     		adds	r2, r2, #2
 2190              		.loc 1 341 0
 2191 03f2 A183     		strh	r1, [r4, #28]	@ movhi
 2192              		.loc 1 344 0
 2193 03f4 6283     		strh	r2, [r4, #26]	@ movhi
 2194 03f6 03F0050C 		and	ip, r3, #5
 2195 03fa 16E6     		b	.L172
 2196              	.LVL250:
 2197              	.L214:
 2198              	.LBE161:
 2199              	.LBB162:
 2200              		.loc 1 360 0
 2201 03fc B4F91C10 		ldrsh	r1, [r4, #28]
 2202              	.LVL251:
 2203 0400 6269     		ldr	r2, [r4, #20]
 2204              	.LBB163:
 2205              	.LBB164:
 2206              		.loc 1 153 0
 2207 0402 EDB2     		uxtb	r5, r5
 2208 0404 012D     		cmp	r5, #1
 2209              	.LBE164:
 2210              	.LBE163:
 2211              		.loc 1 360 0
 2212 0406 32F91130 		ldrsh	r3, [r2, r1, lsl #1]
 2213              	.LVL252:
 2214              	.LBB168:
 2215              	.LBB165:
 2216              		.loc 1 153 0
 2217 040a 00F0DC80 		beq	.L216
 2218 040e C0F0D780 		bcc	.L217
 2219 0412 022D     		cmp	r5, #2
 2220 0414 00F0CA80 		beq	.L218
 2221              		.loc 1 163 0
 2222 0418 0023     		movs	r3, #0
 2223              	.LVL253:
ARM GAS  C:\Users\mathi\AppData\Local\Temp\ccF8t5t9.s 			page 40


 2224              	.L215:
 2225              	.LBE165:
 2226              	.LBE168:
 2227              		.loc 1 366 0
 2228 041a 22F81130 		strh	r3, [r2, r1, lsl #1]	@ movhi
 2229              	.LVL254:
 2230 041e 86E7     		b	.L259
 2231              	.LVL255:
 2232              	.L219:
 2233              	.LBE162:
 2234              	.LBB171:
 2235              		.loc 1 385 0
 2236 0420 B4F91C10 		ldrsh	r1, [r4, #28]
 2237              	.LVL256:
 2238 0424 6069     		ldr	r0, [r4, #20]
 2239              	.LVL257:
 2240 0426 3944     		add	r1, r1, r7
 2241              	.LVL258:
 2242              		.loc 1 386 0
 2243 0428 00EB4102 		add	r2, r0, r1, lsl #1
 2244              		.loc 1 389 0
 2245 042c EBB2     		uxtb	r3, r5
 2246 042e B2F90220 		ldrsh	r2, [r2, #2]
 2247 0432 30F91110 		ldrsh	r1, [r0, r1, lsl #1]
 2248              	.LVL259:
 2249 0436 2046     		mov	r0, r4
 2250              	.LVL260:
 2251 0438 FFF7FEFF 		bl	AsebaVMDoBinaryOperation
 2252              	.LVL261:
 2253              		.loc 1 392 0
 2254 043c A38B     		ldrh	r3, [r4, #28]
 2255              		.loc 1 393 0
 2256 043e 6269     		ldr	r2, [r4, #20]
 2257              		.loc 1 392 0
 2258 0440 013B     		subs	r3, r3, #1
 2259 0442 1BB2     		sxth	r3, r3
 2260 0444 A383     		strh	r3, [r4, #28]	@ movhi
 2261              		.loc 1 393 0
 2262 0446 22F81300 		strh	r0, [r2, r3, lsl #1]	@ movhi
 2263 044a 70E7     		b	.L259
 2264              	.LVL262:
 2265              	.L220:
 2266              	.LBE171:
 2267              	.LBB172:
 2268              		.loc 1 403 0
 2269 044c 45F30B05 		sbfx	r5, r5, #0, #12
 2270              	.LVL263:
 2271              		.loc 1 412 0
 2272 0450 2944     		add	r1, r1, r5
 2273              	.LVL264:
 2274 0452 6183     		strh	r1, [r4, #26]	@ movhi
 2275              	.LVL265:
 2276 0454 E9E5     		b	.L172
 2277              	.LVL266:
 2278              	.L221:
 2279              	.LBE172:
 2280              	.LBB173:
ARM GAS  C:\Users\mathi\AppData\Local\Temp\ccF8t5t9.s 			page 41


 2281              		.loc 1 430 0
 2282 0456 B4F91C30 		ldrsh	r3, [r4, #28]
 2283 045a 6269     		ldr	r2, [r4, #20]
 2284 045c 3B44     		add	r3, r3, r7
 2285              	.LVL267:
 2286              		.loc 1 431 0
 2287 045e 02EB4300 		add	r0, r2, r3, lsl #1
 2288              	.LVL268:
 2289              		.loc 1 432 0
 2290 0462 32F91310 		ldrsh	r1, [r2, r3, lsl #1]
 2291              	.LVL269:
 2292 0466 B0F90220 		ldrsh	r2, [r0, #2]
 2293              	.LVL270:
 2294 046a EBB2     		uxtb	r3, r5
 2295              	.LVL271:
 2296 046c 2046     		mov	r0, r4
 2297 046e FFF7FEFF 		bl	AsebaVMDoBinaryOperation
 2298              	.LVL272:
 2299              		.loc 1 433 0
 2300 0472 A38B     		ldrh	r3, [r4, #28]
 2301 0474 023B     		subs	r3, r3, #2
 2302 0476 A383     		strh	r3, [r4, #28]	@ movhi
 2303              		.loc 1 436 0
 2304 0478 0028     		cmp	r0, #0
 2305 047a 00F08980 		beq	.L222
 2306 047e 05F44075 		and	r5, r5, #768
 2307 0482 B5F5407F 		cmp	r5, #768
 2308 0486 6268     		ldr	r2, [r4, #4]
 2309 0488 608B     		ldrh	r0, [r4, #26]
 2310              	.LVL273:
 2311 048a 00F0A580 		beq	.L223
 2312 048e 0221     		movs	r1, #2
 2313              	.L232:
 2314              		.loc 1 449 0
 2315 0490 32F81030 		ldrh	r3, [r2, r0, lsl #1]
 2316 0494 43F40073 		orr	r3, r3, #512
 2317 0498 22F81030 		strh	r3, [r2, r0, lsl #1]	@ movhi
 2318              	.L233:
 2319              		.loc 1 460 0
 2320 049c 628B     		ldrh	r2, [r4, #26]
 2321 049e 238B     		ldrh	r3, [r4, #24]
 2322 04a0 0A44     		add	r2, r2, r1
 2323 04a2 6283     		strh	r2, [r4, #26]	@ movhi
 2324 04a4 03F0050C 		and	ip, r3, #5
 2325 04a8 BFE5     		b	.L172
 2326              	.LVL274:
 2327              	.L224:
 2328              	.LBE173:
 2329              	.LBB174:
 2330              		.loc 1 468 0
 2331 04aa 0131     		adds	r1, r1, #1
 2332              	.LVL275:
 2333              		.loc 1 469 0
 2334 04ac 00EB4103 		add	r3, r0, r1, lsl #1
 2335              		.loc 1 475 0
 2336 04b0 E268     		ldr	r2, [r4, #12]
 2337 04b2 5B88     		ldrh	r3, [r3, #2]
ARM GAS  C:\Users\mathi\AppData\Local\Temp\ccF8t5t9.s 			page 42


 2338 04b4 30F81100 		ldrh	r0, [r0, r1, lsl #1]
 2339              	.LVL276:
 2340 04b8 5B00     		lsls	r3, r3, #1
 2341 04ba 02EB4002 		add	r2, r2, r0, lsl #1
 2342 04be 9BB2     		uxth	r3, r3
 2343 04c0 C5F30B01 		ubfx	r1, r5, #0, #12
 2344              	.LVL277:
 2345 04c4 2046     		mov	r0, r4
 2346 04c6 FFF7FEFF 		bl	AsebaSendMessage
 2347              	.LVL278:
 2348              		.loc 1 478 0
 2349 04ca 628B     		ldrh	r2, [r4, #26]
 2350 04cc 238B     		ldrh	r3, [r4, #24]
 2351 04ce 0332     		adds	r2, r2, #3
 2352 04d0 6283     		strh	r2, [r4, #26]	@ movhi
 2353 04d2 03F0050C 		and	ip, r3, #5
 2354 04d6 A8E5     		b	.L172
 2355              	.LVL279:
 2356              	.L225:
 2357              	.LBE174:
 2358              		.loc 1 486 0
 2359 04d8 C5F30B01 		ubfx	r1, r5, #0, #12
 2360              	.LVL280:
 2361 04dc 2046     		mov	r0, r4
 2362              	.LVL281:
 2363 04de FFF7FEFF 		bl	AsebaNativeFunction
 2364              	.LVL282:
 2365 04e2 24E7     		b	.L259
 2366              	.LVL283:
 2367              	.L226:
 2368              	.LBB175:
 2369              		.loc 1 505 0
 2370 04e4 A38B     		ldrh	r3, [r4, #28]
 2371 04e6 6269     		ldr	r2, [r4, #20]
 2372 04e8 0133     		adds	r3, r3, #1
 2373 04ea 1BB2     		sxth	r3, r3
 2374 04ec 0131     		adds	r1, r1, #1
 2375              	.LVL284:
 2376 04ee A383     		strh	r3, [r4, #28]	@ movhi
 2377              	.LVL285:
 2378 04f0 22F81310 		strh	r1, [r2, r3, lsl #1]	@ movhi
 2379 04f4 238B     		ldrh	r3, [r4, #24]
 2380              		.loc 1 496 0
 2381 04f6 C5F30B05 		ubfx	r5, r5, #0, #12
 2382              	.LVL286:
 2383              		.loc 1 508 0
 2384 04fa 6583     		strh	r5, [r4, #26]	@ movhi
 2385 04fc 03F0050C 		and	ip, r3, #5
 2386 0500 93E5     		b	.L172
 2387              	.LVL287:
 2388              	.L227:
 2389              	.LBE175:
 2390              		.loc 1 522 0
 2391 0502 B4F91C20 		ldrsh	r2, [r4, #28]
 2392 0506 6169     		ldr	r1, [r4, #20]
 2393              	.LVL288:
 2394 0508 501E     		subs	r0, r2, #1
ARM GAS  C:\Users\mathi\AppData\Local\Temp\ccF8t5t9.s 			page 43


 2395              	.LVL289:
 2396 050a A083     		strh	r0, [r4, #28]	@ movhi
 2397              	.LVL290:
 2398 050c 31F81220 		ldrh	r2, [r1, r2, lsl #1]
 2399 0510 6283     		strh	r2, [r4, #26]	@ movhi
 2400 0512 8AE5     		b	.L172
 2401              	.LVL291:
 2402              	.L264:
 2403              	.LBE181:
 2404              	.LBE224:
 2405              	.LBB225:
 2406              	.LBB218:
 2407              	.LBB212:
 2408              	.LBB192:
 2409              		.loc 1 332 0
 2410 0514 A4F81880 		strh	r8, [r4, #24]	@ movhi
 2411              		.loc 1 333 0
 2412 0518 0623     		movs	r3, #6
 2413              		.loc 1 329 0
 2414 051a ADF80410 		strh	r1, [sp, #4]	@ movhi
 2415              		.loc 1 330 0
 2416 051e ADF80600 		strh	r0, [sp, #6]	@ movhi
 2417              		.loc 1 333 0
 2418 0522 01AA     		add	r2, sp, #4
 2419 0524 49F20601 		movw	r1, #36870
 2420 0528 2046     		mov	r0, r4
 2421              		.loc 1 331 0
 2422 052a ADF808C0 		strh	ip, [sp, #8]	@ movhi
 2423              		.loc 1 333 0
 2424 052e FFF7FEFF 		bl	AsebaSendMessage
 2425              	.LVL292:
 2426              		.loc 1 334 0
 2427 0532 B9F1000F 		cmp	r9, #0
 2428 0536 3FF43FAE 		beq	.L257
 2429              		.loc 1 335 0
 2430 053a 0021     		movs	r1, #0
 2431 053c 2046     		mov	r0, r4
 2432 053e FFF7FEFF 		bl	AsebaVMErrorCB
 2433              	.LVL293:
 2434 0542 39E6     		b	.L257
 2435              	.LVL294:
 2436              	.L266:
 2437              	.LBE192:
 2438              	.LBE212:
 2439              	.LBE218:
 2440              	.LBE225:
 2441              	.LBB226:
 2442              	.LBB182:
 2443              	.LBB176:
 2444              	.LBB154:
 2445              		.loc 1 332 0
 2446 0544 A4F81890 		strh	r9, [r4, #24]	@ movhi
 2447              	.LVL295:
 2448              		.loc 1 333 0
 2449 0548 0623     		movs	r3, #6
 2450              		.loc 1 329 0
 2451 054a ADF80410 		strh	r1, [sp, #4]	@ movhi
ARM GAS  C:\Users\mathi\AppData\Local\Temp\ccF8t5t9.s 			page 44


 2452              		.loc 1 330 0
 2453 054e ADF80600 		strh	r0, [sp, #6]	@ movhi
 2454              		.loc 1 333 0
 2455 0552 01AA     		add	r2, sp, #4
 2456 0554 49F20601 		movw	r1, #36870
 2457 0558 2046     		mov	r0, r4
 2458              		.loc 1 331 0
 2459 055a ADF808C0 		strh	ip, [sp, #8]	@ movhi
 2460              		.loc 1 333 0
 2461 055e FFF7FEFF 		bl	AsebaSendMessage
 2462              	.LVL296:
 2463              		.loc 1 334 0
 2464 0562 B8F1000F 		cmp	r8, #0
 2465 0566 03D0     		beq	.L213
 2466              		.loc 1 335 0
 2467 0568 0021     		movs	r1, #0
 2468 056a 2046     		mov	r0, r4
 2469 056c FFF7FEFF 		bl	AsebaVMErrorCB
 2470              	.LVL297:
 2471              	.L213:
 2472 0570 238B     		ldrh	r3, [r4, #24]
 2473 0572 03F0050C 		and	ip, r3, #5
 2474 0576 58E5     		b	.L172
 2475              	.LVL298:
 2476              	.L199:
 2477              	.LBE154:
 2478              	.LBE176:
 2479              	.LBE182:
 2480              	.LBE226:
 2481              	.LBB227:
 2482              	.LBB219:
 2483              	.LBB213:
 2484              		.loc 1 444 0
 2485 0578 628B     		ldrh	r2, [r4, #26]
 2486 057a 6068     		ldr	r0, [r4, #4]
 2487              	.LVL299:
 2488 057c 0132     		adds	r2, r2, #1
 2489 057e 5300     		lsls	r3, r2, #1
 2490              		.loc 1 451 0
 2491 0580 023B     		subs	r3, r3, #2
 2492              		.loc 1 444 0
 2493 0582 30F81210 		ldrh	r1, [r0, r2, lsl #1]
 2494              	.LVL300:
 2495              		.loc 1 451 0
 2496 0586 C25A     		ldrh	r2, [r0, r3]
 2497 0588 22F40072 		bic	r2, r2, #512
 2498 058c C252     		strh	r2, [r0, r3]	@ movhi
 2499 058e 8BE5     		b	.L231
 2500              	.LVL301:
 2501              	.L222:
 2502              	.LBE213:
 2503              	.LBE219:
 2504              	.LBE227:
 2505              	.LBB228:
 2506              	.LBB183:
 2507              	.LBB177:
 2508              		.loc 1 444 0
ARM GAS  C:\Users\mathi\AppData\Local\Temp\ccF8t5t9.s 			page 45


 2509 0590 628B     		ldrh	r2, [r4, #26]
 2510 0592 6068     		ldr	r0, [r4, #4]
 2511              	.LVL302:
 2512 0594 0132     		adds	r2, r2, #1
 2513 0596 5300     		lsls	r3, r2, #1
 2514              		.loc 1 451 0
 2515 0598 023B     		subs	r3, r3, #2
 2516              		.loc 1 444 0
 2517 059a 30F81210 		ldrh	r1, [r0, r2, lsl #1]
 2518              	.LVL303:
 2519              		.loc 1 451 0
 2520 059e C25A     		ldrh	r2, [r0, r3]
 2521 05a0 22F40072 		bic	r2, r2, #512
 2522 05a4 C252     		strh	r2, [r0, r3]	@ movhi
 2523 05a6 79E7     		b	.L233
 2524              	.LVL304:
 2525              	.L198:
 2526              	.LBE177:
 2527              	.LBE183:
 2528              	.LBE228:
 2529              	.LBB229:
 2530              	.LBB220:
 2531              	.LBB214:
 2532              	.LBB205:
 2533              	.LBB202:
 2534              		.loc 1 157 0
 2535 05a8 DB43     		mvns	r3, r3
 2536              	.LVL305:
 2537 05aa 34E6     		b	.L195
 2538              	.LVL306:
 2539              	.L218:
 2540              	.LBE202:
 2541              	.LBE205:
 2542              	.LBE214:
 2543              	.LBE220:
 2544              	.LBE229:
 2545              	.LBB230:
 2546              	.LBB184:
 2547              	.LBB178:
 2548              	.LBB169:
 2549              	.LBB166:
 2550 05ac DB43     		mvns	r3, r3
 2551              	.LVL307:
 2552 05ae 34E7     		b	.L215
 2553              	.LVL308:
 2554              	.L197:
 2555              	.LBE166:
 2556              	.LBE169:
 2557              	.LBE178:
 2558              	.LBE184:
 2559              	.LBE230:
 2560              	.LBB231:
 2561              	.LBB221:
 2562              	.LBB215:
 2563              	.LBB206:
 2564              	.LBB203:
 2565              		.loc 1 155 0
ARM GAS  C:\Users\mathi\AppData\Local\Temp\ccF8t5t9.s 			page 46


 2566 05b0 5B42     		negs	r3, r3
 2567              	.LVL309:
 2568 05b2 1BB2     		sxth	r3, r3
 2569              	.LVL310:
 2570 05b4 2FE6     		b	.L195
 2571              	.LVL311:
 2572              	.L196:
 2573              		.loc 1 156 0
 2574 05b6 002B     		cmp	r3, #0
 2575 05b8 B8BF     		it	lt
 2576 05ba 5B42     		rsblt	r3, r3, #0
 2577              	.LVL312:
 2578 05bc 1BB2     		sxth	r3, r3
 2579 05be 2AE6     		b	.L195
 2580              	.LVL313:
 2581              	.L217:
 2582              	.LBE203:
 2583              	.LBE206:
 2584              	.LBE215:
 2585              	.LBE221:
 2586              	.LBE231:
 2587              	.LBB232:
 2588              	.LBB185:
 2589              	.LBB179:
 2590              	.LBB170:
 2591              	.LBB167:
 2592              		.loc 1 155 0
 2593 05c0 5B42     		negs	r3, r3
 2594              	.LVL314:
 2595 05c2 1BB2     		sxth	r3, r3
 2596              	.LVL315:
 2597 05c4 29E7     		b	.L215
 2598              	.LVL316:
 2599              	.L216:
 2600              		.loc 1 156 0
 2601 05c6 002B     		cmp	r3, #0
 2602 05c8 B8BF     		it	lt
 2603 05ca 5B42     		rsblt	r3, r3, #0
 2604              	.LVL317:
 2605 05cc 1BB2     		sxth	r3, r3
 2606 05ce 24E7     		b	.L215
 2607              	.LVL318:
 2608              	.L200:
 2609              	.LBE167:
 2610              	.LBE170:
 2611              	.LBE179:
 2612              	.LBE185:
 2613              	.LBE232:
 2614              	.LBB233:
 2615              	.LBB222:
 2616              	.LBB216:
 2617              		.loc 1 444 0
 2618 05d0 431C     		adds	r3, r0, #1
 2619 05d2 32F81310 		ldrh	r1, [r2, r3, lsl #1]
 2620              	.LVL319:
 2621 05d6 61E5     		b	.L230
 2622              	.LVL320:
ARM GAS  C:\Users\mathi\AppData\Local\Temp\ccF8t5t9.s 			page 47


 2623              	.L223:
 2624              	.LBE216:
 2625              	.LBE222:
 2626              	.LBE233:
 2627              	.LBB234:
 2628              	.LBB186:
 2629              	.LBB180:
 2630 05d8 431C     		adds	r3, r0, #1
 2631 05da 32F81310 		ldrh	r1, [r2, r3, lsl #1]
 2632              	.LVL321:
 2633 05de 57E7     		b	.L232
 2634              	.LVL322:
 2635              	.L267:
 2636              	.LBE180:
 2637              	.LBE186:
 2638              	.LBE234:
 2639              		.loc 1 604 0
 2640 05e0 FFF7FEFF 		bl	__stack_chk_fail
 2641              	.LVL323:
 2642              		.cfi_endproc
 2643              	.LFE8:
 2644              		.size	AsebaDebugBareRun, .-AsebaDebugBareRun
 2645              		.section	.text.AsebaDebugBreakpointRun,"ax",%progbits
 2646              		.align	1
 2647              		.p2align 4,,15
 2648              		.global	AsebaDebugBreakpointRun
 2649              		.syntax unified
 2650              		.thumb
 2651              		.thumb_func
 2652              		.fpu fpv4-sp-d16
 2653              		.type	AsebaDebugBreakpointRun, %function
 2654              	AsebaDebugBreakpointRun:
 2655              	.LFB9:
 2656              		.loc 1 609 0
 2657              		.cfi_startproc
 2658              		@ args = 0, pretend = 0, frame = 8
 2659              		@ frame_needed = 0, uses_anonymous_args = 0
 2660              	.LVL324:
 2661 0000 F0B5     		push	{r4, r5, r6, r7, lr}
 2662              		.cfi_def_cfa_offset 20
 2663              		.cfi_offset 4, -20
 2664              		.cfi_offset 5, -16
 2665              		.cfi_offset 6, -12
 2666              		.cfi_offset 7, -8
 2667              		.cfi_offset 14, -4
 2668 0002 784E     		ldr	r6, .L387
 2669              		.loc 1 610 0
 2670 0004 028B     		ldrh	r2, [r0, #24]
 2671              		.loc 1 609 0
 2672 0006 3368     		ldr	r3, [r6]
 2673 0008 83B0     		sub	sp, sp, #12
 2674              		.cfi_def_cfa_offset 32
 2675              		.loc 1 609 0
 2676 000a 0446     		mov	r4, r0
 2677 000c 0193     		str	r3, [sp, #4]
 2678              		.loc 1 610 0
 2679 000e 42F00403 		orr	r3, r2, #4
ARM GAS  C:\Users\mathi\AppData\Local\Temp\ccF8t5t9.s 			page 48


 2680 0012 02F00502 		and	r2, r2, #5
 2681 0016 0383     		strh	r3, [r0, #24]	@ movhi
 2682 0018 42F00402 		orr	r2, r2, #4
 2683              		.loc 1 612 0
 2684 001c 0029     		cmp	r1, #0
 2685 001e 00F0B280 		beq	.L384
 2686              		.loc 1 615 0
 2687 0022 052A     		cmp	r2, #5
 2688 0024 0F46     		mov	r7, r1
 2689              	.LVL325:
 2690 0026 68D1     		bne	.L273
 2691              	.LVL326:
 2692              	.L274:
 2693              	.LBB243:
 2694              	.LBB244:
 2695              		.loc 1 563 0
 2696 0028 E28F     		ldrh	r2, [r4, #62]
 2697 002a 002A     		cmp	r2, #0
 2698 002c 59D0     		beq	.L276
 2699              		.loc 1 565 0
 2700 002e 658B     		ldrh	r5, [r4, #26]
 2701 0030 E18B     		ldrh	r1, [r4, #30]
 2702 0032 A942     		cmp	r1, r5
 2703 0034 00F0BF80 		beq	.L280
 2704              	.LVL327:
 2705              		.loc 1 563 0
 2706 0038 012A     		cmp	r2, #1
 2707 003a 52D9     		bls	.L276
 2708              		.loc 1 565 0
 2709 003c 218C     		ldrh	r1, [r4, #32]
 2710 003e A942     		cmp	r1, r5
 2711 0040 00F0B980 		beq	.L280
 2712              	.LVL328:
 2713              		.loc 1 563 0
 2714 0044 022A     		cmp	r2, #2
 2715 0046 4CD0     		beq	.L276
 2716              		.loc 1 565 0
 2717 0048 618C     		ldrh	r1, [r4, #34]
 2718 004a A942     		cmp	r1, r5
 2719 004c 00F0B380 		beq	.L280
 2720              	.LVL329:
 2721              		.loc 1 563 0
 2722 0050 032A     		cmp	r2, #3
 2723 0052 46D0     		beq	.L276
 2724              		.loc 1 565 0
 2725 0054 A18C     		ldrh	r1, [r4, #36]
 2726 0056 A942     		cmp	r1, r5
 2727 0058 00F0AD80 		beq	.L280
 2728              	.LVL330:
 2729              		.loc 1 563 0
 2730 005c 042A     		cmp	r2, #4
 2731 005e 40D0     		beq	.L276
 2732              		.loc 1 565 0
 2733 0060 E18C     		ldrh	r1, [r4, #38]
 2734 0062 A942     		cmp	r1, r5
 2735 0064 00F0A780 		beq	.L280
 2736              	.LVL331:
ARM GAS  C:\Users\mathi\AppData\Local\Temp\ccF8t5t9.s 			page 49


 2737              		.loc 1 563 0
 2738 0068 052A     		cmp	r2, #5
 2739 006a 3AD0     		beq	.L276
 2740              		.loc 1 565 0
 2741 006c 218D     		ldrh	r1, [r4, #40]
 2742 006e A942     		cmp	r1, r5
 2743 0070 00F0A180 		beq	.L280
 2744              	.LVL332:
 2745              		.loc 1 563 0
 2746 0074 062A     		cmp	r2, #6
 2747 0076 34D0     		beq	.L276
 2748              		.loc 1 565 0
 2749 0078 618D     		ldrh	r1, [r4, #42]
 2750 007a A942     		cmp	r1, r5
 2751 007c 00F09B80 		beq	.L280
 2752              	.LVL333:
 2753              		.loc 1 563 0
 2754 0080 072A     		cmp	r2, #7
 2755 0082 2ED0     		beq	.L276
 2756              		.loc 1 565 0
 2757 0084 A18D     		ldrh	r1, [r4, #44]
 2758 0086 A942     		cmp	r1, r5
 2759 0088 00F09580 		beq	.L280
 2760              	.LVL334:
 2761              		.loc 1 563 0
 2762 008c 082A     		cmp	r2, #8
 2763 008e 28D0     		beq	.L276
 2764              		.loc 1 565 0
 2765 0090 E18D     		ldrh	r1, [r4, #46]
 2766 0092 A942     		cmp	r1, r5
 2767 0094 00F08F80 		beq	.L280
 2768              	.LVL335:
 2769              		.loc 1 563 0
 2770 0098 092A     		cmp	r2, #9
 2771 009a 22D0     		beq	.L276
 2772              		.loc 1 565 0
 2773 009c 218E     		ldrh	r1, [r4, #48]
 2774 009e A942     		cmp	r1, r5
 2775 00a0 00F08980 		beq	.L280
 2776              	.LVL336:
 2777              		.loc 1 563 0
 2778 00a4 0A2A     		cmp	r2, #10
 2779 00a6 1CD0     		beq	.L276
 2780              		.loc 1 565 0
 2781 00a8 618E     		ldrh	r1, [r4, #50]
 2782 00aa A942     		cmp	r1, r5
 2783 00ac 00F08380 		beq	.L280
 2784              	.LVL337:
 2785              		.loc 1 563 0
 2786 00b0 0B2A     		cmp	r2, #11
 2787 00b2 16D0     		beq	.L276
 2788              		.loc 1 565 0
 2789 00b4 A18E     		ldrh	r1, [r4, #52]
 2790 00b6 A942     		cmp	r1, r5
 2791 00b8 7DD0     		beq	.L280
 2792              	.LVL338:
 2793              		.loc 1 563 0
ARM GAS  C:\Users\mathi\AppData\Local\Temp\ccF8t5t9.s 			page 50


 2794 00ba 0C2A     		cmp	r2, #12
 2795 00bc 11D0     		beq	.L276
 2796              		.loc 1 565 0
 2797 00be E18E     		ldrh	r1, [r4, #54]
 2798 00c0 A942     		cmp	r1, r5
 2799 00c2 78D0     		beq	.L280
 2800              	.LVL339:
 2801              		.loc 1 563 0
 2802 00c4 0D2A     		cmp	r2, #13
 2803 00c6 0CD0     		beq	.L276
 2804              		.loc 1 565 0
 2805 00c8 218F     		ldrh	r1, [r4, #56]
 2806 00ca A942     		cmp	r1, r5
 2807 00cc 73D0     		beq	.L280
 2808              	.LVL340:
 2809              		.loc 1 563 0
 2810 00ce 0E2A     		cmp	r2, #14
 2811 00d0 07D0     		beq	.L276
 2812              		.loc 1 565 0
 2813 00d2 618F     		ldrh	r1, [r4, #58]
 2814 00d4 A942     		cmp	r1, r5
 2815 00d6 6ED0     		beq	.L280
 2816              	.LVL341:
 2817              		.loc 1 563 0
 2818 00d8 0F2A     		cmp	r2, #15
 2819 00da 02D0     		beq	.L276
 2820              		.loc 1 565 0
 2821 00dc A28F     		ldrh	r2, [r4, #60]
 2822 00de AA42     		cmp	r2, r5
 2823 00e0 69D0     		beq	.L280
 2824              	.LVL342:
 2825              	.L276:
 2826              	.LBE244:
 2827              	.LBE243:
 2828              		.loc 1 626 0
 2829 00e2 2046     		mov	r0, r4
 2830 00e4 FFF7FEFF 		bl	AsebaVMStep
 2831              	.LVL343:
 2832              		.loc 1 615 0
 2833 00e8 238B     		ldrh	r3, [r4, #24]
 2834 00ea 03F00502 		and	r2, r3, #5
 2835              		.loc 1 627 0
 2836 00ee 013F     		subs	r7, r7, #1
 2837              	.LVL344:
 2838              		.loc 1 615 0
 2839 00f0 052A     		cmp	r2, #5
 2840              		.loc 1 627 0
 2841 00f2 BFB2     		uxth	r7, r7
 2842              	.LVL345:
 2843              		.loc 1 615 0
 2844 00f4 01D1     		bne	.L273
 2845              		.loc 1 616 0
 2846 00f6 002F     		cmp	r7, #0
 2847 00f8 96D1     		bne	.L274
 2848              	.LVL346:
 2849              	.L273:
 2850              		.loc 1 648 0
ARM GAS  C:\Users\mathi\AppData\Local\Temp\ccF8t5t9.s 			page 51


 2851 00fa 23F00403 		bic	r3, r3, #4
 2852 00fe 2383     		strh	r3, [r4, #24]	@ movhi
 2853 0100 67E0     		b	.L270
 2854              	.LVL347:
 2855              	.L385:
 2856              	.LBB245:
 2857              	.LBB246:
 2858              		.loc 1 563 0
 2859 0102 042A     		cmp	r2, #4
 2860 0104 39D0     		beq	.L279
 2861              		.loc 1 565 0
 2862 0106 E18C     		ldrh	r1, [r4, #38]
 2863 0108 A942     		cmp	r1, r5
 2864 010a 54D0     		beq	.L280
 2865              	.LVL348:
 2866              		.loc 1 563 0
 2867 010c 052A     		cmp	r2, #5
 2868 010e 34D0     		beq	.L279
 2869              		.loc 1 565 0
 2870 0110 218D     		ldrh	r1, [r4, #40]
 2871 0112 A942     		cmp	r1, r5
 2872 0114 4FD0     		beq	.L280
 2873              	.LVL349:
 2874              		.loc 1 563 0
 2875 0116 062A     		cmp	r2, #6
 2876 0118 2FD0     		beq	.L279
 2877              		.loc 1 565 0
 2878 011a 618D     		ldrh	r1, [r4, #42]
 2879 011c A942     		cmp	r1, r5
 2880 011e 4AD0     		beq	.L280
 2881              	.LVL350:
 2882              		.loc 1 563 0
 2883 0120 072A     		cmp	r2, #7
 2884 0122 2AD0     		beq	.L279
 2885              		.loc 1 565 0
 2886 0124 A18D     		ldrh	r1, [r4, #44]
 2887 0126 A942     		cmp	r1, r5
 2888 0128 45D0     		beq	.L280
 2889              	.LVL351:
 2890              		.loc 1 563 0
 2891 012a 082A     		cmp	r2, #8
 2892 012c 25D0     		beq	.L279
 2893              		.loc 1 565 0
 2894 012e E18D     		ldrh	r1, [r4, #46]
 2895 0130 A942     		cmp	r1, r5
 2896 0132 40D0     		beq	.L280
 2897              	.LVL352:
 2898              		.loc 1 563 0
 2899 0134 092A     		cmp	r2, #9
 2900 0136 20D0     		beq	.L279
 2901              		.loc 1 565 0
 2902 0138 218E     		ldrh	r1, [r4, #48]
 2903 013a A942     		cmp	r1, r5
 2904 013c 3BD0     		beq	.L280
 2905              	.LVL353:
 2906              		.loc 1 563 0
 2907 013e 0A2A     		cmp	r2, #10
ARM GAS  C:\Users\mathi\AppData\Local\Temp\ccF8t5t9.s 			page 52


 2908 0140 1BD0     		beq	.L279
 2909              		.loc 1 565 0
 2910 0142 618E     		ldrh	r1, [r4, #50]
 2911 0144 A942     		cmp	r1, r5
 2912 0146 36D0     		beq	.L280
 2913              	.LVL354:
 2914              		.loc 1 563 0
 2915 0148 0B2A     		cmp	r2, #11
 2916 014a 16D0     		beq	.L279
 2917              		.loc 1 565 0
 2918 014c A18E     		ldrh	r1, [r4, #52]
 2919 014e A942     		cmp	r1, r5
 2920 0150 31D0     		beq	.L280
 2921              	.LVL355:
 2922              		.loc 1 563 0
 2923 0152 0C2A     		cmp	r2, #12
 2924 0154 11D0     		beq	.L279
 2925              		.loc 1 565 0
 2926 0156 E18E     		ldrh	r1, [r4, #54]
 2927 0158 A942     		cmp	r1, r5
 2928 015a 2CD0     		beq	.L280
 2929              	.LVL356:
 2930              		.loc 1 563 0
 2931 015c 0D2A     		cmp	r2, #13
 2932 015e 0CD0     		beq	.L279
 2933              		.loc 1 565 0
 2934 0160 218F     		ldrh	r1, [r4, #56]
 2935 0162 A942     		cmp	r1, r5
 2936 0164 27D0     		beq	.L280
 2937              	.LVL357:
 2938              		.loc 1 563 0
 2939 0166 0E2A     		cmp	r2, #14
 2940 0168 07D0     		beq	.L279
 2941              		.loc 1 565 0
 2942 016a 618F     		ldrh	r1, [r4, #58]
 2943 016c A942     		cmp	r1, r5
 2944 016e 22D0     		beq	.L280
 2945              	.LVL358:
 2946              		.loc 1 563 0
 2947 0170 0F2A     		cmp	r2, #15
 2948 0172 02D0     		beq	.L279
 2949              		.loc 1 565 0
 2950 0174 A28F     		ldrh	r2, [r4, #60]
 2951 0176 AA42     		cmp	r2, r5
 2952 0178 1DD0     		beq	.L280
 2953              	.LVL359:
 2954              	.L279:
 2955              	.LBE246:
 2956              	.LBE245:
 2957              		.loc 1 644 0
 2958 017a 2046     		mov	r0, r4
 2959 017c FFF7FEFF 		bl	AsebaVMStep
 2960              	.LVL360:
 2961              		.loc 1 634 0
 2962 0180 238B     		ldrh	r3, [r4, #24]
 2963 0182 03F00502 		and	r2, r3, #5
 2964              	.L384:
ARM GAS  C:\Users\mathi\AppData\Local\Temp\ccF8t5t9.s 			page 53


 2965 0186 052A     		cmp	r2, #5
 2966 0188 B7D1     		bne	.L273
 2967              	.LVL361:
 2968              	.LBB248:
 2969              	.LBB247:
 2970              		.loc 1 563 0
 2971 018a E28F     		ldrh	r2, [r4, #62]
 2972 018c 002A     		cmp	r2, #0
 2973 018e F4D0     		beq	.L279
 2974              		.loc 1 565 0
 2975 0190 E18B     		ldrh	r1, [r4, #30]
 2976 0192 658B     		ldrh	r5, [r4, #26]
 2977 0194 A942     		cmp	r1, r5
 2978 0196 0ED0     		beq	.L280
 2979              	.LVL362:
 2980              		.loc 1 563 0
 2981 0198 012A     		cmp	r2, #1
 2982 019a EED9     		bls	.L279
 2983              		.loc 1 565 0
 2984 019c 218C     		ldrh	r1, [r4, #32]
 2985 019e A942     		cmp	r1, r5
 2986 01a0 09D0     		beq	.L280
 2987              	.LVL363:
 2988              		.loc 1 563 0
 2989 01a2 022A     		cmp	r2, #2
 2990 01a4 E9D0     		beq	.L279
 2991              		.loc 1 565 0
 2992 01a6 618C     		ldrh	r1, [r4, #34]
 2993 01a8 A942     		cmp	r1, r5
 2994 01aa 04D0     		beq	.L280
 2995              	.LVL364:
 2996              		.loc 1 563 0
 2997 01ac 032A     		cmp	r2, #3
 2998 01ae E4D0     		beq	.L279
 2999              		.loc 1 565 0
 3000 01b0 A18C     		ldrh	r1, [r4, #36]
 3001 01b2 A942     		cmp	r1, r5
 3002 01b4 A5D1     		bne	.L385
 3003              	.LVL365:
 3004              	.L280:
 3005              		.loc 1 567 0
 3006 01b6 43F00201 		orr	r1, r3, #2
 3007 01ba 2183     		strh	r1, [r4, #24]	@ movhi
 3008              	.LVL366:
 3009              	.LBE247:
 3010              	.LBE248:
 3011              	.LBB249:
 3012              	.LBB250:
 3013              		.loc 1 719 0
 3014 01bc 2046     		mov	r0, r4
 3015              		.loc 1 718 0
 3016 01be ADF80210 		strh	r1, [sp, #2]	@ movhi
 3017              		.loc 1 719 0
 3018 01c2 0423     		movs	r3, #4
 3019 01c4 6A46     		mov	r2, sp
 3020 01c6 49F20A01 		movw	r1, #36874
 3021              		.loc 1 717 0
ARM GAS  C:\Users\mathi\AppData\Local\Temp\ccF8t5t9.s 			page 54


 3022 01ca ADF80050 		strh	r5, [sp]	@ movhi
 3023              		.loc 1 719 0
 3024 01ce FFF7FEFF 		bl	AsebaSendMessage
 3025              	.LVL367:
 3026              	.L270:
 3027              	.LBE250:
 3028              	.LBE249:
 3029              		.loc 1 649 0
 3030 01d2 019A     		ldr	r2, [sp, #4]
 3031 01d4 3368     		ldr	r3, [r6]
 3032 01d6 9A42     		cmp	r2, r3
 3033 01d8 01D1     		bne	.L386
 3034 01da 03B0     		add	sp, sp, #12
 3035              		.cfi_remember_state
 3036              		.cfi_def_cfa_offset 20
 3037              		@ sp needed
 3038 01dc F0BD     		pop	{r4, r5, r6, r7, pc}
 3039              	.LVL368:
 3040              	.L386:
 3041              		.cfi_restore_state
 3042 01de FFF7FEFF 		bl	__stack_chk_fail
 3043              	.LVL369:
 3044              	.L388:
 3045 01e2 00BF     		.align	2
 3046              	.L387:
 3047 01e4 00000000 		.word	__stack_chk_guard
 3048              		.cfi_endproc
 3049              	.LFE9:
 3050              		.size	AsebaDebugBreakpointRun, .-AsebaDebugBreakpointRun
 3051              		.section	.text.AsebaVMRun,"ax",%progbits
 3052              		.align	1
 3053              		.p2align 4,,15
 3054              		.global	AsebaVMRun
 3055              		.syntax unified
 3056              		.thumb
 3057              		.thumb_func
 3058              		.fpu fpv4-sp-d16
 3059              		.type	AsebaVMRun, %function
 3060              	AsebaVMRun:
 3061              	.LFB10:
 3062              		.loc 1 652 0
 3063              		.cfi_startproc
 3064              		@ args = 0, pretend = 0, frame = 16
 3065              		@ frame_needed = 0, uses_anonymous_args = 0
 3066              	.LVL370:
 3067 0000 2DE9F047 		push	{r4, r5, r6, r7, r8, r9, r10, lr}
 3068              		.cfi_def_cfa_offset 32
 3069              		.cfi_offset 4, -32
 3070              		.cfi_offset 5, -28
 3071              		.cfi_offset 6, -24
 3072              		.cfi_offset 7, -20
 3073              		.cfi_offset 8, -16
 3074              		.cfi_offset 9, -12
 3075              		.cfi_offset 10, -8
 3076              		.cfi_offset 14, -4
 3077 0004 924E     		ldr	r6, .L602
 3078              		.loc 1 654 0
ARM GAS  C:\Users\mathi\AppData\Local\Temp\ccF8t5t9.s 			page 55


 3079 0006 038B     		ldrh	r3, [r0, #24]
 3080              		.loc 1 652 0
 3081 0008 3268     		ldr	r2, [r6]
 3082 000a 84B0     		sub	sp, sp, #16
 3083              		.cfi_def_cfa_offset 48
 3084              		.loc 1 652 0
 3085 000c 0446     		mov	r4, r0
 3086              		.loc 1 654 0
 3087 000e 13F00100 		ands	r0, r3, #1
 3088              	.LVL371:
 3089              		.loc 1 652 0
 3090 0012 0392     		str	r2, [sp, #12]
 3091              		.loc 1 654 0
 3092 0014 2FD0     		beq	.L390
 3093              		.loc 1 658 0
 3094 0016 9A07     		lsls	r2, r3, #30
 3095 0018 2CD4     		bmi	.L466
 3096 001a 0D46     		mov	r5, r1
 3097              		.loc 1 662 0
 3098 001c E18F     		ldrh	r1, [r4, #62]
 3099              	.LVL372:
 3100 001e 43F00402 		orr	r2, r3, #4
 3101 0022 81BB     		cbnz	r1, .L598
 3102              	.LVL373:
 3103              	.LBB297:
 3104              	.LBB298:
 3105              		.loc 1 579 0
 3106 0024 2283     		strh	r2, [r4, #24]	@ movhi
 3107              		.loc 1 581 0
 3108 0026 002D     		cmp	r5, #0
 3109 0028 40F0DA80 		bne	.L583
 3110              	.LBB299:
 3111              	.LBB300:
 3112              	.LBB301:
 3113              	.LBB302:
 3114              		.loc 1 334 0
 3115 002c DFF82482 		ldr	r8, .L602+4
 3116 0030 02F0050C 		and	ip, r2, #5
 3117              	.LBE302:
 3118              	.LBE301:
 3119              	.LBB304:
 3120              		.loc 1 430 0
 3121 0034 6FF00047 		mvn	r7, #-2147483648
 3122              		.loc 1 436 0
 3123 0038 4FF00209 		mov	r9, #2
 3124              	.LVL374:
 3125              	.L402:
 3126 003c BCF1050F 		cmp	ip, #5
 3127 0040 40F0B880 		bne	.L403
 3128 0044 618B     		ldrh	r1, [r4, #26]
 3129 0046 6068     		ldr	r0, [r4, #4]
 3130              	.LBE304:
 3131              		.loc 1 171 0
 3132 0048 30F81150 		ldrh	r5, [r0, r1, lsl #1]
 3133              		.loc 1 178 0
 3134 004c 2B0B     		lsrs	r3, r5, #12
 3135              	.L458:
ARM GAS  C:\Users\mathi\AppData\Local\Temp\ccF8t5t9.s 			page 56


 3136              	.LVL375:
 3137 004e 0E2B     		cmp	r3, #14
 3138 0050 FDD8     		bhi	.L458
 3139 0052 DFE813F0 		tbh	[pc, r3, lsl #1]
 3140              	.L459:
 3141 0056 3603     		.2byte	(.L432-.L459)/2
 3142 0058 2C03     		.2byte	(.L434-.L459)/2
 3143 005a 2103     		.2byte	(.L435-.L459)/2
 3144 005c 4A03     		.2byte	(.L436-.L459)/2
 3145 005e 3D03     		.2byte	(.L437-.L459)/2
 3146 0060 A102     		.2byte	(.L438-.L459)/2
 3147 0062 8002     		.2byte	(.L441-.L459)/2
 3148 0064 0003     		.2byte	(.L444-.L459)/2
 3149 0066 EA02     		.2byte	(.L449-.L459)/2
 3150 0068 E502     		.2byte	(.L450-.L459)/2
 3151 006a BB02     		.2byte	(.L451-.L459)/2
 3152 006c 6902     		.2byte	(.L454-.L459)/2
 3153 006e 5D02     		.2byte	(.L455-.L459)/2
 3154 0070 1203     		.2byte	(.L456-.L459)/2
 3155 0072 5402     		.2byte	(.L457-.L459)/2
 3156              	.LVL376:
 3157              		.p2align 1
 3158              	.L466:
 3159              	.LBE300:
 3160              	.LBE299:
 3161              	.LBE298:
 3162              	.LBE297:
 3163              		.loc 1 655 0
 3164 0074 0020     		movs	r0, #0
 3165              	.LVL377:
 3166              	.L390:
 3167              		.loc 1 668 0
 3168 0076 039A     		ldr	r2, [sp, #12]
 3169 0078 3368     		ldr	r3, [r6]
 3170 007a 9A42     		cmp	r2, r3
 3171 007c 40F0A883 		bne	.L599
 3172 0080 04B0     		add	sp, sp, #16
 3173              		.cfi_remember_state
 3174              		.cfi_def_cfa_offset 32
 3175              		@ sp needed
 3176 0082 BDE8F087 		pop	{r4, r5, r6, r7, r8, r9, r10, pc}
 3177              	.LVL378:
 3178              	.L598:
 3179              		.cfi_restore_state
 3180 0086 03F00503 		and	r3, r3, #5
 3181 008a 43F00403 		orr	r3, r3, #4
 3182              	.LBB379:
 3183              	.LBB380:
 3184              		.loc 1 610 0
 3185 008e 2283     		strh	r2, [r4, #24]	@ movhi
 3186              		.loc 1 612 0
 3187 0090 002D     		cmp	r5, #0
 3188 0092 40F0E180 		bne	.L392
 3189              		.loc 1 634 0
 3190 0096 052B     		cmp	r3, #5
 3191 0098 40F08C80 		bne	.L403
 3192              	.LVL379:
ARM GAS  C:\Users\mathi\AppData\Local\Temp\ccF8t5t9.s 			page 57


 3193              	.L393:
 3194              	.LBB381:
 3195              	.LBB382:
 3196              		.loc 1 563 0
 3197 009c 0029     		cmp	r1, #0
 3198 009e 50D0     		beq	.L399
 3199              		.loc 1 565 0
 3200 00a0 E58B     		ldrh	r5, [r4, #30]
 3201 00a2 638B     		ldrh	r3, [r4, #26]
 3202 00a4 AB42     		cmp	r3, r5
 3203 00a6 00F08A80 		beq	.L400
 3204              	.LVL380:
 3205              		.loc 1 563 0
 3206 00aa 0129     		cmp	r1, #1
 3207 00ac 49D9     		bls	.L399
 3208              		.loc 1 565 0
 3209 00ae 258C     		ldrh	r5, [r4, #32]
 3210 00b0 AB42     		cmp	r3, r5
 3211 00b2 00F08480 		beq	.L400
 3212              	.LVL381:
 3213              		.loc 1 563 0
 3214 00b6 0229     		cmp	r1, #2
 3215 00b8 43D0     		beq	.L399
 3216              		.loc 1 565 0
 3217 00ba 658C     		ldrh	r5, [r4, #34]
 3218 00bc AB42     		cmp	r3, r5
 3219 00be 7ED0     		beq	.L400
 3220              	.LVL382:
 3221              		.loc 1 563 0
 3222 00c0 0329     		cmp	r1, #3
 3223 00c2 3ED0     		beq	.L399
 3224              		.loc 1 565 0
 3225 00c4 A58C     		ldrh	r5, [r4, #36]
 3226 00c6 AB42     		cmp	r3, r5
 3227 00c8 79D0     		beq	.L400
 3228              	.LVL383:
 3229              		.loc 1 563 0
 3230 00ca 0429     		cmp	r1, #4
 3231 00cc 39D0     		beq	.L399
 3232              		.loc 1 565 0
 3233 00ce E58C     		ldrh	r5, [r4, #38]
 3234 00d0 AB42     		cmp	r3, r5
 3235 00d2 74D0     		beq	.L400
 3236              	.LVL384:
 3237              		.loc 1 563 0
 3238 00d4 0529     		cmp	r1, #5
 3239 00d6 34D0     		beq	.L399
 3240              		.loc 1 565 0
 3241 00d8 258D     		ldrh	r5, [r4, #40]
 3242 00da AB42     		cmp	r3, r5
 3243 00dc 6FD0     		beq	.L400
 3244              	.LVL385:
 3245              		.loc 1 563 0
 3246 00de 0629     		cmp	r1, #6
 3247 00e0 2FD0     		beq	.L399
 3248              		.loc 1 565 0
 3249 00e2 658D     		ldrh	r5, [r4, #42]
ARM GAS  C:\Users\mathi\AppData\Local\Temp\ccF8t5t9.s 			page 58


 3250 00e4 AB42     		cmp	r3, r5
 3251 00e6 6AD0     		beq	.L400
 3252              	.LVL386:
 3253              		.loc 1 563 0
 3254 00e8 0729     		cmp	r1, #7
 3255 00ea 2AD0     		beq	.L399
 3256              		.loc 1 565 0
 3257 00ec A58D     		ldrh	r5, [r4, #44]
 3258 00ee AB42     		cmp	r3, r5
 3259 00f0 65D0     		beq	.L400
 3260              	.LVL387:
 3261              		.loc 1 563 0
 3262 00f2 0829     		cmp	r1, #8
 3263 00f4 25D0     		beq	.L399
 3264              		.loc 1 565 0
 3265 00f6 E58D     		ldrh	r5, [r4, #46]
 3266 00f8 AB42     		cmp	r3, r5
 3267 00fa 60D0     		beq	.L400
 3268              	.LVL388:
 3269              		.loc 1 563 0
 3270 00fc 0929     		cmp	r1, #9
 3271 00fe 20D0     		beq	.L399
 3272              		.loc 1 565 0
 3273 0100 258E     		ldrh	r5, [r4, #48]
 3274 0102 AB42     		cmp	r3, r5
 3275 0104 5BD0     		beq	.L400
 3276              	.LVL389:
 3277              		.loc 1 563 0
 3278 0106 0A29     		cmp	r1, #10
 3279 0108 1BD0     		beq	.L399
 3280              		.loc 1 565 0
 3281 010a 658E     		ldrh	r5, [r4, #50]
 3282 010c AB42     		cmp	r3, r5
 3283 010e 56D0     		beq	.L400
 3284              	.LVL390:
 3285              		.loc 1 563 0
 3286 0110 0B29     		cmp	r1, #11
 3287 0112 16D0     		beq	.L399
 3288              		.loc 1 565 0
 3289 0114 A58E     		ldrh	r5, [r4, #52]
 3290 0116 AB42     		cmp	r3, r5
 3291 0118 51D0     		beq	.L400
 3292              	.LVL391:
 3293              		.loc 1 563 0
 3294 011a 0C29     		cmp	r1, #12
 3295 011c 11D0     		beq	.L399
 3296              		.loc 1 565 0
 3297 011e E58E     		ldrh	r5, [r4, #54]
 3298 0120 AB42     		cmp	r3, r5
 3299 0122 4CD0     		beq	.L400
 3300              	.LVL392:
 3301              		.loc 1 563 0
 3302 0124 0D29     		cmp	r1, #13
 3303 0126 0CD0     		beq	.L399
 3304              		.loc 1 565 0
 3305 0128 258F     		ldrh	r5, [r4, #56]
 3306 012a AB42     		cmp	r3, r5
ARM GAS  C:\Users\mathi\AppData\Local\Temp\ccF8t5t9.s 			page 59


 3307 012c 47D0     		beq	.L400
 3308              	.LVL393:
 3309              		.loc 1 563 0
 3310 012e 0E29     		cmp	r1, #14
 3311 0130 07D0     		beq	.L399
 3312              		.loc 1 565 0
 3313 0132 658F     		ldrh	r5, [r4, #58]
 3314 0134 AB42     		cmp	r3, r5
 3315 0136 42D0     		beq	.L400
 3316              	.LVL394:
 3317              		.loc 1 563 0
 3318 0138 0F29     		cmp	r1, #15
 3319 013a 02D0     		beq	.L399
 3320              		.loc 1 565 0
 3321 013c A58F     		ldrh	r5, [r4, #60]
 3322 013e AB42     		cmp	r3, r5
 3323 0140 3DD0     		beq	.L400
 3324              	.LVL395:
 3325              	.L399:
 3326              	.LBE382:
 3327              	.LBE381:
 3328              		.loc 1 644 0
 3329 0142 2046     		mov	r0, r4
 3330 0144 FFF7FEFF 		bl	AsebaVMStep
 3331              	.LVL396:
 3332              		.loc 1 634 0
 3333 0148 228B     		ldrh	r2, [r4, #24]
 3334 014a 02F00503 		and	r3, r2, #5
 3335 014e 052B     		cmp	r3, #5
 3336 0150 30D1     		bne	.L403
 3337 0152 E18F     		ldrh	r1, [r4, #62]
 3338 0154 A2E7     		b	.L393
 3339              	.LVL397:
 3340              	.L416:
 3341              	.LBE380:
 3342              	.LBE379:
 3343              	.LBB403:
 3344              	.LBB376:
 3345              	.LBB331:
 3346              	.LBB332:
 3347              	.LBB333:
 3348              		.loc 1 430 0
 3349 0156 B4F91C30 		ldrsh	r3, [r4, #28]
 3350 015a 6269     		ldr	r2, [r4, #20]
 3351 015c 3B44     		add	r3, r3, r7
 3352              	.LVL398:
 3353              		.loc 1 431 0
 3354 015e 02EB4300 		add	r0, r2, r3, lsl #1
 3355              		.loc 1 432 0
 3356 0162 32F91310 		ldrsh	r1, [r2, r3, lsl #1]
 3357 0166 B0F90220 		ldrsh	r2, [r0, #2]
 3358              	.LVL399:
 3359 016a 5FFA8AF3 		uxtb	r3, r10
 3360              	.LVL400:
 3361 016e 2046     		mov	r0, r4
 3362 0170 FFF7FEFF 		bl	AsebaVMDoBinaryOperation
 3363              	.LVL401:
ARM GAS  C:\Users\mathi\AppData\Local\Temp\ccF8t5t9.s 			page 60


 3364              		.loc 1 433 0
 3365 0174 A38B     		ldrh	r3, [r4, #28]
 3366 0176 023B     		subs	r3, r3, #2
 3367 0178 A383     		strh	r3, [r4, #28]	@ movhi
 3368              		.loc 1 436 0
 3369 017a 0028     		cmp	r0, #0
 3370 017c 00F0F482 		beq	.L429
 3371 0180 0AF4407A 		and	r10, r10, #768
 3372              	.LVL402:
 3373 0184 BAF5407F 		cmp	r10, #768
 3374 0188 6268     		ldr	r2, [r4, #4]
 3375 018a 608B     		ldrh	r0, [r4, #26]
 3376              	.LVL403:
 3377 018c 00F01883 		beq	.L430
 3378 0190 0221     		movs	r1, #2
 3379              	.L460:
 3380              		.loc 1 449 0
 3381 0192 32F81030 		ldrh	r3, [r2, r0, lsl #1]
 3382 0196 43F40073 		orr	r3, r3, #512
 3383 019a 22F81030 		strh	r3, [r2, r0, lsl #1]	@ movhi
 3384              	.L461:
 3385              		.loc 1 460 0
 3386 019e 638B     		ldrh	r3, [r4, #26]
 3387 01a0 228B     		ldrh	r2, [r4, #24]
 3388 01a2 0B44     		add	r3, r3, r1
 3389 01a4 6383     		strh	r3, [r4, #26]	@ movhi
 3390              	.L404:
 3391              	.LVL404:
 3392              	.LBE333:
 3393              	.LBE332:
 3394              	.LBE331:
 3395              		.loc 1 584 0
 3396 01a6 02F00503 		and	r3, r2, #5
 3397              		.loc 1 590 0
 3398 01aa 013D     		subs	r5, r5, #1
 3399              	.LVL405:
 3400              		.loc 1 584 0
 3401 01ac 052B     		cmp	r3, #5
 3402              		.loc 1 590 0
 3403 01ae ADB2     		uxth	r5, r5
 3404              	.LVL406:
 3405              		.loc 1 584 0
 3406 01b0 00D1     		bne	.L403
 3407              		.loc 1 585 0
 3408 01b2 0DBB     		cbnz	r5, .L431
 3409              	.LVL407:
 3410              	.L403:
 3411              		.loc 1 603 0
 3412 01b4 22F00402 		bic	r2, r2, #4
 3413 01b8 2283     		strh	r2, [r4, #24]	@ movhi
 3414              	.LBE376:
 3415              	.LBE403:
 3416              		.loc 1 667 0
 3417 01ba 0120     		movs	r0, #1
 3418 01bc 5BE7     		b	.L390
 3419              	.LVL408:
 3420              	.L400:
ARM GAS  C:\Users\mathi\AppData\Local\Temp\ccF8t5t9.s 			page 61


 3421              	.LBB404:
 3422              	.LBB401:
 3423              	.LBB385:
 3424              	.LBB383:
 3425              		.loc 1 567 0
 3426 01be 42F00201 		orr	r1, r2, #2
 3427              	.LBE383:
 3428              	.LBE385:
 3429              	.LBB386:
 3430              	.LBB387:
 3431              		.loc 1 719 0
 3432 01c2 0423     		movs	r3, #4
 3433              	.LBE387:
 3434              	.LBE386:
 3435              	.LBB389:
 3436              	.LBB384:
 3437              		.loc 1 567 0
 3438 01c4 2183     		strh	r1, [r4, #24]	@ movhi
 3439              	.LVL409:
 3440              	.LBE384:
 3441              	.LBE389:
 3442              	.LBB390:
 3443              	.LBB388:
 3444              		.loc 1 719 0
 3445 01c6 2046     		mov	r0, r4
 3446              		.loc 1 718 0
 3447 01c8 ADF80610 		strh	r1, [sp, #6]	@ movhi
 3448              		.loc 1 719 0
 3449 01cc 0DEB0302 		add	r2, sp, r3
 3450 01d0 49F20A01 		movw	r1, #36874
 3451              		.loc 1 717 0
 3452 01d4 ADF80450 		strh	r5, [sp, #4]	@ movhi
 3453              		.loc 1 719 0
 3454 01d8 FFF7FEFF 		bl	AsebaSendMessage
 3455              	.LVL410:
 3456              	.LBE388:
 3457              	.LBE390:
 3458              	.LBE401:
 3459              	.LBE404:
 3460              		.loc 1 667 0
 3461 01dc 0120     		movs	r0, #1
 3462 01de 4AE7     		b	.L390
 3463              	.LVL411:
 3464              	.L583:
 3465              	.LBB405:
 3466              	.LBB377:
 3467              		.loc 1 584 0
 3468 01e0 03F00503 		and	r3, r3, #5
 3469 01e4 43F00403 		orr	r3, r3, #4
 3470 01e8 052B     		cmp	r3, #5
 3471 01ea E3D1     		bne	.L403
 3472              	.LBB365:
 3473              	.LBB359:
 3474              	.LBB334:
 3475              	.LBB335:
 3476              		.loc 1 334 0
 3477 01ec DFF86490 		ldr	r9, .L602+4
ARM GAS  C:\Users\mathi\AppData\Local\Temp\ccF8t5t9.s 			page 62


 3478              	.LBE335:
 3479              	.LBE334:
 3480              	.LBB337:
 3481              		.loc 1 430 0
 3482 01f0 6FF00047 		mvn	r7, #-2147483648
 3483              		.loc 1 436 0
 3484 01f4 4FF00208 		mov	r8, #2
 3485              	.L431:
 3486              	.LVL412:
 3487              	.LBE337:
 3488              		.loc 1 171 0
 3489 01f8 618B     		ldrh	r1, [r4, #26]
 3490 01fa 6068     		ldr	r0, [r4, #4]
 3491 01fc 30F811A0 		ldrh	r10, [r0, r1, lsl #1]
 3492              	.LVL413:
 3493              		.loc 1 178 0
 3494 0200 4FEA1A33 		lsr	r3, r10, #12
 3495              		.loc 1 171 0
 3496 0204 4FEA410C 		lsl	ip, r1, #1
 3497              		.loc 1 178 0
 3498 0208 0E2B     		cmp	r3, #14
 3499 020a CCD8     		bhi	.L404
 3500 020c 0FF2040E 		adr	lr, .L406
 3501 0210 5EF823F0 		ldr	pc, [lr, r3, lsl #2]
 3502              		.p2align 2
 3503              	.L406:
 3504 0214 41030000 		.word	.L405+1
 3505 0218 67030000 		.word	.L407+1
 3506 021c 4B030000 		.word	.L408+1
 3507 0220 01040000 		.word	.L409+1
 3508 0224 DF030000 		.word	.L410+1
 3509 0228 BD030000 		.word	.L411+1
 3510 022c 83030000 		.word	.L412+1
 3511 0230 CD040000 		.word	.L413+1
 3512 0234 97040000 		.word	.L414+1
 3513 0238 8B040000 		.word	.L415+1
 3514 023c 57010000 		.word	.L416+1
 3515 0240 67040000 		.word	.L417+1
 3516 0244 53040000 		.word	.L418+1
 3517 0248 37040000 		.word	.L419+1
 3518 024c 23040000 		.word	.L420+1
 3519              		.p2align 1
 3520              	.L603:
 3521              		.align	2
 3522              	.L602:
 3523 0250 00000000 		.word	__stack_chk_guard
 3524 0254 00000000 		.word	AsebaVMErrorCB
 3525              	.LVL414:
 3526              	.L392:
 3527              	.LBE359:
 3528              	.LBE365:
 3529              	.LBE377:
 3530              	.LBE405:
 3531              	.LBB406:
 3532              	.LBB402:
 3533              		.loc 1 615 0
 3534 0258 052B     		cmp	r3, #5
ARM GAS  C:\Users\mathi\AppData\Local\Temp\ccF8t5t9.s 			page 63


 3535 025a ABD1     		bne	.L403
 3536              	.L395:
 3537              	.LVL415:
 3538              	.LBB391:
 3539              	.LBB392:
 3540              		.loc 1 563 0
 3541 025c 0029     		cmp	r1, #0
 3542 025e 4ED0     		beq	.L396
 3543              		.loc 1 565 0
 3544 0260 678B     		ldrh	r7, [r4, #26]
 3545 0262 E38B     		ldrh	r3, [r4, #30]
 3546 0264 BB42     		cmp	r3, r7
 3547 0266 5AD0     		beq	.L397
 3548              	.LVL416:
 3549              		.loc 1 563 0
 3550 0268 0129     		cmp	r1, #1
 3551 026a 48D9     		bls	.L396
 3552              		.loc 1 565 0
 3553 026c 238C     		ldrh	r3, [r4, #32]
 3554 026e BB42     		cmp	r3, r7
 3555 0270 55D0     		beq	.L397
 3556              	.LVL417:
 3557              		.loc 1 563 0
 3558 0272 0229     		cmp	r1, #2
 3559 0274 43D0     		beq	.L396
 3560              		.loc 1 565 0
 3561 0276 638C     		ldrh	r3, [r4, #34]
 3562 0278 BB42     		cmp	r3, r7
 3563 027a 50D0     		beq	.L397
 3564              	.LVL418:
 3565              		.loc 1 563 0
 3566 027c 0329     		cmp	r1, #3
 3567 027e 3ED0     		beq	.L396
 3568              		.loc 1 565 0
 3569 0280 A38C     		ldrh	r3, [r4, #36]
 3570 0282 BB42     		cmp	r3, r7
 3571 0284 4BD0     		beq	.L397
 3572              	.LVL419:
 3573              		.loc 1 563 0
 3574 0286 0429     		cmp	r1, #4
 3575 0288 39D0     		beq	.L396
 3576              		.loc 1 565 0
 3577 028a E38C     		ldrh	r3, [r4, #38]
 3578 028c BB42     		cmp	r3, r7
 3579 028e 46D0     		beq	.L397
 3580              	.LVL420:
 3581              		.loc 1 563 0
 3582 0290 0529     		cmp	r1, #5
 3583 0292 34D0     		beq	.L396
 3584              		.loc 1 565 0
 3585 0294 238D     		ldrh	r3, [r4, #40]
 3586 0296 BB42     		cmp	r3, r7
 3587 0298 41D0     		beq	.L397
 3588              	.LVL421:
 3589              		.loc 1 563 0
 3590 029a 0629     		cmp	r1, #6
 3591 029c 2FD0     		beq	.L396
ARM GAS  C:\Users\mathi\AppData\Local\Temp\ccF8t5t9.s 			page 64


 3592              		.loc 1 565 0
 3593 029e 638D     		ldrh	r3, [r4, #42]
 3594 02a0 BB42     		cmp	r3, r7
 3595 02a2 3CD0     		beq	.L397
 3596              	.LVL422:
 3597              		.loc 1 563 0
 3598 02a4 0729     		cmp	r1, #7
 3599 02a6 2AD0     		beq	.L396
 3600              		.loc 1 565 0
 3601 02a8 A38D     		ldrh	r3, [r4, #44]
 3602 02aa BB42     		cmp	r3, r7
 3603 02ac 37D0     		beq	.L397
 3604              	.LVL423:
 3605              		.loc 1 563 0
 3606 02ae 0829     		cmp	r1, #8
 3607 02b0 25D0     		beq	.L396
 3608              		.loc 1 565 0
 3609 02b2 E38D     		ldrh	r3, [r4, #46]
 3610 02b4 BB42     		cmp	r3, r7
 3611 02b6 32D0     		beq	.L397
 3612              	.LVL424:
 3613              		.loc 1 563 0
 3614 02b8 0929     		cmp	r1, #9
 3615 02ba 20D0     		beq	.L396
 3616              		.loc 1 565 0
 3617 02bc 238E     		ldrh	r3, [r4, #48]
 3618 02be BB42     		cmp	r3, r7
 3619 02c0 2DD0     		beq	.L397
 3620              	.LVL425:
 3621              		.loc 1 563 0
 3622 02c2 0A29     		cmp	r1, #10
 3623 02c4 1BD0     		beq	.L396
 3624              		.loc 1 565 0
 3625 02c6 638E     		ldrh	r3, [r4, #50]
 3626 02c8 BB42     		cmp	r3, r7
 3627 02ca 28D0     		beq	.L397
 3628              	.LVL426:
 3629              		.loc 1 563 0
 3630 02cc 0B29     		cmp	r1, #11
 3631 02ce 16D0     		beq	.L396
 3632              		.loc 1 565 0
 3633 02d0 A38E     		ldrh	r3, [r4, #52]
 3634 02d2 BB42     		cmp	r3, r7
 3635 02d4 23D0     		beq	.L397
 3636              	.LVL427:
 3637              		.loc 1 563 0
 3638 02d6 0C29     		cmp	r1, #12
 3639 02d8 11D0     		beq	.L396
 3640              		.loc 1 565 0
 3641 02da E38E     		ldrh	r3, [r4, #54]
 3642 02dc BB42     		cmp	r3, r7
 3643 02de 1ED0     		beq	.L397
 3644              	.LVL428:
 3645              		.loc 1 563 0
 3646 02e0 0D29     		cmp	r1, #13
 3647 02e2 0CD0     		beq	.L396
 3648              		.loc 1 565 0
ARM GAS  C:\Users\mathi\AppData\Local\Temp\ccF8t5t9.s 			page 65


 3649 02e4 238F     		ldrh	r3, [r4, #56]
 3650 02e6 BB42     		cmp	r3, r7
 3651 02e8 19D0     		beq	.L397
 3652              	.LVL429:
 3653              		.loc 1 563 0
 3654 02ea 0E29     		cmp	r1, #14
 3655 02ec 07D0     		beq	.L396
 3656              		.loc 1 565 0
 3657 02ee 638F     		ldrh	r3, [r4, #58]
 3658 02f0 BB42     		cmp	r3, r7
 3659 02f2 14D0     		beq	.L397
 3660              	.LVL430:
 3661              		.loc 1 563 0
 3662 02f4 0F29     		cmp	r1, #15
 3663 02f6 02D0     		beq	.L396
 3664              		.loc 1 565 0
 3665 02f8 A38F     		ldrh	r3, [r4, #60]
 3666 02fa BB42     		cmp	r3, r7
 3667 02fc 0FD0     		beq	.L397
 3668              	.LVL431:
 3669              	.L396:
 3670              	.LBE392:
 3671              	.LBE391:
 3672              		.loc 1 626 0
 3673 02fe 2046     		mov	r0, r4
 3674 0300 FFF7FEFF 		bl	AsebaVMStep
 3675              	.LVL432:
 3676              		.loc 1 615 0
 3677 0304 228B     		ldrh	r2, [r4, #24]
 3678 0306 02F00503 		and	r3, r2, #5
 3679              		.loc 1 627 0
 3680 030a 013D     		subs	r5, r5, #1
 3681              	.LVL433:
 3682              		.loc 1 615 0
 3683 030c 052B     		cmp	r3, #5
 3684              		.loc 1 627 0
 3685 030e ADB2     		uxth	r5, r5
 3686              	.LVL434:
 3687              		.loc 1 615 0
 3688 0310 7FF450AF 		bne	.L403
 3689              		.loc 1 616 0
 3690 0314 002D     		cmp	r5, #0
 3691 0316 3FF44DAF 		beq	.L403
 3692 031a E18F     		ldrh	r1, [r4, #62]
 3693 031c 9EE7     		b	.L395
 3694              	.L397:
 3695              	.LBB395:
 3696              	.LBB393:
 3697              		.loc 1 567 0
 3698 031e 42F00201 		orr	r1, r2, #2
 3699              	.LBE393:
 3700              	.LBE395:
 3701              	.LBB396:
 3702              	.LBB397:
 3703              		.loc 1 719 0
 3704 0322 0423     		movs	r3, #4
 3705              	.LBE397:
ARM GAS  C:\Users\mathi\AppData\Local\Temp\ccF8t5t9.s 			page 66


 3706              	.LBE396:
 3707              	.LBB399:
 3708              	.LBB394:
 3709              		.loc 1 567 0
 3710 0324 2183     		strh	r1, [r4, #24]	@ movhi
 3711              	.LVL435:
 3712              	.LBE394:
 3713              	.LBE399:
 3714              	.LBB400:
 3715              	.LBB398:
 3716              		.loc 1 719 0
 3717 0326 2046     		mov	r0, r4
 3718              		.loc 1 718 0
 3719 0328 ADF80610 		strh	r1, [sp, #6]	@ movhi
 3720              		.loc 1 719 0
 3721 032c 0DEB0302 		add	r2, sp, r3
 3722 0330 49F20A01 		movw	r1, #36874
 3723              		.loc 1 717 0
 3724 0334 ADF80470 		strh	r7, [sp, #4]	@ movhi
 3725              		.loc 1 719 0
 3726 0338 FFF7FEFF 		bl	AsebaSendMessage
 3727              	.LVL436:
 3728              	.LBE398:
 3729              	.LBE400:
 3730              	.LBE402:
 3731              	.LBE406:
 3732              		.loc 1 667 0
 3733 033c 0120     		movs	r0, #1
 3734 033e 9AE6     		b	.L390
 3735              	.LVL437:
 3736              	.L405:
 3737              	.LBB407:
 3738              	.LBB378:
 3739              	.LBB366:
 3740              	.LBB360:
 3741              		.loc 1 183 0
 3742 0340 22F00102 		bic	r2, r2, #1
 3743 0344 92B2     		uxth	r2, r2
 3744 0346 2283     		strh	r2, [r4, #24]	@ movhi
 3745 0348 2DE7     		b	.L404
 3746              	.L408:
 3747              		.loc 1 216 0
 3748 034a A28B     		ldrh	r2, [r4, #28]
 3749 034c 6369     		ldr	r3, [r4, #20]
 3750 034e 6044     		add	r0, r0, ip
 3751 0350 0132     		adds	r2, r2, #1
 3752 0352 12B2     		sxth	r2, r2
 3753 0354 4188     		ldrh	r1, [r0, #2]
 3754 0356 A283     		strh	r2, [r4, #28]	@ movhi
 3755              	.LVL438:
 3756              	.L589:
 3757              	.LBB338:
 3758              		.loc 1 298 0
 3759 0358 23F81210 		strh	r1, [r3, r2, lsl #1]	@ movhi
 3760              		.loc 1 301 0
 3761 035c 638B     		ldrh	r3, [r4, #26]
 3762 035e 228B     		ldrh	r2, [r4, #24]
ARM GAS  C:\Users\mathi\AppData\Local\Temp\ccF8t5t9.s 			page 67


 3763 0360 0233     		adds	r3, r3, #2
 3764 0362 6383     		strh	r3, [r4, #26]	@ movhi
 3765 0364 1FE7     		b	.L404
 3766              	.LVL439:
 3767              	.L407:
 3768              	.LBE338:
 3769              	.LBB339:
 3770              		.loc 1 199 0
 3771 0366 A38B     		ldrh	r3, [r4, #28]
 3772 0368 6269     		ldr	r2, [r4, #20]
 3773 036a 0133     		adds	r3, r3, #1
 3774 036c 1BB2     		sxth	r3, r3
 3775              		.loc 1 190 0
 3776 036e 4AF30B0A 		sbfx	r10, r10, #0, #12
 3777              	.LVL440:
 3778              		.loc 1 199 0
 3779 0372 A383     		strh	r3, [r4, #28]	@ movhi
 3780              	.LVL441:
 3781 0374 22F813A0 		strh	r10, [r2, r3, lsl #1]	@ movhi
 3782              		.loc 1 202 0
 3783 0378 638B     		ldrh	r3, [r4, #26]
 3784 037a 228B     		ldrh	r2, [r4, #24]
 3785 037c 0133     		adds	r3, r3, #1
 3786 037e 6383     		strh	r3, [r4, #26]	@ movhi
 3787 0380 11E7     		b	.L404
 3788              	.LVL442:
 3789              	.L412:
 3790              	.LBE339:
 3791              	.LBB340:
 3792              		.loc 1 321 0
 3793 0382 6044     		add	r0, r0, ip
 3794              		.loc 1 323 0
 3795 0384 B4F91C30 		ldrsh	r3, [r4, #28]
 3796              		.loc 1 322 0
 3797 0388 6269     		ldr	r2, [r4, #20]
 3798              		.loc 1 321 0
 3799 038a 4088     		ldrh	r0, [r0, #2]
 3800              	.LVL443:
 3801              		.loc 1 323 0
 3802 038c 32F813C0 		ldrh	ip, [r2, r3, lsl #1]
 3803              	.LVL444:
 3804              		.loc 1 326 0
 3805 0390 6045     		cmp	r0, ip
 3806              		.loc 1 323 0
 3807 0392 4FEA4303 		lsl	r3, r3, #1
 3808              	.LVL445:
 3809              		.loc 1 326 0
 3810 0396 40F2B581 		bls	.L595
 3811              		.loc 1 322 0
 3812 039a 1344     		add	r3, r3, r2
 3813              		.loc 1 340 0
 3814 039c CAF30B0A 		ubfx	r10, r10, #0, #12
 3815              	.LVL446:
 3816 03a0 E268     		ldr	r2, [r4, #12]
 3817              	.LVL447:
 3818              		.loc 1 322 0
 3819 03a2 33F9023C 		ldrsh	r3, [r3, #-2]
ARM GAS  C:\Users\mathi\AppData\Local\Temp\ccF8t5t9.s 			page 68


 3820              		.loc 1 340 0
 3821 03a6 D444     		add	ip, ip, r10
 3822              	.LVL448:
 3823 03a8 22F81C30 		strh	r3, [r2, ip, lsl #1]	@ movhi
 3824              	.LVL449:
 3825              		.loc 1 341 0
 3826 03ac A18B     		ldrh	r1, [r4, #28]
 3827              		.loc 1 344 0
 3828 03ae 638B     		ldrh	r3, [r4, #26]
 3829 03b0 228B     		ldrh	r2, [r4, #24]
 3830              		.loc 1 341 0
 3831 03b2 0239     		subs	r1, r1, #2
 3832              		.loc 1 344 0
 3833 03b4 0233     		adds	r3, r3, #2
 3834              		.loc 1 341 0
 3835 03b6 A183     		strh	r1, [r4, #28]	@ movhi
 3836              		.loc 1 344 0
 3837 03b8 6383     		strh	r3, [r4, #26]	@ movhi
 3838 03ba F4E6     		b	.L404
 3839              	.LVL450:
 3840              	.L411:
 3841              	.LBE340:
 3842              	.LBB341:
 3843              		.loc 1 280 0
 3844 03bc 6044     		add	r0, r0, ip
 3845              		.loc 1 281 0
 3846 03be B4F91C20 		ldrsh	r2, [r4, #28]
 3847 03c2 6369     		ldr	r3, [r4, #20]
 3848              		.loc 1 280 0
 3849 03c4 4088     		ldrh	r0, [r0, #2]
 3850              	.LVL451:
 3851              		.loc 1 281 0
 3852 03c6 33F812C0 		ldrh	ip, [r3, r2, lsl #1]
 3853              	.LVL452:
 3854              		.loc 1 284 0
 3855 03ca 6045     		cmp	r0, ip
 3856 03cc 40F29A81 		bls	.L595
 3857              		.loc 1 298 0
 3858 03d0 CAF30B0A 		ubfx	r10, r10, #0, #12
 3859              	.LVL453:
 3860 03d4 D444     		add	ip, ip, r10
 3861              	.LVL454:
 3862 03d6 E168     		ldr	r1, [r4, #12]
 3863              	.LVL455:
 3864 03d8 31F91C10 		ldrsh	r1, [r1, ip, lsl #1]
 3865 03dc BCE7     		b	.L589
 3866              	.LVL456:
 3867              	.L410:
 3868              	.LBE341:
 3869              	.LBB342:
 3870              		.loc 1 258 0
 3871 03de B4F91C30 		ldrsh	r3, [r4, #28]
 3872 03e2 6169     		ldr	r1, [r4, #20]
 3873 03e4 5A1E     		subs	r2, r3, #1
 3874 03e6 A283     		strh	r2, [r4, #28]	@ movhi
 3875 03e8 CAF30B0A 		ubfx	r10, r10, #0, #12
 3876              	.LVL457:
ARM GAS  C:\Users\mathi\AppData\Local\Temp\ccF8t5t9.s 			page 69


 3877 03ec E268     		ldr	r2, [r4, #12]
 3878 03ee 31F91330 		ldrsh	r3, [r1, r3, lsl #1]
 3879 03f2 22F81A30 		strh	r3, [r2, r10, lsl #1]	@ movhi
 3880              		.loc 1 261 0
 3881 03f6 638B     		ldrh	r3, [r4, #26]
 3882 03f8 228B     		ldrh	r2, [r4, #24]
 3883 03fa 0133     		adds	r3, r3, #1
 3884 03fc 6383     		strh	r3, [r4, #26]	@ movhi
 3885 03fe D2E6     		b	.L404
 3886              	.LVL458:
 3887              	.L409:
 3888              	.LBE342:
 3889              	.LBB343:
 3890              		.loc 1 237 0
 3891 0400 A38B     		ldrh	r3, [r4, #28]
 3892 0402 E168     		ldr	r1, [r4, #12]
 3893 0404 6269     		ldr	r2, [r4, #20]
 3894 0406 0133     		adds	r3, r3, #1
 3895 0408 1BB2     		sxth	r3, r3
 3896 040a CAF30B0A 		ubfx	r10, r10, #0, #12
 3897              	.LVL459:
 3898 040e A383     		strh	r3, [r4, #28]	@ movhi
 3899              	.LVL460:
 3900 0410 31F91A10 		ldrsh	r1, [r1, r10, lsl #1]
 3901 0414 22F81310 		strh	r1, [r2, r3, lsl #1]	@ movhi
 3902              		.loc 1 240 0
 3903 0418 638B     		ldrh	r3, [r4, #26]
 3904 041a 228B     		ldrh	r2, [r4, #24]
 3905 041c 0133     		adds	r3, r3, #1
 3906 041e 6383     		strh	r3, [r4, #26]	@ movhi
 3907 0420 C1E6     		b	.L404
 3908              	.LVL461:
 3909              	.L420:
 3910              	.LBE343:
 3911              		.loc 1 522 0
 3912 0422 B4F91C30 		ldrsh	r3, [r4, #28]
 3913 0426 6269     		ldr	r2, [r4, #20]
 3914 0428 591E     		subs	r1, r3, #1
 3915 042a A183     		strh	r1, [r4, #28]	@ movhi
 3916 042c 32F81330 		ldrh	r3, [r2, r3, lsl #1]
 3917 0430 6383     		strh	r3, [r4, #26]	@ movhi
 3918 0432 228B     		ldrh	r2, [r4, #24]
 3919 0434 B7E6     		b	.L404
 3920              	.L419:
 3921              	.LVL462:
 3922              	.LBB344:
 3923              		.loc 1 505 0
 3924 0436 A38B     		ldrh	r3, [r4, #28]
 3925 0438 6269     		ldr	r2, [r4, #20]
 3926 043a 0133     		adds	r3, r3, #1
 3927 043c 1BB2     		sxth	r3, r3
 3928 043e 0131     		adds	r1, r1, #1
 3929 0440 A383     		strh	r3, [r4, #28]	@ movhi
 3930 0442 22F81310 		strh	r1, [r2, r3, lsl #1]	@ movhi
 3931              		.loc 1 496 0
 3932 0446 CAF30B0A 		ubfx	r10, r10, #0, #12
 3933              	.LVL463:
ARM GAS  C:\Users\mathi\AppData\Local\Temp\ccF8t5t9.s 			page 70


 3934              		.loc 1 508 0
 3935 044a A4F81AA0 		strh	r10, [r4, #26]	@ movhi
 3936 044e 228B     		ldrh	r2, [r4, #24]
 3937 0450 A9E6     		b	.L404
 3938              	.LVL464:
 3939              	.L418:
 3940              	.LBE344:
 3941              		.loc 1 486 0
 3942 0452 CAF30B01 		ubfx	r1, r10, #0, #12
 3943 0456 2046     		mov	r0, r4
 3944 0458 FFF7FEFF 		bl	AsebaNativeFunction
 3945              	.LVL465:
 3946              		.loc 1 489 0
 3947 045c 638B     		ldrh	r3, [r4, #26]
 3948 045e 228B     		ldrh	r2, [r4, #24]
 3949 0460 0133     		adds	r3, r3, #1
 3950 0462 6383     		strh	r3, [r4, #26]	@ movhi
 3951 0464 9FE6     		b	.L404
 3952              	.L417:
 3953              	.LVL466:
 3954              	.LBB345:
 3955              		.loc 1 469 0
 3956 0466 6044     		add	r0, r0, ip
 3957              	.LVL467:
 3958              		.loc 1 475 0
 3959 0468 E268     		ldr	r2, [r4, #12]
 3960 046a 8388     		ldrh	r3, [r0, #4]
 3961 046c 4088     		ldrh	r0, [r0, #2]
 3962 046e 5B00     		lsls	r3, r3, #1
 3963 0470 02EB4002 		add	r2, r2, r0, lsl #1
 3964 0474 9BB2     		uxth	r3, r3
 3965 0476 CAF30B01 		ubfx	r1, r10, #0, #12
 3966 047a 2046     		mov	r0, r4
 3967 047c FFF7FEFF 		bl	AsebaSendMessage
 3968              	.LVL468:
 3969              		.loc 1 478 0
 3970 0480 638B     		ldrh	r3, [r4, #26]
 3971 0482 228B     		ldrh	r2, [r4, #24]
 3972 0484 0333     		adds	r3, r3, #3
 3973 0486 6383     		strh	r3, [r4, #26]	@ movhi
 3974 0488 8DE6     		b	.L404
 3975              	.L415:
 3976              	.LVL469:
 3977              	.LBE345:
 3978              	.LBB346:
 3979              		.loc 1 403 0
 3980 048a 4AF30B0A 		sbfx	r10, r10, #0, #12
 3981              	.LVL470:
 3982              		.loc 1 412 0
 3983 048e 5144     		add	r1, r1, r10
 3984              	.LVL471:
 3985 0490 6183     		strh	r1, [r4, #26]	@ movhi
 3986              	.LVL472:
 3987              	.L588:
 3988 0492 228B     		ldrh	r2, [r4, #24]
 3989 0494 87E6     		b	.L404
 3990              	.LVL473:
ARM GAS  C:\Users\mathi\AppData\Local\Temp\ccF8t5t9.s 			page 71


 3991              	.L414:
 3992              	.LBE346:
 3993              	.LBB347:
 3994              		.loc 1 385 0
 3995 0496 B4F91C10 		ldrsh	r1, [r4, #28]
 3996 049a 6069     		ldr	r0, [r4, #20]
 3997 049c 3944     		add	r1, r1, r7
 3998              	.LVL474:
 3999              		.loc 1 386 0
 4000 049e 00EB4102 		add	r2, r0, r1, lsl #1
 4001              		.loc 1 389 0
 4002 04a2 5FFA8AF3 		uxtb	r3, r10
 4003 04a6 B2F90220 		ldrsh	r2, [r2, #2]
 4004 04aa 30F91110 		ldrsh	r1, [r0, r1, lsl #1]
 4005              	.LVL475:
 4006 04ae 2046     		mov	r0, r4
 4007              	.LVL476:
 4008 04b0 FFF7FEFF 		bl	AsebaVMDoBinaryOperation
 4009              	.LVL477:
 4010              		.loc 1 392 0
 4011 04b4 A38B     		ldrh	r3, [r4, #28]
 4012              		.loc 1 393 0
 4013 04b6 6269     		ldr	r2, [r4, #20]
 4014              		.loc 1 392 0
 4015 04b8 013B     		subs	r3, r3, #1
 4016 04ba 1BB2     		sxth	r3, r3
 4017 04bc A383     		strh	r3, [r4, #28]	@ movhi
 4018              		.loc 1 393 0
 4019 04be 22F81300 		strh	r0, [r2, r3, lsl #1]	@ movhi
 4020              		.loc 1 396 0
 4021 04c2 638B     		ldrh	r3, [r4, #26]
 4022 04c4 228B     		ldrh	r2, [r4, #24]
 4023 04c6 0133     		adds	r3, r3, #1
 4024 04c8 6383     		strh	r3, [r4, #26]	@ movhi
 4025 04ca 6CE6     		b	.L404
 4026              	.LVL478:
 4027              	.L413:
 4028              	.LBE347:
 4029              	.LBB348:
 4030              		.loc 1 360 0
 4031 04cc B4F91C10 		ldrsh	r1, [r4, #28]
 4032 04d0 6269     		ldr	r2, [r4, #20]
 4033              	.LBB349:
 4034              	.LBB350:
 4035              		.loc 1 153 0
 4036 04d2 5FFA8AFA 		uxtb	r10, r10
 4037              	.LVL479:
 4038 04d6 BAF1010F 		cmp	r10, #1
 4039              	.LBE350:
 4040              	.LBE349:
 4041              		.loc 1 360 0
 4042 04da 32F91130 		ldrsh	r3, [r2, r1, lsl #1]
 4043              	.LVL480:
 4044              	.LBB353:
 4045              	.LBB351:
 4046              		.loc 1 153 0
 4047 04de 00F05E81 		beq	.L426
ARM GAS  C:\Users\mathi\AppData\Local\Temp\ccF8t5t9.s 			page 72


 4048 04e2 C0F05981 		bcc	.L427
 4049 04e6 BAF1020F 		cmp	r10, #2
 4050 04ea 40F05D81 		bne	.L600
 4051              		.loc 1 157 0
 4052 04ee DB43     		mvns	r3, r3
 4053              	.LVL481:
 4054              	.L425:
 4055              	.LBE351:
 4056              	.LBE353:
 4057              		.loc 1 366 0
 4058 04f0 22F81130 		strh	r3, [r2, r1, lsl #1]	@ movhi
 4059              	.LVL482:
 4060              		.loc 1 369 0
 4061 04f4 638B     		ldrh	r3, [r4, #26]
 4062 04f6 228B     		ldrh	r2, [r4, #24]
 4063 04f8 0133     		adds	r3, r3, #1
 4064 04fa 6383     		strh	r3, [r4, #26]	@ movhi
 4065 04fc 53E6     		b	.L404
 4066              	.LVL483:
 4067              	.L457:
 4068              	.LBE348:
 4069              	.LBE360:
 4070              	.LBE366:
 4071              	.LBB367:
 4072              	.LBB326:
 4073              		.loc 1 522 0
 4074 04fe B4F91C30 		ldrsh	r3, [r4, #28]
 4075 0502 6169     		ldr	r1, [r4, #20]
 4076              	.LVL484:
 4077 0504 581E     		subs	r0, r3, #1
 4078              	.LVL485:
 4079 0506 A083     		strh	r0, [r4, #28]	@ movhi
 4080              	.LVL486:
 4081 0508 31F81330 		ldrh	r3, [r1, r3, lsl #1]
 4082 050c 6383     		strh	r3, [r4, #26]	@ movhi
 4083 050e 95E5     		b	.L402
 4084              	.LVL487:
 4085              	.L455:
 4086              		.loc 1 486 0
 4087 0510 C5F30B01 		ubfx	r1, r5, #0, #12
 4088              	.LVL488:
 4089 0514 2046     		mov	r0, r4
 4090              	.LVL489:
 4091 0516 FFF7FEFF 		bl	AsebaNativeFunction
 4092              	.LVL490:
 4093              	.L590:
 4094              		.loc 1 489 0
 4095 051a 638B     		ldrh	r3, [r4, #26]
 4096 051c 228B     		ldrh	r2, [r4, #24]
 4097 051e 0133     		adds	r3, r3, #1
 4098 0520 6383     		strh	r3, [r4, #26]	@ movhi
 4099 0522 02F0050C 		and	ip, r2, #5
 4100 0526 89E5     		b	.L402
 4101              	.LVL491:
 4102              	.L454:
 4103              	.LBB305:
 4104              		.loc 1 468 0
ARM GAS  C:\Users\mathi\AppData\Local\Temp\ccF8t5t9.s 			page 73


 4105 0528 0131     		adds	r1, r1, #1
 4106              	.LVL492:
 4107              		.loc 1 469 0
 4108 052a 00EB4103 		add	r3, r0, r1, lsl #1
 4109              		.loc 1 475 0
 4110 052e E268     		ldr	r2, [r4, #12]
 4111 0530 5B88     		ldrh	r3, [r3, #2]
 4112 0532 30F81100 		ldrh	r0, [r0, r1, lsl #1]
 4113              	.LVL493:
 4114 0536 5B00     		lsls	r3, r3, #1
 4115 0538 02EB4002 		add	r2, r2, r0, lsl #1
 4116 053c 9BB2     		uxth	r3, r3
 4117 053e C5F30B01 		ubfx	r1, r5, #0, #12
 4118              	.LVL494:
 4119 0542 2046     		mov	r0, r4
 4120 0544 FFF7FEFF 		bl	AsebaSendMessage
 4121              	.LVL495:
 4122              		.loc 1 478 0
 4123 0548 638B     		ldrh	r3, [r4, #26]
 4124 054a 228B     		ldrh	r2, [r4, #24]
 4125 054c 0333     		adds	r3, r3, #3
 4126 054e 6383     		strh	r3, [r4, #26]	@ movhi
 4127 0550 02F0050C 		and	ip, r2, #5
 4128 0554 72E5     		b	.L402
 4129              	.LVL496:
 4130              	.L441:
 4131              	.LBE305:
 4132              	.LBB306:
 4133              		.loc 1 323 0
 4134 0556 B4F91C30 		ldrsh	r3, [r4, #28]
 4135              		.loc 1 322 0
 4136 055a D4F814E0 		ldr	lr, [r4, #20]
 4137              		.loc 1 321 0
 4138 055e 4A1C     		adds	r2, r1, #1
 4139              		.loc 1 323 0
 4140 0560 3EF813C0 		ldrh	ip, [lr, r3, lsl #1]
 4141              		.loc 1 321 0
 4142 0564 30F81200 		ldrh	r0, [r0, r2, lsl #1]
 4143              	.LVL497:
 4144              		.loc 1 326 0
 4145 0568 6045     		cmp	r0, ip
 4146              		.loc 1 323 0
 4147 056a 4FEA4303 		lsl	r3, r3, #1
 4148              	.LVL498:
 4149              		.loc 1 326 0
 4150 056e 40F2E180 		bls	.L597
 4151              		.loc 1 322 0
 4152 0572 7344     		add	r3, r3, lr
 4153              		.loc 1 340 0
 4154 0574 C5F30B05 		ubfx	r5, r5, #0, #12
 4155              	.LVL499:
 4156 0578 AC44     		add	ip, ip, r5
 4157              	.LVL500:
 4158 057a E268     		ldr	r2, [r4, #12]
 4159              		.loc 1 322 0
 4160 057c 33F9023C 		ldrsh	r3, [r3, #-2]
 4161              		.loc 1 340 0
ARM GAS  C:\Users\mathi\AppData\Local\Temp\ccF8t5t9.s 			page 74


 4162 0580 22F81C30 		strh	r3, [r2, ip, lsl #1]	@ movhi
 4163              	.LVL501:
 4164              		.loc 1 341 0
 4165 0584 A18B     		ldrh	r1, [r4, #28]
 4166              		.loc 1 344 0
 4167 0586 638B     		ldrh	r3, [r4, #26]
 4168 0588 228B     		ldrh	r2, [r4, #24]
 4169              		.loc 1 341 0
 4170 058a 0239     		subs	r1, r1, #2
 4171              		.loc 1 344 0
 4172 058c 0233     		adds	r3, r3, #2
 4173              		.loc 1 341 0
 4174 058e A183     		strh	r1, [r4, #28]	@ movhi
 4175              		.loc 1 344 0
 4176 0590 6383     		strh	r3, [r4, #26]	@ movhi
 4177 0592 02F0050C 		and	ip, r2, #5
 4178 0596 51E5     		b	.L402
 4179              	.LVL502:
 4180              	.L438:
 4181              	.LBE306:
 4182              	.LBB307:
 4183              		.loc 1 280 0
 4184 0598 4B1C     		adds	r3, r1, #1
 4185              		.loc 1 281 0
 4186 059a B4F91CE0 		ldrsh	lr, [r4, #28]
 4187 059e 6269     		ldr	r2, [r4, #20]
 4188              		.loc 1 280 0
 4189 05a0 30F81300 		ldrh	r0, [r0, r3, lsl #1]
 4190              	.LVL503:
 4191              		.loc 1 281 0
 4192 05a4 32F81EC0 		ldrh	ip, [r2, lr, lsl #1]
 4193              	.LVL504:
 4194              		.loc 1 284 0
 4195 05a8 6045     		cmp	r0, ip
 4196 05aa 40F2C380 		bls	.L597
 4197              		.loc 1 298 0
 4198 05ae C5F30B05 		ubfx	r5, r5, #0, #12
 4199              	.LVL505:
 4200 05b2 E368     		ldr	r3, [r4, #12]
 4201 05b4 AC44     		add	ip, ip, r5
 4202              	.LVL506:
 4203 05b6 33F91C30 		ldrsh	r3, [r3, ip, lsl #1]
 4204 05ba 22F81E30 		strh	r3, [r2, lr, lsl #1]	@ movhi
 4205              	.LVL507:
 4206              	.L591:
 4207              		.loc 1 301 0
 4208 05be 638B     		ldrh	r3, [r4, #26]
 4209 05c0 228B     		ldrh	r2, [r4, #24]
 4210 05c2 0233     		adds	r3, r3, #2
 4211 05c4 6383     		strh	r3, [r4, #26]	@ movhi
 4212 05c6 02F0050C 		and	ip, r2, #5
 4213 05ca 37E5     		b	.L402
 4214              	.LVL508:
 4215              	.L451:
 4216              	.LBE307:
 4217              	.LBB308:
 4218              		.loc 1 430 0
ARM GAS  C:\Users\mathi\AppData\Local\Temp\ccF8t5t9.s 			page 75


 4219 05cc B4F91C30 		ldrsh	r3, [r4, #28]
 4220 05d0 6269     		ldr	r2, [r4, #20]
 4221 05d2 3B44     		add	r3, r3, r7
 4222              	.LVL509:
 4223              		.loc 1 431 0
 4224 05d4 02EB4300 		add	r0, r2, r3, lsl #1
 4225              	.LVL510:
 4226              		.loc 1 432 0
 4227 05d8 32F91310 		ldrsh	r1, [r2, r3, lsl #1]
 4228              	.LVL511:
 4229 05dc B0F90220 		ldrsh	r2, [r0, #2]
 4230              	.LVL512:
 4231 05e0 EBB2     		uxtb	r3, r5
 4232              	.LVL513:
 4233 05e2 2046     		mov	r0, r4
 4234 05e4 FFF7FEFF 		bl	AsebaVMDoBinaryOperation
 4235              	.LVL514:
 4236              		.loc 1 433 0
 4237 05e8 A38B     		ldrh	r3, [r4, #28]
 4238 05ea 023B     		subs	r3, r3, #2
 4239 05ec A383     		strh	r3, [r4, #28]	@ movhi
 4240              		.loc 1 436 0
 4241 05ee 0028     		cmp	r0, #0
 4242 05f0 00F0C680 		beq	.L452
 4243 05f4 05F44075 		and	r5, r5, #768
 4244 05f8 B5F5407F 		cmp	r5, #768
 4245 05fc 6268     		ldr	r2, [r4, #4]
 4246 05fe 618B     		ldrh	r1, [r4, #26]
 4247 0600 00F0E280 		beq	.L453
 4248 0604 0225     		movs	r5, #2
 4249              	.L462:
 4250              		.loc 1 449 0
 4251 0606 32F81130 		ldrh	r3, [r2, r1, lsl #1]
 4252 060a 43F40073 		orr	r3, r3, #512
 4253 060e 22F81130 		strh	r3, [r2, r1, lsl #1]	@ movhi
 4254              	.LVL515:
 4255              	.L463:
 4256              		.loc 1 460 0
 4257 0612 638B     		ldrh	r3, [r4, #26]
 4258 0614 228B     		ldrh	r2, [r4, #24]
 4259 0616 2B44     		add	r3, r3, r5
 4260 0618 6383     		strh	r3, [r4, #26]	@ movhi
 4261 061a 02F0050C 		and	ip, r2, #5
 4262 061e 0DE5     		b	.L402
 4263              	.LVL516:
 4264              	.L450:
 4265              	.LBE308:
 4266              	.LBB309:
 4267              		.loc 1 403 0
 4268 0620 45F30B05 		sbfx	r5, r5, #0, #12
 4269              	.LVL517:
 4270              		.loc 1 412 0
 4271 0624 2944     		add	r1, r1, r5
 4272              	.LVL518:
 4273 0626 6183     		strh	r1, [r4, #26]	@ movhi
 4274              	.LVL519:
 4275 0628 08E5     		b	.L402
ARM GAS  C:\Users\mathi\AppData\Local\Temp\ccF8t5t9.s 			page 76


 4276              	.LVL520:
 4277              	.L449:
 4278              	.LBE309:
 4279              	.LBB310:
 4280              		.loc 1 385 0
 4281 062a B4F91C10 		ldrsh	r1, [r4, #28]
 4282              	.LVL521:
 4283 062e 6069     		ldr	r0, [r4, #20]
 4284              	.LVL522:
 4285 0630 3944     		add	r1, r1, r7
 4286              	.LVL523:
 4287              		.loc 1 386 0
 4288 0632 00EB4102 		add	r2, r0, r1, lsl #1
 4289              		.loc 1 389 0
 4290 0636 EBB2     		uxtb	r3, r5
 4291 0638 B2F90220 		ldrsh	r2, [r2, #2]
 4292 063c 30F91110 		ldrsh	r1, [r0, r1, lsl #1]
 4293              	.LVL524:
 4294 0640 2046     		mov	r0, r4
 4295              	.LVL525:
 4296 0642 FFF7FEFF 		bl	AsebaVMDoBinaryOperation
 4297              	.LVL526:
 4298              		.loc 1 392 0
 4299 0646 A38B     		ldrh	r3, [r4, #28]
 4300              		.loc 1 393 0
 4301 0648 6269     		ldr	r2, [r4, #20]
 4302              		.loc 1 392 0
 4303 064a 013B     		subs	r3, r3, #1
 4304 064c 1BB2     		sxth	r3, r3
 4305 064e A383     		strh	r3, [r4, #28]	@ movhi
 4306              		.loc 1 393 0
 4307 0650 22F81300 		strh	r0, [r2, r3, lsl #1]	@ movhi
 4308 0654 61E7     		b	.L590
 4309              	.LVL527:
 4310              	.L444:
 4311              	.LBE310:
 4312              	.LBB311:
 4313              		.loc 1 360 0
 4314 0656 B4F91C10 		ldrsh	r1, [r4, #28]
 4315              	.LVL528:
 4316 065a 6269     		ldr	r2, [r4, #20]
 4317              	.LBB312:
 4318              	.LBB313:
 4319              		.loc 1 153 0
 4320 065c EDB2     		uxtb	r5, r5
 4321 065e 012D     		cmp	r5, #1
 4322              	.LBE313:
 4323              	.LBE312:
 4324              		.loc 1 360 0
 4325 0660 32F91130 		ldrsh	r3, [r2, r1, lsl #1]
 4326              	.LVL529:
 4327              	.LBB316:
 4328              	.LBB314:
 4329              		.loc 1 153 0
 4330 0664 00F0A780 		beq	.L446
 4331 0668 C0F0A280 		bcc	.L447
 4332 066c 022D     		cmp	r5, #2
ARM GAS  C:\Users\mathi\AppData\Local\Temp\ccF8t5t9.s 			page 77


 4333 066e 40F09D80 		bne	.L601
 4334              		.loc 1 157 0
 4335 0672 DB43     		mvns	r3, r3
 4336              	.LVL530:
 4337              	.L445:
 4338              	.LBE314:
 4339              	.LBE316:
 4340              		.loc 1 366 0
 4341 0674 22F81130 		strh	r3, [r2, r1, lsl #1]	@ movhi
 4342              	.LVL531:
 4343 0678 4FE7     		b	.L590
 4344              	.LVL532:
 4345              	.L456:
 4346              	.LBE311:
 4347              	.LBB318:
 4348              		.loc 1 505 0
 4349 067a A38B     		ldrh	r3, [r4, #28]
 4350 067c 6269     		ldr	r2, [r4, #20]
 4351 067e 0133     		adds	r3, r3, #1
 4352 0680 1BB2     		sxth	r3, r3
 4353 0682 0131     		adds	r1, r1, #1
 4354              	.LVL533:
 4355 0684 A383     		strh	r3, [r4, #28]	@ movhi
 4356              	.LVL534:
 4357 0686 22F81310 		strh	r1, [r2, r3, lsl #1]	@ movhi
 4358 068a 228B     		ldrh	r2, [r4, #24]
 4359              		.loc 1 496 0
 4360 068c C5F30B05 		ubfx	r5, r5, #0, #12
 4361              	.LVL535:
 4362              		.loc 1 508 0
 4363 0690 6583     		strh	r5, [r4, #26]	@ movhi
 4364 0692 02F0050C 		and	ip, r2, #5
 4365 0696 D1E4     		b	.L402
 4366              	.LVL536:
 4367              	.L435:
 4368              	.LBE318:
 4369              		.loc 1 216 0
 4370 0698 A38B     		ldrh	r3, [r4, #28]
 4371 069a 6269     		ldr	r2, [r4, #20]
 4372 069c 0131     		adds	r1, r1, #1
 4373              	.LVL537:
 4374 069e 0133     		adds	r3, r3, #1
 4375 06a0 1BB2     		sxth	r3, r3
 4376 06a2 30F81110 		ldrh	r1, [r0, r1, lsl #1]
 4377              	.LVL538:
 4378 06a6 A383     		strh	r3, [r4, #28]	@ movhi
 4379              	.LVL539:
 4380 06a8 22F81310 		strh	r1, [r2, r3, lsl #1]	@ movhi
 4381 06ac 87E7     		b	.L591
 4382              	.LVL540:
 4383              	.L434:
 4384              	.LBB319:
 4385              		.loc 1 199 0
 4386 06ae A38B     		ldrh	r3, [r4, #28]
 4387 06b0 6269     		ldr	r2, [r4, #20]
 4388 06b2 0133     		adds	r3, r3, #1
 4389 06b4 1BB2     		sxth	r3, r3
ARM GAS  C:\Users\mathi\AppData\Local\Temp\ccF8t5t9.s 			page 78


 4390              		.loc 1 190 0
 4391 06b6 45F30B05 		sbfx	r5, r5, #0, #12
 4392              	.LVL541:
 4393              		.loc 1 199 0
 4394 06ba A383     		strh	r3, [r4, #28]	@ movhi
 4395              	.LVL542:
 4396 06bc 22F81350 		strh	r5, [r2, r3, lsl #1]	@ movhi
 4397 06c0 2BE7     		b	.L590
 4398              	.LVL543:
 4399              	.L432:
 4400              	.LBE319:
 4401              		.loc 1 183 0
 4402 06c2 22F00102 		bic	r2, r2, #1
 4403 06c6 92B2     		uxth	r2, r2
 4404 06c8 2283     		strh	r2, [r4, #24]	@ movhi
 4405              	.LVL544:
 4406 06ca 02F0050C 		and	ip, r2, #5
 4407 06ce B5E4     		b	.L402
 4408              	.LVL545:
 4409              	.L437:
 4410              	.LBB320:
 4411              		.loc 1 258 0
 4412 06d0 B4F91C30 		ldrsh	r3, [r4, #28]
 4413 06d4 6169     		ldr	r1, [r4, #20]
 4414              	.LVL546:
 4415 06d6 5A1E     		subs	r2, r3, #1
 4416 06d8 A283     		strh	r2, [r4, #28]	@ movhi
 4417              	.LVL547:
 4418 06da C5F30B05 		ubfx	r5, r5, #0, #12
 4419              	.LVL548:
 4420 06de E268     		ldr	r2, [r4, #12]
 4421 06e0 31F91330 		ldrsh	r3, [r1, r3, lsl #1]
 4422 06e4 22F81530 		strh	r3, [r2, r5, lsl #1]	@ movhi
 4423 06e8 17E7     		b	.L590
 4424              	.LVL549:
 4425              	.L436:
 4426              	.LBE320:
 4427              	.LBB321:
 4428              		.loc 1 237 0
 4429 06ea A38B     		ldrh	r3, [r4, #28]
 4430 06ec E168     		ldr	r1, [r4, #12]
 4431              	.LVL550:
 4432 06ee 6269     		ldr	r2, [r4, #20]
 4433 06f0 0133     		adds	r3, r3, #1
 4434 06f2 1BB2     		sxth	r3, r3
 4435 06f4 C5F30B05 		ubfx	r5, r5, #0, #12
 4436              	.LVL551:
 4437 06f8 A383     		strh	r3, [r4, #28]	@ movhi
 4438              	.LVL552:
 4439 06fa 31F91510 		ldrsh	r1, [r1, r5, lsl #1]
 4440 06fe 22F81310 		strh	r1, [r2, r3, lsl #1]	@ movhi
 4441 0702 0AE7     		b	.L590
 4442              	.LVL553:
 4443              	.L595:
 4444              	.LBE321:
 4445              	.LBE326:
 4446              	.LBE367:
ARM GAS  C:\Users\mathi\AppData\Local\Temp\ccF8t5t9.s 			page 79


 4447              	.LBB368:
 4448              	.LBB361:
 4449              	.LBB355:
 4450              	.LBB336:
 4451              		.loc 1 332 0
 4452 0704 A4F81880 		strh	r8, [r4, #24]	@ movhi
 4453              		.loc 1 333 0
 4454 0708 0623     		movs	r3, #6
 4455              		.loc 1 329 0
 4456 070a ADF80410 		strh	r1, [sp, #4]	@ movhi
 4457              		.loc 1 330 0
 4458 070e ADF80600 		strh	r0, [sp, #6]	@ movhi
 4459              		.loc 1 333 0
 4460 0712 01AA     		add	r2, sp, #4
 4461 0714 49F20601 		movw	r1, #36870
 4462 0718 2046     		mov	r0, r4
 4463              		.loc 1 331 0
 4464 071a ADF808C0 		strh	ip, [sp, #8]	@ movhi
 4465              		.loc 1 333 0
 4466 071e FFF7FEFF 		bl	AsebaSendMessage
 4467              	.LVL554:
 4468              		.loc 1 334 0
 4469 0722 B9F1000F 		cmp	r9, #0
 4470 0726 3FF4B4AE 		beq	.L588
 4471              		.loc 1 335 0
 4472 072a 0021     		movs	r1, #0
 4473 072c 2046     		mov	r0, r4
 4474 072e FFF7FEFF 		bl	AsebaVMErrorCB
 4475              	.LVL555:
 4476 0732 AEE6     		b	.L588
 4477              	.LVL556:
 4478              	.L597:
 4479              	.LBE336:
 4480              	.LBE355:
 4481              	.LBE361:
 4482              	.LBE368:
 4483              	.LBB369:
 4484              	.LBB327:
 4485              	.LBB322:
 4486              	.LBB303:
 4487              		.loc 1 332 0
 4488 0734 A4F81890 		strh	r9, [r4, #24]	@ movhi
 4489              	.LVL557:
 4490              		.loc 1 333 0
 4491 0738 0623     		movs	r3, #6
 4492              		.loc 1 329 0
 4493 073a ADF80410 		strh	r1, [sp, #4]	@ movhi
 4494              		.loc 1 330 0
 4495 073e ADF80600 		strh	r0, [sp, #6]	@ movhi
 4496              		.loc 1 333 0
 4497 0742 01AA     		add	r2, sp, #4
 4498 0744 49F20601 		movw	r1, #36870
 4499 0748 2046     		mov	r0, r4
 4500              		.loc 1 331 0
 4501 074a ADF808C0 		strh	ip, [sp, #8]	@ movhi
 4502              		.loc 1 333 0
 4503 074e FFF7FEFF 		bl	AsebaSendMessage
ARM GAS  C:\Users\mathi\AppData\Local\Temp\ccF8t5t9.s 			page 80


 4504              	.LVL558:
 4505              		.loc 1 334 0
 4506 0752 B8F1000F 		cmp	r8, #0
 4507 0756 03D0     		beq	.L443
 4508              		.loc 1 335 0
 4509 0758 0021     		movs	r1, #0
 4510 075a 2046     		mov	r0, r4
 4511 075c FFF7FEFF 		bl	AsebaVMErrorCB
 4512              	.LVL559:
 4513              	.L443:
 4514 0760 228B     		ldrh	r2, [r4, #24]
 4515 0762 02F0050C 		and	ip, r2, #5
 4516 0766 69E4     		b	.L402
 4517              	.LVL560:
 4518              	.L429:
 4519              	.LBE303:
 4520              	.LBE322:
 4521              	.LBE327:
 4522              	.LBE369:
 4523              	.LBB370:
 4524              	.LBB362:
 4525              	.LBB356:
 4526              		.loc 1 444 0
 4527 0768 638B     		ldrh	r3, [r4, #26]
 4528 076a 6068     		ldr	r0, [r4, #4]
 4529              	.LVL561:
 4530 076c 0133     		adds	r3, r3, #1
 4531 076e 5A00     		lsls	r2, r3, #1
 4532              		.loc 1 451 0
 4533 0770 023A     		subs	r2, r2, #2
 4534              		.loc 1 444 0
 4535 0772 30F81310 		ldrh	r1, [r0, r3, lsl #1]
 4536              	.LVL562:
 4537              		.loc 1 451 0
 4538 0776 835A     		ldrh	r3, [r0, r2]
 4539 0778 23F40073 		bic	r3, r3, #512
 4540 077c 8352     		strh	r3, [r0, r2]	@ movhi
 4541 077e 0EE5     		b	.L461
 4542              	.LVL563:
 4543              	.L452:
 4544              	.LBE356:
 4545              	.LBE362:
 4546              	.LBE370:
 4547              	.LBB371:
 4548              	.LBB328:
 4549              	.LBB323:
 4550              		.loc 1 444 0
 4551 0780 638B     		ldrh	r3, [r4, #26]
 4552 0782 6168     		ldr	r1, [r4, #4]
 4553 0784 0133     		adds	r3, r3, #1
 4554 0786 5A00     		lsls	r2, r3, #1
 4555              		.loc 1 451 0
 4556 0788 023A     		subs	r2, r2, #2
 4557              		.loc 1 444 0
 4558 078a 31F81350 		ldrh	r5, [r1, r3, lsl #1]
 4559              	.LVL564:
 4560              		.loc 1 451 0
ARM GAS  C:\Users\mathi\AppData\Local\Temp\ccF8t5t9.s 			page 81


 4561 078e 885A     		ldrh	r0, [r1, r2]
 4562              	.LVL565:
 4563 0790 20F40070 		bic	r0, r0, #512
 4564 0794 8852     		strh	r0, [r1, r2]	@ movhi
 4565 0796 3CE7     		b	.L463
 4566              	.LVL566:
 4567              	.L427:
 4568              	.LBE323:
 4569              	.LBE328:
 4570              	.LBE371:
 4571              	.LBB372:
 4572              	.LBB363:
 4573              	.LBB357:
 4574              	.LBB354:
 4575              	.LBB352:
 4576              		.loc 1 155 0
 4577 0798 5B42     		negs	r3, r3
 4578              	.LVL567:
 4579 079a 1BB2     		sxth	r3, r3
 4580              	.LVL568:
 4581 079c A8E6     		b	.L425
 4582              	.LVL569:
 4583              	.L426:
 4584              		.loc 1 156 0
 4585 079e 002B     		cmp	r3, #0
 4586 07a0 B8BF     		it	lt
 4587 07a2 5B42     		rsblt	r3, r3, #0
 4588              	.LVL570:
 4589 07a4 1BB2     		sxth	r3, r3
 4590 07a6 A3E6     		b	.L425
 4591              	.LVL571:
 4592              	.L600:
 4593              		.loc 1 163 0
 4594 07a8 0023     		movs	r3, #0
 4595              	.LVL572:
 4596 07aa A1E6     		b	.L425
 4597              	.LVL573:
 4598              	.L601:
 4599              	.LBE352:
 4600              	.LBE354:
 4601              	.LBE357:
 4602              	.LBE363:
 4603              	.LBE372:
 4604              	.LBB373:
 4605              	.LBB329:
 4606              	.LBB324:
 4607              	.LBB317:
 4608              	.LBB315:
 4609 07ac 0023     		movs	r3, #0
 4610              	.LVL574:
 4611 07ae 61E7     		b	.L445
 4612              	.LVL575:
 4613              	.L447:
 4614              		.loc 1 155 0
 4615 07b0 5B42     		negs	r3, r3
 4616              	.LVL576:
 4617 07b2 1BB2     		sxth	r3, r3
ARM GAS  C:\Users\mathi\AppData\Local\Temp\ccF8t5t9.s 			page 82


 4618              	.LVL577:
 4619 07b4 5EE7     		b	.L445
 4620              	.LVL578:
 4621              	.L446:
 4622              		.loc 1 156 0
 4623 07b6 002B     		cmp	r3, #0
 4624 07b8 B8BF     		it	lt
 4625 07ba 5B42     		rsblt	r3, r3, #0
 4626              	.LVL579:
 4627 07bc 1BB2     		sxth	r3, r3
 4628 07be 59E7     		b	.L445
 4629              	.LVL580:
 4630              	.L430:
 4631              	.LBE315:
 4632              	.LBE317:
 4633              	.LBE324:
 4634              	.LBE329:
 4635              	.LBE373:
 4636              	.LBB374:
 4637              	.LBB364:
 4638              	.LBB358:
 4639              		.loc 1 444 0
 4640 07c0 431C     		adds	r3, r0, #1
 4641 07c2 32F81310 		ldrh	r1, [r2, r3, lsl #1]
 4642              	.LVL581:
 4643 07c6 E4E4     		b	.L460
 4644              	.LVL582:
 4645              	.L453:
 4646              	.LBE358:
 4647              	.LBE364:
 4648              	.LBE374:
 4649              	.LBB375:
 4650              	.LBB330:
 4651              	.LBB325:
 4652 07c8 4B1C     		adds	r3, r1, #1
 4653 07ca 32F81350 		ldrh	r5, [r2, r3, lsl #1]
 4654              	.LVL583:
 4655 07ce 1AE7     		b	.L462
 4656              	.LVL584:
 4657              	.L599:
 4658              	.LBE325:
 4659              	.LBE330:
 4660              	.LBE375:
 4661              	.LBE378:
 4662              	.LBE407:
 4663              		.loc 1 668 0
 4664 07d0 FFF7FEFF 		bl	__stack_chk_fail
 4665              	.LVL585:
 4666              		.cfi_endproc
 4667              	.LFE10:
 4668              		.size	AsebaVMRun, .-AsebaVMRun
 4669              		.section	.text.AsebaVMSetBreakpoint,"ax",%progbits
 4670              		.align	1
 4671              		.p2align 4,,15
 4672              		.global	AsebaVMSetBreakpoint
 4673              		.syntax unified
 4674              		.thumb
ARM GAS  C:\Users\mathi\AppData\Local\Temp\ccF8t5t9.s 			page 83


 4675              		.thumb_func
 4676              		.fpu fpv4-sp-d16
 4677              		.type	AsebaVMSetBreakpoint, %function
 4678              	AsebaVMSetBreakpoint:
 4679              	.LFB11:
 4680              		.loc 1 673 0
 4681              		.cfi_startproc
 4682              		@ args = 0, pretend = 0, frame = 8
 4683              		@ frame_needed = 0, uses_anonymous_args = 0
 4684              	.LVL586:
 4685 0000 10B5     		push	{r4, lr}
 4686              		.cfi_def_cfa_offset 8
 4687              		.cfi_offset 4, -8
 4688              		.cfi_offset 14, -4
 4689 0002 0B4A     		ldr	r2, .L610
 4690              		.loc 1 679 0
 4691 0004 C38F     		ldrh	r3, [r0, #62]
 4692              		.loc 1 673 0
 4693 0006 1468     		ldr	r4, [r2]
 4694 0008 82B0     		sub	sp, sp, #8
 4695              		.cfi_def_cfa_offset 16
 4696              		.loc 1 679 0
 4697 000a 0F2B     		cmp	r3, #15
 4698              		.loc 1 673 0
 4699 000c 0194     		str	r4, [sp, #4]
 4700              		.loc 1 679 0
 4701 000e 0BD8     		bhi	.L607
 4702              		.loc 1 681 0
 4703 0010 00EB4304 		add	r4, r0, r3, lsl #1
 4704 0014 0133     		adds	r3, r3, #1
 4705 0016 C387     		strh	r3, [r0, #62]	@ movhi
 4706              		.loc 1 682 0
 4707 0018 0120     		movs	r0, #1
 4708              	.LVL587:
 4709              		.loc 1 681 0
 4710 001a E183     		strh	r1, [r4, #30]	@ movhi
 4711              	.L605:
 4712              		.loc 1 686 0
 4713 001c 0199     		ldr	r1, [sp, #4]
 4714              	.LVL588:
 4715 001e 1368     		ldr	r3, [r2]
 4716 0020 9942     		cmp	r1, r3
 4717 0022 03D1     		bne	.L609
 4718 0024 02B0     		add	sp, sp, #8
 4719              		.cfi_remember_state
 4720              		.cfi_def_cfa_offset 8
 4721              		@ sp needed
 4722 0026 10BD     		pop	{r4, pc}
 4723              	.LVL589:
 4724              	.L607:
 4725              		.cfi_restore_state
 4726              		.loc 1 685 0
 4727 0028 0020     		movs	r0, #0
 4728              	.LVL590:
 4729 002a F7E7     		b	.L605
 4730              	.LVL591:
 4731              	.L609:
ARM GAS  C:\Users\mathi\AppData\Local\Temp\ccF8t5t9.s 			page 84


 4732              		.loc 1 686 0
 4733 002c FFF7FEFF 		bl	__stack_chk_fail
 4734              	.LVL592:
 4735              	.L611:
 4736              		.align	2
 4737              	.L610:
 4738 0030 00000000 		.word	__stack_chk_guard
 4739              		.cfi_endproc
 4740              	.LFE11:
 4741              		.size	AsebaVMSetBreakpoint, .-AsebaVMSetBreakpoint
 4742              		.section	.text.AsebaVMClearBreakpoint,"ax",%progbits
 4743              		.align	1
 4744              		.p2align 4,,15
 4745              		.global	AsebaVMClearBreakpoint
 4746              		.syntax unified
 4747              		.thumb
 4748              		.thumb_func
 4749              		.fpu fpv4-sp-d16
 4750              		.type	AsebaVMClearBreakpoint, %function
 4751              	AsebaVMClearBreakpoint:
 4752              	.LFB12:
 4753              		.loc 1 690 0
 4754              		.cfi_startproc
 4755              		@ args = 0, pretend = 0, frame = 8
 4756              		@ frame_needed = 0, uses_anonymous_args = 0
 4757              	.LVL593:
 4758 0000 10B5     		push	{r4, lr}
 4759              		.cfi_def_cfa_offset 8
 4760              		.cfi_offset 4, -8
 4761              		.cfi_offset 14, -4
 4762 0002 494C     		ldr	r4, .L658
 4763              		.loc 1 692 0
 4764 0004 C38F     		ldrh	r3, [r0, #62]
 4765              		.loc 1 690 0
 4766 0006 2268     		ldr	r2, [r4]
 4767 0008 82B0     		sub	sp, sp, #8
 4768              		.cfi_def_cfa_offset 16
 4769              		.loc 1 690 0
 4770 000a 0192     		str	r2, [sp, #4]
 4771              	.LVL594:
 4772              		.loc 1 692 0
 4773 000c 002B     		cmp	r3, #0
 4774 000e 4ED0     		beq	.L613
 4775              		.loc 1 694 0
 4776 0010 C28B     		ldrh	r2, [r0, #30]
 4777 0012 8A42     		cmp	r2, r1
 4778 0014 52D0     		beq	.L656
 4779              	.LVL595:
 4780              		.loc 1 692 0
 4781 0016 012B     		cmp	r3, #1
 4782 0018 48D9     		bls	.L649
 4783              		.loc 1 694 0
 4784 001a 028C     		ldrh	r2, [r0, #32]
 4785 001c 8A42     		cmp	r2, r1
 4786 001e 62D0     		beq	.L622
 4787              	.LVL596:
 4788              		.loc 1 692 0
ARM GAS  C:\Users\mathi\AppData\Local\Temp\ccF8t5t9.s 			page 85


 4789 0020 022B     		cmp	r3, #2
 4790 0022 43D0     		beq	.L649
 4791              		.loc 1 694 0
 4792 0024 428C     		ldrh	r2, [r0, #34]
 4793 0026 8A42     		cmp	r2, r1
 4794 0028 5FD0     		beq	.L624
 4795              	.LVL597:
 4796              		.loc 1 692 0
 4797 002a 032B     		cmp	r3, #3
 4798 002c 3ED0     		beq	.L649
 4799              		.loc 1 694 0
 4800 002e 828C     		ldrh	r2, [r0, #36]
 4801 0030 8A42     		cmp	r2, r1
 4802 0032 5ED0     		beq	.L626
 4803              	.LVL598:
 4804              		.loc 1 692 0
 4805 0034 042B     		cmp	r3, #4
 4806 0036 39D0     		beq	.L649
 4807              		.loc 1 694 0
 4808 0038 C28C     		ldrh	r2, [r0, #38]
 4809 003a 8A42     		cmp	r2, r1
 4810 003c 5BD0     		beq	.L628
 4811              	.LVL599:
 4812              		.loc 1 692 0
 4813 003e 052B     		cmp	r3, #5
 4814 0040 34D0     		beq	.L649
 4815              		.loc 1 694 0
 4816 0042 028D     		ldrh	r2, [r0, #40]
 4817 0044 8A42     		cmp	r2, r1
 4818 0046 58D0     		beq	.L630
 4819              	.LVL600:
 4820              		.loc 1 692 0
 4821 0048 062B     		cmp	r3, #6
 4822 004a 2FD0     		beq	.L649
 4823              		.loc 1 694 0
 4824 004c 428D     		ldrh	r2, [r0, #42]
 4825 004e 8A42     		cmp	r2, r1
 4826 0050 55D0     		beq	.L632
 4827              	.LVL601:
 4828              		.loc 1 692 0
 4829 0052 072B     		cmp	r3, #7
 4830 0054 2AD0     		beq	.L649
 4831              		.loc 1 694 0
 4832 0056 828D     		ldrh	r2, [r0, #44]
 4833 0058 8A42     		cmp	r2, r1
 4834 005a 52D0     		beq	.L634
 4835              	.LVL602:
 4836              		.loc 1 692 0
 4837 005c 082B     		cmp	r3, #8
 4838 005e 25D0     		beq	.L649
 4839              		.loc 1 694 0
 4840 0060 C28D     		ldrh	r2, [r0, #46]
 4841 0062 8A42     		cmp	r2, r1
 4842 0064 4FD0     		beq	.L636
 4843              	.LVL603:
 4844              		.loc 1 692 0
 4845 0066 092B     		cmp	r3, #9
ARM GAS  C:\Users\mathi\AppData\Local\Temp\ccF8t5t9.s 			page 86


 4846 0068 20D0     		beq	.L649
 4847              		.loc 1 694 0
 4848 006a 028E     		ldrh	r2, [r0, #48]
 4849 006c 8A42     		cmp	r2, r1
 4850 006e 4CD0     		beq	.L638
 4851              	.LVL604:
 4852              		.loc 1 692 0
 4853 0070 0A2B     		cmp	r3, #10
 4854 0072 1BD0     		beq	.L649
 4855              		.loc 1 694 0
 4856 0074 428E     		ldrh	r2, [r0, #50]
 4857 0076 8A42     		cmp	r2, r1
 4858 0078 49D0     		beq	.L640
 4859              	.LVL605:
 4860              		.loc 1 692 0
 4861 007a 0B2B     		cmp	r3, #11
 4862 007c 16D0     		beq	.L649
 4863              		.loc 1 694 0
 4864 007e 828E     		ldrh	r2, [r0, #52]
 4865 0080 8A42     		cmp	r2, r1
 4866 0082 46D0     		beq	.L642
 4867              	.LVL606:
 4868              		.loc 1 692 0
 4869 0084 0C2B     		cmp	r3, #12
 4870 0086 11D0     		beq	.L649
 4871              		.loc 1 694 0
 4872 0088 C28E     		ldrh	r2, [r0, #54]
 4873 008a 8A42     		cmp	r2, r1
 4874 008c 43D0     		beq	.L644
 4875              	.LVL607:
 4876              		.loc 1 692 0
 4877 008e 0D2B     		cmp	r3, #13
 4878 0090 0CD0     		beq	.L649
 4879              		.loc 1 694 0
 4880 0092 028F     		ldrh	r2, [r0, #56]
 4881 0094 8A42     		cmp	r2, r1
 4882 0096 40D0     		beq	.L646
 4883              	.LVL608:
 4884              		.loc 1 692 0
 4885 0098 0E2B     		cmp	r3, #14
 4886 009a 07D0     		beq	.L649
 4887              		.loc 1 694 0
 4888 009c 428F     		ldrh	r2, [r0, #58]
 4889 009e 8A42     		cmp	r2, r1
 4890 00a0 3DD0     		beq	.L648
 4891              	.LVL609:
 4892              		.loc 1 692 0
 4893 00a2 0F2B     		cmp	r3, #15
 4894 00a4 02D0     		beq	.L649
 4895              		.loc 1 694 0
 4896 00a6 828F     		ldrh	r2, [r0, #60]
 4897 00a8 8A42     		cmp	r2, r1
 4898 00aa 20D0     		beq	.L650
 4899              	.LVL610:
 4900              	.L649:
 4901              		.loc 1 704 0
 4902 00ac 0023     		movs	r3, #0
ARM GAS  C:\Users\mathi\AppData\Local\Temp\ccF8t5t9.s 			page 87


 4903              	.LVL611:
 4904              	.L613:
 4905              		.loc 1 705 0
 4906 00ae 0199     		ldr	r1, [sp, #4]
 4907 00b0 2268     		ldr	r2, [r4]
 4908 00b2 9142     		cmp	r1, r2
 4909 00b4 1846     		mov	r0, r3
 4910 00b6 34D1     		bne	.L657
 4911 00b8 02B0     		add	sp, sp, #8
 4912              		.cfi_remember_state
 4913              		.cfi_def_cfa_offset 8
 4914              		@ sp needed
 4915 00ba 10BD     		pop	{r4, pc}
 4916              	.LVL612:
 4917              	.L656:
 4918              		.cfi_restore_state
 4919              		.loc 1 692 0
 4920 00bc 0022     		movs	r2, #0
 4921              	.LVL613:
 4922              	.L614:
 4923              	.LBB408:
 4924              		.loc 1 698 0
 4925 00be 591E     		subs	r1, r3, #1
 4926              	.LVL614:
 4927 00c0 89B2     		uxth	r1, r1
 4928              		.loc 1 699 0
 4929 00c2 9142     		cmp	r1, r2
 4930              		.loc 1 698 0
 4931 00c4 C187     		strh	r1, [r0, #62]	@ movhi
 4932              	.LVL615:
 4933              		.loc 1 699 0
 4934 00c6 0CD9     		bls	.L617
 4935              		.loc 1 700 0
 4936 00c8 991E     		subs	r1, r3, #2
 4937 00ca 891A     		subs	r1, r1, r2
 4938 00cc 5300     		lsls	r3, r2, #1
 4939 00ce 89B2     		uxth	r1, r1
 4940 00d0 4A1C     		adds	r2, r1, #1
 4941              	.LVL616:
 4942 00d2 03F12001 		add	r1, r3, #32
 4943 00d6 1E33     		adds	r3, r3, #30
 4944 00d8 0144     		add	r1, r1, r0
 4945 00da 5200     		lsls	r2, r2, #1
 4946 00dc 1844     		add	r0, r0, r3
 4947              	.LVL617:
 4948 00de FFF7FEFF 		bl	memmove
 4949              	.LVL618:
 4950              	.L617:
 4951              		.loc 1 701 0
 4952 00e2 0123     		movs	r3, #1
 4953 00e4 E3E7     		b	.L613
 4954              	.LVL619:
 4955              	.L622:
 4956              	.LBE408:
 4957              		.loc 1 692 0
 4958 00e6 0122     		movs	r2, #1
 4959 00e8 E9E7     		b	.L614
ARM GAS  C:\Users\mathi\AppData\Local\Temp\ccF8t5t9.s 			page 88


 4960              	.LVL620:
 4961              	.L624:
 4962 00ea 0222     		movs	r2, #2
 4963 00ec E7E7     		b	.L614
 4964              	.LVL621:
 4965              	.L650:
 4966 00ee 0F22     		movs	r2, #15
 4967 00f0 E5E7     		b	.L614
 4968              	.LVL622:
 4969              	.L626:
 4970 00f2 0322     		movs	r2, #3
 4971 00f4 E3E7     		b	.L614
 4972              	.LVL623:
 4973              	.L628:
 4974 00f6 0422     		movs	r2, #4
 4975 00f8 E1E7     		b	.L614
 4976              	.LVL624:
 4977              	.L630:
 4978 00fa 0522     		movs	r2, #5
 4979 00fc DFE7     		b	.L614
 4980              	.LVL625:
 4981              	.L632:
 4982 00fe 0622     		movs	r2, #6
 4983 0100 DDE7     		b	.L614
 4984              	.LVL626:
 4985              	.L634:
 4986 0102 0722     		movs	r2, #7
 4987 0104 DBE7     		b	.L614
 4988              	.LVL627:
 4989              	.L636:
 4990 0106 0822     		movs	r2, #8
 4991 0108 D9E7     		b	.L614
 4992              	.LVL628:
 4993              	.L638:
 4994 010a 0922     		movs	r2, #9
 4995 010c D7E7     		b	.L614
 4996              	.LVL629:
 4997              	.L640:
 4998 010e 0A22     		movs	r2, #10
 4999 0110 D5E7     		b	.L614
 5000              	.LVL630:
 5001              	.L642:
 5002 0112 0B22     		movs	r2, #11
 5003 0114 D3E7     		b	.L614
 5004              	.LVL631:
 5005              	.L644:
 5006 0116 0C22     		movs	r2, #12
 5007 0118 D1E7     		b	.L614
 5008              	.LVL632:
 5009              	.L646:
 5010 011a 0D22     		movs	r2, #13
 5011 011c CFE7     		b	.L614
 5012              	.LVL633:
 5013              	.L648:
 5014 011e 0E22     		movs	r2, #14
 5015 0120 CDE7     		b	.L614
 5016              	.LVL634:
ARM GAS  C:\Users\mathi\AppData\Local\Temp\ccF8t5t9.s 			page 89


 5017              	.L657:
 5018              		.loc 1 705 0
 5019 0122 FFF7FEFF 		bl	__stack_chk_fail
 5020              	.LVL635:
 5021              	.L659:
 5022 0126 00BF     		.align	2
 5023              	.L658:
 5024 0128 00000000 		.word	__stack_chk_guard
 5025              		.cfi_endproc
 5026              	.LFE12:
 5027              		.size	AsebaVMClearBreakpoint, .-AsebaVMClearBreakpoint
 5028              		.section	.text.AsebaVMClearBreakpoints,"ax",%progbits
 5029              		.align	1
 5030              		.p2align 4,,15
 5031              		.global	AsebaVMClearBreakpoints
 5032              		.syntax unified
 5033              		.thumb
 5034              		.thumb_func
 5035              		.fpu fpv4-sp-d16
 5036              		.type	AsebaVMClearBreakpoints, %function
 5037              	AsebaVMClearBreakpoints:
 5038              	.LFB13:
 5039              		.loc 1 709 0
 5040              		.cfi_startproc
 5041              		@ args = 0, pretend = 0, frame = 8
 5042              		@ frame_needed = 0, uses_anonymous_args = 0
 5043              	.LVL636:
 5044 0000 00B5     		push	{lr}
 5045              		.cfi_def_cfa_offset 4
 5046              		.cfi_offset 14, -4
 5047 0002 074B     		ldr	r3, .L664
 5048 0004 83B0     		sub	sp, sp, #12
 5049              		.cfi_def_cfa_offset 16
 5050              		.loc 1 709 0
 5051 0006 1A68     		ldr	r2, [r3]
 5052 0008 0192     		str	r2, [sp, #4]
 5053              		.loc 1 711 0
 5054 000a 019A     		ldr	r2, [sp, #4]
 5055 000c 1B68     		ldr	r3, [r3]
 5056              		.loc 1 710 0
 5057 000e 0021     		movs	r1, #0
 5058              		.loc 1 711 0
 5059 0010 9A42     		cmp	r2, r3
 5060              		.loc 1 710 0
 5061 0012 C187     		strh	r1, [r0, #62]	@ movhi
 5062              		.loc 1 711 0
 5063 0014 02D1     		bne	.L663
 5064 0016 03B0     		add	sp, sp, #12
 5065              		.cfi_remember_state
 5066              		.cfi_def_cfa_offset 4
 5067              		@ sp needed
 5068 0018 5DF804FB 		ldr	pc, [sp], #4
 5069              	.L663:
 5070              		.cfi_restore_state
 5071 001c FFF7FEFF 		bl	__stack_chk_fail
 5072              	.LVL637:
 5073              	.L665:
ARM GAS  C:\Users\mathi\AppData\Local\Temp\ccF8t5t9.s 			page 90


 5074              		.align	2
 5075              	.L664:
 5076 0020 00000000 		.word	__stack_chk_guard
 5077              		.cfi_endproc
 5078              	.LFE13:
 5079              		.size	AsebaVMClearBreakpoints, .-AsebaVMClearBreakpoints
 5080              		.section	.text.AsebaVMSendExecutionStateChanged,"ax",%progbits
 5081              		.align	1
 5082              		.p2align 4,,15
 5083              		.global	AsebaVMSendExecutionStateChanged
 5084              		.syntax unified
 5085              		.thumb
 5086              		.thumb_func
 5087              		.fpu fpv4-sp-d16
 5088              		.type	AsebaVMSendExecutionStateChanged, %function
 5089              	AsebaVMSendExecutionStateChanged:
 5090              	.LFB14:
 5091              		.loc 1 715 0
 5092              		.cfi_startproc
 5093              		@ args = 0, pretend = 0, frame = 8
 5094              		@ frame_needed = 0, uses_anonymous_args = 0
 5095              	.LVL638:
 5096 0000 30B5     		push	{r4, r5, lr}
 5097              		.cfi_def_cfa_offset 12
 5098              		.cfi_offset 4, -12
 5099              		.cfi_offset 5, -8
 5100              		.cfi_offset 14, -4
 5101 0002 0C4C     		ldr	r4, .L670
 5102              		.loc 1 717 0
 5103 0004 428B     		ldrh	r2, [r0, #26]
 5104              		.loc 1 718 0
 5105 0006 018B     		ldrh	r1, [r0, #24]
 5106              		.loc 1 715 0
 5107 0008 2568     		ldr	r5, [r4]
 5108 000a 83B0     		sub	sp, sp, #12
 5109              		.cfi_def_cfa_offset 24
 5110              		.loc 1 719 0
 5111 000c 0423     		movs	r3, #4
 5112              		.loc 1 717 0
 5113 000e ADF80020 		strh	r2, [sp]	@ movhi
 5114              		.loc 1 718 0
 5115 0012 ADF80210 		strh	r1, [sp, #2]	@ movhi
 5116              		.loc 1 719 0
 5117 0016 6A46     		mov	r2, sp
 5118 0018 49F20A01 		movw	r1, #36874
 5119              		.loc 1 715 0
 5120 001c 0195     		str	r5, [sp, #4]
 5121              		.loc 1 719 0
 5122 001e FFF7FEFF 		bl	AsebaSendMessage
 5123              	.LVL639:
 5124              		.loc 1 720 0
 5125 0022 019A     		ldr	r2, [sp, #4]
 5126 0024 2368     		ldr	r3, [r4]
 5127 0026 9A42     		cmp	r2, r3
 5128 0028 01D1     		bne	.L669
 5129 002a 03B0     		add	sp, sp, #12
 5130              		.cfi_remember_state
ARM GAS  C:\Users\mathi\AppData\Local\Temp\ccF8t5t9.s 			page 91


 5131              		.cfi_def_cfa_offset 12
 5132              		@ sp needed
 5133 002c 30BD     		pop	{r4, r5, pc}
 5134              	.L669:
 5135              		.cfi_restore_state
 5136 002e FFF7FEFF 		bl	__stack_chk_fail
 5137              	.LVL640:
 5138              	.L671:
 5139 0032 00BF     		.align	2
 5140              	.L670:
 5141 0034 00000000 		.word	__stack_chk_guard
 5142              		.cfi_endproc
 5143              	.LFE14:
 5144              		.size	AsebaVMSendExecutionStateChanged, .-AsebaVMSendExecutionStateChanged
 5145              		.section	.text.AsebaVMDebugMessage,"ax",%progbits
 5146              		.align	1
 5147              		.p2align 4,,15
 5148              		.global	AsebaVMDebugMessage
 5149              		.syntax unified
 5150              		.thumb
 5151              		.thumb_func
 5152              		.fpu fpv4-sp-d16
 5153              		.type	AsebaVMDebugMessage, %function
 5154              	AsebaVMDebugMessage:
 5155              	.LFB16:
 5156              		.loc 1 735 0
 5157              		.cfi_startproc
 5158              		@ args = 0, pretend = 0, frame = 16
 5159              		@ frame_needed = 0, uses_anonymous_args = 0
 5160              	.LVL641:
 5161 0000 F0B5     		push	{r4, r5, r6, r7, lr}
 5162              		.cfi_def_cfa_offset 20
 5163              		.cfi_offset 4, -20
 5164              		.cfi_offset 5, -16
 5165              		.cfi_offset 6, -12
 5166              		.cfi_offset 7, -8
 5167              		.cfi_offset 14, -4
 5168 0002 BC4C     		ldr	r4, .L811
 5169 0004 85B0     		sub	sp, sp, #20
 5170              		.cfi_def_cfa_offset 40
 5171              		.loc 1 735 0
 5172 0006 2568     		ldr	r5, [r4]
 5173 0008 0395     		str	r5, [sp, #12]
 5174              		.loc 1 737 0
 5175 000a B1F5204F 		cmp	r1, #40960
 5176              		.loc 1 735 0
 5177 000e 1546     		mov	r5, r2
 5178              		.loc 1 737 0
 5179 0010 10D0     		beq	.L805
 5180              		.loc 1 746 0
 5181 0012 4AF21102 		movw	r2, #40977
 5182              	.LVL642:
 5183 0016 9142     		cmp	r1, r2
 5184 0018 2AD0     		beq	.L806
 5185              		.loc 1 754 0
 5186 001a 23B1     		cbz	r3, .L672
 5187 001c 0646     		mov	r6, r0
ARM GAS  C:\Users\mathi\AppData\Local\Temp\ccF8t5t9.s 			page 92


 5188              		.loc 1 758 0
 5189 001e 2888     		ldrh	r0, [r5]
 5190              	.LVL643:
 5191 0020 3288     		ldrh	r2, [r6]
 5192 0022 9042     		cmp	r0, r2
 5193 0024 0CD0     		beq	.L807
 5194              	.LVL644:
 5195              	.L672:
 5196              		.loc 1 881 0
 5197 0026 039A     		ldr	r2, [sp, #12]
 5198 0028 2368     		ldr	r3, [r4]
 5199 002a 9A42     		cmp	r2, r3
 5200 002c 40F0B581 		bne	.L808
 5201 0030 05B0     		add	sp, sp, #20
 5202              		.cfi_remember_state
 5203              		.cfi_def_cfa_offset 20
 5204              		@ sp needed
 5205 0032 F0BD     		pop	{r4, r5, r6, r7, pc}
 5206              	.LVL645:
 5207              	.L805:
 5208              		.cfi_restore_state
 5209              	.LBB443:
 5210              		.loc 1 741 0
 5211 0034 1388     		ldrh	r3, [r2]
 5212              	.LVL646:
 5213 0036 042B     		cmp	r3, #4
 5214 0038 F5D8     		bhi	.L672
 5215              	.LVL647:
 5216              	.L803:
 5217              	.LBE443:
 5218              		.loc 1 875 0
 5219 003a FFF7FEFF 		bl	AsebaSendDescription
 5220              	.LVL648:
 5221              		.loc 1 876 0
 5222 003e F2E7     		b	.L672
 5223              	.LVL649:
 5224              	.L807:
 5225              		.loc 1 764 0
 5226 0040 A1F52041 		sub	r1, r1, #40960
 5227              	.LVL650:
 5228 0044 0139     		subs	r1, r1, #1
 5229              		.loc 1 761 0
 5230 0046 AA1C     		adds	r2, r5, #2
 5231              	.LVL651:
 5232              		.loc 1 764 0
 5233 0048 0F29     		cmp	r1, #15
 5234 004a ECD8     		bhi	.L672
 5235 004c DFE811F0 		tbh	[pc, r1, lsl #1]
 5236              	.L679:
 5237 0050 2E00     		.2byte	(.L678-.L679)/2
 5238 0052 4000     		.2byte	(.L680-.L679)/2
 5239 0054 8C00     		.2byte	(.L681-.L679)/2
 5240 0056 8400     		.2byte	(.L682-.L679)/2
 5241 0058 1A00     		.2byte	(.L683-.L679)/2
 5242 005a 7500     		.2byte	(.L684-.L679)/2
 5243 005c 2000     		.2byte	(.L703-.L679)/2
 5244 005e 3801     		.2byte	(.L686-.L679)/2
ARM GAS  C:\Users\mathi\AppData\Local\Temp\ccF8t5t9.s 			page 93


 5245 0060 B000     		.2byte	(.L687-.L679)/2
 5246 0062 AD00     		.2byte	(.L688-.L679)/2
 5247 0064 A700     		.2byte	(.L689-.L679)/2
 5248 0066 5801     		.2byte	(.L690-.L679)/2
 5249 0068 4E01     		.2byte	(.L691-.L679)/2
 5250 006a 7100     		.2byte	(.L692-.L679)/2
 5251 006c 6D00     		.2byte	(.L693-.L679)/2
 5252 006e A500     		.2byte	(.L694-.L679)/2
 5253              	.LVL652:
 5254              		.p2align 1
 5255              	.L806:
 5256              	.LBB444:
 5257              		.loc 1 748 0
 5258 0070 04AA     		add	r2, sp, #16
 5259 0072 0523     		movs	r3, #5
 5260              	.LVL653:
 5261 0074 22F80A3D 		strh	r3, [r2, #-10]!	@ movhi
 5262              		.loc 1 749 0
 5263 0078 49F20C01 		movw	r1, #36876
 5264              	.LVL654:
 5265 007c 0223     		movs	r3, #2
 5266 007e FFF7FEFF 		bl	AsebaSendMessage
 5267              	.LVL655:
 5268 0082 D0E7     		b	.L672
 5269              	.LVL656:
 5270              	.L683:
 5271              	.LBE444:
 5272              		.loc 1 803 0
 5273 0084 338B     		ldrh	r3, [r6, #24]
 5274              	.LVL657:
 5275 0086 DB07     		lsls	r3, r3, #31
 5276 0088 CDD5     		bpl	.L672
 5277              		.loc 1 805 0
 5278 008a 3046     		mov	r0, r6
 5279 008c FFF7FEFF 		bl	AsebaVMStep
 5280              	.LVL658:
 5281              	.L703:
 5282              	.LBB445:
 5283              	.LBB446:
 5284              		.loc 1 717 0
 5285 0090 738B     		ldrh	r3, [r6, #26]
 5286              		.loc 1 718 0
 5287 0092 358B     		ldrh	r5, [r6, #24]
 5288              		.loc 1 717 0
 5289 0094 ADF80830 		strh	r3, [sp, #8]	@ movhi
 5290              	.LVL659:
 5291              	.L804:
 5292              		.loc 1 719 0
 5293 0098 3046     		mov	r0, r6
 5294 009a 0423     		movs	r3, #4
 5295 009c 02AA     		add	r2, sp, #8
 5296 009e 49F20A01 		movw	r1, #36874
 5297              		.loc 1 718 0
 5298 00a2 ADF80A50 		strh	r5, [sp, #10]	@ movhi
 5299              		.loc 1 719 0
 5300 00a6 FFF7FEFF 		bl	AsebaSendMessage
 5301              	.LVL660:
ARM GAS  C:\Users\mathi\AppData\Local\Temp\ccF8t5t9.s 			page 94


 5302 00aa BCE7     		b	.L672
 5303              	.LVL661:
 5304              	.L678:
 5305              	.LBE446:
 5306              	.LBE445:
 5307              	.LBB447:
 5308              		.loc 1 775 0
 5309 00ac 022B     		cmp	r3, #2
 5310              		.loc 1 768 0
 5311 00ae 6988     		ldrh	r1, [r5, #2]
 5312              	.LVL662:
 5313              		.loc 1 775 0
 5314 00b0 0ED0     		beq	.L680
 5315 00b2 033B     		subs	r3, r3, #3
 5316              	.LVL663:
 5317 00b4 C5EB4101 		rsb	r1, r5, r1, lsl #1
 5318              	.LVL664:
 5319 00b8 9BB2     		uxth	r3, r3
 5320 00ba 0435     		adds	r5, r5, #4
 5321              	.LVL665:
 5322 00bc 8F1E     		subs	r7, r1, #2
 5323 00be 05EB4305 		add	r5, r5, r3, lsl #1
 5324              	.LVL666:
 5325              	.L696:
 5326              		.loc 1 776 0 discriminator 3
 5327 00c2 BB18     		adds	r3, r7, r2
 5328 00c4 32F8020F 		ldrh	r0, [r2, #2]!
 5329 00c8 7168     		ldr	r1, [r6, #4]
 5330              		.loc 1 775 0 discriminator 3
 5331 00ca 9542     		cmp	r5, r2
 5332              		.loc 1 776 0 discriminator 3
 5333 00cc C852     		strh	r0, [r1, r3]	@ movhi
 5334              		.loc 1 775 0 discriminator 3
 5335 00ce F8D1     		bne	.L696
 5336              	.LVL667:
 5337              	.L680:
 5338              	.LBE447:
 5339              	.LBB448:
 5340              	.LBB449:
 5341              		.loc 1 726 0
 5342 00d0 7588     		ldrh	r5, [r6, #2]
 5343              	.LBE449:
 5344              	.LBE448:
 5345              		.loc 1 781 0
 5346 00d2 0223     		movs	r3, #2
 5347 00d4 3383     		strh	r3, [r6, #24]	@ movhi
 5348              	.LVL668:
 5349              	.LBB454:
 5350              	.LBB452:
 5351              		.loc 1 726 0
 5352 00d6 5DB1     		cbz	r5, .L699
 5353 00d8 7068     		ldr	r0, [r6, #4]
 5354 00da 0023     		movs	r3, #0
 5355              	.LVL669:
 5356              	.L698:
 5357              	.LBB450:
 5358              		.loc 1 728 0
ARM GAS  C:\Users\mathi\AppData\Local\Temp\ccF8t5t9.s 			page 95


 5359 00dc 30F81320 		ldrh	r2, [r0, r3, lsl #1]
 5360              	.LVL670:
 5361              		.loc 1 729 0
 5362 00e0 110B     		lsrs	r1, r2, #12
 5363 00e2 0A29     		cmp	r1, #10
 5364 00e4 00F02181 		beq	.L809
 5365              	.LBE450:
 5366              		.loc 1 726 0
 5367 00e8 0133     		adds	r3, r3, #1
 5368              	.LVL671:
 5369 00ea 9BB2     		uxth	r3, r3
 5370              	.LVL672:
 5371 00ec AB42     		cmp	r3, r5
 5372 00ee F5D3     		bcc	.L698
 5373              	.LVL673:
 5374              	.L699:
 5375              	.LBE452:
 5376              	.LBE454:
 5377              		.loc 1 783 0
 5378 00f0 814B     		ldr	r3, .L811+4
 5379 00f2 13B1     		cbz	r3, .L702
 5380              		.loc 1 784 0
 5381 00f4 3046     		mov	r0, r6
 5382 00f6 FFF7FEFF 		bl	AsebaVMResetCB
 5383              	.LVL674:
 5384              	.L702:
 5385              	.LBB455:
 5386              	.LBB456:
 5387              	.LBB457:
 5388              	.LBB458:
 5389              		.loc 1 57 0
 5390 00fa 7568     		ldr	r5, [r6, #4]
 5391 00fc 2F88     		ldrh	r7, [r5]
 5392              	.LVL675:
 5393              		.loc 1 61 0
 5394 00fe 012F     		cmp	r7, #1
 5395 0100 C6D9     		bls	.L703
 5396              		.loc 1 62 0
 5397 0102 6B88     		ldrh	r3, [r5, #2]
 5398 0104 4FF6FF70 		movw	r0, #65535
 5399 0108 8342     		cmp	r3, r0
 5400 010a 00F01A81 		beq	.L715
 5401 010e 0323     		movs	r3, #3
 5402 0110 07E0     		b	.L705
 5403              	.LVL676:
 5404              	.L707:
 5405 0112 35F81320 		ldrh	r2, [r5, r3, lsl #1]
 5406 0116 8242     		cmp	r2, r0
 5407 0118 03F10201 		add	r1, r3, #2
 5408 011c 00F01281 		beq	.L704
 5409 0120 0B46     		mov	r3, r1
 5410              	.LVL677:
 5411              	.L705:
 5412              		.loc 1 61 0
 5413 0122 9AB2     		uxth	r2, r3
 5414 0124 9742     		cmp	r7, r2
 5415 0126 F4D8     		bhi	.L707
ARM GAS  C:\Users\mathi\AppData\Local\Temp\ccF8t5t9.s 			page 96


 5416 0128 B2E7     		b	.L703
 5417              	.LVL678:
 5418              	.L693:
 5419              	.LBE458:
 5420              	.LBE457:
 5421              	.LBE456:
 5422              	.LBE455:
 5423              		.loc 1 871 0
 5424 012a 3046     		mov	r0, r6
 5425 012c FFF7FEFF 		bl	AsebaPutVmToSleep
 5426              	.LVL679:
 5427              		.loc 1 872 0
 5428 0130 79E7     		b	.L672
 5429              	.LVL680:
 5430              	.L692:
 5431              		.loc 1 867 0
 5432 0132 3046     		mov	r0, r6
 5433 0134 FFF7FEFF 		bl	AsebaResetIntoBootloader
 5434              	.LVL681:
 5435              		.loc 1 868 0
 5436 0138 75E7     		b	.L672
 5437              	.LVL682:
 5438              	.L684:
 5439              		.loc 1 811 0
 5440 013a 0223     		movs	r3, #2
 5441              	.LVL683:
 5442 013c 3383     		strh	r3, [r6, #24]	@ movhi
 5443              	.LVL684:
 5444              	.LBB465:
 5445              	.LBB466:
 5446              		.loc 1 717 0
 5447 013e 758B     		ldrh	r5, [r6, #26]
 5448              		.loc 1 718 0
 5449 0140 ADF80A30 		strh	r3, [sp, #10]	@ movhi
 5450              		.loc 1 719 0
 5451 0144 3046     		mov	r0, r6
 5452 0146 0423     		movs	r3, #4
 5453 0148 02AA     		add	r2, sp, #8
 5454              	.LVL685:
 5455 014a 49F20A01 		movw	r1, #36874
 5456              		.loc 1 717 0
 5457 014e ADF80850 		strh	r5, [sp, #8]	@ movhi
 5458              		.loc 1 719 0
 5459 0152 FFF7FEFF 		bl	AsebaSendMessage
 5460              	.LVL686:
 5461 0156 66E7     		b	.L672
 5462              	.LVL687:
 5463              	.L682:
 5464              	.LBE466:
 5465              	.LBE465:
 5466              		.loc 1 798 0
 5467 0158 358B     		ldrh	r5, [r6, #24]
 5468              	.LBB467:
 5469              	.LBB468:
 5470              		.loc 1 717 0
 5471 015a 738B     		ldrh	r3, [r6, #26]
 5472              	.LVL688:
ARM GAS  C:\Users\mathi\AppData\Local\Temp\ccF8t5t9.s 			page 97


 5473 015c ADF80830 		strh	r3, [sp, #8]	@ movhi
 5474              	.LBE468:
 5475              	.LBE467:
 5476              		.loc 1 798 0
 5477 0160 45F00205 		orr	r5, r5, #2
 5478 0164 3583     		strh	r5, [r6, #24]	@ movhi
 5479              	.LVL689:
 5480 0166 97E7     		b	.L804
 5481              	.LVL690:
 5482              	.L681:
 5483              		.loc 1 791 0
 5484 0168 358B     		ldrh	r5, [r6, #24]
 5485              	.LBB469:
 5486              	.LBB470:
 5487              		.loc 1 717 0
 5488 016a 738B     		ldrh	r3, [r6, #26]
 5489              	.LVL691:
 5490 016c ADF80830 		strh	r3, [sp, #8]	@ movhi
 5491              	.LBE470:
 5492              	.LBE469:
 5493              		.loc 1 791 0
 5494 0170 25F00205 		bic	r5, r5, #2
 5495 0174 ADB2     		uxth	r5, r5
 5496              	.LBB473:
 5497              	.LBB471:
 5498              		.loc 1 719 0
 5499 0176 0423     		movs	r3, #4
 5500              	.LBE471:
 5501              	.LBE473:
 5502              		.loc 1 791 0
 5503 0178 3583     		strh	r5, [r6, #24]	@ movhi
 5504              	.LVL692:
 5505              	.LBB474:
 5506              	.LBB472:
 5507              		.loc 1 719 0
 5508 017a 02AA     		add	r2, sp, #8
 5509              	.LVL693:
 5510 017c 49F20A01 		movw	r1, #36874
 5511 0180 3046     		mov	r0, r6
 5512              		.loc 1 718 0
 5513 0182 ADF80A50 		strh	r5, [sp, #10]	@ movhi
 5514              		.loc 1 719 0
 5515 0186 FFF7FEFF 		bl	AsebaSendMessage
 5516              	.LVL694:
 5517              	.LBE472:
 5518              	.LBE474:
 5519              		.loc 1 793 0
 5520 018a 5C4B     		ldr	r3, .L811+8
 5521 018c 002B     		cmp	r3, #0
 5522 018e 3FF44AAF 		beq	.L672
 5523              		.loc 1 794 0
 5524 0192 3046     		mov	r0, r6
 5525 0194 FFF7FEFF 		bl	AsebaVMRunCB
 5526              	.LVL695:
 5527 0198 45E7     		b	.L672
 5528              	.LVL696:
 5529              	.L694:
ARM GAS  C:\Users\mathi\AppData\Local\Temp\ccF8t5t9.s 			page 98


 5530              		.loc 1 875 0
 5531 019a 3046     		mov	r0, r6
 5532 019c 4DE7     		b	.L803
 5533              	.L689:
 5534              	.LVL697:
 5535              	.LBB475:
 5536              		.loc 1 844 0
 5537 019e 3046     		mov	r0, r6
 5538 01a0 AA88     		ldrh	r2, [r5, #4]
 5539              	.LVL698:
 5540 01a2 6988     		ldrh	r1, [r5, #2]
 5541 01a4 FFF7FEFF 		bl	AsebaSendVariables
 5542              	.LVL699:
 5543              	.LBE475:
 5544              		.loc 1 846 0
 5545 01a8 3DE7     		b	.L672
 5546              	.LVL700:
 5547              	.L688:
 5548              	.LBB476:
 5549              	.LBB477:
 5550              		.loc 1 710 0
 5551 01aa 0023     		movs	r3, #0
 5552              	.LVL701:
 5553 01ac F387     		strh	r3, [r6, #62]	@ movhi
 5554 01ae 3AE7     		b	.L672
 5555              	.LVL702:
 5556              	.L687:
 5557              	.LBE477:
 5558              	.LBE476:
 5559              	.LBB478:
 5560              	.LBB479:
 5561              		.loc 1 692 0
 5562 01b0 F38F     		ldrh	r3, [r6, #62]
 5563              	.LVL703:
 5564              	.LBE479:
 5565              	.LBE478:
 5566              		.loc 1 829 0
 5567 01b2 6A88     		ldrh	r2, [r5, #2]
 5568              	.LVL704:
 5569              	.LBB483:
 5570              	.LBB481:
 5571              		.loc 1 692 0
 5572 01b4 002B     		cmp	r3, #0
 5573 01b6 3FF436AF 		beq	.L672
 5574              		.loc 1 694 0
 5575 01ba F18B     		ldrh	r1, [r6, #30]
 5576 01bc 9142     		cmp	r1, r2
 5577              		.loc 1 692 0
 5578 01be 08BF     		it	eq
 5579 01c0 0022     		moveq	r2, #0
 5580              	.LVL705:
 5581              		.loc 1 694 0
 5582 01c2 69D0     		beq	.L711
 5583              	.LVL706:
 5584              		.loc 1 692 0
 5585 01c4 012B     		cmp	r3, #1
 5586 01c6 7FF62EAF 		bls	.L672
ARM GAS  C:\Users\mathi\AppData\Local\Temp\ccF8t5t9.s 			page 99


 5587              		.loc 1 694 0
 5588 01ca 318C     		ldrh	r1, [r6, #32]
 5589 01cc 9142     		cmp	r1, r2
 5590 01ce 00F0E680 		beq	.L718
 5591              	.LVL707:
 5592              		.loc 1 692 0
 5593 01d2 022B     		cmp	r3, #2
 5594 01d4 3FF427AF 		beq	.L672
 5595              		.loc 1 694 0
 5596 01d8 718C     		ldrh	r1, [r6, #34]
 5597 01da 9142     		cmp	r1, r2
 5598 01dc 00F0E180 		beq	.L719
 5599              	.LVL708:
 5600              		.loc 1 692 0
 5601 01e0 032B     		cmp	r3, #3
 5602 01e2 3FF420AF 		beq	.L672
 5603              		.loc 1 694 0
 5604 01e6 B18C     		ldrh	r1, [r6, #36]
 5605 01e8 9142     		cmp	r1, r2
 5606 01ea 00F0DC80 		beq	.L720
 5607              	.LVL709:
 5608              		.loc 1 692 0
 5609 01ee 042B     		cmp	r3, #4
 5610 01f0 3FF419AF 		beq	.L672
 5611              		.loc 1 694 0
 5612 01f4 F18C     		ldrh	r1, [r6, #38]
 5613 01f6 9142     		cmp	r1, r2
 5614 01f8 00F0D780 		beq	.L721
 5615              	.LVL710:
 5616              		.loc 1 692 0
 5617 01fc 052B     		cmp	r3, #5
 5618 01fe 3FF412AF 		beq	.L672
 5619              		.loc 1 694 0
 5620 0202 318D     		ldrh	r1, [r6, #40]
 5621 0204 9142     		cmp	r1, r2
 5622 0206 00F0D680 		beq	.L722
 5623              	.LVL711:
 5624              		.loc 1 692 0
 5625 020a 062B     		cmp	r3, #6
 5626 020c 3FF40BAF 		beq	.L672
 5627              		.loc 1 694 0
 5628 0210 718D     		ldrh	r1, [r6, #42]
 5629 0212 9142     		cmp	r1, r2
 5630 0214 00F0CD80 		beq	.L723
 5631              	.LVL712:
 5632              		.loc 1 692 0
 5633 0218 072B     		cmp	r3, #7
 5634 021a 3FF404AF 		beq	.L672
 5635              		.loc 1 694 0
 5636 021e B18D     		ldrh	r1, [r6, #44]
 5637 0220 9142     		cmp	r1, r2
 5638 0222 00F0C480 		beq	.L724
 5639              	.LVL713:
 5640              		.loc 1 692 0
 5641 0226 082B     		cmp	r3, #8
 5642 0228 3FF4FDAE 		beq	.L672
 5643              		.loc 1 694 0
ARM GAS  C:\Users\mathi\AppData\Local\Temp\ccF8t5t9.s 			page 100


 5644 022c F18D     		ldrh	r1, [r6, #46]
 5645 022e 9142     		cmp	r1, r2
 5646 0230 00F0C380 		beq	.L725
 5647              	.LVL714:
 5648              		.loc 1 692 0
 5649 0234 092B     		cmp	r3, #9
 5650 0236 3FF4F6AE 		beq	.L672
 5651              		.loc 1 694 0
 5652 023a 318E     		ldrh	r1, [r6, #48]
 5653 023c 9142     		cmp	r1, r2
 5654 023e 00F0C880 		beq	.L726
 5655              	.LVL715:
 5656              		.loc 1 692 0
 5657 0242 0A2B     		cmp	r3, #10
 5658 0244 3FF4EFAE 		beq	.L672
 5659              		.loc 1 694 0
 5660 0248 718E     		ldrh	r1, [r6, #50]
 5661 024a 9142     		cmp	r1, r2
 5662 024c 00F0BF80 		beq	.L727
 5663              	.LVL716:
 5664              		.loc 1 692 0
 5665 0250 0B2B     		cmp	r3, #11
 5666 0252 3FF4E8AE 		beq	.L672
 5667              		.loc 1 694 0
 5668 0256 B18E     		ldrh	r1, [r6, #52]
 5669 0258 9142     		cmp	r1, r2
 5670 025a 00F0B680 		beq	.L728
 5671              	.LVL717:
 5672              		.loc 1 692 0
 5673 025e 0C2B     		cmp	r3, #12
 5674 0260 3FF4E1AE 		beq	.L672
 5675              		.loc 1 694 0
 5676 0264 F18E     		ldrh	r1, [r6, #54]
 5677 0266 9142     		cmp	r1, r2
 5678 0268 00F0AD80 		beq	.L729
 5679              	.LVL718:
 5680              		.loc 1 692 0
 5681 026c 0D2B     		cmp	r3, #13
 5682 026e 3FF4DAAE 		beq	.L672
 5683              		.loc 1 694 0
 5684 0272 318F     		ldrh	r1, [r6, #56]
 5685 0274 9142     		cmp	r1, r2
 5686 0276 00F0A480 		beq	.L730
 5687              	.LVL719:
 5688              		.loc 1 692 0
 5689 027a 0E2B     		cmp	r3, #14
 5690 027c 3FF4D3AE 		beq	.L672
 5691              		.loc 1 694 0
 5692 0280 718F     		ldrh	r1, [r6, #58]
 5693 0282 9142     		cmp	r1, r2
 5694 0284 00F09B80 		beq	.L731
 5695              	.LVL720:
 5696              		.loc 1 692 0
 5697 0288 0F2B     		cmp	r3, #15
 5698 028a 3FF4CCAE 		beq	.L672
 5699              		.loc 1 694 0
 5700 028e B18F     		ldrh	r1, [r6, #60]
ARM GAS  C:\Users\mathi\AppData\Local\Temp\ccF8t5t9.s 			page 101


 5701 0290 9142     		cmp	r1, r2
 5702 0292 7FF4C8AE 		bne	.L672
 5703              		.loc 1 692 0
 5704 0296 0F22     		movs	r2, #15
 5705              	.LVL721:
 5706              	.L711:
 5707              	.LBB480:
 5708              		.loc 1 698 0
 5709 0298 591E     		subs	r1, r3, #1
 5710 029a 89B2     		uxth	r1, r1
 5711              		.loc 1 699 0
 5712 029c 9142     		cmp	r1, r2
 5713              		.loc 1 698 0
 5714 029e F187     		strh	r1, [r6, #62]	@ movhi
 5715              	.LVL722:
 5716              		.loc 1 699 0
 5717 02a0 7FF6C1AE 		bls	.L672
 5718              		.loc 1 700 0
 5719 02a4 991E     		subs	r1, r3, #2
 5720 02a6 891A     		subs	r1, r1, r2
 5721 02a8 5300     		lsls	r3, r2, #1
 5722 02aa 89B2     		uxth	r1, r1
 5723 02ac 4A1C     		adds	r2, r1, #1
 5724              	.LVL723:
 5725 02ae 03F12001 		add	r1, r3, #32
 5726 02b2 1E33     		adds	r3, r3, #30
 5727 02b4 5200     		lsls	r2, r2, #1
 5728 02b6 3144     		add	r1, r1, r6
 5729 02b8 F018     		adds	r0, r6, r3
 5730 02ba FFF7FEFF 		bl	memmove
 5731              	.LVL724:
 5732 02be B2E6     		b	.L672
 5733              	.LVL725:
 5734              	.L686:
 5735              	.LBE480:
 5736              	.LBE481:
 5737              	.LBE483:
 5738              	.LBB484:
 5739              	.LBB485:
 5740              	.LBB486:
 5741              		.loc 1 679 0 discriminator 8
 5742 02c0 F38F     		ldrh	r3, [r6, #62]
 5743              	.LVL726:
 5744              	.LBE486:
 5745              	.LBE485:
 5746              		.loc 1 822 0 discriminator 8
 5747 02c2 6A88     		ldrh	r2, [r5, #2]
 5748              	.LVL727:
 5749 02c4 ADF80820 		strh	r2, [sp, #8]	@ movhi
 5750              	.LVL728:
 5751              	.LBB489:
 5752              	.LBB487:
 5753              		.loc 1 679 0 discriminator 8
 5754 02c8 0F2B     		cmp	r3, #15
 5755 02ca 5AD8     		bhi	.L717
 5756              		.loc 1 681 0
 5757 02cc 06EB4301 		add	r1, r6, r3, lsl #1
ARM GAS  C:\Users\mathi\AppData\Local\Temp\ccF8t5t9.s 			page 102


 5758 02d0 0133     		adds	r3, r3, #1
 5759 02d2 F387     		strh	r3, [r6, #62]	@ movhi
 5760 02d4 0125     		movs	r5, #1
 5761              	.LVL729:
 5762 02d6 CA83     		strh	r2, [r1, #30]	@ movhi
 5763              	.L709:
 5764              	.LVL730:
 5765              	.LBE487:
 5766              	.LBE489:
 5767              		.loc 1 824 0
 5768 02d8 3046     		mov	r0, r6
 5769 02da 0423     		movs	r3, #4
 5770 02dc 02AA     		add	r2, sp, #8
 5771 02de 49F20B01 		movw	r1, #36875
 5772              		.loc 1 823 0
 5773 02e2 ADF80A50 		strh	r5, [sp, #10]	@ movhi
 5774              		.loc 1 824 0
 5775 02e6 FFF7FEFF 		bl	AsebaSendMessage
 5776              	.LVL731:
 5777              	.LBE484:
 5778              		.loc 1 826 0
 5779 02ea 9CE6     		b	.L672
 5780              	.LVL732:
 5781              	.L691:
 5782              		.loc 1 863 0
 5783 02ec 3046     		mov	r0, r6
 5784 02ee FFF7FEFF 		bl	AsebaWriteBytecode
 5785              	.LVL733:
 5786              		.loc 1 864 0
 5787 02f2 98E6     		b	.L672
 5788              	.L812:
 5789              		.align	2
 5790              	.L811:
 5791 02f4 00000000 		.word	__stack_chk_guard
 5792 02f8 00000000 		.word	AsebaVMResetCB
 5793 02fc 00000000 		.word	AsebaVMRunCB
 5794              	.LVL734:
 5795              	.L690:
 5796              	.LBB491:
 5797              		.loc 1 857 0
 5798 0300 022B     		cmp	r3, #2
 5799              		.loc 1 850 0
 5800 0302 6988     		ldrh	r1, [r5, #2]
 5801              	.LVL735:
 5802              		.loc 1 857 0
 5803 0304 3FF48FAE 		beq	.L672
 5804 0308 033B     		subs	r3, r3, #3
 5805              	.LVL736:
 5806 030a 281D     		adds	r0, r5, #4
 5807 030c 9BB2     		uxth	r3, r3
 5808 030e C5EB4105 		rsb	r5, r5, r1, lsl #1
 5809 0312 00EB4300 		add	r0, r0, r3, lsl #1
 5810              	.LVL737:
 5811              	.L712:
 5812              		.loc 1 858 0 discriminator 3
 5813 0316 F368     		ldr	r3, [r6, #12]
 5814 0318 5188     		ldrh	r1, [r2, #2]
ARM GAS  C:\Users\mathi\AppData\Local\Temp\ccF8t5t9.s 			page 103


 5815 031a 1344     		add	r3, r3, r2
 5816 031c 2B44     		add	r3, r3, r5
 5817 031e 0232     		adds	r2, r2, #2
 5818              		.loc 1 857 0 discriminator 3
 5819 0320 8242     		cmp	r2, r0
 5820              		.loc 1 858 0 discriminator 3
 5821 0322 23F8021C 		strh	r1, [r3, #-2]	@ movhi
 5822              		.loc 1 857 0 discriminator 3
 5823 0326 F6D1     		bne	.L712
 5824 0328 7DE6     		b	.L672
 5825              	.LVL738:
 5826              	.L809:
 5827              	.LBE491:
 5828              	.LBB492:
 5829              	.LBB453:
 5830              	.LBB451:
 5831              		.loc 1 730 0
 5832 032a 22F40072 		bic	r2, r2, #512
 5833              	.LVL739:
 5834 032e 20F81320 		strh	r2, [r0, r3, lsl #1]	@ movhi
 5835              	.LVL740:
 5836              	.LBE451:
 5837              		.loc 1 726 0
 5838 0332 0133     		adds	r3, r3, #1
 5839              	.LVL741:
 5840 0334 7588     		ldrh	r5, [r6, #2]
 5841 0336 9BB2     		uxth	r3, r3
 5842              	.LVL742:
 5843 0338 9D42     		cmp	r5, r3
 5844 033a 7FF6D9AE 		bls	.L699
 5845 033e 7068     		ldr	r0, [r6, #4]
 5846 0340 CCE6     		b	.L698
 5847              	.LVL743:
 5848              	.L715:
 5849              	.LBE453:
 5850              	.LBE492:
 5851              	.LBB493:
 5852              	.LBB463:
 5853              	.LBB460:
 5854              	.LBB459:
 5855              		.loc 1 62 0
 5856 0342 0123     		movs	r3, #1
 5857              	.LVL744:
 5858              	.L704:
 5859              		.loc 1 63 0
 5860 0344 0133     		adds	r3, r3, #1
 5861 0346 328B     		ldrh	r2, [r6, #24]
 5862 0348 35F81350 		ldrh	r5, [r5, r3, lsl #1]
 5863              	.LVL745:
 5864              	.LBE459:
 5865              	.LBE460:
 5866              		.loc 1 71 0
 5867 034c 002D     		cmp	r5, #0
 5868 034e 3FF49FAE 		beq	.L703
 5869              		.loc 1 74 0
 5870 0352 D107     		lsls	r1, r2, #31
 5871 0354 17D4     		bmi	.L810
ARM GAS  C:\Users\mathi\AppData\Local\Temp\ccF8t5t9.s 			page 104


 5872              	.L708:
 5873              		.loc 1 81 0
 5874 0356 42F00107 		orr	r7, r2, #1
 5875              		.loc 1 80 0
 5876 035a 4FF6FF73 		movw	r3, #65535
 5877              		.loc 1 84 0
 5878 035e 9207     		lsls	r2, r2, #30
 5879              		.loc 1 79 0
 5880 0360 7583     		strh	r5, [r6, #26]	@ movhi
 5881              		.loc 1 80 0
 5882 0362 B383     		strh	r3, [r6, #28]	@ movhi
 5883              		.loc 1 81 0
 5884 0364 3783     		strh	r7, [r6, #24]	@ movhi
 5885              		.loc 1 84 0
 5886 0366 7FF55EAE 		bpl	.L672
 5887              	.LVL746:
 5888              	.LBB461:
 5889              	.LBB462:
 5890              		.loc 1 719 0
 5891 036a 3046     		mov	r0, r6
 5892 036c 0423     		movs	r3, #4
 5893 036e 02AA     		add	r2, sp, #8
 5894 0370 49F20A01 		movw	r1, #36874
 5895              		.loc 1 717 0
 5896 0374 ADF80850 		strh	r5, [sp, #8]	@ movhi
 5897              		.loc 1 718 0
 5898 0378 ADF80A70 		strh	r7, [sp, #10]	@ movhi
 5899              		.loc 1 719 0
 5900 037c FFF7FEFF 		bl	AsebaSendMessage
 5901              	.LVL747:
 5902 0380 51E6     		b	.L672
 5903              	.LVL748:
 5904              	.L717:
 5905              	.LBE462:
 5906              	.LBE461:
 5907              	.LBE463:
 5908              	.LBE493:
 5909              	.LBB494:
 5910              	.LBB490:
 5911              	.LBB488:
 5912              		.loc 1 679 0
 5913 0382 0025     		movs	r5, #0
 5914              	.LVL749:
 5915 0384 A8E7     		b	.L709
 5916              	.LVL750:
 5917              	.L810:
 5918              	.LBE488:
 5919              	.LBE490:
 5920              	.LBE494:
 5921              	.LBB495:
 5922              	.LBB464:
 5923              		.loc 1 76 0
 5924 0386 06F11A02 		add	r2, r6, #26
 5925 038a 0223     		movs	r3, #2
 5926 038c 49F20801 		movw	r1, #36872
 5927 0390 3046     		mov	r0, r6
 5928 0392 FFF7FEFF 		bl	AsebaSendMessage
ARM GAS  C:\Users\mathi\AppData\Local\Temp\ccF8t5t9.s 			page 105


 5929              	.LVL751:
 5930 0396 328B     		ldrh	r2, [r6, #24]
 5931 0398 DDE7     		b	.L708
 5932              	.LVL752:
 5933              	.L808:
 5934              	.LBE464:
 5935              	.LBE495:
 5936              		.loc 1 881 0
 5937 039a FFF7FEFF 		bl	__stack_chk_fail
 5938              	.LVL753:
 5939              	.L718:
 5940              	.LBB496:
 5941              	.LBB482:
 5942              		.loc 1 692 0
 5943 039e 0122     		movs	r2, #1
 5944 03a0 7AE7     		b	.L711
 5945              	.LVL754:
 5946              	.L719:
 5947 03a2 0222     		movs	r2, #2
 5948 03a4 78E7     		b	.L711
 5949              	.LVL755:
 5950              	.L720:
 5951 03a6 0322     		movs	r2, #3
 5952 03a8 76E7     		b	.L711
 5953              	.LVL756:
 5954              	.L721:
 5955 03aa 0422     		movs	r2, #4
 5956 03ac 74E7     		b	.L711
 5957              	.LVL757:
 5958              	.L724:
 5959 03ae 0722     		movs	r2, #7
 5960 03b0 72E7     		b	.L711
 5961              	.LVL758:
 5962              	.L723:
 5963 03b2 0622     		movs	r2, #6
 5964 03b4 70E7     		b	.L711
 5965              	.LVL759:
 5966              	.L722:
 5967 03b6 0522     		movs	r2, #5
 5968 03b8 6EE7     		b	.L711
 5969              	.LVL760:
 5970              	.L725:
 5971 03ba 0822     		movs	r2, #8
 5972 03bc 6CE7     		b	.L711
 5973              	.LVL761:
 5974              	.L731:
 5975 03be 0E22     		movs	r2, #14
 5976 03c0 6AE7     		b	.L711
 5977              	.LVL762:
 5978              	.L730:
 5979 03c2 0D22     		movs	r2, #13
 5980 03c4 68E7     		b	.L711
 5981              	.LVL763:
 5982              	.L729:
 5983 03c6 0C22     		movs	r2, #12
 5984 03c8 66E7     		b	.L711
 5985              	.LVL764:
ARM GAS  C:\Users\mathi\AppData\Local\Temp\ccF8t5t9.s 			page 106


 5986              	.L728:
 5987 03ca 0B22     		movs	r2, #11
 5988 03cc 64E7     		b	.L711
 5989              	.LVL765:
 5990              	.L727:
 5991 03ce 0A22     		movs	r2, #10
 5992 03d0 62E7     		b	.L711
 5993              	.LVL766:
 5994              	.L726:
 5995 03d2 0922     		movs	r2, #9
 5996 03d4 60E7     		b	.L711
 5997              	.LBE482:
 5998              	.LBE496:
 5999              		.cfi_endproc
 6000              	.LFE16:
 6001              		.size	AsebaVMDebugMessage, .-AsebaVMDebugMessage
 6002 03d6 00BF     		.section	.text.AsebaVMShouldDropPacket,"ax",%progbits
 6003              		.align	1
 6004              		.p2align 4,,15
 6005              		.global	AsebaVMShouldDropPacket
 6006              		.syntax unified
 6007              		.thumb
 6008              		.thumb_func
 6009              		.fpu fpv4-sp-d16
 6010              		.type	AsebaVMShouldDropPacket, %function
 6011              	AsebaVMShouldDropPacket:
 6012              	.LFB17:
 6013              		.loc 1 884 0
 6014              		.cfi_startproc
 6015              		@ args = 0, pretend = 0, frame = 8
 6016              		@ frame_needed = 0, uses_anonymous_args = 0
 6017              	.LVL767:
 6018 0000 70B5     		push	{r4, r5, r6, lr}
 6019              		.cfi_def_cfa_offset 16
 6020              		.cfi_offset 4, -16
 6021              		.cfi_offset 5, -12
 6022              		.cfi_offset 6, -8
 6023              		.cfi_offset 14, -4
 6024 0002 1E4E     		ldr	r6, .L830
 6025              		.loc 1 886 0
 6026 0004 1488     		ldrh	r4, [r2]
 6027              	.LVL768:
 6028              		.loc 1 884 0
 6029 0006 3368     		ldr	r3, [r6]
 6030 0008 82B0     		sub	sp, sp, #8
 6031              		.cfi_def_cfa_offset 24
 6032              		.loc 1 884 0
 6033 000a 0193     		str	r3, [sp, #4]
 6034              		.loc 1 887 0
 6035 000c 2304     		lsls	r3, r4, #16
 6036 000e 19D4     		bmi	.L814
 6037              	.LVL769:
 6038              	.LBB497:
 6039              	.LBB498:
 6040              		.loc 1 57 0
 6041 0010 4068     		ldr	r0, [r0, #4]
 6042              	.LVL770:
ARM GAS  C:\Users\mathi\AppData\Local\Temp\ccF8t5t9.s 			page 107


 6043 0012 0588     		ldrh	r5, [r0]
 6044              	.LVL771:
 6045              		.loc 1 61 0
 6046 0014 012D     		cmp	r5, #1
 6047 0016 0ED9     		bls	.L824
 6048              		.loc 1 62 0
 6049 0018 4388     		ldrh	r3, [r0, #2]
 6050 001a A342     		cmp	r3, r4
 6051 001c 29D0     		beq	.L822
 6052 001e 0323     		movs	r3, #3
 6053 0020 06E0     		b	.L817
 6054              	.LVL772:
 6055              	.L818:
 6056 0022 30F81320 		ldrh	r2, [r0, r3, lsl #1]
 6057 0026 A242     		cmp	r2, r4
 6058 0028 03F10201 		add	r1, r3, #2
 6059 002c 18D0     		beq	.L828
 6060 002e 0B46     		mov	r3, r1
 6061              	.LVL773:
 6062              	.L817:
 6063              		.loc 1 61 0
 6064 0030 9AB2     		uxth	r2, r3
 6065 0032 9542     		cmp	r5, r2
 6066 0034 F5D8     		bhi	.L818
 6067              	.LVL774:
 6068              	.L824:
 6069              	.LBE498:
 6070              	.LBE497:
 6071              		.loc 1 903 0
 6072 0036 0120     		movs	r0, #1
 6073              	.L819:
 6074              		.loc 1 904 0
 6075 0038 019A     		ldr	r2, [sp, #4]
 6076 003a 3368     		ldr	r3, [r6]
 6077 003c 9A42     		cmp	r2, r3
 6078 003e 1AD1     		bne	.L829
 6079 0040 02B0     		add	sp, sp, #8
 6080              		.cfi_remember_state
 6081              		.cfi_def_cfa_offset 16
 6082              		@ sp needed
 6083 0042 70BD     		pop	{r4, r5, r6, pc}
 6084              	.LVL775:
 6085              	.L814:
 6086              		.cfi_restore_state
 6087              		.loc 1 892 0
 6088 0044 B4F5204F 		cmp	r4, #40960
 6089 0048 F5D3     		bcc	.L824
 6090              	.LVL776:
 6091              	.LBB500:
 6092              		.loc 1 896 0
 6093 004a 10D0     		beq	.L826
 6094              		.loc 1 896 0 is_stmt 0 discriminator 1
 6095 004c 4AF21103 		movw	r3, #40977
 6096 0050 9C42     		cmp	r4, r3
 6097 0052 0CD0     		beq	.L826
 6098              		.loc 1 901 0 is_stmt 1
 6099 0054 0088     		ldrh	r0, [r0]
ARM GAS  C:\Users\mathi\AppData\Local\Temp\ccF8t5t9.s 			page 108


 6100              	.LVL777:
 6101 0056 5388     		ldrh	r3, [r2, #2]
 6102 0058 C01A     		subs	r0, r0, r3
 6103 005a 18BF     		it	ne
 6104 005c 0120     		movne	r0, #1
 6105 005e EBE7     		b	.L819
 6106              	.LVL778:
 6107              	.L828:
 6108 0060 0133     		adds	r3, r3, #1
 6109              	.LVL779:
 6110 0062 5B00     		lsls	r3, r3, #1
 6111              	.L816:
 6112 0064 C05A     		ldrh	r0, [r0, r3]
 6113 0066 B0FA80F0 		clz	r0, r0
 6114 006a 4009     		lsrs	r0, r0, #5
 6115 006c E4E7     		b	.L819
 6116              	.LVL780:
 6117              	.L826:
 6118              		.loc 1 898 0
 6119 006e 0020     		movs	r0, #0
 6120              	.LVL781:
 6121 0070 E2E7     		b	.L819
 6122              	.LVL782:
 6123              	.L822:
 6124              	.LBE500:
 6125              	.LBB501:
 6126              	.LBB499:
 6127              		.loc 1 62 0
 6128 0072 0423     		movs	r3, #4
 6129 0074 F6E7     		b	.L816
 6130              	.LVL783:
 6131              	.L829:
 6132              	.LBE499:
 6133              	.LBE501:
 6134              		.loc 1 904 0
 6135 0076 FFF7FEFF 		bl	__stack_chk_fail
 6136              	.LVL784:
 6137              	.L831:
 6138 007a 00BF     		.align	2
 6139              	.L830:
 6140 007c 00000000 		.word	__stack_chk_guard
 6141              		.cfi_endproc
 6142              	.LFE17:
 6143              		.size	AsebaVMShouldDropPacket, .-AsebaVMShouldDropPacket
 6144              		.weak	AsebaVMRunCB
 6145              		.weak	AsebaVMResetCB
 6146              		.weak	AsebaVMErrorCB
 6147              		.text
 6148              	.Letext0:
 6149              		.file 2 "../../lib/e-puck2_main-processor/aseba/vm/../common/consts.h"
 6150              		.file 3 "c:\\eclipse_e-puck2\\tools\\gcc-arm-none-eabi-7-2017-q4-major-win32\\arm-none-eabi\\inclu
 6151              		.file 4 "c:\\eclipse_e-puck2\\tools\\gcc-arm-none-eabi-7-2017-q4-major-win32\\arm-none-eabi\\inclu
 6152              		.file 5 "c:\\eclipse_e-puck2\\tools\\gcc-arm-none-eabi-7-2017-q4-major-win32\\lib\\gcc\\arm-none-e
 6153              		.file 6 "c:\\eclipse_e-puck2\\tools\\gcc-arm-none-eabi-7-2017-q4-major-win32\\arm-none-eabi\\inclu
 6154              		.file 7 "c:\\eclipse_e-puck2\\tools\\gcc-arm-none-eabi-7-2017-q4-major-win32\\arm-none-eabi\\inclu
 6155              		.file 8 "../../lib/e-puck2_main-processor/aseba/vm/../common/types.h"
 6156              		.file 9 "../../lib/e-puck2_main-processor/aseba/vm/vm.h"
ARM GAS  C:\Users\mathi\AppData\Local\Temp\ccF8t5t9.s 			page 109


 6157              		.file 10 "c:\\eclipse_e-puck2\\tools\\gcc-arm-none-eabi-7-2017-q4-major-win32\\arm-none-eabi\\incl
 6158              		.file 11 "<built-in>"