ARM GAS  C:\Users\mathi\AppData\Local\Temp\ccF8t5t9.s 			page 1


   1              		.cpu cortex-m4
   2              		.eabi_attribute 27, 1
   3              		.eabi_attribute 28, 1
   4              		.eabi_attribute 20, 1
   5              		.eabi_attribute 21, 1
   6              		.eabi_attribute 23, 3
   7              		.eabi_attribute 24, 1
   8              		.eabi_attribute 25, 1
   9              		.eabi_attribute 26, 1
  10              		.eabi_attribute 30, 2
  11              		.eabi_attribute 34, 1
  12              		.eabi_attribute 18, 4
  13              		.file	"vm.c"
  14              		.text
  15              	.Ltext0:
  16              		.cfi_sections	.debug_frame
  17              		.section	.text.AsebaVMDoBinaryOperation,"ax",%progbits
  18              		.align	1
  19              		.p2align 4,,15
  20              		.syntax unified
  21              		.thumb
  22              		.thumb_func
  23              		.fpu fpv4-sp-d16
  24              		.type	AsebaVMDoBinaryOperation, %function
  25              	AsebaVMDoBinaryOperation:
  26              	.LFB3:
  27              		.file 1 "../../lib/e-puck2_main-processor/aseba/vm/vm.c"
  28              		.loc 1 91 0
  29              		.cfi_startproc
  30              		@ args = 0, pretend = 0, frame = 8
  31              		@ frame_needed = 0, uses_anonymous_args = 0
  32              	.LVL0:
  33 0000 30B5     		push	{r4, r5, lr}
  34              		.cfi_def_cfa_offset 12
  35              		.cfi_offset 4, -12
  36              		.cfi_offset 5, -8
  37              		.cfi_offset 14, -4
  38 0002 3C4C     		ldr	r4, .L41
  39 0004 83B0     		sub	sp, sp, #12
  40              		.cfi_def_cfa_offset 24
  41              		.loc 1 91 0
  42 0006 2568     		ldr	r5, [r4]
  43 0008 0195     		str	r5, [sp, #4]
  44 000a 0546     		mov	r5, r0
  45              		.loc 1 92 0
  46 000c 112B     		cmp	r3, #17
  47 000e 36D8     		bhi	.L29
  48 0010 DFE803F0 		tbb	[pc, r3]
  49              	.LVL1:
  50              	.L4:
  51 0014 0E       		.byte	(.L3-.L4)/2
  52 0015 17       		.byte	(.L5-.L4)/2
  53 0016 1A       		.byte	(.L6-.L4)/2
  54 0017 1D       		.byte	(.L7-.L4)/2
  55 0018 20       		.byte	(.L8-.L4)/2
  56 0019 24       		.byte	(.L9-.L4)/2
  57 001a 37       		.byte	(.L10-.L4)/2
ARM GAS  C:\Users\mathi\AppData\Local\Temp\ccF8t5t9.s 			page 2


  58 001b 3F       		.byte	(.L11-.L4)/2
  59 001c 42       		.byte	(.L12-.L4)/2
  60 001d 45       		.byte	(.L13-.L4)/2
  61 001e 48       		.byte	(.L14-.L4)/2
  62 001f 4D       		.byte	(.L15-.L4)/2
  63 0020 51       		.byte	(.L16-.L4)/2
  64 0021 56       		.byte	(.L17-.L4)/2
  65 0022 5B       		.byte	(.L18-.L4)/2
  66 0023 60       		.byte	(.L19-.L4)/2
  67 0024 65       		.byte	(.L20-.L4)/2
  68 0025 09       		.byte	(.L21-.L4)/2
  69              		.p2align 1
  70              	.L21:
  71              		.loc 1 140 0
  72 0026 51B3     		cbz	r1, .L29
  73              	.L38:
  74 0028 101C     		adds	r0, r2, #0
  75 002a 18BF     		it	ne
  76 002c 0120     		movne	r0, #1
  77 002e 02E0     		b	.L2
  78              	.L3:
  79              		.loc 1 94 0
  80 0030 01FA02F2 		lsl	r2, r1, r2
  81              	.LVL2:
  82 0034 10B2     		sxth	r0, r2
  83              	.LVL3:
  84              	.L2:
  85              		.loc 1 148 0
  86 0036 019A     		ldr	r2, [sp, #4]
  87 0038 2368     		ldr	r3, [r4]
  88 003a 9A42     		cmp	r2, r3
  89 003c 57D1     		bne	.L40
  90 003e 03B0     		add	sp, sp, #12
  91              		.cfi_remember_state
  92              		.cfi_def_cfa_offset 12
  93              		@ sp needed
  94 0040 30BD     		pop	{r4, r5, pc}
  95              	.LVL4:
  96              	.L5:
  97              		.cfi_restore_state
  98              		.loc 1 95 0
  99 0042 41FA02F0 		asr	r0, r1, r2
 100 0046 F6E7     		b	.L2
 101              	.L6:
 102              		.loc 1 96 0
 103 0048 0A44     		add	r2, r2, r1
 104              	.LVL5:
 105 004a 10B2     		sxth	r0, r2
 106 004c F3E7     		b	.L2
 107              	.LVL6:
 108              	.L7:
 109              		.loc 1 97 0
 110 004e 8A1A     		subs	r2, r1, r2
 111              	.LVL7:
 112 0050 10B2     		sxth	r0, r2
 113 0052 F0E7     		b	.L2
 114              	.LVL8:
ARM GAS  C:\Users\mathi\AppData\Local\Temp\ccF8t5t9.s 			page 3


 115              	.L8:
 116              		.loc 1 98 0
 117 0054 11FB02F2 		smulbb	r2, r1, r2
 118              	.LVL9:
 119 0058 10B2     		sxth	r0, r2
 120 005a ECE7     		b	.L2
 121              	.LVL10:
 122              	.L9:
 123              		.loc 1 101 0
 124 005c 002A     		cmp	r2, #0
 125 005e 42D1     		bne	.L22
 126              	.L36:
 127              		.loc 1 103 0
 128 0060 254B     		ldr	r3, .L41+4
 129              	.LVL11:
 130 0062 1BB1     		cbz	r3, .L23
 131              		.loc 1 104 0
 132 0064 0021     		movs	r1, #0
 133              	.LVL12:
 134 0066 2846     		mov	r0, r5
 135 0068 FFF7FEFF 		bl	AsebaVMErrorCB
 136              	.LVL13:
 137              	.L23:
 138              		.loc 1 105 0
 139 006c 0223     		movs	r3, #2
 140 006e 2B83     		strh	r3, [r5, #24]	@ movhi
 141              		.loc 1 106 0
 142 0070 05F11A02 		add	r2, r5, #26
 143 0074 2846     		mov	r0, r5
 144 0076 49F20701 		movw	r1, #36871
 145 007a FFF7FEFF 		bl	AsebaSendMessage
 146              	.LVL14:
 147              	.L29:
 148              		.loc 1 146 0
 149 007e 0020     		movs	r0, #0
 150 0080 D9E7     		b	.L2
 151              	.LVL15:
 152              	.L10:
 153              		.loc 1 115 0
 154 0082 002A     		cmp	r2, #0
 155 0084 ECD0     		beq	.L36
 156              		.loc 1 125 0
 157 0086 91FBF2F0 		sdiv	r0, r1, r2
 158 008a 02FB1012 		mls	r2, r2, r0, r1
 159              	.LVL16:
 160 008e 10B2     		sxth	r0, r2
 161 0090 D1E7     		b	.L2
 162              	.LVL17:
 163              	.L11:
 164              		.loc 1 128 0
 165 0092 41EA0200 		orr	r0, r1, r2
 166 0096 CEE7     		b	.L2
 167              	.L12:
 168              		.loc 1 129 0
 169 0098 81EA0200 		eor	r0, r1, r2
 170 009c CBE7     		b	.L2
 171              	.L13:
ARM GAS  C:\Users\mathi\AppData\Local\Temp\ccF8t5t9.s 			page 4


 172              		.loc 1 130 0
 173 009e 01EA0200 		and	r0, r1, r2
 174 00a2 C8E7     		b	.L2
 175              	.L14:
 176              		.loc 1 132 0
 177 00a4 881A     		subs	r0, r1, r2
 178 00a6 B0FA80F0 		clz	r0, r0
 179 00aa 4009     		lsrs	r0, r0, #5
 180 00ac C3E7     		b	.L2
 181              	.L15:
 182              		.loc 1 133 0
 183 00ae 881A     		subs	r0, r1, r2
 184 00b0 18BF     		it	ne
 185 00b2 0120     		movne	r0, #1
 186 00b4 BFE7     		b	.L2
 187              	.L16:
 188              		.loc 1 134 0
 189 00b6 9142     		cmp	r1, r2
 190 00b8 D4BF     		ite	le
 191 00ba 0020     		movle	r0, #0
 192 00bc 0120     		movgt	r0, #1
 193 00be BAE7     		b	.L2
 194              	.L17:
 195              		.loc 1 135 0
 196 00c0 9142     		cmp	r1, r2
 197 00c2 B4BF     		ite	lt
 198 00c4 0020     		movlt	r0, #0
 199 00c6 0120     		movge	r0, #1
 200 00c8 B5E7     		b	.L2
 201              	.L18:
 202              		.loc 1 136 0
 203 00ca 9142     		cmp	r1, r2
 204 00cc ACBF     		ite	ge
 205 00ce 0020     		movge	r0, #0
 206 00d0 0120     		movlt	r0, #1
 207 00d2 B0E7     		b	.L2
 208              	.L19:
 209              		.loc 1 137 0
 210 00d4 9142     		cmp	r1, r2
 211 00d6 CCBF     		ite	gt
 212 00d8 0020     		movgt	r0, #0
 213 00da 0120     		movle	r0, #1
 214 00dc ABE7     		b	.L2
 215              	.L20:
 216              		.loc 1 139 0
 217 00de 0029     		cmp	r1, #0
 218 00e0 A2D0     		beq	.L38
 219 00e2 0120     		movs	r0, #1
 220 00e4 A7E7     		b	.L2
 221              	.L22:
 222              		.loc 1 111 0
 223 00e6 91FBF2F2 		sdiv	r2, r1, r2
 224              	.LVL18:
 225 00ea 10B2     		sxth	r0, r2
 226 00ec A3E7     		b	.L2
 227              	.LVL19:
 228              	.L40:
ARM GAS  C:\Users\mathi\AppData\Local\Temp\ccF8t5t9.s 			page 5


 229              		.loc 1 148 0
 230 00ee FFF7FEFF 		bl	__stack_chk_fail
 231              	.LVL20:
 232              	.L42:
 233 00f2 00BF     		.align	2
 234              	.L41:
 235 00f4 00000000 		.word	__stack_chk_guard
 236 00f8 00000000 		.word	AsebaVMErrorCB
 237              		.cfi_endproc
 238              	.LFE3:
 239              		.size	AsebaVMDoBinaryOperation, .-AsebaVMDoBinaryOperation
 240              		.section	.text.AsebaVMInit,"ax",%progbits
 241              		.align	1
 242              		.p2align 4,,15
 243              		.global	AsebaVMInit
 244              		.syntax unified
 245              		.thumb
 246              		.thumb_func
 247              		.fpu fpv4-sp-d16
 248              		.type	AsebaVMInit, %function
 249              	AsebaVMInit:
 250              	.LFB0:
 251              		.loc 1 45 0
 252              		.cfi_startproc
 253              		@ args = 0, pretend = 0, frame = 8
 254              		@ frame_needed = 0, uses_anonymous_args = 0
 255              	.LVL21:
 256 0000 10B5     		push	{r4, lr}
 257              		.cfi_def_cfa_offset 8
 258              		.cfi_offset 4, -8
 259              		.cfi_offset 14, -4
 260 0002 0B4B     		ldr	r3, .L48
 261              		.loc 1 51 0
 262 0004 4268     		ldr	r2, [r0, #4]
 263              		.loc 1 45 0
 264 0006 1968     		ldr	r1, [r3]
 265 0008 82B0     		sub	sp, sp, #8
 266              		.cfi_def_cfa_offset 16
 267              		.loc 1 45 0
 268 000a 0191     		str	r1, [sp, #4]
 269              		.loc 1 47 0
 270 000c 0021     		movs	r1, #0
 271 000e 8161     		str	r1, [r0, #24]
 272              		.loc 1 48 0
 273 0010 C187     		strh	r1, [r0, #62]	@ movhi
 274              		.loc 1 51 0
 275 0012 1180     		strh	r1, [r2]	@ movhi
 276              		.loc 1 52 0
 277 0014 019C     		ldr	r4, [sp, #4]
 278 0016 1B68     		ldr	r3, [r3]
 279 0018 0289     		ldrh	r2, [r0, #8]
 280 001a C068     		ldr	r0, [r0, #12]
 281              	.LVL22:
 282 001c 9C42     		cmp	r4, r3
 283 001e 05D1     		bne	.L47
 284 0020 5200     		lsls	r2, r2, #1
 285              		.loc 1 53 0
ARM GAS  C:\Users\mathi\AppData\Local\Temp\ccF8t5t9.s 			page 6


 286 0022 02B0     		add	sp, sp, #8
 287              		.cfi_remember_state
 288              		.cfi_def_cfa_offset 8
 289              		@ sp needed
 290 0024 BDE81040 		pop	{r4, lr}
 291              		.cfi_restore 14
 292              		.cfi_restore 4
 293              		.cfi_def_cfa_offset 0
 294              		.loc 1 52 0
 295 0028 FFF7FEBF 		b	memset
 296              	.LVL23:
 297              	.L47:
 298              		.cfi_restore_state
 299 002c FFF7FEFF 		bl	__stack_chk_fail
 300              	.LVL24:
 301              	.L49:
 302              		.align	2
 303              	.L48:
 304 0030 00000000 		.word	__stack_chk_guard
 305              		.cfi_endproc
 306              	.LFE0:
 307              		.size	AsebaVMInit, .-AsebaVMInit
 308              		.section	.text.AsebaVMGetEventAddress,"ax",%progbits
 309              		.align	1
 310              		.p2align 4,,15
 311              		.global	AsebaVMGetEventAddress
 312              		.syntax unified
 313              		.thumb
 314              		.thumb_func
 315              		.fpu fpv4-sp-d16
 316              		.type	AsebaVMGetEventAddress, %function
 317              	AsebaVMGetEventAddress:
 318              	.LFB1:
 319              		.loc 1 56 0
 320              		.cfi_startproc
 321              		@ args = 0, pretend = 0, frame = 8
 322              		@ frame_needed = 0, uses_anonymous_args = 0
 323              	.LVL25:
 324 0000 70B5     		push	{r4, r5, r6, lr}
 325              		.cfi_def_cfa_offset 16
 326              		.cfi_offset 4, -16
 327              		.cfi_offset 5, -12
 328              		.cfi_offset 6, -8
 329              		.cfi_offset 14, -4
 330              		.loc 1 57 0
 331 0002 4468     		ldr	r4, [r0, #4]
 332              		.loc 1 56 0
 333 0004 124E     		ldr	r6, .L62
 334              		.loc 1 57 0
 335 0006 2588     		ldrh	r5, [r4]
 336              	.LVL26:
 337              		.loc 1 56 0
 338 0008 3368     		ldr	r3, [r6]
 339 000a 82B0     		sub	sp, sp, #8
 340              		.cfi_def_cfa_offset 24
 341              		.loc 1 61 0
 342 000c 012D     		cmp	r5, #1
ARM GAS  C:\Users\mathi\AppData\Local\Temp\ccF8t5t9.s 			page 7


 343              		.loc 1 56 0
 344 000e 0193     		str	r3, [sp, #4]
 345              		.loc 1 61 0
 346 0010 0ED9     		bls	.L56
 347              		.loc 1 62 0
 348 0012 6388     		ldrh	r3, [r4, #2]
 349 0014 8B42     		cmp	r3, r1
 350 0016 16D0     		beq	.L57
 351 0018 0323     		movs	r3, #3
 352 001a 06E0     		b	.L53
 353              	.LVL27:
 354              	.L54:
 355 001c 34F81320 		ldrh	r2, [r4, r3, lsl #1]
 356 0020 8A42     		cmp	r2, r1
 357 0022 03F10200 		add	r0, r3, #2
 358 0026 0AD0     		beq	.L60
 359 0028 0346     		mov	r3, r0
 360              	.LVL28:
 361              	.L53:
 362              		.loc 1 61 0 discriminator 2
 363 002a 9AB2     		uxth	r2, r3
 364 002c 9542     		cmp	r5, r2
 365 002e F5D8     		bhi	.L54
 366              	.LVL29:
 367              	.L56:
 368              		.loc 1 64 0
 369 0030 0020     		movs	r0, #0
 370              	.L51:
 371              		.loc 1 65 0
 372 0032 019A     		ldr	r2, [sp, #4]
 373 0034 3368     		ldr	r3, [r6]
 374 0036 9A42     		cmp	r2, r3
 375 0038 07D1     		bne	.L61
 376 003a 02B0     		add	sp, sp, #8
 377              		.cfi_remember_state
 378              		.cfi_def_cfa_offset 16
 379              		@ sp needed
 380 003c 70BD     		pop	{r4, r5, r6, pc}
 381              	.LVL30:
 382              	.L60:
 383              		.cfi_restore_state
 384 003e 0133     		adds	r3, r3, #1
 385              	.LVL31:
 386 0040 5B00     		lsls	r3, r3, #1
 387              	.L52:
 388              		.loc 1 63 0
 389 0042 E05A     		ldrh	r0, [r4, r3]
 390 0044 F5E7     		b	.L51
 391              	.LVL32:
 392              	.L57:
 393              		.loc 1 62 0
 394 0046 0423     		movs	r3, #4
 395 0048 FBE7     		b	.L52
 396              	.LVL33:
 397              	.L61:
 398              		.loc 1 65 0
 399 004a FFF7FEFF 		bl	__stack_chk_fail
ARM GAS  C:\Users\mathi\AppData\Local\Temp\ccF8t5t9.s 			page 8


 400              	.LVL34:
 401              	.L63:
 402 004e 00BF     		.align	2
 403              	.L62:
 404 0050 00000000 		.word	__stack_chk_guard
 405              		.cfi_endproc
 406              	.LFE1:
 407              		.size	AsebaVMGetEventAddress, .-AsebaVMGetEventAddress
 408              		.section	.text.AsebaVMSetupEvent,"ax",%progbits
 409              		.align	1
 410              		.p2align 4,,15
 411              		.global	AsebaVMSetupEvent
 412              		.syntax unified
 413              		.thumb
 414              		.thumb_func
 415              		.fpu fpv4-sp-d16
 416              		.type	AsebaVMSetupEvent, %function
 417              	AsebaVMSetupEvent:
 418              	.LFB2:
 419              		.loc 1 69 0
 420              		.cfi_startproc
 421              		@ args = 0, pretend = 0, frame = 8
 422              		@ frame_needed = 0, uses_anonymous_args = 0
 423              	.LVL35:
 424 0000 F0B5     		push	{r4, r5, r6, r7, lr}
 425              		.cfi_def_cfa_offset 20
 426              		.cfi_offset 4, -20
 427              		.cfi_offset 5, -16
 428              		.cfi_offset 6, -12
 429              		.cfi_offset 7, -8
 430              		.cfi_offset 14, -4
 431              	.LBB65:
 432              	.LBB66:
 433              		.loc 1 57 0
 434 0002 4668     		ldr	r6, [r0, #4]
 435              	.LBE66:
 436              	.LBE65:
 437              		.loc 1 69 0
 438 0004 244D     		ldr	r5, .L85
 439              	.LBB72:
 440              	.LBB67:
 441              		.loc 1 57 0
 442 0006 3788     		ldrh	r7, [r6]
 443              	.LBE67:
 444              	.LBE72:
 445              		.loc 1 69 0
 446 0008 2B68     		ldr	r3, [r5]
 447 000a 83B0     		sub	sp, sp, #12
 448              		.cfi_def_cfa_offset 32
 449              	.LBB73:
 450              	.LBB68:
 451              		.loc 1 61 0
 452 000c 012F     		cmp	r7, #1
 453              	.LBE68:
 454              	.LBE73:
 455              		.loc 1 69 0
 456 000e 0193     		str	r3, [sp, #4]
ARM GAS  C:\Users\mathi\AppData\Local\Temp\ccF8t5t9.s 			page 9


 457              	.LVL36:
 458              	.LBB74:
 459              	.LBB69:
 460              		.loc 1 61 0
 461 0010 0FD9     		bls	.L72
 462              		.loc 1 62 0
 463 0012 7388     		ldrh	r3, [r6, #2]
 464 0014 8B42     		cmp	r3, r1
 465 0016 0446     		mov	r4, r0
 466 0018 3AD0     		beq	.L73
 467 001a 0323     		movs	r3, #3
 468 001c 06E0     		b	.L67
 469              	.LVL37:
 470              	.L69:
 471 001e 36F81320 		ldrh	r2, [r6, r3, lsl #1]
 472 0022 8A42     		cmp	r2, r1
 473 0024 03F10200 		add	r0, r3, #2
 474 0028 0BD0     		beq	.L82
 475 002a 0346     		mov	r3, r0
 476              	.LVL38:
 477              	.L67:
 478              		.loc 1 61 0
 479 002c 9AB2     		uxth	r2, r3
 480 002e 9742     		cmp	r7, r2
 481 0030 F5D8     		bhi	.L69
 482              	.LVL39:
 483              	.L72:
 484              		.loc 1 64 0
 485 0032 0026     		movs	r6, #0
 486              	.LVL40:
 487              	.L65:
 488              	.LBE69:
 489              	.LBE74:
 490              		.loc 1 88 0
 491 0034 019A     		ldr	r2, [sp, #4]
 492 0036 2B68     		ldr	r3, [r5]
 493 0038 9A42     		cmp	r2, r3
 494 003a 3046     		mov	r0, r6
 495 003c 2AD1     		bne	.L83
 496 003e 03B0     		add	sp, sp, #12
 497              		.cfi_remember_state
 498              		.cfi_def_cfa_offset 20
 499              		@ sp needed
 500 0040 F0BD     		pop	{r4, r5, r6, r7, pc}
 501              	.LVL41:
 502              	.L82:
 503              		.cfi_restore_state
 504 0042 0133     		adds	r3, r3, #1
 505              	.LVL42:
 506 0044 5B00     		lsls	r3, r3, #1
 507              	.L66:
 508              	.LBB75:
 509              	.LBB70:
 510              		.loc 1 63 0
 511 0046 F65A     		ldrh	r6, [r6, r3]
 512              	.LVL43:
 513              	.LBE70:
ARM GAS  C:\Users\mathi\AppData\Local\Temp\ccF8t5t9.s 			page 10


 514              	.LBE75:
 515              		.loc 1 71 0
 516 0048 002E     		cmp	r6, #0
 517 004a F3D0     		beq	.L65
 518              		.loc 1 74 0
 519 004c 238B     		ldrh	r3, [r4, #24]
 520 004e DA07     		lsls	r2, r3, #31
 521 0050 14D4     		bmi	.L84
 522              	.LVL44:
 523              	.L70:
 524              		.loc 1 81 0
 525 0052 43F00107 		orr	r7, r3, #1
 526              		.loc 1 80 0
 527 0056 4FF6FF72 		movw	r2, #65535
 528              		.loc 1 84 0
 529 005a 9B07     		lsls	r3, r3, #30
 530              		.loc 1 79 0
 531 005c 6683     		strh	r6, [r4, #26]	@ movhi
 532              		.loc 1 80 0
 533 005e A283     		strh	r2, [r4, #28]	@ movhi
 534              		.loc 1 81 0
 535 0060 2783     		strh	r7, [r4, #24]	@ movhi
 536              		.loc 1 84 0
 537 0062 E7D5     		bpl	.L65
 538              	.LVL45:
 539              	.LBB76:
 540              	.LBB77:
 541              		.loc 1 719 0
 542 0064 2046     		mov	r0, r4
 543 0066 0423     		movs	r3, #4
 544 0068 6A46     		mov	r2, sp
 545 006a 49F20A01 		movw	r1, #36874
 546              		.loc 1 717 0
 547 006e ADF80060 		strh	r6, [sp]	@ movhi
 548              		.loc 1 718 0
 549 0072 ADF80270 		strh	r7, [sp, #2]	@ movhi
 550              		.loc 1 719 0
 551 0076 FFF7FEFF 		bl	AsebaSendMessage
 552              	.LVL46:
 553 007a DBE7     		b	.L65
 554              	.LVL47:
 555              	.L84:
 556              	.LBE77:
 557              	.LBE76:
 558              		.loc 1 76 0
 559 007c 0223     		movs	r3, #2
 560 007e 04F11A02 		add	r2, r4, #26
 561 0082 49F20801 		movw	r1, #36872
 562              	.LVL48:
 563 0086 2046     		mov	r0, r4
 564 0088 FFF7FEFF 		bl	AsebaSendMessage
 565              	.LVL49:
 566 008c 238B     		ldrh	r3, [r4, #24]
 567 008e E0E7     		b	.L70
 568              	.LVL50:
 569              	.L73:
 570              	.LBB78:
ARM GAS  C:\Users\mathi\AppData\Local\Temp\ccF8t5t9.s 			page 11


 571              	.LBB71:
 572              		.loc 1 62 0
 573 0090 0423     		movs	r3, #4
 574 0092 D8E7     		b	.L66
 575              	.LVL51:
 576              	.L83:
 577              	.LBE71:
 578              	.LBE78:
 579              		.loc 1 88 0
 580 0094 FFF7FEFF 		bl	__stack_chk_fail
 581              	.LVL52:
 582              	.L86:
 583              		.align	2
 584              	.L85:
 585 0098 00000000 		.word	__stack_chk_guard
 586              		.cfi_endproc
 587              	.LFE2:
 588              		.size	AsebaVMSetupEvent, .-AsebaVMSetupEvent
 589              		.section	.text.AsebaVMStep,"ax",%progbits
 590              		.align	1
 591              		.p2align 4,,15
 592              		.global	AsebaVMStep
 593              		.syntax unified
 594              		.thumb
 595              		.thumb_func
 596              		.fpu fpv4-sp-d16
 597              		.type	AsebaVMStep, %function
 598              	AsebaVMStep:
 599              	.LFB5:
 600              		.loc 1 170 0
 601              		.cfi_startproc
 602              		@ args = 0, pretend = 0, frame = 16
 603              		@ frame_needed = 0, uses_anonymous_args = 0
 604              	.LVL53:
 605 0000 F0B5     		push	{r4, r5, r6, r7, lr}
 606              		.cfi_def_cfa_offset 20
 607              		.cfi_offset 4, -20
 608              		.cfi_offset 5, -16
 609              		.cfi_offset 6, -12
 610              		.cfi_offset 7, -8
 611              		.cfi_offset 14, -4
 612              		.loc 1 171 0
 613 0002 4268     		ldr	r2, [r0, #4]
 614 0004 418B     		ldrh	r1, [r0, #26]
 615              		.loc 1 170 0
 616 0006 A84E     		ldr	r6, .L132
 617              		.loc 1 171 0
 618 0008 32F81150 		ldrh	r5, [r2, r1, lsl #1]
 619              	.LVL54:
 620              		.loc 1 170 0
 621 000c 3368     		ldr	r3, [r6]
 622 000e 85B0     		sub	sp, sp, #20
 623              		.cfi_def_cfa_offset 40
 624              		.loc 1 170 0
 625 0010 0446     		mov	r4, r0
 626 0012 0393     		str	r3, [sp, #12]
 627              		.loc 1 178 0
ARM GAS  C:\Users\mathi\AppData\Local\Temp\ccF8t5t9.s 			page 12


 628 0014 2B0B     		lsrs	r3, r5, #12
 629              		.loc 1 171 0
 630 0016 4800     		lsls	r0, r1, #1
 631              	.LVL55:
 632              		.loc 1 178 0
 633 0018 0E2B     		cmp	r3, #14
 634 001a 24D8     		bhi	.L87
 635 001c DFE813F0 		tbh	[pc, r3, lsl #1]
 636              	.L90:
 637 0020 3300     		.2byte	(.L89-.L90)/2
 638 0022 3800     		.2byte	(.L91-.L90)/2
 639 0024 4500     		.2byte	(.L92-.L90)/2
 640 0026 5200     		.2byte	(.L93-.L90)/2
 641 0028 6200     		.2byte	(.L94-.L90)/2
 642 002a 7200     		.2byte	(.L95-.L90)/2
 643 002c 8900     		.2byte	(.L96-.L90)/2
 644 002e 0F00     		.2byte	(.L97-.L90)/2
 645 0030 A600     		.2byte	(.L98-.L90)/2
 646 0032 BF00     		.2byte	(.L99-.L90)/2
 647 0034 C400     		.2byte	(.L100-.L90)/2
 648 0036 E600     		.2byte	(.L101-.L90)/2
 649 0038 F700     		.2byte	(.L102-.L90)/2
 650 003a 0001     		.2byte	(.L103-.L90)/2
 651 003c 2A00     		.2byte	(.L104-.L90)/2
 652              		.p2align 1
 653              	.L97:
 654              	.LBB94:
 655              		.loc 1 360 0
 656 003e B4F91C10 		ldrsh	r1, [r4, #28]
 657 0042 6269     		ldr	r2, [r4, #20]
 658              	.LBB95:
 659              	.LBB96:
 660              		.loc 1 153 0
 661 0044 EDB2     		uxtb	r5, r5
 662              	.LVL56:
 663 0046 012D     		cmp	r5, #1
 664              	.LBE96:
 665              	.LBE95:
 666              		.loc 1 360 0
 667 0048 32F91130 		ldrsh	r3, [r2, r1, lsl #1]
 668              	.LVL57:
 669              	.LBB99:
 670              	.LBB97:
 671              		.loc 1 153 0
 672 004c 00F01B81 		beq	.L110
 673 0050 C0F02081 		bcc	.L111
 674 0054 022D     		cmp	r5, #2
 675 0056 40F01B81 		bne	.L130
 676              		.loc 1 157 0
 677 005a DB43     		mvns	r3, r3
 678              	.LVL58:
 679              	.L109:
 680              	.LBE97:
 681              	.LBE99:
 682              		.loc 1 366 0
 683 005c 22F81130 		strh	r3, [r2, r1, lsl #1]	@ movhi
 684              	.LVL59:
ARM GAS  C:\Users\mathi\AppData\Local\Temp\ccF8t5t9.s 			page 13


 685              		.loc 1 369 0
 686 0060 638B     		ldrh	r3, [r4, #26]
 687 0062 0133     		adds	r3, r3, #1
 688 0064 6383     		strh	r3, [r4, #26]	@ movhi
 689              	.LVL60:
 690              	.L87:
 691              	.LBE94:
 692              		.loc 1 532 0
 693 0066 039A     		ldr	r2, [sp, #12]
 694 0068 3368     		ldr	r3, [r6]
 695 006a 9A42     		cmp	r2, r3
 696 006c 40F01981 		bne	.L131
 697 0070 05B0     		add	sp, sp, #20
 698              		.cfi_remember_state
 699              		.cfi_def_cfa_offset 20
 700              		@ sp needed
 701 0072 F0BD     		pop	{r4, r5, r6, r7, pc}
 702              	.LVL61:
 703              	.L104:
 704              		.cfi_restore_state
 705              		.loc 1 522 0
 706 0074 B4F91C30 		ldrsh	r3, [r4, #28]
 707 0078 6269     		ldr	r2, [r4, #20]
 708 007a 591E     		subs	r1, r3, #1
 709 007c A183     		strh	r1, [r4, #28]	@ movhi
 710 007e 32F81330 		ldrh	r3, [r2, r3, lsl #1]
 711 0082 6383     		strh	r3, [r4, #26]	@ movhi
 712              		.loc 1 532 0
 713 0084 EFE7     		b	.L87
 714              	.L89:
 715              		.loc 1 183 0
 716 0086 238B     		ldrh	r3, [r4, #24]
 717 0088 23F00103 		bic	r3, r3, #1
 718 008c 2383     		strh	r3, [r4, #24]	@ movhi
 719              		.loc 1 185 0
 720 008e EAE7     		b	.L87
 721              	.L91:
 722              	.LVL62:
 723              	.LBB101:
 724              		.loc 1 199 0
 725 0090 A38B     		ldrh	r3, [r4, #28]
 726 0092 6269     		ldr	r2, [r4, #20]
 727 0094 0133     		adds	r3, r3, #1
 728 0096 1BB2     		sxth	r3, r3
 729              		.loc 1 190 0
 730 0098 45F30B05 		sbfx	r5, r5, #0, #12
 731              	.LVL63:
 732              		.loc 1 199 0
 733 009c A383     		strh	r3, [r4, #28]	@ movhi
 734              	.LVL64:
 735 009e 22F81350 		strh	r5, [r2, r3, lsl #1]	@ movhi
 736              		.loc 1 202 0
 737 00a2 638B     		ldrh	r3, [r4, #26]
 738 00a4 0133     		adds	r3, r3, #1
 739 00a6 6383     		strh	r3, [r4, #26]	@ movhi
 740              	.LBE101:
 741              		.loc 1 204 0
ARM GAS  C:\Users\mathi\AppData\Local\Temp\ccF8t5t9.s 			page 14


 742 00a8 DDE7     		b	.L87
 743              	.LVL65:
 744              	.L92:
 745              		.loc 1 216 0
 746 00aa A38B     		ldrh	r3, [r4, #28]
 747 00ac 6169     		ldr	r1, [r4, #20]
 748 00ae 0244     		add	r2, r2, r0
 749 00b0 0133     		adds	r3, r3, #1
 750 00b2 1BB2     		sxth	r3, r3
 751 00b4 5288     		ldrh	r2, [r2, #2]
 752 00b6 A383     		strh	r3, [r4, #28]	@ movhi
 753 00b8 21F81320 		strh	r2, [r1, r3, lsl #1]	@ movhi
 754              		.loc 1 219 0
 755 00bc 638B     		ldrh	r3, [r4, #26]
 756 00be 0233     		adds	r3, r3, #2
 757 00c0 6383     		strh	r3, [r4, #26]	@ movhi
 758              		.loc 1 221 0
 759 00c2 D0E7     		b	.L87
 760              	.L93:
 761              	.LVL66:
 762              	.LBB102:
 763              		.loc 1 237 0
 764 00c4 A38B     		ldrh	r3, [r4, #28]
 765 00c6 E168     		ldr	r1, [r4, #12]
 766 00c8 6269     		ldr	r2, [r4, #20]
 767 00ca 0133     		adds	r3, r3, #1
 768 00cc 1BB2     		sxth	r3, r3
 769 00ce C5F30B05 		ubfx	r5, r5, #0, #12
 770              	.LVL67:
 771 00d2 A383     		strh	r3, [r4, #28]	@ movhi
 772              	.LVL68:
 773 00d4 31F91510 		ldrsh	r1, [r1, r5, lsl #1]
 774 00d8 22F81310 		strh	r1, [r2, r3, lsl #1]	@ movhi
 775              		.loc 1 240 0
 776 00dc 638B     		ldrh	r3, [r4, #26]
 777 00de 0133     		adds	r3, r3, #1
 778 00e0 6383     		strh	r3, [r4, #26]	@ movhi
 779              	.LBE102:
 780              		.loc 1 242 0
 781 00e2 C0E7     		b	.L87
 782              	.LVL69:
 783              	.L94:
 784              	.LBB103:
 785              		.loc 1 258 0
 786 00e4 B4F91C30 		ldrsh	r3, [r4, #28]
 787 00e8 6169     		ldr	r1, [r4, #20]
 788 00ea 5A1E     		subs	r2, r3, #1
 789 00ec A283     		strh	r2, [r4, #28]	@ movhi
 790 00ee C5F30B05 		ubfx	r5, r5, #0, #12
 791              	.LVL70:
 792 00f2 E268     		ldr	r2, [r4, #12]
 793 00f4 31F91330 		ldrsh	r3, [r1, r3, lsl #1]
 794 00f8 22F81530 		strh	r3, [r2, r5, lsl #1]	@ movhi
 795              		.loc 1 261 0
 796 00fc 638B     		ldrh	r3, [r4, #26]
 797 00fe 0133     		adds	r3, r3, #1
 798 0100 6383     		strh	r3, [r4, #26]	@ movhi
ARM GAS  C:\Users\mathi\AppData\Local\Temp\ccF8t5t9.s 			page 15


 799              	.LBE103:
 800              		.loc 1 263 0
 801 0102 B0E7     		b	.L87
 802              	.LVL71:
 803              	.L95:
 804              	.LBB104:
 805              		.loc 1 280 0
 806 0104 0244     		add	r2, r2, r0
 807              		.loc 1 281 0
 808 0106 6369     		ldr	r3, [r4, #20]
 809 0108 B4F91C00 		ldrsh	r0, [r4, #28]
 810              		.loc 1 280 0
 811 010c B2F802C0 		ldrh	ip, [r2, #2]
 812              	.LVL72:
 813              		.loc 1 281 0
 814 0110 33F81070 		ldrh	r7, [r3, r0, lsl #1]
 815              	.LVL73:
 816              		.loc 1 284 0
 817 0114 BC45     		cmp	ip, r7
 818 0116 40F29E80 		bls	.L129
 819              		.loc 1 298 0
 820 011a C5F30B05 		ubfx	r5, r5, #0, #12
 821              	.LVL74:
 822 011e E268     		ldr	r2, [r4, #12]
 823 0120 2F44     		add	r7, r7, r5
 824              	.LVL75:
 825 0122 32F91720 		ldrsh	r2, [r2, r7, lsl #1]
 826 0126 23F81020 		strh	r2, [r3, r0, lsl #1]	@ movhi
 827              	.LVL76:
 828              		.loc 1 301 0
 829 012a 638B     		ldrh	r3, [r4, #26]
 830 012c 0233     		adds	r3, r3, #2
 831 012e 6383     		strh	r3, [r4, #26]	@ movhi
 832              	.LBE104:
 833              		.loc 1 303 0
 834 0130 99E7     		b	.L87
 835              	.LVL77:
 836              	.L96:
 837              	.LBB105:
 838              		.loc 1 321 0
 839 0132 0244     		add	r2, r2, r0
 840              		.loc 1 323 0
 841 0134 B4F91C30 		ldrsh	r3, [r4, #28]
 842              		.loc 1 322 0
 843 0138 6069     		ldr	r0, [r4, #20]
 844              		.loc 1 321 0
 845 013a B2F802C0 		ldrh	ip, [r2, #2]
 846              	.LVL78:
 847              		.loc 1 323 0
 848 013e 30F81370 		ldrh	r7, [r0, r3, lsl #1]
 849              	.LVL79:
 850              		.loc 1 326 0
 851 0142 BC45     		cmp	ip, r7
 852              		.loc 1 323 0
 853 0144 4FEA4303 		lsl	r3, r3, #1
 854              	.LVL80:
 855              		.loc 1 326 0
ARM GAS  C:\Users\mathi\AppData\Local\Temp\ccF8t5t9.s 			page 16


 856 0148 40F28580 		bls	.L129
 857              		.loc 1 322 0
 858 014c 0344     		add	r3, r3, r0
 859              		.loc 1 340 0
 860 014e C5F30B05 		ubfx	r5, r5, #0, #12
 861              	.LVL81:
 862 0152 E268     		ldr	r2, [r4, #12]
 863              		.loc 1 322 0
 864 0154 33F9023C 		ldrsh	r3, [r3, #-2]
 865              		.loc 1 340 0
 866 0158 2F44     		add	r7, r7, r5
 867              	.LVL82:
 868 015a 22F81730 		strh	r3, [r2, r7, lsl #1]	@ movhi
 869              	.LVL83:
 870              		.loc 1 341 0
 871 015e A28B     		ldrh	r2, [r4, #28]
 872              		.loc 1 344 0
 873 0160 638B     		ldrh	r3, [r4, #26]
 874              		.loc 1 341 0
 875 0162 023A     		subs	r2, r2, #2
 876              		.loc 1 344 0
 877 0164 0233     		adds	r3, r3, #2
 878              		.loc 1 341 0
 879 0166 A283     		strh	r2, [r4, #28]	@ movhi
 880              		.loc 1 344 0
 881 0168 6383     		strh	r3, [r4, #26]	@ movhi
 882              	.LBE105:
 883              		.loc 1 346 0
 884 016a 7CE7     		b	.L87
 885              	.LVL84:
 886              	.L98:
 887              	.LBB107:
 888              		.loc 1 385 0
 889 016c B4F91C70 		ldrsh	r7, [r4, #28]
 890 0170 6069     		ldr	r0, [r4, #20]
 891              	.LVL85:
 892              		.loc 1 386 0
 893 0172 07F10042 		add	r2, r7, #-2147483648
 894 0176 013A     		subs	r2, r2, #1
 895              		.loc 1 389 0
 896 0178 EBB2     		uxtb	r3, r5
 897 017a 30F91210 		ldrsh	r1, [r0, r2, lsl #1]
 898 017e 30F91720 		ldrsh	r2, [r0, r7, lsl #1]
 899 0182 2046     		mov	r0, r4
 900              	.LVL86:
 901 0184 FFF7FEFF 		bl	AsebaVMDoBinaryOperation
 902              	.LVL87:
 903              		.loc 1 392 0
 904 0188 A38B     		ldrh	r3, [r4, #28]
 905              		.loc 1 393 0
 906 018a 6269     		ldr	r2, [r4, #20]
 907              		.loc 1 392 0
 908 018c 013B     		subs	r3, r3, #1
 909 018e 1BB2     		sxth	r3, r3
 910 0190 A383     		strh	r3, [r4, #28]	@ movhi
 911              		.loc 1 393 0
 912 0192 22F81300 		strh	r0, [r2, r3, lsl #1]	@ movhi
ARM GAS  C:\Users\mathi\AppData\Local\Temp\ccF8t5t9.s 			page 17


 913              		.loc 1 396 0
 914 0196 638B     		ldrh	r3, [r4, #26]
 915 0198 0133     		adds	r3, r3, #1
 916 019a 6383     		strh	r3, [r4, #26]	@ movhi
 917              	.LBE107:
 918              		.loc 1 398 0
 919 019c 63E7     		b	.L87
 920              	.LVL88:
 921              	.L99:
 922              	.LBB108:
 923              		.loc 1 403 0
 924 019e 45F30B05 		sbfx	r5, r5, #0, #12
 925              	.LVL89:
 926              		.loc 1 412 0
 927 01a2 2944     		add	r1, r1, r5
 928              	.LVL90:
 929 01a4 6183     		strh	r1, [r4, #26]	@ movhi
 930              	.LVL91:
 931              	.LBE108:
 932              		.loc 1 414 0
 933 01a6 5EE7     		b	.L87
 934              	.LVL92:
 935              	.L100:
 936              	.LBB109:
 937              		.loc 1 430 0
 938 01a8 B4F91C20 		ldrsh	r2, [r4, #28]
 939 01ac 6169     		ldr	r1, [r4, #20]
 940              	.LVL93:
 941              		.loc 1 431 0
 942 01ae 02F10043 		add	r3, r2, #-2147483648
 943 01b2 013B     		subs	r3, r3, #1
 944              		.loc 1 432 0
 945 01b4 31F91220 		ldrsh	r2, [r1, r2, lsl #1]
 946              	.LVL94:
 947 01b8 31F91310 		ldrsh	r1, [r1, r3, lsl #1]
 948              	.LVL95:
 949 01bc 2046     		mov	r0, r4
 950 01be EBB2     		uxtb	r3, r5
 951              	.LVL96:
 952 01c0 FFF7FEFF 		bl	AsebaVMDoBinaryOperation
 953              	.LVL97:
 954              		.loc 1 433 0
 955 01c4 A38B     		ldrh	r3, [r4, #28]
 956 01c6 023B     		subs	r3, r3, #2
 957 01c8 A383     		strh	r3, [r4, #28]	@ movhi
 958              		.loc 1 436 0
 959 01ca 0028     		cmp	r0, #0
 960 01cc 34D0     		beq	.L113
 961              		.loc 1 436 0 is_stmt 0 discriminator 1
 962 01ce 05F44075 		and	r5, r5, #768
 963              	.LVL98:
 964 01d2 B5F5407F 		cmp	r5, #768
 965 01d6 6168     		ldr	r1, [r4, #4]
 966 01d8 608B     		ldrh	r0, [r4, #26]
 967              	.LVL99:
 968 01da 5ED0     		beq	.L114
 969 01dc 0223     		movs	r3, #2
ARM GAS  C:\Users\mathi\AppData\Local\Temp\ccF8t5t9.s 			page 18


 970              	.L115:
 971              		.loc 1 449 0 is_stmt 1
 972 01de 31F81020 		ldrh	r2, [r1, r0, lsl #1]
 973 01e2 42F40072 		orr	r2, r2, #512
 974 01e6 21F81020 		strh	r2, [r1, r0, lsl #1]	@ movhi
 975 01ea 30E0     		b	.L116
 976              	.LVL100:
 977              	.L101:
 978              	.LBE109:
 979              	.LBB110:
 980              		.loc 1 469 0
 981 01ec 1318     		adds	r3, r2, r0
 982              		.loc 1 475 0
 983 01ee E268     		ldr	r2, [r4, #12]
 984              	.LVL101:
 985 01f0 9988     		ldrh	r1, [r3, #4]
 986 01f2 5888     		ldrh	r0, [r3, #2]
 987              	.LVL102:
 988 01f4 4B00     		lsls	r3, r1, #1
 989 01f6 9BB2     		uxth	r3, r3
 990 01f8 02EB4002 		add	r2, r2, r0, lsl #1
 991 01fc C5F30B01 		ubfx	r1, r5, #0, #12
 992 0200 2046     		mov	r0, r4
 993 0202 FFF7FEFF 		bl	AsebaSendMessage
 994              	.LVL103:
 995              		.loc 1 478 0
 996 0206 638B     		ldrh	r3, [r4, #26]
 997 0208 0333     		adds	r3, r3, #3
 998 020a 6383     		strh	r3, [r4, #26]	@ movhi
 999              	.LBE110:
 1000              		.loc 1 480 0
 1001 020c 2BE7     		b	.L87
 1002              	.L102:
 1003              		.loc 1 486 0
 1004 020e C5F30B01 		ubfx	r1, r5, #0, #12
 1005 0212 2046     		mov	r0, r4
 1006 0214 FFF7FEFF 		bl	AsebaNativeFunction
 1007              	.LVL104:
 1008              		.loc 1 489 0
 1009 0218 638B     		ldrh	r3, [r4, #26]
 1010 021a 0133     		adds	r3, r3, #1
 1011 021c 6383     		strh	r3, [r4, #26]	@ movhi
 1012              		.loc 1 491 0
 1013 021e 22E7     		b	.L87
 1014              	.L103:
 1015              	.LVL105:
 1016              	.LBB111:
 1017              		.loc 1 505 0
 1018 0220 A38B     		ldrh	r3, [r4, #28]
 1019 0222 6269     		ldr	r2, [r4, #20]
 1020 0224 0133     		adds	r3, r3, #1
 1021 0226 1BB2     		sxth	r3, r3
 1022 0228 0131     		adds	r1, r1, #1
 1023              		.loc 1 496 0
 1024 022a C5F30B05 		ubfx	r5, r5, #0, #12
 1025              	.LVL106:
 1026              		.loc 1 505 0
ARM GAS  C:\Users\mathi\AppData\Local\Temp\ccF8t5t9.s 			page 19


 1027 022e A383     		strh	r3, [r4, #28]	@ movhi
 1028              	.LVL107:
 1029 0230 22F81310 		strh	r1, [r2, r3, lsl #1]	@ movhi
 1030              		.loc 1 508 0
 1031 0234 6583     		strh	r5, [r4, #26]	@ movhi
 1032              	.LBE111:
 1033              		.loc 1 510 0
 1034 0236 16E7     		b	.L87
 1035              	.LVL108:
 1036              	.L113:
 1037              	.LBB112:
 1038              		.loc 1 444 0
 1039 0238 638B     		ldrh	r3, [r4, #26]
 1040 023a 6168     		ldr	r1, [r4, #4]
 1041 023c 0133     		adds	r3, r3, #1
 1042 023e 5A00     		lsls	r2, r3, #1
 1043              		.loc 1 451 0
 1044 0240 023A     		subs	r2, r2, #2
 1045              		.loc 1 444 0
 1046 0242 31F81330 		ldrh	r3, [r1, r3, lsl #1]
 1047              	.LVL109:
 1048              		.loc 1 451 0
 1049 0246 885A     		ldrh	r0, [r1, r2]
 1050              	.LVL110:
 1051 0248 20F40070 		bic	r0, r0, #512
 1052 024c 8852     		strh	r0, [r1, r2]	@ movhi
 1053              	.LVL111:
 1054              	.L116:
 1055              		.loc 1 460 0
 1056 024e 628B     		ldrh	r2, [r4, #26]
 1057 0250 1344     		add	r3, r3, r2
 1058 0252 6383     		strh	r3, [r4, #26]	@ movhi
 1059              	.LBE112:
 1060              		.loc 1 462 0
 1061 0254 07E7     		b	.L87
 1062              	.LVL112:
 1063              	.L129:
 1064              	.LBB113:
 1065              	.LBB106:
 1066              		.loc 1 332 0
 1067 0256 0223     		movs	r3, #2
 1068 0258 2383     		strh	r3, [r4, #24]	@ movhi
 1069              		.loc 1 333 0
 1070 025a 01AA     		add	r2, sp, #4
 1071 025c 0623     		movs	r3, #6
 1072              		.loc 1 329 0
 1073 025e ADF80410 		strh	r1, [sp, #4]	@ movhi
 1074              		.loc 1 333 0
 1075 0262 2046     		mov	r0, r4
 1076 0264 49F20601 		movw	r1, #36870
 1077              		.loc 1 330 0
 1078 0268 ADF806C0 		strh	ip, [sp, #6]	@ movhi
 1079              		.loc 1 331 0
 1080 026c ADF80870 		strh	r7, [sp, #8]	@ movhi
 1081              		.loc 1 333 0
 1082 0270 FFF7FEFF 		bl	AsebaSendMessage
 1083              	.LVL113:
ARM GAS  C:\Users\mathi\AppData\Local\Temp\ccF8t5t9.s 			page 20


 1084              		.loc 1 334 0
 1085 0274 0D4B     		ldr	r3, .L132+4
 1086 0276 002B     		cmp	r3, #0
 1087 0278 3FF4F5AE 		beq	.L87
 1088              		.loc 1 335 0
 1089 027c 2046     		mov	r0, r4
 1090 027e 0021     		movs	r1, #0
 1091 0280 FFF7FEFF 		bl	AsebaVMErrorCB
 1092              	.LVL114:
 1093 0284 EFE6     		b	.L87
 1094              	.LVL115:
 1095              	.L110:
 1096              	.LBE106:
 1097              	.LBE113:
 1098              	.LBB114:
 1099              	.LBB100:
 1100              	.LBB98:
 1101              		.loc 1 156 0
 1102 0286 002B     		cmp	r3, #0
 1103 0288 B8BF     		it	lt
 1104 028a 5B42     		rsblt	r3, r3, #0
 1105              	.LVL116:
 1106 028c 1BB2     		sxth	r3, r3
 1107 028e E5E6     		b	.L109
 1108              	.LVL117:
 1109              	.L130:
 1110              		.loc 1 163 0
 1111 0290 0023     		movs	r3, #0
 1112              	.LVL118:
 1113 0292 E3E6     		b	.L109
 1114              	.LVL119:
 1115              	.L111:
 1116              		.loc 1 155 0
 1117 0294 5B42     		negs	r3, r3
 1118              	.LVL120:
 1119 0296 1BB2     		sxth	r3, r3
 1120              	.LVL121:
 1121 0298 E0E6     		b	.L109
 1122              	.LVL122:
 1123              	.L114:
 1124              	.LBE98:
 1125              	.LBE100:
 1126              	.LBE114:
 1127              	.LBB115:
 1128              		.loc 1 444 0
 1129 029a 431C     		adds	r3, r0, #1
 1130 029c 31F81330 		ldrh	r3, [r1, r3, lsl #1]
 1131              	.LVL123:
 1132 02a0 9DE7     		b	.L115
 1133              	.LVL124:
 1134              	.L131:
 1135              	.LBE115:
 1136              		.loc 1 532 0
 1137 02a2 FFF7FEFF 		bl	__stack_chk_fail
 1138              	.LVL125:
 1139              	.L133:
 1140 02a6 00BF     		.align	2
ARM GAS  C:\Users\mathi\AppData\Local\Temp\ccF8t5t9.s 			page 21


 1141              	.L132:
 1142 02a8 00000000 		.word	__stack_chk_guard
 1143 02ac 00000000 		.word	AsebaVMErrorCB
 1144              		.cfi_endproc
 1145              	.LFE5:
 1146              		.size	AsebaVMStep, .-AsebaVMStep
 1147              		.section	.text.AsebaVMEmitNodeSpecificError,"ax",%progbits
 1148              		.align	1
 1149              		.p2align 4,,15
 1150              		.global	AsebaVMEmitNodeSpecificError
 1151              		.syntax unified
 1152              		.thumb
 1153              		.thumb_func
 1154              		.fpu fpv4-sp-d16
 1155              		.type	AsebaVMEmitNodeSpecificError, %function
 1156              	AsebaVMEmitNodeSpecificError:
 1157              	.LFB6:
 1158              		.loc 1 535 0
 1159              		.cfi_startproc
 1160              		@ args = 0, pretend = 0, frame = 8
 1161              		@ frame_needed = 1, uses_anonymous_args = 0
 1162              	.LVL126:
 1163 0000 2DE9F04F 		push	{r4, r5, r6, r7, r8, r9, r10, fp, lr}
 1164              		.cfi_def_cfa_offset 36
 1165              		.cfi_offset 4, -36
 1166              		.cfi_offset 5, -32
 1167              		.cfi_offset 6, -28
 1168              		.cfi_offset 7, -24
 1169              		.cfi_offset 8, -20
 1170              		.cfi_offset 9, -16
 1171              		.cfi_offset 10, -12
 1172              		.cfi_offset 11, -8
 1173              		.cfi_offset 14, -4
 1174 0004 DFF87890 		ldr	r9, .L142+4
 1175 0008 83B0     		sub	sp, sp, #12
 1176              		.cfi_def_cfa_offset 48
 1177 000a 00AF     		add	r7, sp, #0
 1178              		.cfi_def_cfa_register 7
 1179              		.loc 1 535 0
 1180 000c D9F80030 		ldr	r3, [r9]
 1181 0010 7B60     		str	r3, [r7, #4]
 1182 0012 0546     		mov	r5, r0
 1183              		.loc 1 536 0
 1184 0014 0846     		mov	r0, r1
 1185              	.LVL127:
 1186              		.loc 1 535 0
 1187 0016 8A46     		mov	r10, r1
 1188              		.loc 1 536 0
 1189 0018 FFF7FEFF 		bl	strlen
 1190              	.LVL128:
 1191 001c 1FFA80FB 		uxth	fp, r0
 1192              		.loc 1 538 0
 1193 0020 0BF10A03 		add	r3, fp, #10
 1194 0024 6946     		mov	r1, sp
 1195 0026 DB08     		lsrs	r3, r3, #3
 1196 0028 A1EBC303 		sub	r3, r1, r3, lsl #3
 1197              		.loc 1 545 0
ARM GAS  C:\Users\mathi\AppData\Local\Temp\ccF8t5t9.s 			page 22


 1198 002c 134A     		ldr	r2, .L142
 1199              		.loc 1 538 0
 1200 002e 9D46     		mov	sp, r3
 1201              		.loc 1 536 0
 1202 0030 8046     		mov	r8, r0
 1203              		.loc 1 538 0
 1204 0032 6C46     		mov	r4, sp
 1205              		.loc 1 536 0
 1206 0034 5E46     		mov	r6, fp
 1207              	.LVL129:
 1208              		.loc 1 545 0
 1209 0036 1AB1     		cbz	r2, .L135
 1210              		.loc 1 546 0
 1211 0038 5146     		mov	r1, r10
 1212 003a 2846     		mov	r0, r5
 1213 003c FFF7FEFF 		bl	AsebaVMErrorCB
 1214              	.LVL130:
 1215              	.L135:
 1216              		.loc 1 548 0
 1217 0040 0223     		movs	r3, #2
 1218 0042 2B83     		strh	r3, [r5, #24]	@ movhi
 1219              		.loc 1 550 0
 1220 0044 6B8B     		ldrh	r3, [r5, #26]
 1221 0046 2380     		strh	r3, [r4]	@ movhi
 1222              		.loc 1 552 0
 1223 0048 5A46     		mov	r2, fp
 1224 004a 5146     		mov	r1, r10
 1225              		.loc 1 551 0
 1226 004c 84F80280 		strb	r8, [r4, #2]
 1227              		.loc 1 552 0
 1228 0050 E01C     		adds	r0, r4, #3
 1229 0052 FFF7FEFF 		bl	memcpy
 1230              	.LVL131:
 1231              		.loc 1 554 0
 1232 0056 F31C     		adds	r3, r6, #3
 1233 0058 9BB2     		uxth	r3, r3
 1234 005a 2246     		mov	r2, r4
 1235 005c 2846     		mov	r0, r5
 1236 005e 49F20901 		movw	r1, #36873
 1237 0062 FFF7FEFF 		bl	AsebaSendMessage
 1238              	.LVL132:
 1239              		.loc 1 555 0
 1240 0066 7A68     		ldr	r2, [r7, #4]
 1241 0068 D9F80030 		ldr	r3, [r9]
 1242 006c 9A42     		cmp	r2, r3
 1243 006e 03D1     		bne	.L141
 1244 0070 0C37     		adds	r7, r7, #12
 1245              		.cfi_remember_state
 1246              		.cfi_def_cfa_offset 36
 1247 0072 BD46     		mov	sp, r7
 1248              		.cfi_def_cfa_register 13
 1249              		@ sp needed
 1250 0074 BDE8F08F 		pop	{r4, r5, r6, r7, r8, r9, r10, fp, pc}
 1251              	.LVL133:
 1252              	.L141:
 1253              		.cfi_restore_state
 1254 0078 FFF7FEFF 		bl	__stack_chk_fail
ARM GAS  C:\Users\mathi\AppData\Local\Temp\ccF8t5t9.s 			page 23


 1255              	.LVL134:
 1256              	.L143:
 1257              		.align	2
 1258              	.L142:
 1259 007c 00000000 		.word	AsebaVMErrorCB
 1260 0080 00000000 		.word	__stack_chk_guard
 1261              		.cfi_endproc
 1262              	.LFE6:
 1263              		.size	AsebaVMEmitNodeSpecificError, .-AsebaVMEmitNodeSpecificError
 1264              		.section	.text.AsebaVMCheckBreakpoint,"ax",%progbits
 1265              		.align	1
 1266              		.p2align 4,,15
 1267              		.global	AsebaVMCheckBreakpoint
 1268              		.syntax unified
 1269              		.thumb
 1270              		.thumb_func
 1271              		.fpu fpv4-sp-d16
 1272              		.type	AsebaVMCheckBreakpoint, %function
 1273              	AsebaVMCheckBreakpoint:
 1274              	.LFB7:
 1275              		.loc 1 561 0
 1276              		.cfi_startproc
 1277              		@ args = 0, pretend = 0, frame = 8
 1278              		@ frame_needed = 0, uses_anonymous_args = 0
 1279              	.LVL135:
 1280 0000 10B5     		push	{r4, lr}
 1281              		.cfi_def_cfa_offset 8
 1282              		.cfi_offset 4, -8
 1283              		.cfi_offset 14, -4
 1284 0002 3349     		ldr	r1, .L169
 1285 0004 82B0     		sub	sp, sp, #8
 1286              		.cfi_def_cfa_offset 16
 1287              		.loc 1 561 0
 1288 0006 0346     		mov	r3, r0
 1289              		.loc 1 563 0
 1290 0008 C08F     		ldrh	r0, [r0, #62]
 1291              	.LVL136:
 1292              		.loc 1 561 0
 1293 000a 0A68     		ldr	r2, [r1]
 1294 000c 0192     		str	r2, [sp, #4]
 1295              	.LVL137:
 1296              		.loc 1 563 0
 1297 000e 0028     		cmp	r0, #0
 1298 0010 4FD0     		beq	.L145
 1299              		.loc 1 565 0
 1300 0012 5A8B     		ldrh	r2, [r3, #26]
 1301 0014 DC8B     		ldrh	r4, [r3, #30]
 1302 0016 9442     		cmp	r4, r2
 1303 0018 51D0     		beq	.L147
 1304              	.LVL138:
 1305              		.loc 1 563 0
 1306 001a 0128     		cmp	r0, #1
 1307 001c 48D9     		bls	.L163
 1308              		.loc 1 565 0
 1309 001e 1C8C     		ldrh	r4, [r3, #32]
 1310 0020 9442     		cmp	r4, r2
 1311 0022 4CD0     		beq	.L147
ARM GAS  C:\Users\mathi\AppData\Local\Temp\ccF8t5t9.s 			page 24


 1312              	.LVL139:
 1313              		.loc 1 563 0
 1314 0024 0228     		cmp	r0, #2
 1315 0026 43D0     		beq	.L163
 1316              		.loc 1 565 0
 1317 0028 5C8C     		ldrh	r4, [r3, #34]
 1318 002a 9442     		cmp	r4, r2
 1319 002c 47D0     		beq	.L147
 1320              	.LVL140:
 1321              		.loc 1 563 0
 1322 002e 0328     		cmp	r0, #3
 1323 0030 3ED0     		beq	.L163
 1324              		.loc 1 565 0
 1325 0032 9C8C     		ldrh	r4, [r3, #36]
 1326 0034 9442     		cmp	r4, r2
 1327 0036 42D0     		beq	.L147
 1328              	.LVL141:
 1329              		.loc 1 563 0
 1330 0038 0428     		cmp	r0, #4
 1331 003a 39D0     		beq	.L163
 1332              		.loc 1 565 0
 1333 003c DC8C     		ldrh	r4, [r3, #38]
 1334 003e 9442     		cmp	r4, r2
 1335 0040 3DD0     		beq	.L147
 1336              	.LVL142:
 1337              		.loc 1 563 0
 1338 0042 0528     		cmp	r0, #5
 1339 0044 34D0     		beq	.L163
 1340              		.loc 1 565 0
 1341 0046 1C8D     		ldrh	r4, [r3, #40]
 1342 0048 9442     		cmp	r4, r2
 1343 004a 38D0     		beq	.L147
 1344              	.LVL143:
 1345              		.loc 1 563 0
 1346 004c 0628     		cmp	r0, #6
 1347 004e 2FD0     		beq	.L163
 1348              		.loc 1 565 0
 1349 0050 5C8D     		ldrh	r4, [r3, #42]
 1350 0052 9442     		cmp	r4, r2
 1351 0054 33D0     		beq	.L147
 1352              	.LVL144:
 1353              		.loc 1 563 0
 1354 0056 0728     		cmp	r0, #7
 1355 0058 2AD0     		beq	.L163
 1356              		.loc 1 565 0
 1357 005a 9C8D     		ldrh	r4, [r3, #44]
 1358 005c 9442     		cmp	r4, r2
 1359 005e 2ED0     		beq	.L147
 1360              	.LVL145:
 1361              		.loc 1 563 0
 1362 0060 0828     		cmp	r0, #8
 1363 0062 25D0     		beq	.L163
 1364              		.loc 1 565 0
 1365 0064 DC8D     		ldrh	r4, [r3, #46]
 1366 0066 9442     		cmp	r4, r2
 1367 0068 29D0     		beq	.L147
 1368              	.LVL146:
ARM GAS  C:\Users\mathi\AppData\Local\Temp\ccF8t5t9.s 			page 25


 1369              		.loc 1 563 0
 1370 006a 0928     		cmp	r0, #9
 1371 006c 20D0     		beq	.L163
 1372              		.loc 1 565 0
 1373 006e 1C8E     		ldrh	r4, [r3, #48]
 1374 0070 9442     		cmp	r4, r2
 1375 0072 24D0     		beq	.L147
 1376              	.LVL147:
 1377              		.loc 1 563 0
 1378 0074 0A28     		cmp	r0, #10
 1379 0076 1BD0     		beq	.L163
 1380              		.loc 1 565 0
 1381 0078 5C8E     		ldrh	r4, [r3, #50]
 1382 007a 9442     		cmp	r4, r2
 1383 007c 1FD0     		beq	.L147
 1384              	.LVL148:
 1385              		.loc 1 563 0
 1386 007e 0B28     		cmp	r0, #11
 1387 0080 16D0     		beq	.L163
 1388              		.loc 1 565 0
 1389 0082 9C8E     		ldrh	r4, [r3, #52]
 1390 0084 9442     		cmp	r4, r2
 1391 0086 1AD0     		beq	.L147
 1392              	.LVL149:
 1393              		.loc 1 563 0
 1394 0088 0C28     		cmp	r0, #12
 1395 008a 11D0     		beq	.L163
 1396              		.loc 1 565 0
 1397 008c DC8E     		ldrh	r4, [r3, #54]
 1398 008e 9442     		cmp	r4, r2
 1399 0090 15D0     		beq	.L147
 1400              	.LVL150:
 1401              		.loc 1 563 0
 1402 0092 0D28     		cmp	r0, #13
 1403 0094 0CD0     		beq	.L163
 1404              		.loc 1 565 0
 1405 0096 1C8F     		ldrh	r4, [r3, #56]
 1406 0098 9442     		cmp	r4, r2
 1407 009a 10D0     		beq	.L147
 1408              	.LVL151:
 1409              		.loc 1 563 0
 1410 009c 0E28     		cmp	r0, #14
 1411 009e 07D0     		beq	.L163
 1412              		.loc 1 565 0
 1413 00a0 5C8F     		ldrh	r4, [r3, #58]
 1414 00a2 9442     		cmp	r4, r2
 1415 00a4 0BD0     		beq	.L147
 1416              	.LVL152:
 1417              		.loc 1 563 0
 1418 00a6 0F28     		cmp	r0, #15
 1419 00a8 02D0     		beq	.L163
 1420              		.loc 1 565 0
 1421 00aa 988F     		ldrh	r0, [r3, #60]
 1422 00ac 9042     		cmp	r0, r2
 1423 00ae 06D0     		beq	.L147
 1424              	.LVL153:
 1425              	.L163:
ARM GAS  C:\Users\mathi\AppData\Local\Temp\ccF8t5t9.s 			page 26


 1426              		.loc 1 572 0
 1427 00b0 0020     		movs	r0, #0
 1428              	.L145:
 1429              		.loc 1 573 0
 1430 00b2 019A     		ldr	r2, [sp, #4]
 1431 00b4 0B68     		ldr	r3, [r1]
 1432              	.LVL154:
 1433 00b6 9A42     		cmp	r2, r3
 1434 00b8 07D1     		bne	.L168
 1435 00ba 02B0     		add	sp, sp, #8
 1436              		.cfi_remember_state
 1437              		.cfi_def_cfa_offset 8
 1438              		@ sp needed
 1439 00bc 10BD     		pop	{r4, pc}
 1440              	.LVL155:
 1441              	.L147:
 1442              		.cfi_restore_state
 1443              		.loc 1 567 0
 1444 00be 1A8B     		ldrh	r2, [r3, #24]
 1445 00c0 42F00202 		orr	r2, r2, #2
 1446 00c4 1A83     		strh	r2, [r3, #24]	@ movhi
 1447              		.loc 1 568 0
 1448 00c6 0120     		movs	r0, #1
 1449 00c8 F3E7     		b	.L145
 1450              	.LVL156:
 1451              	.L168:
 1452              		.loc 1 573 0
 1453 00ca FFF7FEFF 		bl	__stack_chk_fail
 1454              	.LVL157:
 1455              	.L170:
 1456 00ce 00BF     		.align	2
 1457              	.L169:
 1458 00d0 00000000 		.word	__stack_chk_guard
 1459              		.cfi_endproc
 1460              	.LFE7:
 1461              		.size	AsebaVMCheckBreakpoint, .-AsebaVMCheckBreakpoint
 1462              		.section	.text.AsebaDebugBareRun,"ax",%progbits
 1463              		.align	1
 1464              		.p2align 4,,15
 1465              		.global	AsebaDebugBareRun
 1466              		.syntax unified
 1467              		.thumb
 1468              		.thumb_func
 1469              		.fpu fpv4-sp-d16
 1470              		.type	AsebaDebugBareRun, %function
 1471              	AsebaDebugBareRun:
 1472              	.LFB8:
 1473              		.loc 1 578 0
 1474              		.cfi_startproc
 1475              		@ args = 0, pretend = 0, frame = 16
 1476              		@ frame_needed = 0, uses_anonymous_args = 0
 1477              	.LVL158:
 1478 0000 2DE9F047 		push	{r4, r5, r6, r7, r8, r9, r10, lr}
 1479              		.cfi_def_cfa_offset 32
 1480              		.cfi_offset 4, -32
 1481              		.cfi_offset 5, -28
 1482              		.cfi_offset 6, -24
ARM GAS  C:\Users\mathi\AppData\Local\Temp\ccF8t5t9.s 			page 27


 1483              		.cfi_offset 7, -20
 1484              		.cfi_offset 8, -16
 1485              		.cfi_offset 9, -12
 1486              		.cfi_offset 10, -8
 1487              		.cfi_offset 14, -4
 1488 0004 B64E     		ldr	r6, .L268
 1489              		.loc 1 579 0
 1490 0006 028B     		ldrh	r2, [r0, #24]
 1491              		.loc 1 578 0
 1492 0008 3368     		ldr	r3, [r6]
 1493 000a 84B0     		sub	sp, sp, #16
 1494              		.cfi_def_cfa_offset 48
 1495              		.loc 1 578 0
 1496 000c 0446     		mov	r4, r0
 1497 000e 0393     		str	r3, [sp, #12]
 1498              		.loc 1 579 0
 1499 0010 42F00403 		orr	r3, r2, #4
 1500 0014 0383     		strh	r3, [r0, #24]	@ movhi
 1501              		.loc 1 581 0
 1502 0016 0029     		cmp	r1, #0
 1503 0018 5CD1     		bne	.L252
 1504              	.LBB150:
 1505              	.LBB151:
 1506              	.LBB152:
 1507              	.LBB153:
 1508              		.loc 1 334 0
 1509 001a DFF8C882 		ldr	r8, .L268+4
 1510 001e 03F0050C 		and	ip, r3, #5
 1511              	.LBE153:
 1512              	.LBE152:
 1513              	.LBB155:
 1514              		.loc 1 430 0
 1515 0022 6FF00047 		mvn	r7, #-2147483648
 1516              		.loc 1 436 0
 1517 0026 4FF00209 		mov	r9, #2
 1518              	.LVL159:
 1519              	.L172:
 1520 002a BCF1050F 		cmp	ip, #5
 1521 002e 46D1     		bne	.L173
 1522 0030 618B     		ldrh	r1, [r4, #26]
 1523 0032 6068     		ldr	r0, [r4, #4]
 1524              	.LBE155:
 1525              		.loc 1 171 0
 1526 0034 30F81150 		ldrh	r5, [r0, r1, lsl #1]
 1527              		.loc 1 178 0
 1528 0038 2A0B     		lsrs	r2, r5, #12
 1529              	.L228:
 1530              	.LVL160:
 1531 003a 0E2A     		cmp	r2, #14
 1532 003c FDD8     		bhi	.L228
 1533 003e DFE812F0 		tbh	[pc, r2, lsl #1]
 1534              	.L229:
 1535 0042 6601     		.2byte	(.L202-.L229)/2
 1536 0044 6D01     		.2byte	(.L204-.L229)/2
 1537 0046 7D01     		.2byte	(.L205-.L229)/2
 1538 0048 8E01     		.2byte	(.L206-.L229)/2
 1539 004a 9B01     		.2byte	(.L207-.L229)/2
ARM GAS  C:\Users\mathi\AppData\Local\Temp\ccF8t5t9.s 			page 28


 1540 004c A801     		.2byte	(.L208-.L229)/2
 1541 004e BC01     		.2byte	(.L211-.L229)/2
 1542 0050 DD01     		.2byte	(.L214-.L229)/2
 1543 0052 EF01     		.2byte	(.L219-.L229)/2
 1544 0054 0502     		.2byte	(.L220-.L229)/2
 1545 0056 0A02     		.2byte	(.L221-.L229)/2
 1546 0058 3402     		.2byte	(.L224-.L229)/2
 1547 005a 4B02     		.2byte	(.L225-.L229)/2
 1548 005c 5102     		.2byte	(.L226-.L229)/2
 1549 005e 6002     		.2byte	(.L227-.L229)/2
 1550              	.LVL161:
 1551              		.p2align 1
 1552              	.L186:
 1553              	.LBE151:
 1554              	.LBE150:
 1555              	.LBB187:
 1556              	.LBB188:
 1557              	.LBB189:
 1558              		.loc 1 430 0
 1559 0060 B4F91C30 		ldrsh	r3, [r4, #28]
 1560 0064 6269     		ldr	r2, [r4, #20]
 1561 0066 3B44     		add	r3, r3, r7
 1562              	.LVL162:
 1563              		.loc 1 431 0
 1564 0068 02EB4300 		add	r0, r2, r3, lsl #1
 1565              		.loc 1 432 0
 1566 006c 32F91310 		ldrsh	r1, [r2, r3, lsl #1]
 1567 0070 B0F90220 		ldrsh	r2, [r0, #2]
 1568              	.LVL163:
 1569 0074 5FFA8AF3 		uxtb	r3, r10
 1570              	.LVL164:
 1571 0078 2046     		mov	r0, r4
 1572 007a FFF7FEFF 		bl	AsebaVMDoBinaryOperation
 1573              	.LVL165:
 1574              		.loc 1 433 0
 1575 007e A38B     		ldrh	r3, [r4, #28]
 1576 0080 023B     		subs	r3, r3, #2
 1577 0082 A383     		strh	r3, [r4, #28]	@ movhi
 1578              		.loc 1 436 0
 1579 0084 0028     		cmp	r0, #0
 1580 0086 00F07782 		beq	.L199
 1581 008a 0AF4407A 		and	r10, r10, #768
 1582              	.LVL166:
 1583 008e BAF5407F 		cmp	r10, #768
 1584 0092 6268     		ldr	r2, [r4, #4]
 1585 0094 608B     		ldrh	r0, [r4, #26]
 1586              	.LVL167:
 1587 0096 00F09B82 		beq	.L200
 1588 009a 0221     		movs	r1, #2
 1589              	.L230:
 1590              		.loc 1 449 0
 1591 009c 32F81030 		ldrh	r3, [r2, r0, lsl #1]
 1592 00a0 43F40073 		orr	r3, r3, #512
 1593 00a4 22F81030 		strh	r3, [r2, r0, lsl #1]	@ movhi
 1594              	.L231:
 1595              		.loc 1 460 0
 1596 00a8 628B     		ldrh	r2, [r4, #26]
ARM GAS  C:\Users\mathi\AppData\Local\Temp\ccF8t5t9.s 			page 29


 1597 00aa 238B     		ldrh	r3, [r4, #24]
 1598 00ac 0A44     		add	r2, r2, r1
 1599 00ae 6283     		strh	r2, [r4, #26]	@ movhi
 1600              	.L174:
 1601              	.LVL168:
 1602              	.LBE189:
 1603              	.LBE188:
 1604              	.LBE187:
 1605              		.loc 1 584 0
 1606 00b0 03F00502 		and	r2, r3, #5
 1607              		.loc 1 590 0
 1608 00b4 013D     		subs	r5, r5, #1
 1609              	.LVL169:
 1610              		.loc 1 584 0
 1611 00b6 052A     		cmp	r2, #5
 1612              		.loc 1 590 0
 1613 00b8 ADB2     		uxth	r5, r5
 1614              	.LVL170:
 1615              		.loc 1 584 0
 1616 00ba 00D1     		bne	.L173
 1617              		.loc 1 585 0
 1618 00bc BDB9     		cbnz	r5, .L201
 1619              	.LVL171:
 1620              	.L173:
 1621              		.loc 1 604 0
 1622 00be 0399     		ldr	r1, [sp, #12]
 1623 00c0 3268     		ldr	r2, [r6]
 1624              		.loc 1 603 0
 1625 00c2 23F00403 		bic	r3, r3, #4
 1626              		.loc 1 604 0
 1627 00c6 9142     		cmp	r1, r2
 1628              		.loc 1 603 0
 1629 00c8 2383     		strh	r3, [r4, #24]	@ movhi
 1630              		.loc 1 604 0
 1631 00ca 40F08982 		bne	.L267
 1632 00ce 04B0     		add	sp, sp, #16
 1633              		.cfi_remember_state
 1634              		.cfi_def_cfa_offset 32
 1635              		@ sp needed
 1636 00d0 BDE8F087 		pop	{r4, r5, r6, r7, r8, r9, r10, pc}
 1637              	.LVL172:
 1638              	.L252:
 1639              		.cfi_restore_state
 1640              		.loc 1 584 0
 1641 00d4 02F00502 		and	r2, r2, #5
 1642 00d8 42F00402 		orr	r2, r2, #4
 1643 00dc 052A     		cmp	r2, #5
 1644 00de EED1     		bne	.L173
 1645              	.LBB223:
 1646              	.LBB217:
 1647              	.LBB190:
 1648              	.LBB191:
 1649              		.loc 1 334 0
 1650 00e0 DFF80092 		ldr	r9, .L268+4
 1651 00e4 0D46     		mov	r5, r1
 1652              	.LBE191:
 1653              	.LBE190:
ARM GAS  C:\Users\mathi\AppData\Local\Temp\ccF8t5t9.s 			page 30


 1654              	.LBB193:
 1655              		.loc 1 430 0
 1656 00e6 6FF00047 		mvn	r7, #-2147483648
 1657              		.loc 1 436 0
 1658 00ea 4FF00208 		mov	r8, #2
 1659              	.LVL173:
 1660              	.L201:
 1661              	.LBE193:
 1662              		.loc 1 171 0
 1663 00ee 618B     		ldrh	r1, [r4, #26]
 1664 00f0 6068     		ldr	r0, [r4, #4]
 1665 00f2 30F811A0 		ldrh	r10, [r0, r1, lsl #1]
 1666              	.LVL174:
 1667              		.loc 1 178 0
 1668 00f6 4FEA1A32 		lsr	r2, r10, #12
 1669              		.loc 1 171 0
 1670 00fa 4FEA410C 		lsl	ip, r1, #1
 1671              		.loc 1 178 0
 1672 00fe 0E2A     		cmp	r2, #14
 1673 0100 D6D8     		bhi	.L174
 1674 0102 0FF2080E 		adr	lr, .L176
 1675 0106 5EF822F0 		ldr	pc, [lr, r2, lsl #2]
 1676 010a 00BF     		.p2align 2
 1677              	.L176:
 1678 010c 05030000 		.word	.L175+1
 1679 0110 E9020000 		.word	.L177+1
 1680 0114 D1020000 		.word	.L178+1
 1681 0118 AF020000 		.word	.L179+1
 1682 011c 8D020000 		.word	.L180+1
 1683 0120 5F020000 		.word	.L181+1
 1684 0124 25020000 		.word	.L182+1
 1685 0128 F3010000 		.word	.L183+1
 1686 012c BD010000 		.word	.L184+1
 1687 0130 B1010000 		.word	.L185+1
 1688 0134 61000000 		.word	.L186+1
 1689 0138 8D010000 		.word	.L187+1
 1690 013c 79010000 		.word	.L188+1
 1691 0140 5D010000 		.word	.L189+1
 1692 0144 49010000 		.word	.L190+1
 1693              		.p2align 1
 1694              	.L190:
 1695              		.loc 1 522 0
 1696 0148 B4F91C30 		ldrsh	r3, [r4, #28]
 1697 014c 6269     		ldr	r2, [r4, #20]
 1698 014e 591E     		subs	r1, r3, #1
 1699 0150 A183     		strh	r1, [r4, #28]	@ movhi
 1700 0152 32F81320 		ldrh	r2, [r2, r3, lsl #1]
 1701 0156 6283     		strh	r2, [r4, #26]	@ movhi
 1702 0158 238B     		ldrh	r3, [r4, #24]
 1703 015a A9E7     		b	.L174
 1704              	.L189:
 1705              	.LVL175:
 1706              	.LBB194:
 1707              		.loc 1 505 0
 1708 015c A38B     		ldrh	r3, [r4, #28]
 1709 015e 6269     		ldr	r2, [r4, #20]
 1710 0160 0133     		adds	r3, r3, #1
ARM GAS  C:\Users\mathi\AppData\Local\Temp\ccF8t5t9.s 			page 31


 1711 0162 1BB2     		sxth	r3, r3
 1712 0164 0131     		adds	r1, r1, #1
 1713 0166 A383     		strh	r3, [r4, #28]	@ movhi
 1714 0168 22F81310 		strh	r1, [r2, r3, lsl #1]	@ movhi
 1715              		.loc 1 496 0
 1716 016c CAF30B0A 		ubfx	r10, r10, #0, #12
 1717              	.LVL176:
 1718              		.loc 1 508 0
 1719 0170 A4F81AA0 		strh	r10, [r4, #26]	@ movhi
 1720 0174 238B     		ldrh	r3, [r4, #24]
 1721 0176 9BE7     		b	.L174
 1722              	.LVL177:
 1723              	.L188:
 1724              	.LBE194:
 1725              		.loc 1 486 0
 1726 0178 CAF30B01 		ubfx	r1, r10, #0, #12
 1727 017c 2046     		mov	r0, r4
 1728 017e FFF7FEFF 		bl	AsebaNativeFunction
 1729              	.LVL178:
 1730              		.loc 1 489 0
 1731 0182 628B     		ldrh	r2, [r4, #26]
 1732 0184 238B     		ldrh	r3, [r4, #24]
 1733 0186 0132     		adds	r2, r2, #1
 1734 0188 6283     		strh	r2, [r4, #26]	@ movhi
 1735 018a 91E7     		b	.L174
 1736              	.L187:
 1737              	.LVL179:
 1738              	.LBB195:
 1739              		.loc 1 469 0
 1740 018c 6044     		add	r0, r0, ip
 1741              	.LVL180:
 1742              		.loc 1 475 0
 1743 018e E268     		ldr	r2, [r4, #12]
 1744 0190 8388     		ldrh	r3, [r0, #4]
 1745 0192 4088     		ldrh	r0, [r0, #2]
 1746 0194 5B00     		lsls	r3, r3, #1
 1747 0196 02EB4002 		add	r2, r2, r0, lsl #1
 1748 019a 9BB2     		uxth	r3, r3
 1749 019c CAF30B01 		ubfx	r1, r10, #0, #12
 1750 01a0 2046     		mov	r0, r4
 1751 01a2 FFF7FEFF 		bl	AsebaSendMessage
 1752              	.LVL181:
 1753              		.loc 1 478 0
 1754 01a6 628B     		ldrh	r2, [r4, #26]
 1755 01a8 238B     		ldrh	r3, [r4, #24]
 1756 01aa 0332     		adds	r2, r2, #3
 1757 01ac 6283     		strh	r2, [r4, #26]	@ movhi
 1758 01ae 7FE7     		b	.L174
 1759              	.L185:
 1760              	.LVL182:
 1761              	.LBE195:
 1762              	.LBB196:
 1763              		.loc 1 403 0
 1764 01b0 4AF30B0A 		sbfx	r10, r10, #0, #12
 1765              	.LVL183:
 1766              		.loc 1 412 0
 1767 01b4 5144     		add	r1, r1, r10
ARM GAS  C:\Users\mathi\AppData\Local\Temp\ccF8t5t9.s 			page 32


 1768              	.LVL184:
 1769 01b6 6183     		strh	r1, [r4, #26]	@ movhi
 1770              	.LVL185:
 1771              	.L257:
 1772 01b8 238B     		ldrh	r3, [r4, #24]
 1773 01ba 79E7     		b	.L174
 1774              	.LVL186:
 1775              	.L184:
 1776              	.LBE196:
 1777              	.LBB197:
 1778              		.loc 1 385 0
 1779 01bc B4F91C10 		ldrsh	r1, [r4, #28]
 1780 01c0 6069     		ldr	r0, [r4, #20]
 1781 01c2 3944     		add	r1, r1, r7
 1782              	.LVL187:
 1783              		.loc 1 386 0
 1784 01c4 00EB4102 		add	r2, r0, r1, lsl #1
 1785              		.loc 1 389 0
 1786 01c8 5FFA8AF3 		uxtb	r3, r10
 1787 01cc B2F90220 		ldrsh	r2, [r2, #2]
 1788 01d0 30F91110 		ldrsh	r1, [r0, r1, lsl #1]
 1789              	.LVL188:
 1790 01d4 2046     		mov	r0, r4
 1791              	.LVL189:
 1792 01d6 FFF7FEFF 		bl	AsebaVMDoBinaryOperation
 1793              	.LVL190:
 1794              		.loc 1 392 0
 1795 01da A38B     		ldrh	r3, [r4, #28]
 1796              		.loc 1 393 0
 1797 01dc 6269     		ldr	r2, [r4, #20]
 1798              		.loc 1 392 0
 1799 01de 013B     		subs	r3, r3, #1
 1800 01e0 1BB2     		sxth	r3, r3
 1801 01e2 A383     		strh	r3, [r4, #28]	@ movhi
 1802              		.loc 1 393 0
 1803 01e4 22F81300 		strh	r0, [r2, r3, lsl #1]	@ movhi
 1804              		.loc 1 396 0
 1805 01e8 628B     		ldrh	r2, [r4, #26]
 1806 01ea 238B     		ldrh	r3, [r4, #24]
 1807 01ec 0132     		adds	r2, r2, #1
 1808 01ee 6283     		strh	r2, [r4, #26]	@ movhi
 1809 01f0 5EE7     		b	.L174
 1810              	.LVL191:
 1811              	.L183:
 1812              	.LBE197:
 1813              	.LBB198:
 1814              		.loc 1 360 0
 1815 01f2 B4F91C10 		ldrsh	r1, [r4, #28]
 1816 01f6 6269     		ldr	r2, [r4, #20]
 1817              	.LBB199:
 1818              	.LBB200:
 1819              		.loc 1 153 0
 1820 01f8 5FFA8AFA 		uxtb	r10, r10
 1821              	.LVL192:
 1822 01fc BAF1010F 		cmp	r10, #1
 1823              	.LBE200:
 1824              	.LBE199:
ARM GAS  C:\Users\mathi\AppData\Local\Temp\ccF8t5t9.s 			page 33


 1825              		.loc 1 360 0
 1826 0200 32F91130 		ldrsh	r3, [r2, r1, lsl #1]
 1827              	.LVL193:
 1828              	.LBB204:
 1829              	.LBB201:
 1830              		.loc 1 153 0
 1831 0204 00F0D781 		beq	.L196
 1832 0208 C0F0D281 		bcc	.L197
 1833 020c BAF1020F 		cmp	r10, #2
 1834 0210 00F0CA81 		beq	.L198
 1835              		.loc 1 163 0
 1836 0214 0023     		movs	r3, #0
 1837              	.LVL194:
 1838              	.L195:
 1839              	.LBE201:
 1840              	.LBE204:
 1841              		.loc 1 366 0
 1842 0216 22F81130 		strh	r3, [r2, r1, lsl #1]	@ movhi
 1843              	.LVL195:
 1844              		.loc 1 369 0
 1845 021a 628B     		ldrh	r2, [r4, #26]
 1846 021c 238B     		ldrh	r3, [r4, #24]
 1847 021e 0132     		adds	r2, r2, #1
 1848 0220 6283     		strh	r2, [r4, #26]	@ movhi
 1849 0222 45E7     		b	.L174
 1850              	.LVL196:
 1851              	.L182:
 1852              	.LBE198:
 1853              	.LBB207:
 1854              		.loc 1 321 0
 1855 0224 6044     		add	r0, r0, ip
 1856              		.loc 1 323 0
 1857 0226 B4F91C30 		ldrsh	r3, [r4, #28]
 1858              		.loc 1 322 0
 1859 022a 6269     		ldr	r2, [r4, #20]
 1860              		.loc 1 321 0
 1861 022c 4088     		ldrh	r0, [r0, #2]
 1862              	.LVL197:
 1863              		.loc 1 323 0
 1864 022e 32F813C0 		ldrh	ip, [r2, r3, lsl #1]
 1865              	.LVL198:
 1866              		.loc 1 326 0
 1867 0232 6045     		cmp	r0, ip
 1868              		.loc 1 323 0
 1869 0234 4FEA4303 		lsl	r3, r3, #1
 1870              	.LVL199:
 1871              		.loc 1 326 0
 1872 0238 40F26C81 		bls	.L264
 1873              		.loc 1 322 0
 1874 023c 1344     		add	r3, r3, r2
 1875              		.loc 1 340 0
 1876 023e CAF30B0A 		ubfx	r10, r10, #0, #12
 1877              	.LVL200:
 1878 0242 E268     		ldr	r2, [r4, #12]
 1879              	.LVL201:
 1880              		.loc 1 322 0
 1881 0244 33F9023C 		ldrsh	r3, [r3, #-2]
ARM GAS  C:\Users\mathi\AppData\Local\Temp\ccF8t5t9.s 			page 34


 1882              		.loc 1 340 0
 1883 0248 D444     		add	ip, ip, r10
 1884              	.LVL202:
 1885 024a 22F81C30 		strh	r3, [r2, ip, lsl #1]	@ movhi
 1886              	.LVL203:
 1887              		.loc 1 341 0
 1888 024e A18B     		ldrh	r1, [r4, #28]
 1889              		.loc 1 344 0
 1890 0250 628B     		ldrh	r2, [r4, #26]
 1891 0252 238B     		ldrh	r3, [r4, #24]
 1892              		.loc 1 341 0
 1893 0254 0239     		subs	r1, r1, #2
 1894              		.loc 1 344 0
 1895 0256 0232     		adds	r2, r2, #2
 1896              		.loc 1 341 0
 1897 0258 A183     		strh	r1, [r4, #28]	@ movhi
 1898              		.loc 1 344 0
 1899 025a 6283     		strh	r2, [r4, #26]	@ movhi
 1900 025c 28E7     		b	.L174
 1901              	.LVL204:
 1902              	.L181:
 1903              	.LBE207:
 1904              	.LBB208:
 1905              		.loc 1 280 0
 1906 025e 6044     		add	r0, r0, ip
 1907              		.loc 1 281 0
 1908 0260 B4F91C20 		ldrsh	r2, [r4, #28]
 1909 0264 6369     		ldr	r3, [r4, #20]
 1910              		.loc 1 280 0
 1911 0266 4088     		ldrh	r0, [r0, #2]
 1912              	.LVL205:
 1913              		.loc 1 281 0
 1914 0268 33F812C0 		ldrh	ip, [r3, r2, lsl #1]
 1915              	.LVL206:
 1916              		.loc 1 284 0
 1917 026c 6045     		cmp	r0, ip
 1918 026e 40F25181 		bls	.L264
 1919              		.loc 1 298 0
 1920 0272 CAF30B0A 		ubfx	r10, r10, #0, #12
 1921              	.LVL207:
 1922 0276 D444     		add	ip, ip, r10
 1923              	.LVL208:
 1924 0278 E168     		ldr	r1, [r4, #12]
 1925              	.LVL209:
 1926 027a 31F91C10 		ldrsh	r1, [r1, ip, lsl #1]
 1927              	.LVL210:
 1928              	.L258:
 1929 027e 23F81210 		strh	r1, [r3, r2, lsl #1]	@ movhi
 1930              		.loc 1 301 0
 1931 0282 628B     		ldrh	r2, [r4, #26]
 1932 0284 238B     		ldrh	r3, [r4, #24]
 1933 0286 0232     		adds	r2, r2, #2
 1934 0288 6283     		strh	r2, [r4, #26]	@ movhi
 1935 028a 11E7     		b	.L174
 1936              	.LVL211:
 1937              	.L180:
 1938              	.LBE208:
ARM GAS  C:\Users\mathi\AppData\Local\Temp\ccF8t5t9.s 			page 35


 1939              	.LBB209:
 1940              		.loc 1 258 0
 1941 028c B4F91C30 		ldrsh	r3, [r4, #28]
 1942 0290 6169     		ldr	r1, [r4, #20]
 1943 0292 5A1E     		subs	r2, r3, #1
 1944 0294 A283     		strh	r2, [r4, #28]	@ movhi
 1945 0296 CAF30B0A 		ubfx	r10, r10, #0, #12
 1946              	.LVL212:
 1947 029a E268     		ldr	r2, [r4, #12]
 1948 029c 31F91330 		ldrsh	r3, [r1, r3, lsl #1]
 1949 02a0 22F81A30 		strh	r3, [r2, r10, lsl #1]	@ movhi
 1950              		.loc 1 261 0
 1951 02a4 628B     		ldrh	r2, [r4, #26]
 1952 02a6 238B     		ldrh	r3, [r4, #24]
 1953 02a8 0132     		adds	r2, r2, #1
 1954 02aa 6283     		strh	r2, [r4, #26]	@ movhi
 1955 02ac 00E7     		b	.L174
 1956              	.LVL213:
 1957              	.L179:
 1958              	.LBE209:
 1959              	.LBB210:
 1960              		.loc 1 237 0
 1961 02ae A38B     		ldrh	r3, [r4, #28]
 1962 02b0 E168     		ldr	r1, [r4, #12]
 1963 02b2 6269     		ldr	r2, [r4, #20]
 1964 02b4 0133     		adds	r3, r3, #1
 1965 02b6 1BB2     		sxth	r3, r3
 1966 02b8 CAF30B0A 		ubfx	r10, r10, #0, #12
 1967              	.LVL214:
 1968 02bc A383     		strh	r3, [r4, #28]	@ movhi
 1969              	.LVL215:
 1970 02be 31F91A10 		ldrsh	r1, [r1, r10, lsl #1]
 1971 02c2 22F81310 		strh	r1, [r2, r3, lsl #1]	@ movhi
 1972              		.loc 1 240 0
 1973 02c6 628B     		ldrh	r2, [r4, #26]
 1974 02c8 238B     		ldrh	r3, [r4, #24]
 1975 02ca 0132     		adds	r2, r2, #1
 1976 02cc 6283     		strh	r2, [r4, #26]	@ movhi
 1977 02ce EFE6     		b	.L174
 1978              	.LVL216:
 1979              	.L178:
 1980              	.LBE210:
 1981              		.loc 1 216 0
 1982 02d0 A28B     		ldrh	r2, [r4, #28]
 1983 02d2 6369     		ldr	r3, [r4, #20]
 1984 02d4 6044     		add	r0, r0, ip
 1985 02d6 0132     		adds	r2, r2, #1
 1986 02d8 12B2     		sxth	r2, r2
 1987 02da 4188     		ldrh	r1, [r0, #2]
 1988 02dc A283     		strh	r2, [r4, #28]	@ movhi
 1989 02de CEE7     		b	.L258
 1990              	.L269:
 1991              		.align	2
 1992              	.L268:
 1993 02e0 00000000 		.word	__stack_chk_guard
 1994 02e4 00000000 		.word	AsebaVMErrorCB
 1995              	.L177:
ARM GAS  C:\Users\mathi\AppData\Local\Temp\ccF8t5t9.s 			page 36


 1996              	.LVL217:
 1997              	.LBB211:
 1998              		.loc 1 199 0
 1999 02e8 A38B     		ldrh	r3, [r4, #28]
 2000 02ea 6269     		ldr	r2, [r4, #20]
 2001 02ec 0133     		adds	r3, r3, #1
 2002 02ee 1BB2     		sxth	r3, r3
 2003              		.loc 1 190 0
 2004 02f0 4AF30B0A 		sbfx	r10, r10, #0, #12
 2005              	.LVL218:
 2006              		.loc 1 199 0
 2007 02f4 A383     		strh	r3, [r4, #28]	@ movhi
 2008              	.LVL219:
 2009 02f6 22F813A0 		strh	r10, [r2, r3, lsl #1]	@ movhi
 2010              		.loc 1 202 0
 2011 02fa 628B     		ldrh	r2, [r4, #26]
 2012 02fc 238B     		ldrh	r3, [r4, #24]
 2013 02fe 0132     		adds	r2, r2, #1
 2014 0300 6283     		strh	r2, [r4, #26]	@ movhi
 2015 0302 D5E6     		b	.L174
 2016              	.LVL220:
 2017              	.L175:
 2018              	.LBE211:
 2019              		.loc 1 183 0
 2020 0304 23F00103 		bic	r3, r3, #1
 2021 0308 9BB2     		uxth	r3, r3
 2022 030a 2383     		strh	r3, [r4, #24]	@ movhi
 2023 030c D0E6     		b	.L174
 2024              	.LVL221:
 2025              	.L202:
 2026              	.LBE217:
 2027              	.LBE223:
 2028              	.LBB224:
 2029              	.LBB181:
 2030 030e 23F00103 		bic	r3, r3, #1
 2031 0312 9BB2     		uxth	r3, r3
 2032 0314 2383     		strh	r3, [r4, #24]	@ movhi
 2033              	.LVL222:
 2034 0316 03F0050C 		and	ip, r3, #5
 2035 031a 86E6     		b	.L172
 2036              	.LVL223:
 2037              	.L204:
 2038              	.LBB156:
 2039              		.loc 1 199 0
 2040 031c A38B     		ldrh	r3, [r4, #28]
 2041 031e 6269     		ldr	r2, [r4, #20]
 2042 0320 0133     		adds	r3, r3, #1
 2043 0322 1BB2     		sxth	r3, r3
 2044              		.loc 1 190 0
 2045 0324 45F30B05 		sbfx	r5, r5, #0, #12
 2046              	.LVL224:
 2047              		.loc 1 199 0
 2048 0328 A383     		strh	r3, [r4, #28]	@ movhi
 2049              	.LVL225:
 2050 032a 22F81350 		strh	r5, [r2, r3, lsl #1]	@ movhi
 2051              	.L259:
 2052              	.LBE156:
ARM GAS  C:\Users\mathi\AppData\Local\Temp\ccF8t5t9.s 			page 37


 2053              		.loc 1 489 0
 2054 032e 628B     		ldrh	r2, [r4, #26]
 2055 0330 238B     		ldrh	r3, [r4, #24]
 2056 0332 0132     		adds	r2, r2, #1
 2057 0334 6283     		strh	r2, [r4, #26]	@ movhi
 2058 0336 03F0050C 		and	ip, r3, #5
 2059 033a 76E6     		b	.L172
 2060              	.LVL226:
 2061              	.L205:
 2062              		.loc 1 216 0
 2063 033c A38B     		ldrh	r3, [r4, #28]
 2064 033e 6269     		ldr	r2, [r4, #20]
 2065 0340 0131     		adds	r1, r1, #1
 2066              	.LVL227:
 2067 0342 0133     		adds	r3, r3, #1
 2068 0344 1BB2     		sxth	r3, r3
 2069 0346 30F81110 		ldrh	r1, [r0, r1, lsl #1]
 2070              	.LVL228:
 2071 034a A383     		strh	r3, [r4, #28]	@ movhi
 2072              	.LVL229:
 2073 034c 22F81310 		strh	r1, [r2, r3, lsl #1]	@ movhi
 2074              	.L260:
 2075              	.LBB157:
 2076              		.loc 1 301 0
 2077 0350 628B     		ldrh	r2, [r4, #26]
 2078 0352 238B     		ldrh	r3, [r4, #24]
 2079 0354 0232     		adds	r2, r2, #2
 2080 0356 6283     		strh	r2, [r4, #26]	@ movhi
 2081 0358 03F0050C 		and	ip, r3, #5
 2082 035c 65E6     		b	.L172
 2083              	.LVL230:
 2084              	.L206:
 2085              	.LBE157:
 2086              	.LBB158:
 2087              		.loc 1 237 0
 2088 035e A38B     		ldrh	r3, [r4, #28]
 2089 0360 E168     		ldr	r1, [r4, #12]
 2090              	.LVL231:
 2091 0362 6269     		ldr	r2, [r4, #20]
 2092 0364 0133     		adds	r3, r3, #1
 2093 0366 1BB2     		sxth	r3, r3
 2094 0368 C5F30B05 		ubfx	r5, r5, #0, #12
 2095              	.LVL232:
 2096 036c A383     		strh	r3, [r4, #28]	@ movhi
 2097              	.LVL233:
 2098 036e 31F91510 		ldrsh	r1, [r1, r5, lsl #1]
 2099 0372 22F81310 		strh	r1, [r2, r3, lsl #1]	@ movhi
 2100 0376 DAE7     		b	.L259
 2101              	.LVL234:
 2102              	.L207:
 2103              	.LBE158:
 2104              	.LBB159:
 2105              		.loc 1 258 0
 2106 0378 B4F91C30 		ldrsh	r3, [r4, #28]
 2107 037c 6169     		ldr	r1, [r4, #20]
 2108              	.LVL235:
 2109 037e 5A1E     		subs	r2, r3, #1
ARM GAS  C:\Users\mathi\AppData\Local\Temp\ccF8t5t9.s 			page 38


 2110 0380 A283     		strh	r2, [r4, #28]	@ movhi
 2111              	.LVL236:
 2112 0382 C5F30B05 		ubfx	r5, r5, #0, #12
 2113              	.LVL237:
 2114 0386 E268     		ldr	r2, [r4, #12]
 2115 0388 31F91330 		ldrsh	r3, [r1, r3, lsl #1]
 2116 038c 22F81530 		strh	r3, [r2, r5, lsl #1]	@ movhi
 2117 0390 CDE7     		b	.L259
 2118              	.LVL238:
 2119              	.L208:
 2120              	.LBE159:
 2121              	.LBB160:
 2122              		.loc 1 280 0
 2123 0392 4B1C     		adds	r3, r1, #1
 2124              		.loc 1 281 0
 2125 0394 B4F91CE0 		ldrsh	lr, [r4, #28]
 2126 0398 6269     		ldr	r2, [r4, #20]
 2127              		.loc 1 280 0
 2128 039a 30F81300 		ldrh	r0, [r0, r3, lsl #1]
 2129              	.LVL239:
 2130              		.loc 1 281 0
 2131 039e 32F81EC0 		ldrh	ip, [r2, lr, lsl #1]
 2132              	.LVL240:
 2133              		.loc 1 284 0
 2134 03a2 6045     		cmp	r0, ip
 2135 03a4 40F2CE80 		bls	.L266
 2136              		.loc 1 298 0
 2137 03a8 C5F30B05 		ubfx	r5, r5, #0, #12
 2138              	.LVL241:
 2139 03ac E368     		ldr	r3, [r4, #12]
 2140 03ae AC44     		add	ip, ip, r5
 2141              	.LVL242:
 2142 03b0 33F91C30 		ldrsh	r3, [r3, ip, lsl #1]
 2143 03b4 22F81E30 		strh	r3, [r2, lr, lsl #1]	@ movhi
 2144              	.LVL243:
 2145 03b8 CAE7     		b	.L260
 2146              	.LVL244:
 2147              	.L211:
 2148              	.LBE160:
 2149              	.LBB161:
 2150              		.loc 1 323 0
 2151 03ba B4F91C30 		ldrsh	r3, [r4, #28]
 2152              		.loc 1 322 0
 2153 03be D4F814E0 		ldr	lr, [r4, #20]
 2154              		.loc 1 321 0
 2155 03c2 4A1C     		adds	r2, r1, #1
 2156              		.loc 1 323 0
 2157 03c4 3EF813C0 		ldrh	ip, [lr, r3, lsl #1]
 2158              		.loc 1 321 0
 2159 03c8 30F81200 		ldrh	r0, [r0, r2, lsl #1]
 2160              	.LVL245:
 2161              		.loc 1 326 0
 2162 03cc 6045     		cmp	r0, ip
 2163              		.loc 1 323 0
 2164 03ce 4FEA4303 		lsl	r3, r3, #1
 2165              	.LVL246:
 2166              		.loc 1 326 0
ARM GAS  C:\Users\mathi\AppData\Local\Temp\ccF8t5t9.s 			page 39


 2167 03d2 40F2B780 		bls	.L266
 2168              		.loc 1 322 0
 2169 03d6 7344     		add	r3, r3, lr
 2170              		.loc 1 340 0
 2171 03d8 C5F30B05 		ubfx	r5, r5, #0, #12
 2172              	.LVL247:
 2173 03dc AC44     		add	ip, ip, r5
 2174              	.LVL248:
 2175 03de E268     		ldr	r2, [r4, #12]
 2176              		.loc 1 322 0
 2177 03e0 33F9023C 		ldrsh	r3, [r3, #-2]
 2178              		.loc 1 340 0
 2179 03e4 22F81C30 		strh	r3, [r2, ip, lsl #1]	@ movhi
 2180              	.LVL249:
 2181              		.loc 1 341 0
 2182 03e8 A18B     		ldrh	r1, [r4, #28]
 2183              		.loc 1 344 0
 2184 03ea 628B     		ldrh	r2, [r4, #26]
 2185 03ec 238B     		ldrh	r3, [r4, #24]
 2186              		.loc 1 341 0
 2187 03ee 0239     		subs	r1, r1, #2
 2188              		.loc 1 344 0
 2189 03f0 0232     		adds	r2, r2, #2
 2190              		.loc 1 341 0
 2191 03f2 A183     		strh	r1, [r4, #28]	@ movhi
 2192              		.loc 1 344 0
 2193 03f4 6283     		strh	r2, [r4, #26]	@ movhi
 2194 03f6 03F0050C 		and	ip, r3, #5
 2195 03fa 16E6     		b	.L172
 2196              	.LVL250:
 2197              	.L214:
 2198              	.LBE161:
 2199              	.LBB162:
 2200              		.loc 1 360 0
 2201 03fc B4F91C10 		ldrsh	r1, [r4, #28]
 2202              	.LVL251:
 2203 0400 6269     		ldr	r2, [r4, #20]
 2204              	.LBB163:
 2205              	.LBB164:
 2206              		.loc 1 153 0
 2207 0402 EDB2     		uxtb	r5, r5
 2208 0404 012D     		cmp	r5, #1
 2209              	.LBE164:
 2210              	.LBE163:
 2211              		.loc 1 360 0
 2212 0406 32F91130 		ldrsh	r3, [r2, r1, lsl #1]
 2213              	.LVL252:
 2214              	.LBB168:
 2215              	.LBB165:
 2216              		.loc 1 153 0
 2217 040a 00F0DC80 		beq	.L216
 2218 040e C0F0D780 		bcc	.L217
 2219 0412 022D     		cmp	r5, #2
 2220 0414 00F0CA80 		beq	.L218
 2221              		.loc 1 163 0
 2222 0418 0023     		movs	r3, #0
 2223              	.LVL253:
ARM GAS  C:\Users\mathi\AppData\Local\Temp\ccF8t5t9.s 			page 40


 2224              	.L215:
 2225              	.LBE165:
 2226              	.LBE168:
 2227              		.loc 1 366 0
 2228 041a 22F81130 		strh	r3, [r2, r1, lsl #1]	@ movhi
 2229              	.LVL254:
 2230 041e 86E7     		b	.L259
 2231              	.LVL255:
 2232              	.L219:
 2233              	.LBE162:
 2234              	.LBB171:
 2235              		.loc 1 385 0
 2236 0420 B4F91C10 		ldrsh	r1, [r4, #28]
 2237              	.LVL256:
 2238 0424 6069     		ldr	r0, [r4, #20]
 2239              	.LVL257:
 2240 0426 3944     		add	r1, r1, r7
 2241              	.LVL258:
 2242              		.loc 1 386 0
 2243 0428 00EB4102 		add	r2, r0, r1, lsl #1
 2244              		.loc 1 389 0
 2245 042c EBB2     		uxtb	r3, r5
 2246 042e B2F90220 		ldrsh	r2, [r2, #2]
 2247 0432 30F91110 		ldrsh	r1, [r0, r1, lsl #1]
 2248              	.LVL259:
 2249 0436 2046     		mov	r0, r4
 2250              	.LVL260:
 2251 0438 FFF7FEFF 		bl	AsebaVMDoBinaryOperation
 2252              	.LVL261:
 2253              		.loc 1 392 0
 2254 043c A38B     		ldrh	r3, [r4, #28]
 2255              		.loc 1 393 0
 2256 043e 6269     		ldr	r2, [r4, #20]
 2257              		.loc 1 392 0
 2258 0440 013B     		subs	r3, r3, #1
 2259 0442 1BB2     		sxth	r3, r3
 2260 0444 A383     		strh	r3, [r4, #28]	@ movhi
 2261              		.loc 1 393 0
 2262 0446 22F81300 		strh	r0, [r2, r3, lsl #1]	@ movhi
 2263 044a 70E7     		b	.L259
 2264              	.LVL262:
 2265              	.L220:
 2266              	.LBE171:
 2267              	.LBB172:
 2268              		.loc 1 403 0
 2269 044c 45F30B05 		sbfx	r5, r5, #0, #12
 2270              	.LVL263:
 2271              		.loc 1 412 0
 2272 0450 2944     		add	r1, r1, r5
 2273              	.LVL264:
 2274 0452 6183     		strh	r1, [r4, #26]	@ movhi
 2275              	.LVL265:
 2276 0454 E9E5     		b	.L172
 2277              	.LVL266:
 2278              	.L221:
 2279              	.LBE172:
 2280              	.LBB173:
ARM GAS  C:\Users\mathi\AppData\Local\Temp\ccF8t5t9.s 			page 41


 2281              		.loc 1 430 0
 2282 0456 B4F91C30 		ldrsh	r3, [r4, #28]
 2283 045a 6269     		ldr	r2, [r4, #20]
 2284 045c 3B44     		add	r3, r3, r7
 2285              	.LVL267:
 2286              		.loc 1 431 0
 2287 045e 02EB4300 		add	r0, r2, r3, lsl #1
 2288              	.LVL268:
 2289              		.loc 1 432 0
 2290 0462 32F91310 		ldrsh	r1, [r2, r3, lsl #1]
 2291              	.LVL269:
 2292 0466 B0F90220 		ldrsh	r2, [r0, #2]
 2293              	.LVL270:
 2294 046a EBB2     		uxtb	r3, r5
 2295              	.LVL271:
 2296 046c 2046     		mov	r0, r4
 2297 046e FFF7FEFF 		bl	AsebaVMDoBinaryOperation
 2298              	.LVL272:
 2299              		.loc 1 433 0
 2300 0472 A38B     		ldrh	r3, [r4, #28]
 2301 0474 023B     		subs	r3, r3, #2
 2302 0476 A383     		strh	r3, [r4, #28]	@ movhi
 2303              		.loc 1 436 0
 2304 0478 0028     		cmp	r0, #0
 2305 047a 00F08980 		beq	.L222
 2306 047e 05F44075 		and	r5, r5, #768
 2307 0482 B5F5407F 		cmp	r5, #768
 2308 0486 6268     		ldr	r2, [r4, #4]
 2309 0488 608B     		ldrh	r0, [r4, #26]
 2310              	.LVL273:
 2311 048a 00F0A580 		beq	.L223
 2312 048e 0221     		movs	r1, #2
 2313              	.L232:
 2314              		.loc 1 449 0
 2315 0490 32F81030 		ldrh	r3, [r2, r0, lsl #1]
 2316 0494 43F40073 		orr	r3, r3, #512
 2317 0498 22F81030 		strh	r3, [r2, r0, lsl #1]	@ movhi
 2318              	.L233:
 2319              		.loc 1 460 0
 2320 049c 628B     		ldrh	r2, [r4, #26]
 2321 049e 238B     		ldrh	r3, [r4, #24]
 2322 04a0 0A44     		add	r2, r2, r1
 2323 04a2 6283     		strh	r2, [r4, #26]	@ movhi
 2324 04a4 03F0050C 		and	ip, r3, #5
 2325 04a8 BFE5     		b	.L172
 2326              	.LVL274:
 2327              	.L224:
 2328              	.LBE173:
 2329              	.LBB174:
 2330              		.loc 1 468 0
 2331 04aa 0131     		adds	r1, r1, #1
 2332              	.LVL275:
 2333              		.loc 1 469 0
 2334 04ac 00EB4103 		add	r3, r0, r1, lsl #1
 2335              		.loc 1 475 0
 2336 04b0 E268     		ldr	r2, [r4, #12]
 2337 04b2 5B88     		ldrh	r3, [r3, #2]
ARM GAS  C:\Users\mathi\AppData\Local\Temp\ccF8t5t9.s 			page 42


 2338 04b4 30F81100 		ldrh	r0, [r0, r1, lsl #1]
 2339              	.LVL276:
 2340 04b8 5B00     		lsls	r3, r3, #1
 2341 04ba 02EB4002 		add	r2, r2, r0, lsl #1
 2342 04be 9BB2     		uxth	r3, r3
 2343 04c0 C5F30B01 		ubfx	r1, r5, #0, #12
 2344              	.LVL277:
 2345 04c4 2046     		mov	r0, r4
 2346 04c6 FFF7FEFF 		bl	AsebaSendMessage
 2347              	.LVL278:
 2348              		.loc 1 478 0
 2349 04ca 628B     		ldrh	r2, [r4, #26]
 2350 04cc 238B     		ldrh	r3, [r4, #24]
 2351 04ce 0332     		adds	r2, r2, #3
 2352 04d0 6283     		strh	r2, [r4, #26]	@ movhi
 2353 04d2 03F0050C 		and	ip, r3, #5
 2354 04d6 A8E5     		b	.L172
 2355              	.LVL279:
 2356              	.L225:
 2357              	.LBE174:
 2358              		.loc 1 486 0
 2359 04d8 C5F30B01 		ubfx	r1, r5, #0, #12
 2360              	.LVL280:
 2361 04dc 2046     		mov	r0, r4
 2362              	.LVL281:
 2363 04de FFF7FEFF 		bl	AsebaNativeFunction
 2364              	.LVL282:
 2365 04e2 24E7     		b	.L259
 2366              	.LVL283:
 2367              	.L226:
 2368              	.LBB175:
 2369              		.loc 1 505 0
 2370 04e4 A38B     		ldrh	r3, [r4, #28]
 2371 04e6 6269     		ldr	r2, [r4, #20]
 2372 04e8 0133     		adds	r3, r3, #1
 2373 04ea 1BB2     		sxth	r3, r3
 2374 04ec 0131     		adds	r1, r1, #1
 2375              	.LVL284:
 2376 04ee A383     		strh	r3, [r4, #28]	@ movhi
 2377              	.LVL285:
 2378 04f0 22F81310 		strh	r1, [r2, r3, lsl #1]	@ movhi
 2379 04f4 238B     		ldrh	r3, [r4, #24]
 2380              		.loc 1 496 0
 2381 04f6 C5F30B05 		ubfx	r5, r5, #0, #12
 2382              	.LVL286:
 2383              		.loc 1 508 0
 2384 04fa 6583     		strh	r5, [r4, #26]	@ movhi
 2385 04fc 03F0050C 		and	ip, r3, #5
 2386 0500 93E5     		b	.L172
 2387              	.LVL287:
 2388              	.L227:
 2389              	.LBE175:
 2390              		.loc 1 522 0
 2391 0502 B4F91C20 		ldrsh	r2, [r4, #28]
 2392 0506 6169     		ldr	r1, [r4, #20]
 2393              	.LVL288:
 2394 0508 501E     		subs	r0, r2, #1
ARM GAS  C:\Users\mathi\AppData\Local\Temp\ccF8t5t9.s 			page 43


 2395              	.LVL289:
 2396 050a A083     		strh	r0, [r4, #28]	@ movhi
 2397              	.LVL290:
 2398 050c 31F81220 		ldrh	r2, [r1, r2, lsl #1]
 2399 0510 6283     		strh	r2, [r4, #26]	@ movhi
 2400 0512 8AE5     		b	.L172
 2401              	.LVL291:
 2402              	.L264:
 2403              	.LBE181:
 2404              	.LBE224:
 2405              	.LBB225:
 2406              	.LBB218:
 2407              	.LBB212:
 2408              	.LBB192:
 2409              		.loc 1 332 0
 2410 0514 A4F81880 		strh	r8, [r4, #24]	@ movhi
 2411              		.loc 1 333 0
 2412 0518 0623     		movs	r3, #6
 2413              		.loc 1 329 0
 2414 051a ADF80410 		strh	r1, [sp, #4]	@ movhi
 2415              		.loc 1 330 0
 2416 051e ADF80600 		strh	r0, [sp, #6]	@ movhi
 2417              		.loc 1 333 0
 2418 0522 01AA     		add	r2, sp, #4
 2419 0524 49F20601 		movw	r1, #36870
 2420 0528 2046     		mov	r0, r4
 2421              		.loc 1 331 0
 2422 052a ADF808C0 		strh	ip, [sp, #8]	@ movhi
 2423              		.loc 1 333 0
 2424 052e FFF7FEFF 		bl	AsebaSendMessage
 2425              	.LVL292:
 2426              		.loc 1 334 0
 2427 0532 B9F1000F 		cmp	r9, #0
 2428 0536 3FF43FAE 		beq	.L257
 2429              		.loc 1 335 0
 2430 053a 0021     		movs	r1, #0
 2431 053c 2046     		mov	r0, r4
 2432 053e FFF7FEFF 		bl	AsebaVMErrorCB
 2433              	.LVL293:
 2434 0542 39E6     		b	.L257
 2435              	.LVL294:
 2436              	.L266:
 2437              	.LBE192:
 2438              	.LBE212:
 2439              	.LBE218:
 2440              	.LBE225:
 2441              	.LBB226:
 2442              	.LBB182:
 2443              	.LBB176:
 2444              	.LBB154:
 2445              		.loc 1 332 0
 2446 0544 A4F81890 		strh	r9, [r4, #24]	@ movhi
 2447              	.LVL295:
 2448              		.loc 1 333 0
 2449 0548 0623     		movs	r3, #6
 2450              		.loc 1 329 0
 2451 054a ADF80410 		strh	r1, [sp, #4]	@ movhi
ARM GAS  C:\Users\mathi\AppData\Local\Temp\ccF8t5t9.s 			page 44


 2452              		.loc 1 330 0
 2453 054e ADF80600 		strh	r0, [sp, #6]	@ movhi
 2454              		.loc 1 333 0
 2455 0552 01AA     		add	r2, sp, #4
 2456 0554 49F20601 		movw	r1, #36870
 2457 0558 2046     		mov	r0, r4
 2458              		.loc 1 331 0
 2459 055a ADF808C0 		strh	ip, [sp, #8]	@ movhi
 2460              		.loc 1 333 0
 2461 055e FFF7FEFF 		bl	AsebaSendMessage
 2462              	.LVL296:
 2463              		.loc 1 334 0
 2464 0562 B8F1000F 		cmp	r8, #0
 2465 0566 03D0     		beq	.L213
 2466              		.loc 1 335 0
 2467 0568 0021     		movs	r1, #0
 2468 056a 2046     		mov	r0, r4
 2469 056c FFF7FEFF 		bl	AsebaVMErrorCB
 2470              	.LVL297:
 2471              	.L213:
 2472 0570 238B     		ldrh	r3, [r4, #24]
 2473 0572 03F0050C 		and	ip, r3, #5
 2474 0576 58E5     		b	.L172
 2475              	.LVL298:
 2476              	.L199:
 2477              	.LBE154:
 2478              	.LBE176:
 2479              	.LBE182:
 2480              	.LBE226:
 2481              	.LBB227:
 2482              	.LBB219:
 2483              	.LBB213:
 2484              		.loc 1 444 0
 2485 0578 628B     		ldrh	r2, [r4, #26]
 2486 057a 6068     		ldr	r0, [r4, #4]
 2487              	.LVL299:
 2488 057c 0132     		adds	r2, r2, #1
 2489 057e 5300     		lsls	r3, r2, #1
 2490              		.loc 1 451 0
 2491 0580 023B     		subs	r3, r3, #2
 2492              		.loc 1 444 0
 2493 0582 30F81210 		ldrh	r1, [r0, r2, lsl #1]
 2494              	.LVL300:
 2495              		.loc 1 451 0
 2496 0586 C25A     		ldrh	r2, [r0, r3]
 2497 0588 22F40072 		bic	r2, r2, #512
 2498 058c C252     		strh	r2, [r0, r3]	@ movhi
 2499 058e 8BE5     		b	.L231
 2500              	.LVL301:
 2501              	.L222:
 2502              	.LBE213:
 2503              	.LBE219:
 2504              	.LBE227:
 2505              	.LBB228:
 2506              	.LBB183:
 2507              	.LBB177:
 2508              		.loc 1 444 0
ARM GAS  C:\Users\mathi\AppData\Local\Temp\ccF8t5t9.s 			page 45


 2509 0590 628B     		ldrh	r2, [r4, #26]
 2510 0592 6068     		ldr	r0, [r4, #4]
 2511              	.LVL302:
 2512 0594 0132     		adds	r2, r2, #1
 2513 0596 5300     		lsls	r3, r2, #1
 2514              		.loc 1 451 0
 2515 0598 023B     		subs	r3, r3, #2
 2516              		.loc 1 444 0
 2517 059a 30F81210 		ldrh	r1, [r0, r2, lsl #1]
 2518              	.LVL303:
 2519              		.loc 1 451 0
 2520 059e C25A     		ldrh	r2, [r0, r3]
 2521 05a0 22F40072 		bic	r2, r2, #512
 2522 05a4 C252     		strh	r2, [r0, r3]	@ movhi
 2523 05a6 79E7     		b	.L233
 2524              	.LVL304:
 2525              	.L198:
 2526              	.LBE177:
 2527              	.LBE183:
 2528              	.LBE228:
 2529              	.LBB229:
 2530              	.LBB220:
 2531              	.LBB214:
 2532              	.LBB205:
 2533              	.LBB202:
 2534              		.loc 1 157 0
 2535 05a8 DB43     		mvns	r3, r3
 2536              	.LVL305:
 2537 05aa 34E6     		b	.L195
 2538              	.LVL306:
 2539              	.L218:
 2540              	.LBE202:
 2541              	.LBE205:
 2542              	.LBE214:
 2543              	.LBE220:
 2544              	.LBE229:
 2545              	.LBB230:
 2546              	.LBB184:
 2547              	.LBB178:
 2548              	.LBB169:
 2549              	.LBB166:
 2550 05ac DB43     		mvns	r3, r3
 2551              	.LVL307:
 2552 05ae 34E7     		b	.L215
 2553              	.LVL308:
 2554              	.L197:
 2555              	.LBE166:
 2556              	.LBE169:
 2557              	.LBE178:
 2558              	.LBE184:
 2559              	.LBE230:
 2560              	.LBB231:
 2561              	.LBB221:
 2562              	.LBB215:
 2563              	.LBB206:
 2564              	.LBB203:
 2565              		.loc 1 155 0
ARM GAS  C:\Users\mathi\AppData\Local\Temp\ccF8t5t9.s 			page 46


 2566 05b0 5B42     		negs	r3, r3
 2567              	.LVL309:
 2568 05b2 1BB2     		sxth	r3, r3
 2569              	.LVL310:
 2570 05b4 2FE6     		b	.L195
 2571              	.LVL311:
 2572              	.L196:
 2573              		.loc 1 156 0
 2574 05b6 002B     		cmp	r3, #0
 2575 05b8 B8BF     		it	lt
 2576 05ba 5B42     		rsblt	r3, r3, #0
 2577              	.LVL312:
 2578 05bc 1BB2     		sxth	r3, r3
 2579 05be 2AE6     		b	.L195
 2580              	.LVL313:
 2581              	.L217:
 2582              	.LBE203:
 2583              	.LBE206:
 2584              	.LBE215:
 2585              	.LBE221:
 2586              	.LBE231:
 2587              	.LBB232:
 2588              	.LBB185:
 2589              	.LBB179:
 2590              	.LBB170:
 2591              	.LBB167:
 2592              		.loc 1 155 0
 2593 05c0 5B42     		negs	r3, r3
 2594              	.LVL314:
 2595 05c2 1BB2     		sxth	r3, r3
 2596              	.LVL315:
 2597 05c4 29E7     		b	.L215
 2598              	.LVL316:
 2599              	.L216:
 2600              		.loc 1 156 0
 2601 05c6 002B     		cmp	r3, #0
 2602 05c8 B8BF     		it	lt
 2603 05ca 5B42     		rsblt	r3, r3, #0
 2604              	.LVL317:
 2605 05cc 1BB2     		sxth	r3, r3
 2606 05ce 24E7     		b	.L215
 2607              	.LVL318:
 2608              	.L200:
 2609              	.LBE167:
 2610              	.LBE170:
 2611              	.LBE179:
 2612              	.LBE185:
 2613              	.LBE232:
 2614              	.LBB233:
 2615              	.LBB222:
 2616              	.LBB216:
 2617              		.loc 1 444 0
 2618 05d0 431C     		adds	r3, r0, #1
 2619 05d2 32F81310 		ldrh	r1, [r2, r3, lsl #1]
 2620              	.LVL319:
 2621 05d6 61E5     		b	.L230
 2622              	.LVL320:
ARM GAS  C:\Users\mathi\AppData\Local\Temp\ccF8t5t9.s 			page 47


 2623              	.L223:
 2624              	.LBE216:
 2625              	.LBE222:
 2626              	.LBE233:
 2627              	.LBB234:
 2628              	.LBB186:
 2629              	.LBB180:
 2630 05d8 431C     		adds	r3, r0, #1
 2631 05da 32F81310 		ldrh	r1, [r2, r3, lsl #1]
 2632              	.LVL321:
 2633 05de 57E7     		b	.L232
 2634              	.LVL322:
 2635              	.L267:
 2636              	.LBE180:
 2637              	.LBE186:
 2638              	.LBE234:
 2639              		.loc 1 604 0
 2640 05e0 FFF7FEFF 		bl	__stack_chk_fail
 2641              	.LVL323:
 2642              		.cfi_endproc
 2643              	.LFE8:
 2644              		.size	AsebaDebugBareRun, .-AsebaDebugBareRun
 2645              		.section	.text.AsebaDebugBreakpointRun,"ax",%progbits
 2646              		.align	1
 2647              		.p2align 4,,15
 2648              		.global	AsebaDebugBreakpointRun
 2649              		.syntax unified
 2650              		.thumb
 2651              		.thumb_func
 2652              		.fpu fpv4-sp-d16
 2653              		.type	AsebaDebugBreakpointRun, %function
 2654              	AsebaDebugBreakpointRun:
 2655              	.LFB9:
 2656              		.loc 1 609 0
 2657              		.cfi_startproc
 2658              		@ args = 0, pretend = 0, frame = 8
 2659              		@ frame_needed = 0, uses_anonymous_args = 0
 2660              	.LVL324:
 2661 0000 F0B5     		push	{r4, r5, r6, r7, lr}
 2662              		.cfi_def_cfa_offset 20
 2663              		.cfi_offset 4, -20
 2664              		.cfi_offset 5, -16
 2665              		.cfi_offset 6, -12
 2666              		.cfi_offset 7, -8
 2667              		.cfi_offset 14, -4
 2668 0002 784E     		ldr	r6, .L387
 2669              		.loc 1 610 0
 2670 0004 028B     		ldrh	r2, [r0, #24]
 2671              		.loc 1 609 0
 2672 0006 3368     		ldr	r3, [r6]
 2673 0008 83B0     		sub	sp, sp, #12
 2674              		.cfi_def_cfa_offset 32
 2675              		.loc 1 609 0
 2676 000a 0446     		mov	r4, r0
 2677 000c 0193     		str	r3, [sp, #4]
 2678              		.loc 1 610 0
 2679 000e 42F00403 		orr	r3, r2, #4
ARM GAS  C:\Users\mathi\AppData\Local\Temp\ccF8t5t9.s 			page 48


 2680 0012 02F00502 		and	r2, r2, #5
 2681 0016 0383     		strh	r3, [r0, #24]	@ movhi
 2682 0018 42F00402 		orr	r2, r2, #4
 2683              		.loc 1 612 0
 2684 001c 0029     		cmp	r1, #0
 2685 001e 00F0B280 		beq	.L384
 2686              		.loc 1 615 0
 2687 0022 052A     		cmp	r2, #5
 2688 0024 0F46     		mov	r7, r1
 2689              	.LVL325:
 2690 0026 68D1     		bne	.L273
 2691              	.LVL326:
 2692              	.L274:
 2693              	.LBB243:
 2694              	.LBB244:
 2695              		.loc 1 563 0
 2696 0028 E28F     		ldrh	r2, [r4, #62]
 2697 002a 002A     		cmp	r2, #0
 2698 002c 59D0     		beq	.L276
 2699              		.loc 1 565 0
 2700 002e 658B     		ldrh	r5, [r4, #26]
 2701 0030 E18B     		ldrh	r1, [r4, #30]
 2702 0032 A942     		cmp	r1, r5
 2703 0034 00F0BF80 		beq	.L280
 2704              	.LVL327:
 2705              		.loc 1 563 0
 2706 0038 012A     		cmp	r2, #1
 2707 003a 52D9     		bls	.L276
 2708              		.loc 1 565 0
 2709 003c 218C     		ldrh	r1, [r4, #32]
 2710 003e A942     		cmp	r1, r5
 2711 0040 00F0B980 		beq	.L280
 2712              	.LVL328:
 2713              		.loc 1 563 0
 2714 0044 022A     		cmp	r2, #2
 2715 0046 4CD0     		beq	.L276
 2716              		.loc 1 565 0
 2717 0048 618C     		ldrh	r1, [r4, #34]
 2718 004a A942     		cmp	r1, r5
 2719 004c 00F0B380 		beq	.L280
 2720              	.LVL329:
 2721              		.loc 1 563 0
 2722 0050 032A     		cmp	r2, #3
 2723 0052 46D0     		beq	.L276
 2724              		.loc 1 565 0
 2725 0054 A18C     		ldrh	r1, [r4, #36]
 2726 0056 A942     		cmp	r1, r5
 2727 0058 00F0AD80 		beq	.L280
 2728              	.LVL330:
 2729              		.loc 1 563 0
 2730 005c 042A     		cmp	r2, #4
 2731 005e 40D0     		beq	.L276
 2732              		.loc 1 565 0
 2733 0060 E18C     		ldrh	r1, [r4, #38]
 2734 0062 A942     		cmp	r1, r5
 2735 0064 00F0A780 		beq	.L280
 2736              	.LVL331:
ARM GAS  C:\Users\mathi\AppData\Local\Temp\ccF8t5t9.s 			page 49


 2737              		.loc 1 563 0
 2738 0068 052A     		cmp	r2, #5
 2739 006a 3AD0     		beq	.L276
 2740              		.loc 1 565 0
 2741 006c 218D     		ldrh	r1, [r4, #40]
 2742 006e A942     		cmp	r1, r5
 2743 0070 00F0A180 		beq	.L280
 2744              	.LVL332:
 2745              		.loc 1 563 0
 2746 0074 062A     		cmp	r2, #6
 2747 0076 34D0     		beq	.L276
 2748              		.loc 1 565 0
 2749 0078 618D     		ldrh	r1, [r4, #42]
 2750 007a A942     		cmp	r1, r5
 2751 007c 00F09B80 		beq	.L280
 2752              	.LVL333:
 2753              		.loc 1 563 0
 2754 0080 072A     		cmp	r2, #7
 2755 0082 2ED0     		beq	.L276
 2756              		.loc 1 565 0
 2757 0084 A18D     		ldrh	r1, [r4, #44]
 2758 0086 A942     		cmp	r1, r5
 2759 0088 00F09580 		beq	.L280
 2760              	.LVL334:
 2761              		.loc 1 563 0
 2762 008c 082A     		cmp	r2, #8
 2763 008e 28D0     		beq	.L276
 2764              		.loc 1 565 0
 2765 0090 E18D     		ldrh	r1, [r4, #46]
 2766 0092 A942     		cmp	r1, r5
 2767 0094 00F08F80 		beq	.L280
 2768              	.LVL335:
 2769              		.loc 1 563 0
 2770 0098 092A     		cmp	r2, #9
 2771 009a 22D0     		beq	.L276
 2772              		.loc 1 565 0
 2773 009c 218E     		ldrh	r1, [r4, #48]
 2774 009e A942     		cmp	r1, r5
 2775 00a0 00F08980 		beq	.L280
 2776              	.LVL336:
 2777              		.loc 1 563 0
 2778 00a4 0A2A     		cmp	r2, #10
 2779 00a6 1CD0     		beq	.L276
 2780              		.loc 1 565 0
 2781 00a8 618E     		ldrh	r1, [r4, #50]
 2782 00aa A942     		cmp	r1, r5
 2783 00ac 00F08380 		beq	.L280
 2784              	.LVL337:
 2785              		.loc 1 563 0
 2786 00b0 0B2A     		cmp	r2, #11
 2787 00b2 16D0     		beq	.L276
 2788              		.loc 1 565 0
 2789 00b4 A18E     		ldrh	r1, [r4, #52]
 2790 00b6 A942     		cmp	r1, r5
 2791 00b8 7DD0     		beq	.L280
 2792              	.LVL338:
 2793              		.loc 1 563 0
ARM GAS  C:\Users\mathi\AppData\Local\Temp\ccF8t5t9.s 			page 50


 2794 00ba 0C2A     		cmp	r2, #12
 2795 00bc 11D0     		beq	.L276
 2796              		.loc 1 565 0
 2797 00be E18E     		ldrh	r1, [r4, #54]
 2798 00c0 A942     		cmp	r1, r5
 2799 00c2 78D0     		beq	.L280
 2800              	.LVL339:
 2801              		.loc 1 563 0
 2802 00c4 0D2A     		cmp	r2, #13
 2803 00c6 0CD0     		beq	.L276
 2804              		.loc 1 565 0
 2805 00c8 218F     		ldrh	r1, [r4, #56]
 2806 00ca A942     		cmp	r1, r5
 2807 00cc 73D0     		beq	.L280
 2808              	.LVL340:
 2809              		.loc 1 563 0
 2810 00ce 0E2A     		cmp	r2, #14
 2811 00d0 07D0     		beq	.L276
 2812              		.loc 1 565 0
 2813 00d2 618F     		ldrh	r1, [r4, #58]
 2814 00d4 A942     		cmp	r1, r5
 2815 00d6 6ED0     		beq	.L280
 2816              	.LVL341:
 2817              		.loc 1 563 0
 2818 00d8 0F2A     		cmp	r2, #15
 2819 00da 02D0     		beq	.L276
 2820              		.loc 1 565 0
 2821 00dc A28F     		ldrh	r2, [r4, #60]
 2822 00de AA42     		cmp	r2, r5
 2823 00e0 69D0     		beq	.L280
 2824              	.LVL342:
 2825              	.L276:
 2826              	.LBE244:
 2827              	.LBE243:
 2828              		.loc 1 626 0
 2829 00e2 2046     		mov	r0, r4
 2830 00e4 FFF7FEFF 		bl	AsebaVMStep
 2831              	.LVL343:
 2832              		.loc 1 615 0
 2833 00e8 238B     		ldrh	r3, [r4, #24]
 2834 00ea 03F00502 		and	r2, r3, #5
 2835              		.loc 1 627 0
 2836 00ee 013F     		subs	r7, r7, #1
 2837              	.LVL344:
 2838              		.loc 1 615 0
 2839 00f0 052A     		cmp	r2, #5
 2840              		.loc 1 627 0
 2841 00f2 BFB2     		uxth	r7, r7
 2842              	.LVL345:
 2843              		.loc 1 615 0
 2844 00f4 01D1     		bne	.L273
 2845              		.loc 1 616 0
 2846 00f6 002F     		cmp	r7, #0
 2847 00f8 96D1     		bne	.L274
 2848              	.LVL346:
 2849              	.L273:
 2850              		.loc 1 648 0
ARM GAS  C:\Users\mathi\AppData\Local\Temp\ccF8t5t9.s 			page 51


 2851 00fa 23F00403 		bic	r3, r3, #4
 2852 00fe 2383     		strh	r3, [r4, #24]	@ movhi
 2853 0100 67E0     		b	.L270
 2854              	.LVL347:
 2855              	.L385:
 2856              	.LBB245:
 2857              	.LBB246:
 2858              		.loc 1 563 0
 2859 0102 042A     		cmp	r2, #4
 2860 0104 39D0     		beq	.L279
 2861              		.loc 1 565 0
 2862 0106 E18C     		ldrh	r1, [r4, #38]
 2863 0108 A942     		cmp	r1, r5
 2864 010a 54D0     		beq	.L280
 2865              	.LVL348:
 2866              		.loc 1 563 0
 2867 010c 052A     		cmp	r2, #5
 2868 010e 34D0     		beq	.L279
 2869              		.loc 1 565 0
 2870 0110 218D     		ldrh	r1, [r4, #40]
 2871 0112 A942     		cmp	r1, r5
 2872 0114 4FD0     		beq	.L280
 2873              	.LVL349:
 2874              		.loc 1 563 0
 2875 0116 062A     		cmp	r2, #6
 2876 0118 2FD0     		beq	.L279
 2877              		.loc 1 565 0
 2878 011a 618D     		ldrh	r1, [r4, #42]
 2879 011c A942     		cmp	r1, r5
 2880 011e 4AD0     		beq	.L280
 2881              	.LVL350:
 2882              		.loc 1 563 0
 2883 0120 072A     		cmp	r2, #7
 2884 0122 2AD0     		beq	.L279
 2885              		.loc 1 565 0
 2886 0124 A18D     		ldrh	r1, [r4, #44]
 2887 0126 A942     		cmp	r1, r5
 2888 0128 45D0     		beq	.L280
 2889              	.LVL351:
 2890              		.loc 1 563 0
 2891 012a 082A     		cmp	r2, #8
 2892 012c 25D0     		beq	.L279
 2893              		.loc 1 565 0
 2894 012e E18D     		ldrh	r1, [r4, #46]
 2895 0130 A942     		cmp	r1, r5
 2896 0132 40D0     		beq	.L280
 2897              	.LVL352:
 2898              		.loc 1 563 0
 2899 0134 092A     		cmp	r2, #9
 2900 0136 20D0     		beq	.L279
 2901              		.loc 1 565 0
 2902 0138 218E     		ldrh	r1, [r4, #48]
 2903 013a A942     		cmp	r1, r5
 2904 013c 3BD0     		beq	.L280
 2905              	.LVL353:
 2906              		.loc 1 563 0
 2907 013e 0A2A     		cmp	r2, #10
ARM GAS  C:\Users\mathi\AppData\Local\Temp\ccF8t5t9.s 			page 52


 2908 0140 1BD0     		beq	.L279
 2909              		.loc 1 565 0
 2910 0142 618E     		ldrh	r1, [r4, #50]
 2911 0144 A942     		cmp	r1, r5
 2912 0146 36D0     		beq	.L280
 2913              	.LVL354:
 2914              		.loc 1 563 0
 2915 0148 0B2A     		cmp	r2, #11
 2916 014a 16D0     		beq	.L279
 2917              		.loc 1 565 0
 2918 014c A18E     		ldrh	r1, [r4, #52]
 2919 014e A942     		cmp	r1, r5
 2920 0150 31D0     		beq	.L280
 2921              	.LVL355:
 2922              		.loc 1 563 0
 2923 0152 0C2A     		cmp	r2, #12
 2924 0154 11D0     		beq	.L279
 2925              		.loc 1 565 0
 2926 0156 E18E     		ldrh	r1, [r4, #54]
 2927 0158 A942     		cmp	r1, r5
 2928 015a 2CD0     		beq	.L280
 2929              	.LVL356:
 2930              		.loc 1 563 0
 2931 015c 0D2A     		cmp	r2, #13
 2932 015e 0CD0     		beq	.L279
 2933              		.loc 1 565 0
 2934 0160 218F     		ldrh	r1, [r4, #56]
 2935 0162 A942     		cmp	r1, r5
 2936 0164 27D0     		beq	.L280
 2937              	.LVL357:
 2938              		.loc 1 563 0
 2939 0166 0E2A     		cmp	r2, #14
 2940 0168 07D0     		beq	.L279
 2941              		.loc 1 565 0
 2942 016a 618F     		ldrh	r1, [r4, #58]
 2943 016c A942     		cmp	r1, r5
 2944 016e 22D0     		beq	.L280
 2945              	.LVL358:
 2946              		.loc 1 563 0
 2947 0170 0F2A     		cmp	r2, #15
 2948 0172 02D0     		beq	.L279
 2949              		.loc 1 565 0
 2950 0174 A28F     		ldrh	r2, [r4, #60]
 2951 0176 AA42     		cmp	r2, r5
 2952 0178 1DD0     		beq	.L280
 2953              	.LVL359:
 2954              	.L279:
 2955              	.LBE246:
 2956              	.LBE245:
 2957              		.loc 1 644 0
 2958 017a 2046     		mov	r0, r4
 2959 017c FFF7FEFF 		bl	AsebaVMStep
 2960              	.LVL360:
 2961              		.loc 1 634 0
 2962 0180 238B     		ldrh	r3, [r4, #24]
 2963 0182 03F00502 		and	r2, r3, #5
 2964              	.L384:
ARM GAS  C:\Users\mathi\AppData\Local\Temp\ccF8t5t9.s 			page 53


 2965 0186 052A     		cmp	r2, #5
 2966 0188 B7D1     		bne	.L273
 2967              	.LVL361:
 2968              	.LBB248:
 2969              	.LBB247:
 2970              		.loc 1 563 0
 2971 018a E28F     		ldrh	r2, [r4, #62]
 2972 018c 002A     		cmp	r2, #0
 2973 018e F4D0     		beq	.L279
 2974              		.loc 1 565 0
 2975 0190 E18B     		ldrh	r1, [r4, #30]
 2976 0192 658B     		ldrh	r5, [r4, #26]
 2977 0194 A942     		cmp	r1, r5
 2978 0196 0ED0     		beq	.L280
 2979              	.LVL362:
 2980              		.loc 1 563 0
 2981 0198 012A     		cmp	r2, #1
 2982 019a EED9     		bls	.L279
 2983              		.loc 1 565 0
 2984 019c 218C     		ldrh	r1, [r4, #32]
 2985 019e A942     		cmp	r1, r5
 2986 01a0 09D0     		beq	.L280
 2987              	.LVL363:
 2988              		.loc 1 563 0
 2989 01a2 022A     		cmp	r2, #2
 2990 01a4 E9D0     		beq	.L279
 2991              		.loc 1 565 0
 2992 01a6 618C     		ldrh	r1, [r4, #34]
 2993 01a8 A942     		cmp	r1, r5
 2994 01aa 04D0     		beq	.L280
 2995              	.LVL364:
 2996              		.loc 1 563 0
 2997 01ac 032A     		cmp	r2, #3
 2998 01ae E4D0     		beq	.L279
 2999              		.loc 1 565 0
 3000 01b0 A18C     		ldrh	r1, [r4, #36]
 3001 01b2 A942     		cmp	r1, r5
 3002 01b4 A5D1     		bne	.L385
 3003              	.LVL365:
 3004              	.L280:
 3005              		.loc 1 567 0
 3006 01b6 43F00201 		orr	r1, r3, #2
 3007 01ba 2183     		strh	r1, [r4, #24]	@ movhi
 3008              	.LVL366:
 3009              	.LBE247:
 3010              	.LBE248:
 3011              	.LBB249:
 3012              	.LBB250:
 3013              		.loc 1 719 0
 3014 01bc 2046     		mov	r0, r4
 3015              		.loc 1 718 0
 3016 01be ADF80210 		strh	r1, [sp, #2]	@ movhi
 3017              		.loc 1 719 0
 3018 01c2 0423     		movs	r3, #4
 3019 01c4 6A46     		mov	r2, sp
 3020 01c6 49F20A01 		movw	r1, #36874
 3021              		.loc 1 717 0
ARM GAS  C:\Users\mathi\AppData\Local\Temp\ccF8t5t9.s 			page 54


 3022 01ca ADF80050 		strh	r5, [sp]	@ movhi
 3023              		.loc 1 719 0
 3024 01ce FFF7FEFF 		bl	AsebaSendMessage
 3025              	.LVL367:
 3026              	.L270:
 3027              	.LBE250:
 3028              	.LBE249:
 3029              		.loc 1 649 0
 3030 01d2 019A     		ldr	r2, [sp, #4]
 3031 01d4 3368     		ldr	r3, [r6]
 3032 01d6 9A42     		cmp	r2, r3
 3033 01d8 01D1     		bne	.L386
 3034 01da 03B0     		add	sp, sp, #12
 3035              		.cfi_remember_state
 3036              		.cfi_def_cfa_offset 20
 3037              		@ sp needed
 3038 01dc F0BD     		pop	{r4, r5, r6, r7, pc}
 3039              	.LVL368:
 3040              	.L386:
 3041              		.cfi_restore_state
 3042 01de FFF7FEFF 		bl	__stack_chk_fail
 3043              	.LVL369:
 3044              	.L388:
 3045 01e2 00BF     		.align	2
 3046              	.L387:
 3047 01e4 00000000 		.word	__stack_chk_guard
 3048              		.cfi_endproc
 3049              	.LFE9:
 3050              		.size	AsebaDebugBreakpointRun, .-AsebaDebugBreakpointRun
 3051              		.section	.text.AsebaVMRun,"ax",%progbits
 3052              		.align	1
 3053              		.p2align 4,,15
 3054              		.global	AsebaVMRun
 3055              		.syntax unified
 3056              		.thumb
 3057              		.thumb_func
 3058              		.fpu fpv4-sp-d16
 3059              		.type	AsebaVMRun, %function
 3060              	AsebaVMRun:
 3061              	.LFB10:
 3062              		.loc 1 652 0
 3063              		.cfi_startproc
 3064              		@ args = 0, pretend = 0, frame = 16
 3065              		@ frame_needed = 0, uses_anonymous_args = 0
 3066              	.LVL370:
 3067 0000 2DE9F047 		push	{r4, r5, r6, r7, r8, r9, r10, lr}
 3068              		.cfi_def_cfa_offset 32
 3069              		.cfi_offset 4, -32
 3070              		.cfi_offset 5, -28
 3071              		.cfi_offset 6, -24
 3072              		.cfi_offset 7, -20
 3073              		.cfi_offset 8, -16
 3074              		.cfi_offset 9, -12
 3075              		.cfi_offset 10, -8
 3076              		.cfi_offset 14, -4
 3077 0004 924E     		ldr	r6, .L602
 3078              		.loc 1 654 0
ARM GAS  C:\Users\mathi\AppData\Local\Temp\ccF8t5t9.s 			page 55


 3079 0006 038B     		ldrh	r3, [r0, #24]
 3080              		.loc 1 652 0
 3081 0008 3268     		ldr	r2, [r6]
 3082 000a 84B0     		sub	sp, sp, #16
 3083              		.cfi_def_cfa_offset 48
 3084              		.loc 1 652 0
 3085 000c 0446     		mov	r4, r0
 3086              		.loc 1 654 0
 3087 000e 13F00100 		ands	r0, r3, #1
 3088              	.LVL371:
 3089              		.loc 1 652 0
 3090 0012 0392     		str	r2, [sp, #12]
 3091              		.loc 1 654 0
 3092 0014 2FD0     		beq	.L390
 3093              		.loc 1 658 0
 3094 0016 9A07     		lsls	r2, r3, #30
 3095 0018 2CD4     		bmi	.L466
 3096 001a 0D46     		mov	r5, r1
 3097              		.loc 1 662 0
 3098 001c E18F     		ldrh	r1, [r4, #62]
 3099              	.LVL372:
 3100 001e 43F00402 		orr	r2, r3, #4
 3101 0022 81BB     		cbnz	r1, .L598
 3102              	.LVL373:
 3103              	.LBB297:
 3104              	.LBB298:
 3105              		.loc 1 579 0
 3106 0024 2283     		strh	r2, [r4, #24]	@ movhi
 3107              		.loc 1 581 0
 3108 0026 002D     		cmp	r5, #0
 3109 0028 40F0DA80 		bne	.L583
 3110              	.LBB299:
 3111              	.LBB300:
 3112              	.LBB301:
 3113              	.LBB302:
 3114              		.loc 1 334 0
 3115 002c DFF82482 		ldr	r8, .L602+4
 3116 0030 02F0050C 		and	ip, r2, #5
 3117              	.LBE302:
 3118              	.LBE301:
 3119              	.LBB304:
 3120              		.loc 1 430 0
 3121 0034 6FF00047 		mvn	r7, #-2147483648
 3122              		.loc 1 436 0
 3123 0038 4FF00209 		mov	r9, #2
 3124              	.LVL374:
 3125              	.L402:
 3126 003c BCF1050F 		cmp	ip, #5
 3127 0040 40F0B880 		bne	.L403
 3128 0044 618B     		ldrh	r1, [r4, #26]
 3129 0046 6068     		ldr	r0, [r4, #4]
 3130              	.LBE304:
 3131              		.loc 1 171 0
 3132 0048 30F81150 		ldrh	r5, [r0, r1, lsl #1]
 3133              		.loc 1 178 0
 3134 004c 2B0B     		lsrs	r3, r5, #12
 3135              	.L458:
ARM GAS  C:\Users\mathi\AppData\Local\Temp\ccF8t5t9.s 			page 56


 3136              	.LVL375:
 3137 004e 0E2B     		cmp	r3, #14
 3138 0050 FDD8     		bhi	.L458
 3139 0052 DFE813F0 		tbh	[pc, r3, lsl #1]
 3140              	.L459:
 3141 0056 3603     		.2byte	(.L432-.L459)/2
 3142 0058 2C03     		.2byte	(.L434-.L459)/2
 3143 005a 2103     		.2byte	(.L435-.L459)/2
 3144 005c 4A03     		.2byte	(.L436-.L459)/2
 3145 005e 3D03     		.2byte	(.L437-.L459)/2
 3146 0060 A102     		.2byte	(.L438-.L459)/2
 3147 0062 8002     		.2byte	(.L441-.L459)/2
 3148 0064 0003     		.2byte	(.L444-.L459)/2
 3149 0066 EA02     		.2byte	(.L449-.L459)/2
 3150 0068 E502     		.2byte	(.L450-.L459)/2
 3151 006a BB02     		.2byte	(.L451-.L459)/2
 3152 006c 6902     		.2byte	(.L454-.L459)/2
 3153 006e 5D02     		.2byte	(.L455-.L459)/2
 3154 0070 1203     		.2byte	(.L456-.L459)/2
 3155 0072 5402     		.2byte	(.L457-.L459)/2
 3156              	.LVL376:
 3157              		.p2align 1
 3158              	.L466:
 3159              	.LBE300:
 3160              	.LBE299:
 3161              	.LBE298:
 3162              	.LBE297:
 3163              		.loc 1 655 0
 3164 0074 0020     		movs	r0, #0
 3165              	.LVL377:
 3166              	.L390:
 3167              		.loc 1 668 0
 3168 0076 039A     		ldr	r2, [sp, #12]
 3169 0078 3368     		ldr	r3, [r6]
 3170 007a 9A42     		cmp	r2, r3
 3171 007c 40F0A883 		bne	.L599
 3172 0080 04B0     		add	sp, sp, #16
 3173              		.cfi_remember_state
 3174              		.cfi_def_cfa_offset 32
 3175              		@ sp needed
 3176 0082 BDE8F087 		pop	{r4, r5, r6, r7, r8, r9, r10, pc}
 3177              	.LVL378:
 3178              	.L598:
 3179              		.cfi_restore_state
 3180 0086 03F00503 		and	r3, r3, #5
 3181 008a 43F00403 		orr	r3, r3, #4
 3182              	.LBB379:
 3183              	.LBB380:
 3184              		.loc 1 610 0
 3185 008e 2283     		strh	r2, [r4, #24]	@ movhi
 3186              		.loc 1 612 0
 3187 0090 002D     		cmp	r5, #0
 3188 0092 40F0E180 		bne	.L392
 3189              		.loc 1 634 0
 3190 0096 052B     		cmp	r3, #5
 3191 0098 40F08C80 		bne	.L403
 3192              	.LVL379:
ARM GAS  C:\Users\mathi\AppData\Local\Temp\ccF8t5t9.s 			page 57


 3193              	.L393:
 3194              	.LBB381:
 3195              	.LBB382:
 3196              		.loc 1 563 0
 3197 009c 0029     		cmp	r1, #0
 3198 009e 50D0     		beq	.L399
 3199              		.loc 1 565 0
 3200 00a0 E58B     		ldrh	r5, [r4, #30]
 3201 00a2 638B     		ldrh	r3, [r4, #26]
 3202 00a4 AB42     		cmp	r3, r5
 3203 00a6 00F08A80 		beq	.L400
 3204              	.LVL380:
 3205              		.loc 1 563 0
 3206 00aa 0129     		cmp	r1, #1
 3207 00ac 49D9     		bls	.L399
 3208              		.loc 1 565 0
 3209 00ae 258C     		ldrh	r5, [r4, #32]
 3210 00b0 AB42     		cmp	r3, r5
 3211 00b2 00F08480 		beq	.L400
 3212              	.LVL381:
 3213              		.loc 1 563 0
 3214 00b6 0229     		cmp	r1, #2
 3215 00b8 43D0     		beq	.L399
 3216              		.loc 1 565 0
 3217 00ba 658C     		ldrh	r5, [r4, #34]
 3218 00bc AB42     		cmp	r3, r5
 3219 00be 7ED0     		beq	.L400
 3220              	.LVL382:
 3221              		.loc 1 563 0
 3222 00c0 0329     		cmp	r1, #3
 3223 00c2 3ED0     		beq	.L399
 3224              		.loc 1 565 0
 3225 00c4 A58C     		ldrh	r5, [r4, #36]
 3226 00c6 AB42     		cmp	r3, r5
 3227 00c8 79D0     		beq	.L400
 3228              	.LVL383:
 3229              		.loc 1 563 0
 3230 00ca 0429     		cmp	r1, #4
 3231 00cc 39D0     		beq	.L399
 3232              		.loc 1 565 0
 3233 00ce E58C     		ldrh	r5, [r4, #38]
 3234 00d0 AB42     		cmp	r3, r5
 3235 00d2 74D0     		beq	.L400
 3236              	.LVL384:
 3237              		.loc 1 563 0
 3238 00d4 0529     		cmp	r1, #5
 3239 00d6 34D0     		beq	.L399
 3240              		.loc 1 565 0
 3241 00d8 258D     		ldrh	r5, [r4, #40]
 3242 00da AB42     		cmp	r3, r5
 3243 00dc 6FD0     		beq	.L400
 3244              	.LVL385:
 3245              		.loc 1 563 0
 3246 00de 0629     		cmp	r1, #6
 3247 00e0 2FD0     		beq	.L399
 3248              		.loc 1 565 0
 3249 00e2 658D     		ldrh	r5, [r4, #42]
ARM GAS  C:\Users\mathi\AppData\Local\Temp\ccF8t5t9.s 			page 58


 3250 00e4 AB42     		cmp	r3, r5
 3251 00e6 6AD0     		beq	.L400
 3252              	.LVL386:
 3253              		.loc 1 563 0
 3254 00e8 0729     		cmp	r1, #7
 3255 00ea 2AD0     		beq	.L399
 3256              		.loc 1 565 0
 3257 00ec A58D     		ldrh	r5, [r4, #44]
 3258 00ee AB42     		cmp	r3, r5
 3259 00f0 65D0     		beq	.L400
 3260              	.LVL387:
 3261              		.loc 1 563 0
 3262 00f2 0829     		cmp	r1, #8
 3263 00f4 25D0     		beq	.L399
 3264              		.loc 1 565 0
 3265 00f6 E58D     		ldrh	r5, [r4, #46]
 3266 00f8 AB42     		cmp	r3, r5
 3267 00fa 60D0     		beq	.L400
 3268              	.LVL388:
 3269              		.loc 1 563 0
 3270 00fc 0929     		cmp	r1, #9
 3271 00fe 20D0     		beq	.L399
 3272              		.loc 1 565 0
 3273 0100 258E     		ldrh	r5, [r4, #48]
 3274 0102 AB42     		cmp	r3, r5
 3275 0104 5BD0     		beq	.L400
 3276              	.LVL389:
 3277              		.loc 1 563 0
 3278 0106 0A29     		cmp	r1, #10
 3279 0108 1BD0     		beq	.L399
 3280              		.loc 1 565 0
 3281 010a 658E     		ldrh	r5, [r4, #50]
 3282 010c AB42     		cmp	r3, r5
 3283 010e 56D0     		beq	.L400
 3284              	.LVL390:
 3285              		.loc 1 563 0
 3286 0110 0B29     		cmp	r1, #11
 3287 0112 16D0     		beq	.L399
 3288              		.loc 1 565 0
 3289 0114 A58E     		ldrh	r5, [r4, #52]
 3290 0116 AB42     		cmp	r3, r5
 3291 0118 51D0     		beq	.L400
 3292              	.LVL391:
 3293              		.loc 1 563 0
 3294 011a 0C29     		cmp	r1, #12
 3295 011c 11D0     		beq	.L399
 3296              		.loc 1 565 0
 3297 011e E58E     		ldrh	r5, [r4, #54]
 3298 0120 AB42     		cmp	r3, r5
 3299 0122 4CD0     		beq	.L400
 3300              	.LVL392:
 3301              		.loc 1 563 0
 3302 0124 0D29     		cmp	r1, #13
 3303 0126 0CD0     		beq	.L399
 3304              		.loc 1 565 0
 3305 0128 258F     		ldrh	r5, [r4, #56]
 3306 012a AB42     		cmp	r3, r5
ARM GAS  C:\Users\mathi\AppData\Local\Temp\ccF8t5t9.s 			page 59


 3307 012c 47D0     		beq	.L400
 3308              	.LVL393:
 3309              		.loc 1 563 0
 3310 012e 0E29     		cmp	r1, #14
 3311 0130 07D0     		beq	.L399
 3312              		.loc 1 565 0
 3313 0132 658F     		ldrh	r5, [r4, #58]
 3314 0134 AB42     		cmp	r3, r5
 3315 0136 42D0     		beq	.L400
 3316              	.LVL394:
 3317              		.loc 1 563 0
 3318 0138 0F29     		cmp	r1, #15
 3319 013a 02D0     		beq	.L399
 3320              		.loc 1 565 0
 3321 013c A58F     		ldrh	r5, [r4, #60]
 3322 013e AB42     		cmp	r3, r5
 3323 0140 3DD0     		beq	.L400
 3324              	.LVL395:
 3325              	.L399:
 3326              	.LBE382:
 3327              	.LBE381:
 3328              		.loc 1 644 0
 3329 0142 2046     		mov	r0, r4
 3330 0144 FFF7FEFF 		bl	AsebaVMStep
 3331              	.LVL396:
 3332              		.loc 1 634 0
 3333 0148 228B     		ldrh	r2, [r4, #24]
 3334 014a 02F00503 		and	r3, r2, #5
 3335 014e 052B     		cmp	r3, #5
 3336 0150 30D1     		bne	.L403
 3337 0152 E18F     		ldrh	r1, [r4, #62]
 3338 0154 A2E7     		b	.L393
 3339              	.LVL397:
 3340              	.L416:
 3341              	.LBE380:
 3342              	.LBE379:
 3343              	.LBB403:
 3344              	.LBB376:
 3345              	.LBB331:
 3346              	.LBB332:
 3347              	.LBB333:
 3348              		.loc 1 430 0
 3349 0156 B4F91C30 		ldrsh	r3, [r4, #28]
 3350 015a 6269     		ldr	r2, [r4, #20]
 3351 015c 3B44     		add	r3, r3, r7
 3352              	.LVL398:
 3353              		.loc 1 431 0
 3354 015e 02EB4300 		add	r0, r2, r3, lsl #1
 3355              		.loc 1 432 0
 3356 0162 32F91310 		ldrsh	r1, [r2, r3, lsl #1]
 3357 0166 B0F90220 		ldrsh	r2, [r0, #2]
 3358              	.LVL399:
 3359 016a 5FFA8AF3 		uxtb	r3, r10
 3360              	.LVL400:
 3361 016e 2046     		mov	r0, r4
 3362 0170 FFF7FEFF 		bl	AsebaVMDoBinaryOperation
 3363              	.LVL401:
ARM GAS  C:\Users\mathi\AppData\Local\Temp\ccF8t5t9.s 			page 60


 3364              		.loc 1 433 0
 3365 0174 A38B     		ldrh	r3, [r4, #28]
 3366 0176 023B     		subs	r3, r3, #2
 3367 0178 A383     		strh	r3, [r4, #28]	@ movhi
 3368              		.loc 1 436 0
 3369 017a 0028     		cmp	r0, #0
 3370 017c 00F0F482 		beq	.L429
 3371 0180 0AF4407A 		and	r10, r10, #768
 3372              	.LVL402:
 3373 0184 BAF5407F 		cmp	r10, #768
 3374 0188 6268     		ldr	r2, [r4, #4]
 3375 018a 608B     		ldrh	r0, [r4, #26]
 3376              	.LVL403:
 3377 018c 00F01883 		beq	.L430
 3378 0190 0221     		movs	r1, #2
 3379              	.L460:
 3380              		.loc 1 449 0
 3381 0192 32F81030 		ldrh	r3, [r2, r0, lsl #1]
 3382 0196 43F40073 		orr	r3, r3, #512
 3383 019a 22F81030 		strh	r3, [r2, r0, lsl #1]	@ movhi
 3384              	.L461:
 3385              		.loc 1 460 0
 3386 019e 638B     		ldrh	r3, [r4, #26]
 3387 01a0 228B     		ldrh	r2, [r4, #24]
 3388 01a2 0B44     		add	r3, r3, r1
 3389 01a4 6383     		strh	r3, [r4, #26]	@ movhi
 3390              	.L404:
 3391              	.LVL404:
 3392              	.LBE333:
 3393              	.LBE332:
 3394              	.LBE331:
 3395              		.loc 1 584 0
 3396 01a6 02F00503 		and	r3, r2, #5
 3397              		.loc 1 590 0
 3398 01aa 013D     		subs	r5, r5, #1
 3399              	.LVL405:
 3400              		.loc 1 584 0
 3401 01ac 052B     		cmp	r3, #5
 3402              		.loc 1 590 0
 3403 01ae ADB2     		uxth	r5, r5
 3404              	.LVL406:
 3405              		.loc 1 584 0
 3406 01b0 00D1     		bne	.L403
 3407              		.loc 1 585 0
 3408 01b2 0DBB     		cbnz	r5, .L431
 3409              	.LVL407:
 3410              	.L403:
 3411              		.loc 1 603 0
 3412 01b4 22F00402 		bic	r2, r2, #4
 3413 01b8 2283     		strh	r2, [r4, #24]	@ movhi
 3414              	.LBE376:
 3415              	.LBE403:
 3416              		.loc 1 667 0
 3417 01ba 0120     		movs	r0, #1
 3418 01bc 5BE7     		b	.L390
 3419              	.LVL408:
 3420              	.L400:
ARM GAS  C:\Users\mathi\AppData\Local\Temp\ccF8t5t9.s 			page 61


 3421              	.LBB404:
 3422              	.LBB401:
 3423              	.LBB385:
 3424              	.LBB383:
 3425              		.loc 1 567 0
 3426 01be 42F00201 		orr	r1, r2, #2
 3427              	.LBE383:
 3428              	.LBE385:
 3429              	.LBB386:
 3430              	.LBB387:
 3431              		.loc 1 719 0
 3432 01c2 0423     		movs	r3, #4
 3433              	.LBE387:
 3434              	.LBE386:
 3435              	.LBB389:
 3436              	.LBB384:
 3437              		.loc 1 567 0
 3438 01c4 2183     		strh	r1, [r4, #24]	@ movhi
 3439              	.LVL409:
 3440              	.LBE384:
 3441              	.LBE389:
 3442              	.LBB390:
 3443              	.LBB388:
 3444              		.loc 1 719 0
 3445 01c6 2046     		mov	r0, r4
 3446              		.loc 1 718 0
 3447 01c8 ADF80610 		strh	r1, [sp, #6]	@ movhi
 3448              		.loc 1 719 0
 3449 01cc 0DEB0302 		add	r2, sp, r3
 3450 01d0 49F20A01 		movw	r1, #36874
 3451              		.loc 1 717 0
 3452 01d4 ADF80450 		strh	r5, [sp, #4]	@ movhi
 3453              		.loc 1 719 0
 3454 01d8 FFF7FEFF 		bl	AsebaSendMessage
 3455              	.LVL410:
 3456              	.LBE388:
 3457              	.LBE390:
 3458              	.LBE401:
 3459              	.LBE404:
 3460              		.loc 1 667 0
 3461 01dc 0120     		movs	r0, #1
 3462 01de 4AE7     		b	.L390
 3463              	.LVL411:
 3464              	.L583:
 3465              	.LBB405:
 3466              	.LBB377:
 3467              		.loc 1 584 0
 3468 01e0 03F00503 		and	r3, r3, #5
 3469 01e4 43F00403 		orr	r3, r3, #4
 3470 01e8 052B     		cmp	r3, #5
 3471 01ea E3D1     		bne	.L403
 3472              	.LBB365:
 3473              	.LBB359:
 3474              	.LBB334:
 3475              	.LBB335:
 3476              		.loc 1 334 0
 3477 01ec DFF86490 		ldr	r9, .L602+4
ARM GAS  C:\Users\mathi\AppData\Local\Temp\ccF8t5t9.s 			page 62


 3478              	.LBE335:
 3479              	.LBE334:
 3480              	.LBB337:
 3481              		.loc 1 430 0
 3482 01f0 6FF00047 		mvn	r7, #-2147483648
 3483              		.loc 1 436 0
 3484 01f4 4FF00208 		mov	r8, #2
 3485              	.L431:
 3486              	.LVL412:
 3487              	.LBE337:
 3488              		.loc 1 171 0
 3489 01f8 618B     		ldrh	r1, [r4, #26]
 3490 01fa 6068     		ldr	r0, [r4, #4]
 3491 01fc 30F811A0 		ldrh	r10, [r0, r1, lsl #1]
 3492              	.LVL413:
 3493              		.loc 1 178 0
 3494 0200 4FEA1A33 		lsr	r3, r10, #12
 3495              		.loc 1 171 0
 3496 0204 4FEA410C 		lsl	ip, r1, #1
 3497              		.loc 1 178 0
 3498 0208 0E2B     		cmp	r3, #14
 3499 020a CCD8     		bhi	.L404
 3500 020c 0FF2040E 		adr	lr, .L406
 3501 0210 5EF823F0 		ldr	pc, [lr, r3, lsl #2]
 3502              		.p2align 2
 3503              	.L406:
 3504 0214 41030000 		.word	.L405+1
 3505 0218 67030000 		.word	.L407+1
 3506 021c 4B030000 		.word	.L408+1
 3507 0220 01040000 		.word	.L409+1
 3508 0224 DF030000 		.word	.L410+1
 3509 0228 BD030000 		.word	.L411+1
 3510 022c 83030000 		.word	.L412+1
 3511 0230 CD040000 		.word	.L413+1
 3512 0234 97040000 		.word	.L414+1
 3513 0238 8B040000 		.word	.L415+1
 3514 023c 57010000 		.word	.L416+1
 3515 0240 67040000 		.word	.L417+1
 3516 0244 53040000 		.word	.L418+1
 3517 0248 37040000 		.word	.L419+1
 3518 024c 23040000 		.word	.L420+1
 3519              		.p2align 1
 3520              	.L603:
 3521              		.align	2
 3522              	.L602:
 3523 0250 00000000 		.word	__stack_chk_guard
 3524 0254 00000000 		.word	AsebaVMErrorCB
 3525              	.LVL414:
 3526              	.L392:
 3527              	.LBE359:
 3528              	.LBE365:
 3529              	.LBE377:
 3530              	.LBE405:
 3531              	.LBB406:
 3532              	.LBB402:
 3533              		.loc 1 615 0
 3534 0258 052B     		cmp	r3, #5
ARM GAS  C:\Users\mathi\AppData\Local\Temp\ccF8t5t9.s 			page 63


 3535 025a ABD1     		bne	.L403
 3536              	.L395:
 3537              	.LVL415:
 3538              	.LBB391:
 3539              	.LBB392:
 3540              		.loc 1 563 0
 3541 025c 0029     		cmp	r1, #0
 3542 025e 4ED0     		beq	.L396
 3543              		.loc 1 565 0
 3544 0260 678B     		ldrh	r7, [r4, #26]
 3545 0262 E38B     		ldrh	r3, [r4, #30]
 3546 0264 BB42     		cmp	r3, r7
 3547 0266 5AD0     		beq	.L397
 3548              	.LVL416:
 3549              		.loc 1 563 0
 3550 0268 0129     		cmp	r1, #1
 3551 026a 48D9     		bls	.L396
 3552              		.loc 1 565 0
 3553 026c 238C     		ldrh	r3, [r4, #32]
 3554 026e BB42     		cmp	r3, r7
 3555 0270 55D0     		beq	.L397
 3556              	.LVL417:
 3557              		.loc 1 563 0
 3558 0272 0229     		cmp	r1, #2
 3559 0274 43D0     		beq	.L396
 3560              		.loc 1 565 0
 3561 0276 638C     		ldrh	r3, [r4, #34]
 3562 0278 BB42     		cmp	r3, r7
 3563 027a 50D0     		beq	.L397
 3564              	.LVL418:
 3565              		.loc 1 563 0
 3566 027c 0329     		cmp	r1, #3
 3567 027e 3ED0     		beq	.L396
 3568              		.loc 1 565 0
 3569 0280 A38C     		ldrh	r3, [r4, #36]
 3570 0282 BB42     		cmp	r3, r7
 3571 0284 4BD0     		beq	.L397
 3572              	.LVL419:
 3573              		.loc 1 563 0
 3574 0286 0429     		cmp	r1, #4
 3575 0288 39D0     		beq	.L396
 3576              		.loc 1 565 0
 3577 028a E38C     		ldrh	r3, [r4, #38]
 3578 028c BB42     		cmp	r3, r7
 3579 028e 46D0     		beq	.L397
 3580              	.LVL420:
 3581              		.loc 1 563 0
 3582 0290 0529     		cmp	r1, #5
 3583 0292 34D0     		beq	.L396
 3584              		.loc 1 565 0
 3585 0294 238D     		ldrh	r3, [r4, #40]
 3586 0296 BB42     		cmp	r3, r7
 3587 0298 41D0     		beq	.L397
 3588              	.LVL421:
 3589              		.loc 1 563 0
 3590 029a 0629     		cmp	r1, #6
 3591 029c 2FD0     		beq	.L396
ARM GAS  C:\Users\mathi\AppData\Local\Temp\ccF8t5t9.s 			page 64


 3592              		.loc 1 565 0
 3593 029e 638D     		ldrh	r3, [r4, #42]
 3594 02a0 BB42     		cmp	r3, r7
 3595 02a2 3CD0     		beq	.L397
 3596              	.LVL422:
 3597              		.loc 1 563 0
 3598 02a4 0729     		cmp	r1, #7
 3599 02a6 2AD0     		beq	.L396
 3600              		.loc 1 565 0
 3601 02a8 A38D     		ldrh	r3, [r4, #44]
 3602 02aa BB42     		cmp	r3, r7
 3603 02ac 37D0     		beq	.L397
 3604              	.LVL423:
 3605              		.loc 1 563 0
 3606 02ae 0829     		cmp	r1, #8
 3607 02b0 25D0     		beq	.L396
 3608              		.loc 1 565 0
 3609 02b2 E38D     		ldrh	r3, [r4, #46]
 3610 02b4 BB42     		cmp	r3, r7
 3611 02b6 32D0     		beq	.L397
 3612              	.LVL424:
 3613              		.loc 1 563 0
 3614 02b8 0929     		cmp	r1, #9
 3615 02ba 20D0     		beq	.L396
 3616              		.loc 1 565 0
 3617 02bc 238E     		ldrh	r3, [r4, #48]
 3618 02be BB42     		cmp	r3, r7
 3619 02c0 2DD0     		beq	.L397
 3620              	.LVL425:
 3621              		.loc 1 563 0
 3622 02c2 0A29     		cmp	r1, #10
 3623 02c4 1BD0     		beq	.L396
 3624              		.loc 1 565 0
 3625 02c6 638E     		ldrh	r3, [r4, #50]
 3626 02c8 BB42     		cmp	r3, r7
 3627 02ca 28D0     		beq	.L397
 3628              	.LVL426:
 3629              		.loc 1 563 0
 3630 02cc 0B29     		cmp	r1, #11
 3631 02ce 16D0     		beq	.L396
 3632              		.loc 1 565 0
 3633 02d0 A38E     		ldrh	r3, [r4, #52]
 3634 02d2 BB42     		cmp	r3, r7
 3635 02d4 23D0     		beq	.L397
 3636              	.LVL427:
 3637              		.loc 1 563 0
 3638 02d6 0C29     		cmp	r1, #12
 3639 02d8 11D0     		beq	.L396
 3640              		.loc 1 565 0
 3641 02da E38E     		ldrh	r3, [r4, #54]
 3642 02dc BB42     		cmp	r3, r7
 3643 02de 1ED0     		beq	.L397
 3644              	.LVL428:
 3645              		.loc 1 563 0
 3646 02e0 0D29     		cmp	r1, #13
 3647 02e2 0CD0     		beq	.L396
 3648              		.loc 1 565 0
ARM GAS  C:\Users\mathi\AppData\Local\Temp\ccF8t5t9.s 			page 65


 3649 02e4 238F     		ldrh	r3, [r4, #56]
 3650 02e6 BB42     		cmp	r3, r7
 3651 02e8 19D0     		beq	.L397
 3652              	.LVL429:
 3653              		.loc 1 563 0
 3654 02ea 0E29     		cmp	r1, #14
 3655 02ec 07D0     		beq	.L396
 3656              		.loc 1 565 0
 3657 02ee 638F     		ldrh	r3, [r4, #58]
 3658 02f0 BB42     		cmp	r3, r7
 3659 02f2 14D0     		beq	.L397
 3660              	.LVL430:
 3661              		.loc 1 563 0
 3662 02f4 0F29     		cmp	r1, #15
 3663 02f6 02D0     		beq	.L396
 3664              		.loc 1 565 0
 3665 02f8 A38F     		ldrh	r3, [r4, #60]
 3666 02fa BB42     		cmp	r3, r7
 3667 02fc 0FD0     		beq	.L397
 3668              	.LVL431:
 3669              	.L396:
 3670              	.LBE392:
 3671              	.LBE391:
 3672              		.loc 1 626 0
 3673 02fe 2046     		mov	r0, r4
 3674 0300 FFF7FEFF 		bl	AsebaVMStep
 3675              	.LVL432:
 3676              		.loc 1 615 0
 3677 0304 228B     		ldrh	r2, [r4, #24]
 3678 0306 02F00503 		and	r3, r2, #5
 3679              		.loc 1 627 0
 3680 030a 013D     		subs	r5, r5, #1
 3681              	.LVL433:
 3682              		.loc 1 615 0
 3683 030c 052B     		cmp	r3, #5
 3684              		.loc 1 627 0
 3685 030e ADB2     		uxth	r5, r5
 3686              	.LVL434:
 3687              		.loc 1 615 0
 3688 0310 7FF450AF 		bne	.L403
 3689              		.loc 1 616 0
 3690 0314 002D     		cmp	r5, #0
 3691 0316 3FF44DAF 		beq	.L403
 3692 031a E18F     		ldrh	r1, [r4, #62]
 3693 031c 9EE7     		b	.L395
 3694              	.L397:
 3695              	.LBB395:
 3696              	.LBB393:
 3697              		.loc 1 567 0
 3698 031e 42F00201 		orr	r1, r2, #2
 3699              	.LBE393:
 3700              	.LBE395:
 3701              	.LBB396:
 3702              	.LBB397:
 3703              		.loc 1 719 0
 3704 0322 0423     		movs	r3, #4
 3705              	.LBE397:
ARM GAS  C:\Users\mathi\AppData\Local\Temp\ccF8t5t9.s 			page 66


 3706              	.LBE396:
 3707              	.LBB399:
 3708              	.LBB394:
 3709              		.loc 1 567 0
 3710 0324 2183     		strh	r1, [r4, #24]	@ movhi
 3711              	.LVL435:
 3712              	.LBE394:
 3713              	.LBE399:
 3714              	.LBB400:
 3715              	.LBB398:
 3716              		.loc 1 719 0
 3717 0326 2046     		mov	r0, r4
 3718              		.loc 1 718 0
 3719 0328 ADF80610 		strh	r1, [sp, #6]	@ movhi
 3720              		.loc 1 719 0
 3721 032c 0DEB0302 		add	r2, sp, r3
 3722 0330 49F20A01 		movw	r1, #36874
 3723              		.loc 1 717 0
 3724 0334 ADF80470 		strh	r7, [sp, #4]	@ movhi
 3725              		.loc 1 719 0
 3726 0338 FFF7FEFF 		bl	AsebaSendMessage
 3727              	.LVL436:
 3728              	.LBE398:
 3729              	.LBE400:
 3730              	.LBE402:
 3731              	.LBE406:
 3732              		.loc 1 667 0
 3733 033c 0120     		movs	r0, #1
 3734 033e 9AE6     		b	.L390
 3735              	.LVL437:
 3736              	.L405:
 3737              	.LBB407:
 3738              	.LBB378:
 3739              	.LBB366:
 3740              	.LBB360:
 3741              		.loc 1 183 0
 3742 0340 22F00102 		bic	r2, r2, #1
 3743 0344 92B2     		uxth	r2, r2
 3744 0346 2283     		strh	r2, [r4, #24]	@ movhi
 3745 0348 2DE7     		b	.L404
 3746              	.L408:
 3747              		.loc 1 216 0
 3748 034a A28B     		ldrh	r2, [r4, #28]
 3749 034c 6369     		ldr	r3, [r4, #20]
 3750 034e 6044     		add	r0, r0, ip
 3751 0350 0132     		adds	r2, r2, #1
 3752 0352 12B2     		sxth	r2, r2
 3753 0354 4188     		ldrh	r1, [r0, #2]
 3754 0356 A283     		strh	r2, [r4, #28]	@ movhi
 3755              	.LVL438:
 3756              	.L589:
 3757              	.LBB338:
 3758              		.loc 1 298 0
 3759 0358 23F81210 		strh	r1, [r3, r2, lsl #1]	@ movhi
 3760              		.loc 1 301 0
 3761 035c 638B     		ldrh	r3, [r4, #26]
 3762 035e 228B     		ldrh	r2, [r4, #24]
ARM GAS  C:\Users\mathi\AppData\Local\Temp\ccF8t5t9.s 			page 67


 3763 0360 0233     		adds	r3, r3, #2
 3764 0362 6383     		strh	r3, [r4, #26]	@ movhi
 3765 0364 1FE7     		b	.L404
 3766              	.LVL439:
 3767              	.L407:
 3768              	.LBE338:
 3769              	.LBB339:
 3770              		.loc 1 199 0
 3771 0366 A38B     		ldrh	r3, [r4, #28]
 3772 0368 6269     		ldr	r2, [r4, #20]
 3773 036a 0133     		adds	r3, r3, #1
 3774 036c 1BB2     		sxth	r3, r3
 3775              		.loc 1 190 0
 3776 036e 4AF30B0A 		sbfx	r10, r10, #0, #12
 3777              	.LVL440:
 3778              		.loc 1 199 0
 3779 0372 A383     		strh	r3, [r4, #28]	@ movhi
 3780              	.LVL441:
 3781 0374 22F813A0 		strh	r10, [r2, r3, lsl #1]	@ movhi
 3782              		.loc 1 202 0
 3783 0378 638B     		ldrh	r3, [r4, #26]
 3784 037a 228B     		ldrh	r2, [r4, #24]
 3785 037c 0133     		adds	r3, r3, #1
 3786 037e 6383     		strh	r3, [r4, #26]	@ movhi
 3787 0380 11E7     		b	.L404
 3788              	.LVL442:
 3789              	.L412:
 3790              	.LBE339:
 3791              	.LBB340:
 3792              		.loc 1 321 0
 3793 0382 6044     		add	r0, r0, ip
 3794              		.loc 1 323 0
 3795 0384 B4F91C30 		ldrsh	r3, [r4, #28]
 3796              		.loc 1 322 0
 3797 0388 6269     		ldr	r2, [r4, #20]
 3798              		.loc 1 321 0
 3799 038a 4088     		ldrh	r0, [r0, #2]
 3800              	.LVL443:
 3801              		.loc 1 323 0
 3802 038c 32F813C0 		ldrh	ip, [r2, r3, lsl #1]
 3803              	.LVL444:
 3804              		.loc 1 326 0
 3805 0390 6045     		cmp	r0, ip
 3806              		.loc 1 323 0
 3807 0392 4FEA4303 		lsl	r3, r3, #1
 3808              	.LVL445:
 3809              		.loc 1 326 0
 3810 0396 40F2B581 		bls	.L595
 3811              		.loc 1 322 0
 3812 039a 1344     		add	r3, r3, r2
 3813              		.loc 1 340 0
 3814 039c CAF30B0A 		ubfx	r10, r10, #0, #12
 3815              	.LVL446:
 3816 03a0 E268     		ldr	r2, [r4, #12]
 3817              	.LVL447:
 3818              		.loc 1 322 0
 3819 03a2 33F9023C 		ldrsh	r3, [r3, #-2]
ARM GAS  C:\Users\mathi\AppData\Local\Temp\ccF8t5t9.s 			page 68


 3820              		.loc 1 340 0
 3821 03a6 D444     		add	ip, ip, r10
 3822              	.LVL448:
 3823 03a8 22F81C30 		strh	r3, [r2, ip, lsl #1]	@ movhi
 3824              	.LVL449:
 3825              		.loc 1 341 0
 3826 03ac A18B     		ldrh	r1, [r4, #28]
 3827              		.loc 1 344 0
 3828 03ae 638B     		ldrh	r3, [r4, #26]
 3829 03b0 228B     		ldrh	r2, [r4, #24]
 3830              		.loc 1 341 0
 3831 03b2 0239     		subs	r1, r1, #2
 3832              		.loc 1 344 0
 3833 03b4 0233     		adds	r3, r3, #2
 3834              		.loc 1 341 0
 3835 03b6 A183     		strh	r1, [r4, #28]	@ movhi
 3836              		.loc 1 344 0
 3837 03b8 6383     		strh	r3, [r4, #26]	@ movhi
 3838 03ba F4E6     		b	.L404
 3839              	.LVL450:
 3840              	.L411:
 3841              	.LBE340:
 3842              	.LBB341:
 3843              		.loc 1 280 0
 3844 03bc 6044     		add	r0, r0, ip
 3845              		.loc 1 281 0
 3846 03be B4F91C20 		ldrsh	r2, [r4, #28]
 3847 03c2 6369     		ldr	r3, [r4, #20]
 3848              		.loc 1 280 0
 3849 03c4 4088     		ldrh	r0, [r0, #2]
 3850              	.LVL451:
 3851              		.loc 1 281 0
 3852 03c6 33F812C0 		ldrh	ip, [r3, r2, lsl #1]
 3853              	.LVL452:
 3854              		.loc 1 284 0
 3855 03ca 6045     		cmp	r0, ip
 3856 03cc 40F29A81 		bls	.L595
 3857              		.loc 1 298 0
 3858 03d0 CAF30B0A 		ubfx	r10, r10, #0, #12
 3859              	.LVL453:
 3860 03d4 D444     		add	ip, ip, r10
 3861              	.LVL454:
 3862 03d6 E168     		ldr	r1, [r4, #12]
 3863              	.LVL455:
 3864 03d8 31F91C10 		ldrsh	r1, [r1, ip, lsl #1]
 3865 03dc BCE7     		b	.L589
 3866              	.LVL456:
 3867              	.L410:
 3868              	.LBE341:
 3869              	.LBB342:
 3870              		.loc 1 258 0
 3871 03de B4F91C30 		ldrsh	r3, [r4, #28]
 3872 03e2 6169     		ldr	r1, [r4, #20]
 3873 03e4 5A1E     		subs	r2, r3, #1
 3874 03e6 A283     		strh	r2, [r4, #28]	@ movhi
 3875 03e8 CAF30B0A 		ubfx	r10, r10, #0, #12
 3876              	.LVL457:
ARM GAS  C:\Users\mathi\AppData\Local\Temp\ccF8t5t9.s 			page 69


 3877 03ec E268     		ldr	r2, [r4, #12]
 3878 03ee 31F91330 		ldrsh	r3, [r1, r3, lsl #1]
 3879 03f2 22F81A30 		strh	r3, [r2, r10, lsl #1]	@ movhi
 3880              		.loc 1 261 0
 3881 03f6 638B     		ldrh	r3, [r4, #26]
 3882 03f8 228B     		ldrh	r2, [r4, #24]
 3883 03fa 0133     		adds	r3, r3, #1
 3884 03fc 6383     		strh	r3, [r4, #26]	@ movhi
 3885 03fe D2E6     		b	.L404
 3886              	.LVL458:
 3887              	.L409:
 3888              	.LBE342:
 3889              	.LBB343:
 3890              		.loc 1 237 0
 3891 0400 A38B     		ldrh	r3, [r4, #28]
 3892 0402 E168     		ldr	r1, [r4, #12]
 3893 0404 6269     		ldr	r2, [r4, #20]
 3894 0406 0133     		adds	r3, r3, #1
 3895 0408 1BB2     		sxth	r3, r3
 3896 040a CAF30B0A 		ubfx	r10, r10, #0, #12
 3897              	.LVL459:
 3898 040e A383     		strh	r3, [r4, #28]	@ movhi
 3899              	.LVL460:
 3900 0410 31F91A10 		ldrsh	r1, [r1, r10, lsl #1]
 3901 0414 22F81310 		strh	r1, [r2, r3, lsl #1]	@ movhi
 3902              		.loc 1 240 0
 3903 0418 638B     		ldrh	r3, [r4, #26]
 3904 041a 228B     		ldrh	r2, [r4, #24]
 3905 041c 0133     		adds	r3, r3, #1
 3906 041e 6383     		strh	r3, [r4, #26]	@ movhi
 3907 0420 C1E6     		b	.L404
 3908              	.LVL461:
 3909              	.L420:
 3910              	.LBE343:
 3911              		.loc 1 522 0
 3912 0422 B4F91C30 		ldrsh	r3, [r4, #28]
 3913 0426 6269     		ldr	r2, [r4, #20]
 3914 0428 591E     		subs	r1, r3, #1
 3915 042a A183     		strh	r1, [r4, #28]	@ movhi
 3916 042c 32F81330 		ldrh	r3, [r2, r3, lsl #1]
 3917 0430 6383     		strh	r3, [r4, #26]	@ movhi
 3918 0432 228B     		ldrh	r2, [r4, #24]
 3919 0434 B7E6     		b	.L404
 3920              	.L419:
 3921              	.LVL462:
 3922              	.LBB344:
 3923              		.loc 1 505 0
 3924 0436 A38B     		ldrh	r3, [r4, #28]
 3925 0438 6269     		ldr	r2, [r4, #20]
 3926 043a 0133     		adds	r3, r3, #1
 3927 043c 1BB2     		sxth	r3, r3
 3928 043e 0131     		adds	r1, r1, #1
 3929 0440 A383     		strh	r3, [r4, #28]	@ movhi
 3930 0442 22F81310 		strh	r1, [r2, r3, lsl #1]	@ movhi
 3931              		.loc 1 496 0
 3932 0446 CAF30B0A 		ubfx	r10, r10, #0, #12
 3933              	.LVL463:
ARM GAS  C:\Users\mathi\AppData\Local\Temp\ccF8t5t9.s 			page 70


 3934              		.loc 1 508 0
 3935 044a A4F81AA0 		strh	r10, [r4, #26]	@ movhi
 3936 044e 228B     		ldrh	r2, [r4, #24]
 3937 0450 A9E6     		b	.L404
 3938              	.LVL464:
 3939              	.L418:
 3940              	.LBE344:
 3941              		.loc 1 486 0
 3942 0452 CAF30B01 		ubfx	r1, r10, #0, #12
 3943 0456 2046     		mov	r0, r4
 3944 0458 FFF7FEFF 		bl	AsebaNativeFunction
 3945              	.LVL465:
 3946              		.loc 1 489 0
 3947 045c 638B     		ldrh	r3, [r4, #26]
 3948 045e 228B     		ldrh	r2, [r4, #24]
 3949 0460 0133     		adds	r3, r3, #1
 3950 0462 6383     		strh	r3, [r4, #26]	@ movhi
 3951 0464 9FE6     		b	.L404
 3952              	.L417:
 3953              	.LVL466:
 3954              	.LBB345:
 3955              		.loc 1 469 0
 3956 0466 6044     		add	r0, r0, ip
 3957              	.LVL467:
 3958              		.loc 1 475 0
 3959 0468 E268     		ldr	r2, [r4, #12]
 3960 046a 8388     		ldrh	r3, [r0, #4]
 3961 046c 4088     		ldrh	r0, [r0, #2]
 3962 046e 5B00     		lsls	r3, r3, #1
 3963 0470 02EB4002 		add	r2, r2, r0, lsl #1
 3964 0474 9BB2     		uxth	r3, r3
 3965 0476 CAF30B01 		ubfx	r1, r10, #0, #12
 3966 047a 2046     		mov	r0, r4
 3967 047c FFF7FEFF 		bl	AsebaSendMessage
 3968              	.LVL468:
 3969              		.loc 1 478 0
 3970 0480 638B     		ldrh	r3, [r4, #26]
 3971 0482 228B     		ldrh	r2, [r4, #24]
 3972 0484 0333     		adds	r3, r3, #3
 3973 0486 6383     		strh	r3, [r4, #26]	@ movhi
 3974 0488 8DE6     		b	.L404
 3975              	.L415:
 3976              	.LVL469:
 3977              	.LBE345:
 3978              	.LBB346:
 3979              		.loc 1 403 0
 3980 048a 4AF30B0A 		sbfx	r10, r10, #0, #12
 3981              	.LVL470:
 3982              		.loc 1 412 0
 3983 048e 5144     		add	r1, r1, r10
 3984              	.LVL471:
 3985 0490 6183     		strh	r1, [r4, #26]	@ movhi
 3986              	.LVL472:
 3987              	.L588:
 3988 0492 228B     		ldrh	r2, [r4, #24]
 3989 0494 87E6     		b	.L404
 3990              	.LVL473:
ARM GAS  C:\Users\mathi\AppData\Local\Temp\ccF8t5t9.s 			page 71


 3991              	.L414:
 3992              	.LBE346:
 3993              	.LBB347:
 3994              		.loc 1 385 0
 3995 0496 B4F91C10 		ldrsh	r1, [r4, #28]
 3996 049a 6069     		ldr	r0, [r4, #20]
 3997 049c 3944     		add	r1, r1, r7
 3998              	.LVL474:
 3999              		.loc 1 386 0
 4000 049e 00EB4102 		add	r2, r0, r1, lsl #1
 4001              		.loc 1 389 0
 4002 04a2 5FFA8AF3 		uxtb	r3, r10
 4003 04a6 B2F90220 		ldrsh	r2, [r2, #2]
 4004 04aa 30F91110 		ldrsh	r1, [r0, r1, lsl #1]
 4005              	.LVL475:
 4006 04ae 2046     		mov	r0, r4
 4007              	.LVL476:
 4008 04b0 FFF7FEFF 		bl	AsebaVMDoBinaryOperation
 4009              	.LVL477:
 4010              		.loc 1 392 0
 4011 04b4 A38B     		ldrh	r3, [r4, #28]
 4012              		.loc 1 393 0
 4013 04b6 6269     		ldr	r2, [r4, #20]
 4014              		.loc 1 392 0
 4015 04b8 013B     		subs	r3, r3, #1
 4016 04ba 1BB2     		sxth	r3, r3
 4017 04bc A383     		strh	r3, [r4, #28]	@ movhi
 4018              		.loc 1 393 0
 4019 04be 22F81300 		strh	r0, [r2, r3, lsl #1]	@ movhi
 4020              		.loc 1 396 0
 4021 04c2 638B     		ldrh	r3, [r4, #26]
 4022 04c4 228B     		ldrh	r2, [r4, #24]
 4023 04c6 0133     		adds	r3, r3, #1
 4024 04c8 6383     		strh	r3, [r4, #26]	@ movhi
 4025 04ca 6CE6     		b	.L404
 4026              	.LVL478:
 4027              	.L413:
 4028              	.LBE347:
 4029              	.LBB348:
 4030              		.loc 1 360 0
 4031 04cc B4F91C10 		ldrsh	r1, [r4, #28]
 4032 04d0 6269     		ldr	r2, [r4, #20]
 4033              	.LBB349:
 4034              	.LBB350:
 4035              		.loc 1 153 0
 4036 04d2 5FFA8AFA 		uxtb	r10, r10
 4037              	.LVL479:
 4038 04d6 BAF1010F 		cmp	r10, #1
 4039              	.LBE350:
 4040              	.LBE349:
 4041              		.loc 1 360 0
 4042 04da 32F91130 		ldrsh	r3, [r2, r1, lsl #1]
 4043              	.LVL480:
 4044              	.LBB353:
 4045              	.LBB351:
 4046              		.loc 1 153 0
 4047 04de 00F05E81 		beq	.L426
ARM GAS  C:\Users\mathi\AppData\Local\Temp\ccF8t5t9.s 			page 72


 4048 04e2 C0F05981 		bcc	.L427
 4049 04e6 BAF1020F 		cmp	r10, #2
 4050 04ea 40F05D81 		bne	.L600
 4051              		.loc 1 157 0
 4052 04ee DB43     		mvns	r3, r3
 4053              	.LVL481:
 4054              	.L425:
 4055              	.LBE351:
 4056              	.LBE353:
 4057              		.loc 1 366 0
 4058 04f0 22F81130 		strh	r3, [r2, r1, lsl #1]	@ movhi
 4059              	.LVL482:
 4060              		.loc 1 369 0
 4061 04f4 638B     		ldrh	r3, [r4, #26]
 4062 04f6 228B     		ldrh	r2, [r4, #24]
 4063 04f8 0133     		adds	r3, r3, #1
 4064 04fa 6383     		strh	r3, [r4, #26]	@ movhi
 4065 04fc 53E6     		b	.L404
 4066              	.LVL483:
 4067              	.L457:
 4068              	.LBE348:
 4069              	.LBE360:
 4070              	.LBE366:
 4071              	.LBB367:
 4072              	.LBB326:
 4073              		.loc 1 522 0
 4074 04fe B4F91C30 		ldrsh	r3, [r4, #28]
 4075 0502 6169     		ldr	r1, [r4, #20]
 4076              	.LVL484:
 4077 0504 581E     		subs	r0, r3, #1
 4078              	.LVL485:
 4079 0506 A083     		strh	r0, [r4, #28]	@ movhi
 4080              	.LVL486:
 4081 0508 31F81330 		ldrh	r3, [r1, r3, lsl #1]
 4082 050c 6383     		strh	r3, [r4, #26]	@ movhi
 4083 050e 95E5     		b	.L402
 4084              	.LVL487:
 4085              	.L455:
 4086              		.loc 1 486 0
 4087 0510 C5F30B01 		ubfx	r1, r5, #0, #12
 4088              	.LVL488:
 4089 0514 2046     		mov	r0, r4
 4090              	.LVL489:
 4091 0516 FFF7FEFF 		bl	AsebaNativeFunction
 4092              	.LVL490:
 4093              	.L590:
 4094              		.loc 1 489 0
 4095 051a 638B     		ldrh	r3, [r4, #26]
 4096 051c 228B     		ldrh	r2, [r4, #24]
 4097 051e 0133     		adds	r3, r3, #1
 4098 0520 6383     		strh	r3, [r4, #26]	@ movhi
 4099 0522 02F0050C 		and	ip, r2, #5
 4100 0526 89E5     		b	.L402
 4101              	.LVL491:
 4102              	.L454:
 4103              	.LBB305:
 4104              		.loc 1 468 0
ARM GAS  C:\Users\mathi\AppData\Local\Temp\ccF8t5t9.s 			page 73


 4105 0528 0131     		adds	r1, r1, #1
 4106              	.LVL492:
 4107              		.loc 1 469 0
 4108 052a 00EB4103 		add	r3, r0, r1, lsl #1
 4109              		.loc 1 475 0
 4110 052e E268     		ldr	r2, [r4, #12]
 4111 0530 5B88     		ldrh	r3, [r3, #2]
 4112 0532 30F81100 		ldrh	r0, [r0, r1, lsl #1]
 4113              	.LVL493:
 4114 0536 5B00     		lsls	r3, r3, #1
 4115 0538 02EB4002 		add	r2, r2, r0, lsl #1
 4116 053c 9BB2     		uxth	r3, r3
 4117 053e C5F30B01 		ubfx	r1, r5, #0, #12
 4118              	.LVL494:
 4119 0542 2046     		mov	r0, r4
 4120 0544 FFF7FEFF 		bl	AsebaSendMessage
 4121              	.LVL495:
 4122              		.loc 1 478 0
 4123 0548 638B     		ldrh	r3, [r4, #26]
 4124 054a 228B     		ldrh	r2, [r4, #24]
 4125 054c 0333     		adds	r3, r3, #3
 4126 054e 6383     		strh	r3, [r4, #26]	@ movhi
 4127 0550 02F0050C 		and	ip, r2, #5
 4128 0554 72E5     		b	.L402
 4129              	.LVL496:
 4130              	.L441:
 4131              	.LBE305:
 4132              	.LBB306:
 4133              		.loc 1 323 0
 4134 0556 B4F91C30 		ldrsh	r3, [r4, #28]
 4135              		.loc 1 322 0
 4136 055a D4F814E0 		ldr	lr, [r4, #20]
 4137              		.loc 1 321 0
 4138 055e 4A1C     		adds	r2, r1, #1
 4139              		.loc 1 323 0
 4140 0560 3EF813C0 		ldrh	ip, [lr, r3, lsl #1]
 4141              		.loc 1 321 0
 4142 0564 30F81200 		ldrh	r0, [r0, r2, lsl #1]
 4143              	.LVL497:
 4144              		.loc 1 326 0
 4145 0568 6045     		cmp	r0, ip
 4146              		.loc 1 323 0
 4147 056a 4FEA4303 		lsl	r3, r3, #1
 4148              	.LVL498:
 4149              		.loc 1 326 0
 4150 056e 40F2E180 		bls	.L597
 4151              		.loc 1 322 0
 4152 0572 7344     		add	r3, r3, lr
 4153              		.loc 1 340 0
 4154 0574 C5F30B05 		ubfx	r5, r5, #0, #12
 4155              	.LVL499:
 4156 0578 AC44     		add	ip, ip, r5
 4157              	.LVL500:
 4158 057a E268     		ldr	r2, [r4, #12]
 4159              		.loc 1 322 0
 4160 057c 33F9023C 		ldrsh	r3, [r3, #-2]
 4161              		.loc 1 340 0
ARM GAS  C:\Users\mathi\AppData\Local\Temp\ccF8t5t9.s 			page 74


 4162 0580 22F81C30 		strh	r3, [r2, ip, lsl #1]	@ movhi
 4163              	.LVL501:
 4164              		.loc 1 341 0
 4165 0584 A18B     		ldrh	r1, [r4, #28]
 4166              		.loc 1 344 0
 4167 0586 638B     		ldrh	r3, [r4, #26]
 4168 0588 228B     		ldrh	r2, [r4, #24]
 4169              		.loc 1 341 0
 4170 058a 0239     		subs	r1, r1, #2
 4171              		.loc 1 344 0
 4172 058c 0233     		adds	r3, r3, #2
 4173              		.loc 1 341 0
 4174 058e A183     		strh	r1, [r4, #28]	@ movhi
 4175              		.loc 1 344 0
 4176 0590 6383     		strh	r3, [r4, #26]	@ movhi
 4177 0592 02F0050C 		and	ip, r2, #5
 4178 0596 51E5     		b	.L402
 4179              	.LVL502:
 4180              	.L438:
 4181              	.LBE306:
 4182              	.LBB307:
 4183              		.loc 1 280 0
 4184 0598 4B1C     		adds	r3, r1, #1
 4185              		.loc 1 281 0
 4186 059a B4F91CE0 		ldrsh	lr, [r4, #28]
 4187 059e 6269     		ldr	r2, [r4, #20]
 4188              		.loc 1 280 0
 4189 05a0 30F81300 		ldrh	r0, [r0, r3, lsl #1]
 4190              	.LVL503:
 4191              		.loc 1 281 0
 4192 05a4 32F81EC0 		ldrh	ip, [r2, lr, lsl #1]
 4193              	.LVL504:
 4194              		.loc 1 284 0
 4195 05a8 6045     		cmp	r0, ip
 4196 05aa 40F2C380 		bls	.L597
 4197              		.loc 1 298 0
 4198 05ae C5F30B05 		ubfx	r5, r5, #0, #12
 4199              	.LVL505:
 4200 05b2 E368     		ldr	r3, [r4, #12]
 4201 05b4 AC44     		add	ip, ip, r5
 4202              	.LVL506:
 4203 05b6 33F91C30 		ldrsh	r3, [r3, ip, lsl #1]
 4204 05ba 22F81E30 		strh	r3, [r2, lr, lsl #1]	@ movhi
 4205              	.LVL507:
 4206              	.L591:
 4207              		.loc 1 301 0
 4208 05be 638B     		ldrh	r3, [r4, #26]
 4209 05c0 228B     		ldrh	r2, [r4, #24]
 4210 05c2 0233     		adds	r3, r3, #2
 4211 05c4 6383     		strh	r3, [r4, #26]	@ movhi
 4212 05c6 02F0050C 		and	ip, r2, #5
 4213 05ca 37E5     		b	.L402
 4214              	.LVL508:
 4215              	.L451:
 4216              	.LBE307:
 4217              	.LBB308:
 4218              		.loc 1 430 0
ARM GAS  C:\Users\mathi\AppData\Local\Temp\ccF8t5t9.s 			page 75


 4219 05cc B4F91C30 		ldrsh	r3, [r4, #28]
 4220 05d0 6269     		ldr	r2, [r4, #20]
 4221 05d2 3B44     		add	r3, r3, r7
 4222              	.LVL509:
 4223              		.loc 1 431 0
 4224 05d4 02EB4300 		add	r0, r2, r3, lsl #1
 4225              	.LVL510:
 4226              		.loc 1 432 0
 4227 05d8 32F91310 		ldrsh	r1, [r2, r3, lsl #1]
 4228              	.LVL511:
 4229 05dc B0F90220 		ldrsh	r2, [r0, #2]
 4230              	.LVL512:
 4231 05e0 EBB2     		uxtb	r3, r5
 4232              	.LVL513:
 4233 05e2 2046     		mov	r0, r4
 4234 05e4 FFF7FEFF 		bl	AsebaVMDoBinaryOperation
 4235              	.LVL514:
 4236              		.loc 1 433 0
 4237 05e8 A38B     		ldrh	r3, [r4, #28]
 4238 05ea 023B     		subs	r3, r3, #2
 4239 05ec A383     		strh	r3, [r4, #28]	@ movhi
 4240              		.loc 1 436 0
 4241 05ee 0028     		cmp	r0, #0
 4242 05f0 00F0C680 		beq	.L452
 4243 05f4 05F44075 		and	r5, r5, #768
 4244 05f8 B5F5407F 		cmp	r5, #768
 4245 05fc 6268     		ldr	r2, [r4, #4]
 4246 05fe 618B     		ldrh	r1, [r4, #26]
 4247 0600 00F0E280 		beq	.L453
 4248 0604 0225     		movs	r5, #2
 4249              	.L462:
 4250              		.loc 1 449 0
 4251 0606 32F81130 		ldrh	r3, [r2, r1, lsl #1]
 4252 060a 43F40073 		orr	r3, r3, #512
 4253 060e 22F81130 		strh	r3, [r2, r1, lsl #1]	@ movhi
 4254              	.LVL515:
 4255              	.L463:
 4256              		.loc 1 460 0
 4257 0612 638B     		ldrh	r3, [r4, #26]
 4258 0614 228B     		ldrh	r2, [r4, #24]
 4259 0616 2B44     		add	r3, r3, r5
 4260 0618 6383     		strh	r3, [r4, #26]	@ movhi
 4261 061a 02F0050C 		and	ip, r2, #5
 4262 061e 0DE5     		b	.L402
 4263              	.LVL516:
 4264              	.L450:
 4265              	.LBE308:
 4266              	.LBB309:
 4267              		.loc 1 403 0
 4268 0620 45F30B05 		sbfx	r5, r5, #0, #12
 4269              	.LVL517:
 4270              		.loc 1 412 0
 4271 0624 2944     		add	r1, r1, r5
 4272              	.LVL518:
 4273 0626 6183     		strh	r1, [r4, #26]	@ movhi
 4274              	.LVL519:
 4275 0628 08E5     		b	.L402
ARM GAS  C:\Users\mathi\AppData\Local\Temp\ccF8t5t9.s 			page 76


 4276              	.LVL520:
 4277              	.L449:
 4278              	.LBE309:
 4279              	.LBB310:
 4280              		.loc 1 385 0
 4281 062a B4F91C10 		ldrsh	r1, [r4, #28]
 4282              	.LVL521:
 4283 062e 6069     		ldr	r0, [r4, #20]
 4284              	.LVL522:
 4285 0630 3944     		add	r1, r1, r7
 4286              	.LVL523:
 4287              		.loc 1 386 0
 4288 0632 00EB4102 		add	r2, r0, r1, lsl #1
 4289              		.loc 1 389 0
 4290 0636 EBB2     		uxtb	r3, r5
 4291 0638 B2F90220 		ldrsh	r2, [r2, #2]
 4292 063c 30F91110 		ldrsh	r1, [r0, r1, lsl #1]
 4293              	.LVL524:
 4294 0640 2046     		mov	r0, r4
 4295              	.LVL525:
 4296 0642 FFF7FEFF 		bl	AsebaVMDoBinaryOperation
 4297              	.LVL526:
 4298              		.loc 1 392 0
 4299 0646 A38B     		ldrh	r3, [r4, #28]
 4300              		.loc 1 393 0
 4301 0648 6269     		ldr	r2, [r4, #20]
 4302              		.loc 1 392 0
 4303 064a 013B     		subs	r3, r3, #1
 4304 064c 1BB2     		sxth	r3, r3
 4305 064e A383     		strh	r3, [r4, #28]	@ movhi
 4306              		.loc 1 393 0
 4307 0650 22F81300 		strh	r0, [r2, r3, lsl #1]	@ movhi
 4308 0654 61E7     		b	.L590
 4309              	.LVL527:
 4310              	.L444:
 4311              	.LBE310:
 4312              	.LBB311:
 4313              		.loc 1 360 0
 4314 0656 B4F91C10 		ldrsh	r1, [r4, #28]
 4315              	.LVL528:
 4316 065a 6269     		ldr	r2, [r4, #20]
 4317              	.LBB312:
 4318              	.LBB313:
 4319              		.loc 1 153 0
 4320 065c EDB2     		uxtb	r5, r5
 4321 065e 012D     		cmp	r5, #1
 4322              	.LBE313:
 4323              	.LBE312:
 4324              		.loc 1 360 0
 4325 0660 32F91130 		ldrsh	r3, [r2, r1, lsl #1]
 4326              	.LVL529:
 4327              	.LBB316:
 4328              	.LBB314:
 4329              		.loc 1 153 0
 4330 0664 00F0A780 		beq	.L446
 4331 0668 C0F0A280 		bcc	.L447
 4332 066c 022D     		cmp	r5, #2
ARM GAS  C:\Users\mathi\AppData\Local\Temp\ccF8t5t9.s 			page 77


 4333 066e 40F09D80 		bne	.L601
 4334              		.loc 1 157 0
 4335 0672 DB43     		mvns	r3, r3
 4336              	.LVL530:
 4337              	.L445:
 4338              	.LBE314:
 4339              	.LBE316:
 4340              		.loc 1 366 0
 4341 0674 22F81130 		strh	r3, [r2, r1, lsl #1]	@ movhi
 4342              	.LVL531:
 4343 0678 4FE7     		b	.L590
 4344              	.LVL532:
 4345              	.L456:
 4346              	.LBE311:
 4347              	.LBB318:
 4348              		.loc 1 505 0
 4349 067a A38B     		ldrh	r3, [r4, #28]
 4350 067c 6269     		ldr	r2, [r4, #20]
 4351 067e 0133     		adds	r3, r3, #1
 4352 0680 1BB2     		sxth	r3, r3
 4353 0682 0131     		adds	r1, r1, #1
 4354              	.LVL533:
 4355 0684 A383     		strh	r3, [r4, #28]	@ movhi
 4356              	.LVL534:
 4357 0686 22F81310 		strh	r1, [r2, r3, lsl #1]	@ movhi
 4358 068a 228B     		ldrh	r2, [r4, #24]
 4359              		.loc 1 496 0
 4360 068c C5F30B05 		ubfx	r5, r5, #0, #12
 4361              	.LVL535:
 4362              		.loc 1 508 0
 4363 0690 6583     		strh	r5, [r4, #26]	@ movhi
 4364 0692 02F0050C 		and	ip, r2, #5
 4365 0696 D1E4     		b	.L402
 4366              	.LVL536:
 4367              	.L435:
 4368              	.LBE318:
 4369              		.loc 1 216 0
 4370 0698 A38B     		ldrh	r3, [r4, #28]
 4371 069a 6269     		ldr	r2, [r4, #20]
 4372 069c 0131     		adds	r1, r1, #1
 4373              	.LVL537:
 4374 069e 0133     		adds	r3, r3, #1
 4375 06a0 1BB2     		sxth	r3, r3
 4376 06a2 30F81110 		ldrh	r1, [r0, r1, lsl #1]
 4377              	.LVL538:
 4378 06a6 A383     		strh	r3, [r4, #28]	@ movhi
 4379              	.LVL539:
 4380 06a8 22F81310 		strh	r1, [r2, r3, lsl #1]	@ movhi
 4381 06ac 87E7     		b	.L591
 4382              	.LVL540:
 4383              	.L434:
 4384              	.LBB319:
 4385              		.loc 1 199 0
 4386 06ae A38B     		ldrh	r3, [r4, #28]
 4387 06b0 6269     		ldr	r2, [r4, #20]
 4388 06b2 0133     		adds	r3, r3, #1
 4389 06b4 1BB2     		sxth	r3, r3
ARM GAS  C:\Users\mathi\AppData\Local\Temp\ccF8t5t9.s 			page 78


 4390              		.loc 1 190 0
 4391 06b6 45F30B05 		sbfx	r5, r5, #0, #12
 4392              	.LVL541:
 4393              		.loc 1 199 0
 4394 06ba A383     		strh	r3, [r4, #28]	@ movhi
 4395              	.LVL542:
 4396 06bc 22F81350 		strh	r5, [r2, r3, lsl #1]	@ movhi
 4397 06c0 2BE7     		b	.L590
 4398              	.LVL543:
 4399              	.L432:
 4400              	.LBE319:
 4401              		.loc 1 183 0
 4402 06c2 22F00102 		bic	r2, r2, #1
 4403 06c6 92B2     		uxth	r2, r2
 4404 06c8 2283     		strh	r2, [r4, #24]	@ movhi
 4405              	.LVL544:
 4406 06ca 02F0050C 		and	ip, r2, #5
 4407 06ce B5E4     		b	.L402
 4408              	.LVL545:
 4409              	.L437:
 4410              	.LBB320:
 4411              		.loc 1 258 0
 4412 06d0 B4F91C30 		ldrsh	r3, [r4, #28]
 4413 06d4 6169     		ldr	r1, [r4, #20]
 4414              	.LVL546:
 4415 06d6 5A1E     		subs	r2, r3, #1
 4416 06d8 A283     		strh	r2, [r4, #28]	@ movhi
 4417              	.LVL547:
 4418 06da C5F30B05 		ubfx	r5, r5, #0, #12
 4419              	.LVL548:
 4420 06de E268     		ldr	r2, [r4, #12]
 4421 06e0 31F91330 		ldrsh	r3, [r1, r3, lsl #1]
 4422 06e4 22F81530 		strh	r3, [r2, r5, lsl #1]	@ movhi
 4423 06e8 17E7     		b	.L590
 4424              	.LVL549:
 4425              	.L436:
 4426              	.LBE320:
 4427              	.LBB321:
 4428              		.loc 1 237 0
 4429 06ea A38B     		ldrh	r3, [r4, #28]
 4430 06ec E168     		ldr	r1, [r4, #12]
 4431              	.LVL550:
 4432 06ee 6269     		ldr	r2, [r4, #20]
 4433 06f0 0133     		adds	r3, r3, #1
 4434 06f2 1BB2     		sxth	r3, r3
 4435 06f4 C5F30B05 		ubfx	r5, r5, #0, #12
 4436              	.LVL551:
 4437 06f8 A383     		strh	r3, [r4, #28]	@ movhi
 4438              	.LVL552:
 4439 06fa 31F91510 		ldrsh	r1, [r1, r5, lsl #1]
 4440 06fe 22F81310 		strh	r1, [r2, r3, lsl #1]	@ movhi
 4441 0702 0AE7     		b	.L590
 4442              	.LVL553:
 4443              	.L595:
 4444              	.LBE321:
 4445              	.LBE326:
 4446              	.LBE367:
ARM GAS  C:\Users\mathi\AppData\Local\Temp\ccF8t5t9.s 			page 79


 4447              	.LBB368:
 4448              	.LBB361:
 4449              	.LBB355:
 4450              	.LBB336:
 4451              		.loc 1 332 0
 4452 0704 A4F81880 		strh	r8, [r4, #24]	@ movhi
 4453              		.loc 1 333 0
 4454 0708 0623     		movs	r3, #6
 4455              		.loc 1 329 0
 4456 070a ADF80410 		strh	r1, [sp, #4]	@ movhi
 4457              		.loc 1 330 0
 4458 070e ADF80600 		strh	r0, [sp, #6]	@ movhi
 4459              		.loc 1 333 0
 4460 0712 01AA     		add	r2, sp, #4
 4461 0714 49F20601 		movw	r1, #36870
 4462 0718 2046     		mov	r0, r4
 4463              		.loc 1 331 0
 4464 071a ADF808C0 		strh	ip, [sp, #8]	@ movhi
 4465              		.loc 1 333 0
 4466 071e FFF7FEFF 		bl	AsebaSendMessage
 4467              	.LVL554:
 4468              		.loc 1 334 0
 4469 0722 B9F1000F 		cmp	r9, #0
 4470 0726 3FF4B4AE 		beq	.L588
 4471              		.loc 1 335 0
 4472 072a 0021     		movs	r1, #0
 4473 072c 2046     		mov	r0, r4
 4474 072e FFF7FEFF 		bl	AsebaVMErrorCB
 4475              	.LVL555:
 4476 0732 AEE6     		b	.L588
 4477              	.LVL556:
 4478              	.L597:
 4479              	.LBE336:
 4480              	.LBE355:
 4481              	.LBE361:
 4482              	.LBE368:
 4483              	.LBB369:
 4484              	.LBB327:
 4485              	.LBB322:
 4486              	.LBB303:
 4487              		.loc 1 332 0
 4488 0734 A4F81890 		strh	r9, [r4, #24]	@ movhi
 4489              	.LVL557:
 4490              		.loc 1 333 0
 4491 0738 0623     		movs	r3, #6
 4492              		.loc 1 329 0
 4493 073a ADF80410 		strh	r1, [sp, #4]	@ movhi
 4494              		.loc 1 330 0
 4495 073e ADF80600 		strh	r0, [sp, #6]	@ movhi
 4496              		.loc 1 333 0
 4497 0742 01AA     		add	r2, sp, #4
 4498 0744 49F20601 		movw	r1, #36870
 4499 0748 2046     		mov	r0, r4
 4500              		.loc 1 331 0
 4501 074a ADF808C0 		strh	ip, [sp, #8]	@ movhi
 4502              		.loc 1 333 0
 4503 074e FFF7FEFF 		bl	AsebaSendMessage
ARM GAS  C:\Users\mathi\AppData\Local\Temp\ccF8t5t9.s 			page 80


 4504              	.LVL558:
 4505              		.loc 1 334 0
 4506 0752 B8F1000F 		cmp	r8, #0
 4507 0756 03D0     		beq	.L443
 4508              		.loc 1 335 0
 4509 0758 0021     		movs	r1, #0
 4510 075a 2046     		mov	r0, r4
 4511 075c FFF7FEFF 		bl	AsebaVMErrorCB
 4512              	.LVL559:
 4513              	.L443:
 4514 0760 228B     		ldrh	r2, [r4, #24]
 4515 0762 02F0050C 		and	ip, r2, #5
 4516 0766 69E4     		b	.L402
 4517              	.LVL560:
 4518              	.L429:
 4519              	.LBE303:
 4520              	.LBE322:
 4521              	.LBE327:
 4522              	.LBE369:
 4523              	.LBB370:
 4524              	.LBB362:
 4525              	.LBB356:
 4526              		.loc 1 444 0
 4527 0768 638B     		ldrh	r3, [r4, #26]
 4528 076a 6068     		ldr	r0, [r4, #4]
 4529              	.LVL561:
 4530 076c 0133     		adds	r3, r3, #1
 4531 076e 5A00     		lsls	r2, r3, #1
 4532              		.loc 1 451 0
 4533 0770 023A     		subs	r2, r2, #2
 4534              		.loc 1 444 0
 4535 0772 30F81310 		ldrh	r1, [r0, r3, lsl #1]
 4536              	.LVL562:
 4537              		.loc 1 451 0
 4538 0776 835A     		ldrh	r3, [r0, r2]
 4539 0778 23F40073 		bic	r3, r3, #512
 4540 077c 8352     		strh	r3, [r0, r2]	@ movhi
 4541 077e 0EE5     		b	.L461
 4542              	.LVL563:
 4543              	.L452:
 4544              	.LBE356:
 4545              	.LBE362:
 4546              	.LBE370:
 4547              	.LBB371:
 4548              	.LBB328:
 4549              	.LBB323:
 4550              		.loc 1 444 0
 4551 0780 638B     		ldrh	r3, [r4, #26]
 4552 0782 6168     		ldr	r1, [r4, #4]
 4553 0784 0133     		adds	r3, r3, #1
 4554 0786 5A00     		lsls	r2, r3, #1
 4555              		.loc 1 451 0
 4556 0788 023A     		subs	r2, r2, #2
 4557              		.loc 1 444 0
 4558 078a 31F81350 		ldrh	r5, [r1, r3, lsl #1]
 4559              	.LVL564:
 4560              		.loc 1 451 0
ARM GAS  C:\Users\mathi\AppData\Local\Temp\ccF8t5t9.s 			page 81


 4561 078e 885A     		ldrh	r0, [r1, r2]
 4562              	.LVL565:
 4563 0790 20F40070 		bic	r0, r0, #512
 4564 0794 8852     		strh	r0, [r1, r2]	@ movhi
 4565 0796 3CE7     		b	.L463
 4566              	.LVL566:
 4567              	.L427:
 4568              	.LBE323:
 4569              	.LBE328:
 4570              	.LBE371:
 4571              	.LBB372:
 4572              	.LBB363:
 4573              	.LBB357:
 4574              	.LBB354:
 4575              	.LBB352:
 4576              		.loc 1 155 0
 4577 0798 5B42     		negs	r3, r3
 4578              	.LVL567:
 4579 079a 1BB2     		sxth	r3, r3
 4580              	.LVL568:
 4581 079c A8E6     		b	.L425
 4582              	.LVL569:
 4583              	.L426:
 4584              		.loc 1 156 0
 4585 079e 002B     		cmp	r3, #0
 4586 07a0 B8BF     		it	lt
 4587 07a2 5B42     		rsblt	r3, r3, #0
 4588              	.LVL570:
 4589 07a4 1BB2     		sxth	r3, r3
 4590 07a6 A3E6     		b	.L425
 4591              	.LVL571:
 4592              	.L600:
 4593              		.loc 1 163 0
 4594 07a8 0023     		movs	r3, #0
 4595              	.LVL572:
 4596 07aa A1E6     		b	.L425
 4597              	.LVL573:
 4598              	.L601:
 4599              	.LBE352:
 4600              	.LBE354:
 4601              	.LBE357:
 4602              	.LBE363:
 4603              	.LBE372:
 4604              	.LBB373:
 4605              	.LBB329:
 4606              	.LBB324:
 4607              	.LBB317:
 4608              	.LBB315:
 4609 07ac 0023     		movs	r3, #0
 4610              	.LVL574:
 4611 07ae 61E7     		b	.L445
 4612              	.LVL575:
 4613              	.L447:
 4614              		.loc 1 155 0
 4615 07b0 5B42     		negs	r3, r3
 4616              	.LVL576:
 4617 07b2 1BB2     		sxth	r3, r3
ARM GAS  C:\Users\mathi\AppData\Local\Temp\ccF8t5t9.s 			page 82


 4618              	.LVL577:
 4619 07b4 5EE7     		b	.L445
 4620              	.LVL578:
 4621              	.L446:
 4622              		.loc 1 156 0
 4623 07b6 002B     		cmp	r3, #0
 4624 07b8 B8BF     		it	lt
 4625 07ba 5B42     		rsblt	r3, r3, #0
 4626              	.LVL579:
 4627 07bc 1BB2     		sxth	r3, r3
 4628 07be 59E7     		b	.L445
 4629              	.LVL580:
 4630              	.L430:
 4631              	.LBE315:
 4632              	.LBE317:
 4633              	.LBE324:
 4634              	.LBE329:
 4635              	.LBE373:
 4636              	.LBB374:
 4637              	.LBB364:
 4638              	.LBB358:
 4639              		.loc 1 444 0
 4640 07c0 431C     		adds	r3, r0, #1
 4641 07c2 32F81310 		ldrh	r1, [r2, r3, lsl #1]
 4642              	.LVL581:
 4643 07c6 E4E4     		b	.L460
 4644              	.LVL582:
 4645              	.L453:
 4646              	.LBE358:
 4647              	.LBE364:
 4648              	.LBE374:
 4649              	.LBB375:
 4650              	.LBB330:
 4651              	.LBB325:
 4652 07c8 4B1C     		adds	r3, r1, #1
 4653 07ca 32F81350 		ldrh	r5, [r2, r3, lsl #1]
 4654              	.LVL583:
 4655 07ce 1AE7     		b	.L462
 4656              	.LVL584:
 4657              	.L599:
 4658              	.LBE325:
 4659              	.LBE330:
 4660              	.LBE375:
 4661              	.LBE378:
 4662              	.LBE407:
 4663              		.loc 1 668 0
 4664 07d0 FFF7FEFF 		bl	__stack_chk_fail
 4665              	.LVL585:
 4666              		.cfi_endproc
 4667              	.LFE10:
 4668              		.size	AsebaVMRun, .-AsebaVMRun
 4669              		.section	.text.AsebaVMSetBreakpoint,"ax",%progbits
 4670              		.align	1
 4671              		.p2align 4,,15
 4672              		.global	AsebaVMSetBreakpoint
 4673              		.syntax unified
 4674              		.thumb
ARM GAS  C:\Users\mathi\AppData\Local\Temp\ccF8t5t9.s 			page 83


 4675              		.thumb_func
 4676              		.fpu fpv4-sp-d16
 4677              		.type	AsebaVMSetBreakpoint, %function
 4678              	AsebaVMSetBreakpoint:
 4679              	.LFB11:
 4680              		.loc 1 673 0
 4681              		.cfi_startproc
 4682              		@ args = 0, pretend = 0, frame = 8
 4683              		@ frame_needed = 0, uses_anonymous_args = 0
 4684              	.LVL586:
 4685 0000 10B5     		push	{r4, lr}
 4686              		.cfi_def_cfa_offset 8
 4687              		.cfi_offset 4, -8
 4688              		.cfi_offset 14, -4
 4689 0002 0B4A     		ldr	r2, .L610
 4690              		.loc 1 679 0
 4691 0004 C38F     		ldrh	r3, [r0, #62]
 4692              		.loc 1 673 0
 4693 0006 1468     		ldr	r4, [r2]
 4694 0008 82B0     		sub	sp, sp, #8
 4695              		.cfi_def_cfa_offset 16
 4696              		.loc 1 679 0
 4697 000a 0F2B     		cmp	r3, #15
 4698              		.loc 1 673 0
 4699 000c 0194     		str	r4, [sp, #4]
 4700              		.loc 1 679 0
 4701 000e 0BD8     		bhi	.L607
 4702              		.loc 1 681 0
 4703 0010 00EB4304 		add	r4, r0, r3, lsl #1
 4704 0014 0133     		adds	r3, r3, #1
 4705 0016 C387     		strh	r3, [r0, #62]	@ movhi
 4706              		.loc 1 682 0
 4707 0018 0120     		movs	r0, #1
 4708              	.LVL587:
 4709              		.loc 1 681 0
 4710 001a E183     		strh	r1, [r4, #30]	@ movhi
 4711              	.L605:
 4712              		.loc 1 686 0
 4713 001c 0199     		ldr	r1, [sp, #4]
 4714              	.LVL588:
 4715 001e 1368     		ldr	r3, [r2]
 4716 0020 9942     		cmp	r1, r3
 4717 0022 03D1     		bne	.L609
 4718 0024 02B0     		add	sp, sp, #8
 4719              		.cfi_remember_state
 4720              		.cfi_def_cfa_offset 8
 4721              		@ sp needed
 4722 0026 10BD     		pop	{r4, pc}
 4723              	.LVL589:
 4724              	.L607:
 4725              		.cfi_restore_state
 4726              		.loc 1 685 0
 4727 0028 0020     		movs	r0, #0
 4728              	.LVL590:
 4729 002a F7E7     		b	.L605
 4730              	.LVL591:
 4731              	.L609:
ARM GAS  C:\Users\mathi\AppData\Local\Temp\ccF8t5t9.s 			page 84


 4732              		.loc 1 686 0
 4733 002c FFF7FEFF 		bl	__stack_chk_fail
 4734              	.LVL592:
 4735              	.L611:
 4736              		.align	2
 4737              	.L610:
 4738 0030 00000000 		.word	__stack_chk_guard
 4739              		.cfi_endproc
 4740              	.LFE11:
 4741              		.size	AsebaVMSetBreakpoint, .-AsebaVMSetBreakpoint
 4742              		.section	.text.AsebaVMClearBreakpoint,"ax",%progbits
 4743              		.align	1
 4744              		.p2align 4,,15
 4745              		.global	AsebaVMClearBreakpoint
 4746              		.syntax unified
 4747              		.thumb
 4748              		.thumb_func
 4749              		.fpu fpv4-sp-d16
 4750              		.type	AsebaVMClearBreakpoint, %function
 4751              	AsebaVMClearBreakpoint:
 4752              	.LFB12:
 4753              		.loc 1 690 0
 4754              		.cfi_startproc
 4755              		@ args = 0, pretend = 0, frame = 8
 4756              		@ frame_needed = 0, uses_anonymous_args = 0
 4757              	.LVL593:
 4758 0000 10B5     		push	{r4, lr}
 4759              		.cfi_def_cfa_offset 8
 4760              		.cfi_offset 4, -8
 4761              		.cfi_offset 14, -4
 4762 0002 494C     		ldr	r4, .L658
 4763              		.loc 1 692 0
 4764 0004 C38F     		ldrh	r3, [r0, #62]
 4765              		.loc 1 690 0
 4766 0006 2268     		ldr	r2, [r4]
 4767 0008 82B0     		sub	sp, sp, #8
 4768              		.cfi_def_cfa_offset 16
 4769              		.loc 1 690 0
 4770 000a 0192     		str	r2, [sp, #4]
 4771              	.LVL594:
 4772              		.loc 1 692 0
 4773 000c 002B     		cmp	r3, #0
 4774 000e 4ED0     		beq	.L613
 4775              		.loc 1 694 0
 4776 0010 C28B     		ldrh	r2, [r0, #30]
 4777 0012 8A42     		cmp	r2, r1
 4778 0014 52D0     		beq	.L656
 4779              	.LVL595:
 4780              		.loc 1 692 0
 4781 0016 012B     		cmp	r3, #1
 4782 0018 48D9     		bls	.L649
 4783              		.loc 1 694 0
 4784 001a 028C     		ldrh	r2, [r0, #32]
 4785 001c 8A42     		cmp	r2, r1
 4786 001e 62D0     		beq	.L622
 4787              	.LVL596:
 4788              		.loc 1 692 0
ARM GAS  C:\Users\mathi\AppData\Local\Temp\ccF8t5t9.s 			page 85


 4789 0020 022B     		cmp	r3, #2
 4790 0022 43D0     		beq	.L649
 4791              		.loc 1 694 0
 4792 0024 428C     		ldrh	r2, [r0, #34]
 4793 0026 8A42     		cmp	r2, r1
 4794 0028 5FD0     		beq	.L624
 4795              	.LVL597:
 4796              		.loc 1 692 0
 4797 002a 032B     		cmp	r3, #3
 4798 002c 3ED0     		beq	.L649
 4799              		.loc 1 694 0
 4800 002e 828C     		ldrh	r2, [r0, #36]
 4801 0030 8A42     		cmp	r2, r1
 4802 0032 5ED0     		beq	.L626
 4803              	.LVL598:
 4804              		.loc 1 692 0
 4805 0034 042B     		cmp	r3, #4
 4806 0036 39D0     		beq	.L649
 4807              		.loc 1 694 0
 4808 0038 C28C     		ldrh	r2, [r0, #38]
 4809 003a 8A42     		cmp	r2, r1
 4810 003c 5BD0     		beq	.L628
 4811              	.LVL599:
 4812              		.loc 1 692 0
 4813 003e 052B     		cmp	r3, #5
 4814 0040 34D0     		beq	.L649
 4815              		.loc 1 694 0
 4816 0042 028D     		ldrh	r2, [r0, #40]
 4817 0044 8A42     		cmp	r2, r1
 4818 0046 58D0     		beq	.L630
 4819              	.LVL600:
 4820              		.loc 1 692 0
 4821 0048 062B     		cmp	r3, #6
 4822 004a 2FD0     		beq	.L649
 4823              		.loc 1 694 0
 4824 004c 428D     		ldrh	r2, [r0, #42]
 4825 004e 8A42     		cmp	r2, r1
 4826 0050 55D0     		beq	.L632
 4827              	.LVL601:
 4828              		.loc 1 692 0
 4829 0052 072B     		cmp	r3, #7
 4830 0054 2AD0     		beq	.L649
 4831              		.loc 1 694 0
 4832 0056 828D     		ldrh	r2, [r0, #44]
 4833 0058 8A42     		cmp	r2, r1
 4834 005a 52D0     		beq	.L634
 4835              	.LVL602:
 4836              		.loc 1 692 0
 4837 005c 082B     		cmp	r3, #8
 4838 005e 25D0     		beq	.L649
 4839              		.loc 1 694 0
 4840 0060 C28D     		ldrh	r2, [r0, #46]
 4841 0062 8A42     		cmp	r2, r1
 4842 0064 4FD0     		beq	.L636
 4843              	.LVL603:
 4844              		.loc 1 692 0
 4845 0066 092B     		cmp	r3, #9
ARM GAS  C:\Users\mathi\AppData\Local\Temp\ccF8t5t9.s 			page 86


 4846 0068 20D0     		beq	.L649
 4847              		.loc 1 694 0
 4848 006a 028E     		ldrh	r2, [r0, #48]
 4849 006c 8A42     		cmp	r2, r1
 4850 006e 4CD0     		beq	.L638
 4851              	.LVL604:
 4852              		.loc 1 692 0
 4853 0070 0A2B     		cmp	r3, #10
 4854 0072 1BD0     		beq	.L649
 4855              		.loc 1 694 0
 4856 0074 428E     		ldrh	r2, [r0, #50]
 4857 0076 8A42     		cmp	r2, r1
 4858 0078 49D0     		beq	.L640
 4859              	.LVL605:
 4860              		.loc 1 692 0
 4861 007a 0B2B     		cmp	r3, #11
 4862 007c 16D0     		beq	.L649
 4863              		.loc 1 694 0
 4864 007e 828E     		ldrh	r2, [r0, #52]
 4865 0080 8A42     		cmp	r2, r1
 4866 0082 46D0     		beq	.L642
 4867              	.LVL606:
 4868              		.loc 1 692 0
 4869 0084 0C2B     		cmp	r3, #12
 4870 0086 11D0     		beq	.L649
 4871              		.loc 1 694 0
 4872 0088 C28E     		ldrh	r2, [r0, #54]
 4873 008a 8A42     		cmp	r2, r1
 4874 008c 43D0     		beq	.L644
 4875              	.LVL607:
 4876              		.loc 1 692 0
 4877 008e 0D2B     		cmp	r3, #13
 4878 0090 0CD0     		beq	.L649
 4879              		.loc 1 694 0
 4880 0092 028F     		ldrh	r2, [r0, #56]
 4881 0094 8A42     		cmp	r2, r1
 4882 0096 40D0     		beq	.L646
 4883              	.LVL608:
 4884              		.loc 1 692 0
 4885 0098 0E2B     		cmp	r3, #14
 4886 009a 07D0     		beq	.L649
 4887              		.loc 1 694 0
 4888 009c 428F     		ldrh	r2, [r0, #58]
 4889 009e 8A42     		cmp	r2, r1
 4890 00a0 3DD0     		beq	.L648
 4891              	.LVL609:
 4892              		.loc 1 692 0
 4893 00a2 0F2B     		cmp	r3, #15
 4894 00a4 02D0     		beq	.L649
 4895              		.loc 1 694 0
 4896 00a6 828F     		ldrh	r2, [r0, #60]
 4897 00a8 8A42     		cmp	r2, r1
 4898 00aa 20D0     		beq	.L650
 4899              	.LVL610:
 4900              	.L649:
 4901              		.loc 1 704 0
 4902 00ac 0023     		movs	r3, #0
ARM GAS  C:\Users\mathi\AppData\Local\Temp\ccF8t5t9.s 			page 87


 4903              	.LVL611:
 4904              	.L613:
 4905              		.loc 1 705 0
 4906 00ae 0199     		ldr	r1, [sp, #4]
 4907 00b0 2268     		ldr	r2, [r4]
 4908 00b2 9142     		cmp	r1, r2
 4909 00b4 1846     		mov	r0, r3
 4910 00b6 34D1     		bne	.L657
 4911 00b8 02B0     		add	sp, sp, #8
 4912              		.cfi_remember_state
 4913              		.cfi_def_cfa_offset 8
 4914              		@ sp needed
 4915 00ba 10BD     		pop	{r4, pc}
 4916              	.LVL612:
 4917              	.L656:
 4918              		.cfi_restore_state
 4919              		.loc 1 692 0
 4920 00bc 0022     		movs	r2, #0
 4921              	.LVL613:
 4922              	.L614:
 4923              	.LBB408:
 4924              		.loc 1 698 0
 4925 00be 591E     		subs	r1, r3, #1
 4926              	.LVL614:
 4927 00c0 89B2     		uxth	r1, r1
 4928              		.loc 1 699 0
 4929 00c2 9142     		cmp	r1, r2
 4930              		.loc 1 698 0
 4931 00c4 C187     		strh	r1, [r0, #62]	@ movhi
 4932              	.LVL615:
 4933              		.loc 1 699 0
 4934 00c6 0CD9     		bls	.L617
 4935              		.loc 1 700 0
 4936 00c8 991E     		subs	r1, r3, #2
 4937 00ca 891A     		subs	r1, r1, r2
 4938 00cc 5300     		lsls	r3, r2, #1
 4939 00ce 89B2     		uxth	r1, r1
 4940 00d0 4A1C     		adds	r2, r1, #1
 4941              	.LVL616:
 4942 00d2 03F12001 		add	r1, r3, #32
 4943 00d6 1E33     		adds	r3, r3, #30
 4944 00d8 0144     		add	r1, r1, r0
 4945 00da 5200     		lsls	r2, r2, #1
 4946 00dc 1844     		add	r0, r0, r3
 4947              	.LVL617:
 4948 00de FFF7FEFF 		bl	memmove
 4949              	.LVL618:
 4950              	.L617:
 4951              		.loc 1 701 0
 4952 00e2 0123     		movs	r3, #1
 4953 00e4 E3E7     		b	.L613
 4954              	.LVL619:
 4955              	.L622:
 4956              	.LBE408:
 4957              		.loc 1 692 0
 4958 00e6 0122     		movs	r2, #1
 4959 00e8 E9E7     		b	.L614
ARM GAS  C:\Users\mathi\AppData\Local\Temp\ccF8t5t9.s 			page 88


 4960              	.LVL620:
 4961              	.L624:
 4962 00ea 0222     		movs	r2, #2
 4963 00ec E7E7     		b	.L614
 4964              	.LVL621:
 4965              	.L650:
 4966 00ee 0F22     		movs	r2, #15
 4967 00f0 E5E7     		b	.L614
 4968              	.LVL622:
 4969              	.L626:
 4970 00f2 0322     		movs	r2, #3
 4971 00f4 E3E7     		b	.L614
 4972              	.LVL623:
 4973              	.L628:
 4974 00f6 0422     		movs	r2, #4
 4975 00f8 E1E7     		b	.L614
 4976              	.LVL624:
 4977              	.L630:
 4978 00fa 0522     		movs	r2, #5
 4979 00fc DFE7     		b	.L614
 4980              	.LVL625:
 4981              	.L632:
 4982 00fe 0622     		movs	r2, #6
 4983 0100 DDE7     		b	.L614
 4984              	.LVL626:
 4985              	.L634:
 4986 0102 0722     		movs	r2, #7
 4987 0104 DBE7     		b	.L614
 4988              	.LVL627:
 4989              	.L636:
 4990 0106 0822     		movs	r2, #8
 4991 0108 D9E7     		b	.L614
 4992              	.LVL628:
 4993              	.L638:
 4994 010a 0922     		movs	r2, #9
 4995 010c D7E7     		b	.L614
 4996              	.LVL629:
 4997              	.L640:
 4998 010e 0A22     		movs	r2, #10
 4999 0110 D5E7     		b	.L614
 5000              	.LVL630:
 5001              	.L642:
 5002 0112 0B22     		movs	r2, #11
 5003 0114 D3E7     		b	.L614
 5004              	.LVL631:
 5005              	.L644:
 5006 0116 0C22     		movs	r2, #12
 5007 0118 D1E7     		b	.L614
 5008              	.LVL632:
 5009              	.L646:
 5010 011a 0D22     		movs	r2, #13
 5011 011c CFE7     		b	.L614
 5012              	.LVL633:
 5013              	.L648:
 5014 011e 0E22     		movs	r2, #14
 5015 0120 CDE7     		b	.L614
 5016              	.LVL634:
ARM GAS  C:\Users\mathi\AppData\Local\Temp\ccF8t5t9.s 			page 89


 5017              	.L657:
 5018              		.loc 1 705 0
 5019 0122 FFF7FEFF 		bl	__stack_chk_fail
 5020              	.LVL635:
 5021              	.L659:
 5022 0126 00BF     		.align	2
 5023              	.L658:
 5024 0128 00000000 		.word	__stack_chk_guard
 5025              		.cfi_endproc
 5026              	.LFE12:
 5027              		.size	AsebaVMClearBreakpoint, .-AsebaVMClearBreakpoint
 5028              		.section	.text.AsebaVMClearBreakpoints,"ax",%progbits
 5029              		.align	1
 5030              		.p2align 4,,15
 5031              		.global	AsebaVMClearBreakpoints
 5032              		.syntax unified
 5033              		.thumb
 5034              		.thumb_func
 5035              		.fpu fpv4-sp-d16
 5036              		.type	AsebaVMClearBreakpoints, %function
 5037              	AsebaVMClearBreakpoints:
 5038              	.LFB13:
 5039              		.loc 1 709 0
 5040              		.cfi_startproc
 5041              		@ args = 0, pretend = 0, frame = 8
 5042              		@ frame_needed = 0, uses_anonymous_args = 0
 5043              	.LVL636:
 5044 0000 00B5     		push	{lr}
 5045              		.cfi_def_cfa_offset 4
 5046              		.cfi_offset 14, -4
 5047 0002 074B     		ldr	r3, .L664
 5048 0004 83B0     		sub	sp, sp, #12
 5049              		.cfi_def_cfa_offset 16
 5050              		.loc 1 709 0
 5051 0006 1A68     		ldr	r2, [r3]
 5052 0008 0192     		str	r2, [sp, #4]
 5053              		.loc 1 711 0
 5054 000a 019A     		ldr	r2, [sp, #4]
 5055 000c 1B68     		ldr	r3, [r3]
 5056              		.loc 1 710 0
 5057 000e 0021     		movs	r1, #0
 5058              		.loc 1 711 0
 5059 0010 9A42     		cmp	r2, r3
 5060              		.loc 1 710 0
 5061 0012 C187     		strh	r1, [r0, #62]	@ movhi
 5062              		.loc 1 711 0
 5063 0014 02D1     		bne	.L663
 5064 0016 03B0     		add	sp, sp, #12
 5065              		.cfi_remember_state
 5066              		.cfi_def_cfa_offset 4
 5067              		@ sp needed
 5068 0018 5DF804FB 		ldr	pc, [sp], #4
 5069              	.L663:
 5070              		.cfi_restore_state
 5071 001c FFF7FEFF 		bl	__stack_chk_fail
 5072              	.LVL637:
 5073              	.L665:
ARM GAS  C:\Users\mathi\AppData\Local\Temp\ccF8t5t9.s 			page 90


 5074              		.align	2
 5075              	.L664:
 5076 0020 00000000 		.word	__stack_chk_guard
 5077              		.cfi_endproc
 5078              	.LFE13:
 5079              		.size	AsebaVMClearBreakpoints, .-AsebaVMClearBreakpoints
 5080              		.section	.text.AsebaVMSendExecutionStateChanged,"ax",%progbits
 5081              		.align	1
 5082              		.p2align 4,,15
 5083              		.global	AsebaVMSendExecutionStateChanged
 5084              		.syntax unified
 5085              		.thumb
 5086              		.thumb_func
 5087              		.fpu fpv4-sp-d16
 5088              		.type	AsebaVMSendExecutionStateChanged, %function
 5089              	AsebaVMSendExecutionStateChanged:
 5090              	.LFB14:
 5091              		.loc 1 715 0
 5092              		.cfi_startproc
 5093              		@ args = 0, pretend = 0, frame = 8
 5094              		@ frame_needed = 0, uses_anonymous_args = 0
 5095              	.LVL638:
 5096 0000 30B5     		push	{r4, r5, lr}
 5097              		.cfi_def_cfa_offset 12
 5098              		.cfi_offset 4, -12
 5099              		.cfi_offset 5, -8
 5100              		.cfi_offset 14, -4
 5101 0002 0C4C     		ldr	r4, .L670
 5102              		.loc 1 717 0
 5103 0004 428B     		ldrh	r2, [r0, #26]
 5104              		.loc 1 718 0
 5105 0006 018B     		ldrh	r1, [r0, #24]
 5106              		.loc 1 715 0
 5107 0008 2568     		ldr	r5, [r4]
 5108 000a 83B0     		sub	sp, sp, #12
 5109              		.cfi_def_cfa_offset 24
 5110              		.loc 1 719 0
 5111 000c 0423     		movs	r3, #4
 5112              		.loc 1 717 0
 5113 000e ADF80020 		strh	r2, [sp]	@ movhi
 5114              		.loc 1 718 0
 5115 0012 ADF80210 		strh	r1, [sp, #2]	@ movhi
 5116              		.loc 1 719 0
 5117 0016 6A46     		mov	r2, sp
 5118 0018 49F20A01 		movw	r1, #36874
 5119              		.loc 1 715 0
 5120 001c 0195     		str	r5, [sp, #4]
 5121              		.loc 1 719 0
 5122 001e FFF7FEFF 		bl	AsebaSendMessage
 5123              	.LVL639:
 5124              		.loc 1 720 0
 5125 0022 019A     		ldr	r2, [sp, #4]
 5126 0024 2368     		ldr	r3, [r4]
 5127 0026 9A42     		cmp	r2, r3
 5128 0028 01D1     		bne	.L669
 5129 002a 03B0     		add	sp, sp, #12
 5130              		.cfi_remember_state
ARM GAS  C:\Users\mathi\AppData\Local\Temp\ccF8t5t9.s 			page 91


 5131              		.cfi_def_cfa_offset 12
 5132              		@ sp needed
 5133 002c 30BD     		pop	{r4, r5, pc}
 5134              	.L669:
 5135              		.cfi_restore_state
 5136 002e FFF7FEFF 		bl	__stack_chk_fail
 5137              	.LVL640:
 5138              	.L671:
 5139 0032 00BF     		.align	2
 5140              	.L670:
 5141 0034 00000000 		.word	__stack_chk_guard
 5142              		.cfi_endproc
 5143              	.LFE14:
 5144              		.size	AsebaVMSendExecutionStateChanged, .-AsebaVMSendExecutionStateChanged
 5145              		.section	.text.AsebaVMDebugMessage,"ax",%progbits
 5146              		.align	1
 5147              		.p2align 4,,15
 5148              		.global	AsebaVMDebugMessage
 5149              		.syntax unified
 5150              		.thumb
 5151              		.thumb_func
 5152              		.fpu fpv4-sp-d16
 5153              		.type	AsebaVMDebugMessage, %function
 5154              	AsebaVMDebugMessage:
 5155              	.LFB16:
 5156              		.loc 1 735 0
 5157              		.cfi_startproc
 5158              		@ args = 0, pretend = 0, frame = 16
 5159              		@ frame_needed = 0, uses_anonymous_args = 0
 5160              	.LVL641:
 5161 0000 F0B5     		push	{r4, r5, r6, r7, lr}
 5162              		.cfi_def_cfa_offset 20
 5163              		.cfi_offset 4, -20
 5164              		.cfi_offset 5, -16
 5165              		.cfi_offset 6, -12
 5166              		.cfi_offset 7, -8
 5167              		.cfi_offset 14, -4
 5168 0002 BC4C     		ldr	r4, .L811
 5169 0004 85B0     		sub	sp, sp, #20
 5170              		.cfi_def_cfa_offset 40
 5171              		.loc 1 735 0
 5172 0006 2568     		ldr	r5, [r4]
 5173 0008 0395     		str	r5, [sp, #12]
 5174              		.loc 1 737 0
 5175 000a B1F5204F 		cmp	r1, #40960
 5176              		.loc 1 735 0
 5177 000e 1546     		mov	r5, r2
 5178              		.loc 1 737 0
 5179 0010 10D0     		beq	.L805
 5180              		.loc 1 746 0
 5181 0012 4AF21102 		movw	r2, #40977
 5182              	.LVL642:
 5183 0016 9142     		cmp	r1, r2
 5184 0018 2AD0     		beq	.L806
 5185              		.loc 1 754 0
 5186 001a 23B1     		cbz	r3, .L672
 5187 001c 0646     		mov	r6, r0
ARM GAS  C:\Users\mathi\AppData\Local\Temp\ccF8t5t9.s 			page 92


 5188              		.loc 1 758 0
 5189 001e 2888     		ldrh	r0, [r5]
 5190              	.LVL643:
 5191 0020 3288     		ldrh	r2, [r6]
 5192 0022 9042     		cmp	r0, r2
 5193 0024 0CD0     		beq	.L807
 5194              	.LVL644:
 5195              	.L672:
 5196              		.loc 1 881 0
 5197 0026 039A     		ldr	r2, [sp, #12]
 5198 0028 2368     		ldr	r3, [r4]
 5199 002a 9A42     		cmp	r2, r3
 5200 002c 40F0B581 		bne	.L808
 5201 0030 05B0     		add	sp, sp, #20
 5202              		.cfi_remember_state
 5203              		.cfi_def_cfa_offset 20
 5204              		@ sp needed
 5205 0032 F0BD     		pop	{r4, r5, r6, r7, pc}
 5206              	.LVL645:
 5207              	.L805:
 5208              		.cfi_restore_state
 5209              	.LBB443:
 5210              		.loc 1 741 0
 5211 0034 1388     		ldrh	r3, [r2]
 5212              	.LVL646:
 5213 0036 042B     		cmp	r3, #4
 5214 0038 F5D8     		bhi	.L672
 5215              	.LVL647:
 5216              	.L803:
 5217              	.LBE443:
 5218              		.loc 1 875 0
 5219 003a FFF7FEFF 		bl	AsebaSendDescription
 5220              	.LVL648:
 5221              		.loc 1 876 0
 5222 003e F2E7     		b	.L672
 5223              	.LVL649:
 5224              	.L807:
 5225              		.loc 1 764 0
 5226 0040 A1F52041 		sub	r1, r1, #40960
 5227              	.LVL650:
 5228 0044 0139     		subs	r1, r1, #1
 5229              		.loc 1 761 0
 5230 0046 AA1C     		adds	r2, r5, #2
 5231              	.LVL651:
 5232              		.loc 1 764 0
 5233 0048 0F29     		cmp	r1, #15
 5234 004a ECD8     		bhi	.L672
 5235 004c DFE811F0 		tbh	[pc, r1, lsl #1]
 5236              	.L679:
 5237 0050 2E00     		.2byte	(.L678-.L679)/2
 5238 0052 4000     		.2byte	(.L680-.L679)/2
 5239 0054 8C00     		.2byte	(.L681-.L679)/2
 5240 0056 8400     		.2byte	(.L682-.L679)/2
 5241 0058 1A00     		.2byte	(.L683-.L679)/2
 5242 005a 7500     		.2byte	(.L684-.L679)/2
 5243 005c 2000     		.2byte	(.L703-.L679)/2
 5244 005e 3801     		.2byte	(.L686-.L679)/2
ARM GAS  C:\Users\mathi\AppData\Local\Temp\ccF8t5t9.s 			page 93


 5245 0060 B000     		.2byte	(.L687-.L679)/2
 5246 0062 AD00     		.2byte	(.L688-.L679)/2
 5247 0064 A700     		.2byte	(.L689-.L679)/2
 5248 0066 5801     		.2byte	(.L690-.L679)/2
 5249 0068 4E01     		.2byte	(.L691-.L679)/2
 5250 006a 7100     		.2byte	(.L692-.L679)/2
 5251 006c 6D00     		.2byte	(.L693-.L679)/2
 5252 006e A500     		.2byte	(.L694-.L679)/2
 5253              	.LVL652:
 5254              		.p2align 1
 5255              	.L806:
 5256              	.LBB444:
 5257              		.loc 1 748 0
 5258 0070 04AA     		add	r2, sp, #16
 5259 0072 0523     		movs	r3, #5
 5260              	.LVL653:
 5261 0074 22F80A3D 		strh	r3, [r2, #-10]!	@ movhi
 5262              		.loc 1 749 0
 5263 0078 49F20C01 		movw	r1, #36876
 5264              	.LVL654:
 5265 007c 0223     		movs	r3, #2
 5266 007e FFF7FEFF 		bl	AsebaSendMessage
 5267              	.LVL655:
 5268 0082 D0E7     		b	.L672
 5269              	.LVL656:
 5270              	.L683:
 5271              	.LBE444:
 5272              		.loc 1 803 0
 5273 0084 338B     		ldrh	r3, [r6, #24]
 5274              	.LVL657:
 5275 0086 DB07     		lsls	r3, r3, #31
 5276 0088 CDD5     		bpl	.L672
 5277              		.loc 1 805 0
 5278 008a 3046     		mov	r0, r6
 5279 008c FFF7FEFF 		bl	AsebaVMStep
 5280              	.LVL658:
 5281              	.L703:
 5282              	.LBB445:
 5283              	.LBB446:
 5284              		.loc 1 717 0
 5285 0090 738B     		ldrh	r3, [r6, #26]
 5286              		.loc 1 718 0
 5287 0092 358B     		ldrh	r5, [r6, #24]
 5288              		.loc 1 717 0
 5289 0094 ADF80830 		strh	r3, [sp, #8]	@ movhi
 5290              	.LVL659:
 5291              	.L804:
 5292              		.loc 1 719 0
 5293 0098 3046     		mov	r0, r6
 5294 009a 0423     		movs	r3, #4
 5295 009c 02AA     		add	r2, sp, #8
 5296 009e 49F20A01 		movw	r1, #36874
 5297              		.loc 1 718 0
 5298 00a2 ADF80A50 		strh	r5, [sp, #10]	@ movhi
 5299              		.loc 1 719 0
 5300 00a6 FFF7FEFF 		bl	AsebaSendMessage
 5301              	.LVL660:
ARM GAS  C:\Users\mathi\AppData\Local\Temp\ccF8t5t9.s 			page 94


 5302 00aa BCE7     		b	.L672
 5303              	.LVL661:
 5304              	.L678:
 5305              	.LBE446:
 5306              	.LBE445:
 5307              	.LBB447:
 5308              		.loc 1 775 0
 5309 00ac 022B     		cmp	r3, #2
 5310              		.loc 1 768 0
 5311 00ae 6988     		ldrh	r1, [r5, #2]
 5312              	.LVL662:
 5313              		.loc 1 775 0
 5314 00b0 0ED0     		beq	.L680
 5315 00b2 033B     		subs	r3, r3, #3
 5316              	.LVL663:
 5317 00b4 C5EB4101 		rsb	r1, r5, r1, lsl #1
 5318              	.LVL664:
 5319 00b8 9BB2     		uxth	r3, r3
 5320 00ba 0435     		adds	r5, r5, #4
 5321              	.LVL665:
 5322 00bc 8F1E     		subs	r7, r1, #2
 5323 00be 05EB4305 		add	r5, r5, r3, lsl #1
 5324              	.LVL666:
 5325              	.L696:
 5326              		.loc 1 776 0 discriminator 3
 5327 00c2 BB18     		adds	r3, r7, r2
 5328 00c4 32F8020F 		ldrh	r0, [r2, #2]!
 5329 00c8 7168     		ldr	r1, [r6, #4]
 5330              		.loc 1 775 0 discriminator 3
 5331 00ca 9542     		cmp	r5, r2
 5332              		.loc 1 776 0 discriminator 3
 5333 00cc C852     		strh	r0, [r1, r3]	@ movhi
 5334              		.loc 1 775 0 discriminator 3
 5335 00ce F8D1     		bne	.L696
 5336              	.LVL667:
 5337              	.L680:
 5338              	.LBE447:
 5339              	.LBB448:
 5340              	.LBB449:
 5341              		.loc 1 726 0
 5342 00d0 7588     		ldrh	r5, [r6, #2]
 5343              	.LBE449:
 5344              	.LBE448:
 5345              		.loc 1 781 0
 5346 00d2 0223     		movs	r3, #2
 5347 00d4 3383     		strh	r3, [r6, #24]	@ movhi
 5348              	.LVL668:
 5349              	.LBB454:
 5350              	.LBB452:
 5351              		.loc 1 726 0
 5352 00d6 5DB1     		cbz	r5, .L699
 5353 00d8 7068     		ldr	r0, [r6, #4]
 5354 00da 0023     		movs	r3, #0
 5355              	.LVL669:
 5356              	.L698:
 5357              	.LBB450:
 5358              		.loc 1 728 0
ARM GAS  C:\Users\mathi\AppData\Local\Temp\ccF8t5t9.s 			page 95


 5359 00dc 30F81320 		ldrh	r2, [r0, r3, lsl #1]
 5360              	.LVL670:
 5361              		.loc 1 729 0
 5362 00e0 110B     		lsrs	r1, r2, #12
 5363 00e2 0A29     		cmp	r1, #10
 5364 00e4 00F02181 		beq	.L809
 5365              	.LBE450:
 5366              		.loc 1 726 0
 5367 00e8 0133     		adds	r3, r3, #1
 5368              	.LVL671:
 5369 00ea 9BB2     		uxth	r3, r3
 5370              	.LVL672:
 5371 00ec AB42     		cmp	r3, r5
 5372 00ee F5D3     		bcc	.L698
 5373              	.LVL673:
 5374              	.L699:
 5375              	.LBE452:
 5376              	.LBE454:
 5377              		.loc 1 783 0
 5378 00f0 814B     		ldr	r3, .L811+4
 5379 00f2 13B1     		cbz	r3, .L702
 5380              		.loc 1 784 0
 5381 00f4 3046     		mov	r0, r6
 5382 00f6 FFF7FEFF 		bl	AsebaVMResetCB
 5383              	.LVL674:
 5384              	.L702:
 5385              	.LBB455:
 5386              	.LBB456:
 5387              	.LBB457:
 5388              	.LBB458:
 5389              		.loc 1 57 0
 5390 00fa 7568     		ldr	r5, [r6, #4]
 5391 00fc 2F88     		ldrh	r7, [r5]
 5392              	.LVL675:
 5393              		.loc 1 61 0
 5394 00fe 012F     		cmp	r7, #1
 5395 0100 C6D9     		bls	.L703
 5396              		.loc 1 62 0
 5397 0102 6B88     		ldrh	r3, [r5, #2]
 5398 0104 4FF6FF70 		movw	r0, #65535
 5399 0108 8342     		cmp	r3, r0
 5400 010a 00F01A81 		beq	.L715
 5401 010e 0323     		movs	r3, #3
 5402 0110 07E0     		b	.L705
 5403              	.LVL676:
 5404              	.L707:
 5405 0112 35F81320 		ldrh	r2, [r5, r3, lsl #1]
 5406 0116 8242     		cmp	r2, r0
 5407 0118 03F10201 		add	r1, r3, #2
 5408 011c 00F01281 		beq	.L704
 5409 0120 0B46     		mov	r3, r1
 5410              	.LVL677:
 5411              	.L705:
 5412              		.loc 1 61 0
 5413 0122 9AB2     		uxth	r2, r3
 5414 0124 9742     		cmp	r7, r2
 5415 0126 F4D8     		bhi	.L707
ARM GAS  C:\Users\mathi\AppData\Local\Temp\ccF8t5t9.s 			page 96


 5416 0128 B2E7     		b	.L703
 5417              	.LVL678:
 5418              	.L693:
 5419              	.LBE458:
 5420              	.LBE457:
 5421              	.LBE456:
 5422              	.LBE455:
 5423              		.loc 1 871 0
 5424 012a 3046     		mov	r0, r6
 5425 012c FFF7FEFF 		bl	AsebaPutVmToSleep
 5426              	.LVL679:
 5427              		.loc 1 872 0
 5428 0130 79E7     		b	.L672
 5429              	.LVL680:
 5430              	.L692:
 5431              		.loc 1 867 0
 5432 0132 3046     		mov	r0, r6
 5433 0134 FFF7FEFF 		bl	AsebaResetIntoBootloader
 5434              	.LVL681:
 5435              		.loc 1 868 0
 5436 0138 75E7     		b	.L672
 5437              	.LVL682:
 5438              	.L684:
 5439              		.loc 1 811 0
 5440 013a 0223     		movs	r3, #2
 5441              	.LVL683:
 5442 013c 3383     		strh	r3, [r6, #24]	@ movhi
 5443              	.LVL684:
 5444              	.LBB465:
 5445              	.LBB466:
 5446              		.loc 1 717 0
 5447 013e 758B     		ldrh	r5, [r6, #26]
 5448              		.loc 1 718 0
 5449 0140 ADF80A30 		strh	r3, [sp, #10]	@ movhi
 5450              		.loc 1 719 0
 5451 0144 3046     		mov	r0, r6
 5452 0146 0423     		movs	r3, #4
 5453 0148 02AA     		add	r2, sp, #8
 5454              	.LVL685:
 5455 014a 49F20A01 		movw	r1, #36874
 5456              		.loc 1 717 0
 5457 014e ADF80850 		strh	r5, [sp, #8]	@ movhi
 5458              		.loc 1 719 0
 5459 0152 FFF7FEFF 		bl	AsebaSendMessage
 5460              	.LVL686:
 5461 0156 66E7     		b	.L672
 5462              	.LVL687:
 5463              	.L682:
 5464              	.LBE466:
 5465              	.LBE465:
 5466              		.loc 1 798 0
 5467 0158 358B     		ldrh	r5, [r6, #24]
 5468              	.LBB467:
 5469              	.LBB468:
 5470              		.loc 1 717 0
 5471 015a 738B     		ldrh	r3, [r6, #26]
 5472              	.LVL688:
ARM GAS  C:\Users\mathi\AppData\Local\Temp\ccF8t5t9.s 			page 97


 5473 015c ADF80830 		strh	r3, [sp, #8]	@ movhi
 5474              	.LBE468:
 5475              	.LBE467:
 5476              		.loc 1 798 0
 5477 0160 45F00205 		orr	r5, r5, #2
 5478 0164 3583     		strh	r5, [r6, #24]	@ movhi
 5479              	.LVL689:
 5480 0166 97E7     		b	.L804
 5481              	.LVL690:
 5482              	.L681:
 5483              		.loc 1 791 0
 5484 0168 358B     		ldrh	r5, [r6, #24]
 5485              	.LBB469:
 5486              	.LBB470:
 5487              		.loc 1 717 0
 5488 016a 738B     		ldrh	r3, [r6, #26]
 5489              	.LVL691:
 5490 016c ADF80830 		strh	r3, [sp, #8]	@ movhi
 5491              	.LBE470:
 5492              	.LBE469:
 5493              		.loc 1 791 0
 5494 0170 25F00205 		bic	r5, r5, #2
 5495 0174 ADB2     		uxth	r5, r5
 5496              	.LBB473:
 5497              	.LBB471:
 5498              		.loc 1 719 0
 5499 0176 0423     		movs	r3, #4
 5500              	.LBE471:
 5501              	.LBE473:
 5502              		.loc 1 791 0
 5503 0178 3583     		strh	r5, [r6, #24]	@ movhi
 5504              	.LVL692:
 5505              	.LBB474:
 5506              	.LBB472:
 5507              		.loc 1 719 0
 5508 017a 02AA     		add	r2, sp, #8
 5509              	.LVL693:
 5510 017c 49F20A01 		movw	r1, #36874
 5511 0180 3046     		mov	r0, r6
 5512              		.loc 1 718 0
 5513 0182 ADF80A50 		strh	r5, [sp, #10]	@ movhi
 5514              		.loc 1 719 0
 5515 0186 FFF7FEFF 		bl	AsebaSendMessage
 5516              	.LVL694:
 5517              	.LBE472:
 5518              	.LBE474:
 5519              		.loc 1 793 0
 5520 018a 5C4B     		ldr	r3, .L811+8
 5521 018c 002B     		cmp	r3, #0
 5522 018e 3FF44AAF 		beq	.L672
 5523              		.loc 1 794 0
 5524 0192 3046     		mov	r0, r6
 5525 0194 FFF7FEFF 		bl	AsebaVMRunCB
 5526              	.LVL695:
 5527 0198 45E7     		b	.L672
 5528              	.LVL696:
 5529              	.L694:
ARM GAS  C:\Users\mathi\AppData\Local\Temp\ccF8t5t9.s 			page 98


 5530              		.loc 1 875 0
 5531 019a 3046     		mov	r0, r6
 5532 019c 4DE7     		b	.L803
 5533              	.L689:
 5534              	.LVL697:
 5535              	.LBB475:
 5536              		.loc 1 844 0
 5537 019e 3046     		mov	r0, r6
 5538 01a0 AA88     		ldrh	r2, [r5, #4]
 5539              	.LVL698:
 5540 01a2 6988     		ldrh	r1, [r5, #2]
 5541 01a4 FFF7FEFF 		bl	AsebaSendVariables
 5542              	.LVL699:
 5543              	.LBE475:
 5544              		.loc 1 846 0
 5545 01a8 3DE7     		b	.L672
 5546              	.LVL700:
 5547              	.L688:
 5548              	.LBB476:
 5549              	.LBB477:
 5550              		.loc 1 710 0
 5551 01aa 0023     		movs	r3, #0
 5552              	.LVL701:
 5553 01ac F387     		strh	r3, [r6, #62]	@ movhi
 5554 01ae 3AE7     		b	.L672
 5555              	.LVL702:
 5556              	.L687:
 5557              	.LBE477:
 5558              	.LBE476:
 5559              	.LBB478:
 5560              	.LBB479:
 5561              		.loc 1 692 0
 5562 01b0 F38F     		ldrh	r3, [r6, #62]
 5563              	.LVL703:
 5564              	.LBE479:
 5565              	.LBE478:
 5566              		.loc 1 829 0
 5567 01b2 6A88     		ldrh	r2, [r5, #2]
 5568              	.LVL704:
 5569              	.LBB483:
 5570              	.LBB481:
 5571              		.loc 1 692 0
 5572 01b4 002B     		cmp	r3, #0
 5573 01b6 3FF436AF 		beq	.L672
 5574              		.loc 1 694 0
 5575 01ba F18B     		ldrh	r1, [r6, #30]
 5576 01bc 9142     		cmp	r1, r2
 5577              		.loc 1 692 0
 5578 01be 08BF     		it	eq
 5579 01c0 0022     		moveq	r2, #0
 5580              	.LVL705:
 5581              		.loc 1 694 0
 5582 01c2 69D0     		beq	.L711
 5583              	.LVL706:
 5584              		.loc 1 692 0
 5585 01c4 012B     		cmp	r3, #1
 5586 01c6 7FF62EAF 		bls	.L672
ARM GAS  C:\Users\mathi\AppData\Local\Temp\ccF8t5t9.s 			page 99


 5587              		.loc 1 694 0
 5588 01ca 318C     		ldrh	r1, [r6, #32]
 5589 01cc 9142     		cmp	r1, r2
 5590 01ce 00F0E680 		beq	.L718
 5591              	.LVL707:
 5592              		.loc 1 692 0
 5593 01d2 022B     		cmp	r3, #2
 5594 01d4 3FF427AF 		beq	.L672
 5595              		.loc 1 694 0
 5596 01d8 718C     		ldrh	r1, [r6, #34]
 5597 01da 9142     		cmp	r1, r2
 5598 01dc 00F0E180 		beq	.L719
 5599              	.LVL708:
 5600              		.loc 1 692 0
 5601 01e0 032B     		cmp	r3, #3
 5602 01e2 3FF420AF 		beq	.L672
 5603              		.loc 1 694 0
 5604 01e6 B18C     		ldrh	r1, [r6, #36]
 5605 01e8 9142     		cmp	r1, r2
 5606 01ea 00F0DC80 		beq	.L720
 5607              	.LVL709:
 5608              		.loc 1 692 0
 5609 01ee 042B     		cmp	r3, #4
 5610 01f0 3FF419AF 		beq	.L672
 5611              		.loc 1 694 0
 5612 01f4 F18C     		ldrh	r1, [r6, #38]
 5613 01f6 9142     		cmp	r1, r2
 5614 01f8 00F0D780 		beq	.L721
 5615              	.LVL710:
 5616              		.loc 1 692 0
 5617 01fc 052B     		cmp	r3, #5
 5618 01fe 3FF412AF 		beq	.L672
 5619              		.loc 1 694 0
 5620 0202 318D     		ldrh	r1, [r6, #40]
 5621 0204 9142     		cmp	r1, r2
 5622 0206 00F0D680 		beq	.L722
 5623              	.LVL711:
 5624              		.loc 1 692 0
 5625 020a 062B     		cmp	r3, #6
 5626 020c 3FF40BAF 		beq	.L672
 5627              		.loc 1 694 0
 5628 0210 718D     		ldrh	r1, [r6, #42]
 5629 0212 9142     		cmp	r1, r2
 5630 0214 00F0CD80 		beq	.L723
 5631              	.LVL712:
 5632              		.loc 1 692 0
 5633 0218 072B     		cmp	r3, #7
 5634 021a 3FF404AF 		beq	.L672
 5635              		.loc 1 694 0
 5636 021e B18D     		ldrh	r1, [r6, #44]
 5637 0220 9142     		cmp	r1, r2
 5638 0222 00F0C480 		beq	.L724
 5639              	.LVL713:
 5640              		.loc 1 692 0
 5641 0226 082B     		cmp	r3, #8
 5642 0228 3FF4FDAE 		beq	.L672
 5643              		.loc 1 694 0
ARM GAS  C:\Users\mathi\AppData\Local\Temp\ccF8t5t9.s 			page 100


 5644 022c F18D     		ldrh	r1, [r6, #46]
 5645 022e 9142     		cmp	r1, r2
 5646 0230 00F0C380 		beq	.L725
 5647              	.LVL714:
 5648              		.loc 1 692 0
 5649 0234 092B     		cmp	r3, #9
 5650 0236 3FF4F6AE 		beq	.L672
 5651              		.loc 1 694 0
 5652 023a 318E     		ldrh	r1, [r6, #48]
 5653 023c 9142     		cmp	r1, r2
 5654 023e 00F0C880 		beq	.L726
 5655              	.LVL715:
 5656              		.loc 1 692 0
 5657 0242 0A2B     		cmp	r3, #10
 5658 0244 3FF4EFAE 		beq	.L672
 5659              		.loc 1 694 0
 5660 0248 718E     		ldrh	r1, [r6, #50]
 5661 024a 9142     		cmp	r1, r2
 5662 024c 00F0BF80 		beq	.L727
 5663              	.LVL716:
 5664              		.loc 1 692 0
 5665 0250 0B2B     		cmp	r3, #11
 5666 0252 3FF4E8AE 		beq	.L672
 5667              		.loc 1 694 0
 5668 0256 B18E     		ldrh	r1, [r6, #52]
 5669 0258 9142     		cmp	r1, r2
 5670 025a 00F0B680 		beq	.L728
 5671              	.LVL717:
 5672              		.loc 1 692 0
 5673 025e 0C2B     		cmp	r3, #12
 5674 0260 3FF4E1AE 		beq	.L672
 5675              		.loc 1 694 0
 5676 0264 F18E     		ldrh	r1, [r6, #54]
 5677 0266 9142     		cmp	r1, r2
 5678 0268 00F0AD80 		beq	.L729
 5679              	.LVL718:
 5680              		.loc 1 692 0
 5681 026c 0D2B     		cmp	r3, #13
 5682 026e 3FF4DAAE 		beq	.L672
 5683              		.loc 1 694 0
 5684 0272 318F     		ldrh	r1, [r6, #56]
 5685 0274 9142     		cmp	r1, r2
 5686 0276 00F0A480 		beq	.L730
 5687              	.LVL719:
 5688              		.loc 1 692 0
 5689 027a 0E2B     		cmp	r3, #14
 5690 027c 3FF4D3AE 		beq	.L672
 5691              		.loc 1 694 0
 5692 0280 718F     		ldrh	r1, [r6, #58]
 5693 0282 9142     		cmp	r1, r2
 5694 0284 00F09B80 		beq	.L731
 5695              	.LVL720:
 5696              		.loc 1 692 0
 5697 0288 0F2B     		cmp	r3, #15
 5698 028a 3FF4CCAE 		beq	.L672
 5699              		.loc 1 694 0
 5700 028e B18F     		ldrh	r1, [r6, #60]
ARM GAS  C:\Users\mathi\AppData\Local\Temp\ccF8t5t9.s 			page 101


 5701 0290 9142     		cmp	r1, r2
 5702 0292 7FF4C8AE 		bne	.L672
 5703              		.loc 1 692 0
 5704 0296 0F22     		movs	r2, #15
 5705              	.LVL721:
 5706              	.L711:
 5707              	.LBB480:
 5708              		.loc 1 698 0
 5709 0298 591E     		subs	r1, r3, #1
 5710 029a 89B2     		uxth	r1, r1
 5711              		.loc 1 699 0
 5712 029c 9142     		cmp	r1, r2
 5713              		.loc 1 698 0
 5714 029e F187     		strh	r1, [r6, #62]	@ movhi
 5715              	.LVL722:
 5716              		.loc 1 699 0
 5717 02a0 7FF6C1AE 		bls	.L672
 5718              		.loc 1 700 0
 5719 02a4 991E     		subs	r1, r3, #2
 5720 02a6 891A     		subs	r1, r1, r2
 5721 02a8 5300     		lsls	r3, r2, #1
 5722 02aa 89B2     		uxth	r1, r1
 5723 02ac 4A1C     		adds	r2, r1, #1
 5724              	.LVL723:
 5725 02ae 03F12001 		add	r1, r3, #32
 5726 02b2 1E33     		adds	r3, r3, #30
 5727 02b4 5200     		lsls	r2, r2, #1
 5728 02b6 3144     		add	r1, r1, r6
 5729 02b8 F018     		adds	r0, r6, r3
 5730 02ba FFF7FEFF 		bl	memmove
 5731              	.LVL724:
 5732 02be B2E6     		b	.L672
 5733              	.LVL725:
 5734              	.L686:
 5735              	.LBE480:
 5736              	.LBE481:
 5737              	.LBE483:
 5738              	.LBB484:
 5739              	.LBB485:
 5740              	.LBB486:
 5741              		.loc 1 679 0 discriminator 8
 5742 02c0 F38F     		ldrh	r3, [r6, #62]
 5743              	.LVL726:
 5744              	.LBE486:
 5745              	.LBE485:
 5746              		.loc 1 822 0 discriminator 8
 5747 02c2 6A88     		ldrh	r2, [r5, #2]
 5748              	.LVL727:
 5749 02c4 ADF80820 		strh	r2, [sp, #8]	@ movhi
 5750              	.LVL728:
 5751              	.LBB489:
 5752              	.LBB487:
 5753              		.loc 1 679 0 discriminator 8
 5754 02c8 0F2B     		cmp	r3, #15
 5755 02ca 5AD8     		bhi	.L717
 5756              		.loc 1 681 0
 5757 02cc 06EB4301 		add	r1, r6, r3, lsl #1
ARM GAS  C:\Users\mathi\AppData\Local\Temp\ccF8t5t9.s 			page 102


 5758 02d0 0133     		adds	r3, r3, #1
 5759 02d2 F387     		strh	r3, [r6, #62]	@ movhi
 5760 02d4 0125     		movs	r5, #1
 5761              	.LVL729:
 5762 02d6 CA83     		strh	r2, [r1, #30]	@ movhi
 5763              	.L709:
 5764              	.LVL730:
 5765              	.LBE487:
 5766              	.LBE489:
 5767              		.loc 1 824 0
 5768 02d8 3046     		mov	r0, r6
 5769 02da 0423     		movs	r3, #4
 5770 02dc 02AA     		add	r2, sp, #8
 5771 02de 49F20B01 		movw	r1, #36875
 5772              		.loc 1 823 0
 5773 02e2 ADF80A50 		strh	r5, [sp, #10]	@ movhi
 5774              		.loc 1 824 0
 5775 02e6 FFF7FEFF 		bl	AsebaSendMessage
 5776              	.LVL731:
 5777              	.LBE484:
 5778              		.loc 1 826 0
 5779 02ea 9CE6     		b	.L672
 5780              	.LVL732:
 5781              	.L691:
 5782              		.loc 1 863 0
 5783 02ec 3046     		mov	r0, r6
 5784 02ee FFF7FEFF 		bl	AsebaWriteBytecode
 5785              	.LVL733:
 5786              		.loc 1 864 0
 5787 02f2 98E6     		b	.L672
 5788              	.L812:
 5789              		.align	2
 5790              	.L811:
 5791 02f4 00000000 		.word	__stack_chk_guard
 5792 02f8 00000000 		.word	AsebaVMResetCB
 5793 02fc 00000000 		.word	AsebaVMRunCB
 5794              	.LVL734:
 5795              	.L690:
 5796              	.LBB491:
 5797              		.loc 1 857 0
 5798 0300 022B     		cmp	r3, #2
 5799              		.loc 1 850 0
 5800 0302 6988     		ldrh	r1, [r5, #2]
 5801              	.LVL735:
 5802              		.loc 1 857 0
 5803 0304 3FF48FAE 		beq	.L672
 5804 0308 033B     		subs	r3, r3, #3
 5805              	.LVL736:
 5806 030a 281D     		adds	r0, r5, #4
 5807 030c 9BB2     		uxth	r3, r3
 5808 030e C5EB4105 		rsb	r5, r5, r1, lsl #1
 5809 0312 00EB4300 		add	r0, r0, r3, lsl #1
 5810              	.LVL737:
 5811              	.L712:
 5812              		.loc 1 858 0 discriminator 3
 5813 0316 F368     		ldr	r3, [r6, #12]
 5814 0318 5188     		ldrh	r1, [r2, #2]
ARM GAS  C:\Users\mathi\AppData\Local\Temp\ccF8t5t9.s 			page 103


 5815 031a 1344     		add	r3, r3, r2
 5816 031c 2B44     		add	r3, r3, r5
 5817 031e 0232     		adds	r2, r2, #2
 5818              		.loc 1 857 0 discriminator 3
 5819 0320 8242     		cmp	r2, r0
 5820              		.loc 1 858 0 discriminator 3
 5821 0322 23F8021C 		strh	r1, [r3, #-2]	@ movhi
 5822              		.loc 1 857 0 discriminator 3
 5823 0326 F6D1     		bne	.L712
 5824 0328 7DE6     		b	.L672
 5825              	.LVL738:
 5826              	.L809:
 5827              	.LBE491:
 5828              	.LBB492:
 5829              	.LBB453:
 5830              	.LBB451:
 5831              		.loc 1 730 0
 5832 032a 22F40072 		bic	r2, r2, #512
 5833              	.LVL739:
 5834 032e 20F81320 		strh	r2, [r0, r3, lsl #1]	@ movhi
 5835              	.LVL740:
 5836              	.LBE451:
 5837              		.loc 1 726 0
 5838 0332 0133     		adds	r3, r3, #1
 5839              	.LVL741:
 5840 0334 7588     		ldrh	r5, [r6, #2]
 5841 0336 9BB2     		uxth	r3, r3
 5842              	.LVL742:
 5843 0338 9D42     		cmp	r5, r3
 5844 033a 7FF6D9AE 		bls	.L699
 5845 033e 7068     		ldr	r0, [r6, #4]
 5846 0340 CCE6     		b	.L698
 5847              	.LVL743:
 5848              	.L715:
 5849              	.LBE453:
 5850              	.LBE492:
 5851              	.LBB493:
 5852              	.LBB463:
 5853              	.LBB460:
 5854              	.LBB459:
 5855              		.loc 1 62 0
 5856 0342 0123     		movs	r3, #1
 5857              	.LVL744:
 5858              	.L704:
 5859              		.loc 1 63 0
 5860 0344 0133     		adds	r3, r3, #1
 5861 0346 328B     		ldrh	r2, [r6, #24]
 5862 0348 35F81350 		ldrh	r5, [r5, r3, lsl #1]
 5863              	.LVL745:
 5864              	.LBE459:
 5865              	.LBE460:
 5866              		.loc 1 71 0
 5867 034c 002D     		cmp	r5, #0
 5868 034e 3FF49FAE 		beq	.L703
 5869              		.loc 1 74 0
 5870 0352 D107     		lsls	r1, r2, #31
 5871 0354 17D4     		bmi	.L810
ARM GAS  C:\Users\mathi\AppData\Local\Temp\ccF8t5t9.s 			page 104


 5872              	.L708:
 5873              		.loc 1 81 0
 5874 0356 42F00107 		orr	r7, r2, #1
 5875              		.loc 1 80 0
 5876 035a 4FF6FF73 		movw	r3, #65535
 5877              		.loc 1 84 0
 5878 035e 9207     		lsls	r2, r2, #30
 5879              		.loc 1 79 0
 5880 0360 7583     		strh	r5, [r6, #26]	@ movhi
 5881              		.loc 1 80 0
 5882 0362 B383     		strh	r3, [r6, #28]	@ movhi
 5883              		.loc 1 81 0
 5884 0364 3783     		strh	r7, [r6, #24]	@ movhi
 5885              		.loc 1 84 0
 5886 0366 7FF55EAE 		bpl	.L672
 5887              	.LVL746:
 5888              	.LBB461:
 5889              	.LBB462:
 5890              		.loc 1 719 0
 5891 036a 3046     		mov	r0, r6
 5892 036c 0423     		movs	r3, #4
 5893 036e 02AA     		add	r2, sp, #8
 5894 0370 49F20A01 		movw	r1, #36874
 5895              		.loc 1 717 0
 5896 0374 ADF80850 		strh	r5, [sp, #8]	@ movhi
 5897              		.loc 1 718 0
 5898 0378 ADF80A70 		strh	r7, [sp, #10]	@ movhi
 5899              		.loc 1 719 0
 5900 037c FFF7FEFF 		bl	AsebaSendMessage
 5901              	.LVL747:
 5902 0380 51E6     		b	.L672
 5903              	.LVL748:
 5904              	.L717:
 5905              	.LBE462:
 5906              	.LBE461:
 5907              	.LBE463:
 5908              	.LBE493:
 5909              	.LBB494:
 5910              	.LBB490:
 5911              	.LBB488:
 5912              		.loc 1 679 0
 5913 0382 0025     		movs	r5, #0
 5914              	.LVL749:
 5915 0384 A8E7     		b	.L709
 5916              	.LVL750:
 5917              	.L810:
 5918              	.LBE488:
 5919              	.LBE490:
 5920              	.LBE494:
 5921              	.LBB495:
 5922              	.LBB464:
 5923              		.loc 1 76 0
 5924 0386 06F11A02 		add	r2, r6, #26
 5925 038a 0223     		movs	r3, #2
 5926 038c 49F20801 		movw	r1, #36872
 5927 0390 3046     		mov	r0, r6
 5928 0392 FFF7FEFF 		bl	AsebaSendMessage
ARM GAS  C:\Users\mathi\AppData\Local\Temp\ccF8t5t9.s 			page 105


 5929              	.LVL751:
 5930 0396 328B     		ldrh	r2, [r6, #24]
 5931 0398 DDE7     		b	.L708
 5932              	.LVL752:
 5933              	.L808:
 5934              	.LBE464:
 5935              	.LBE495:
 5936              		.loc 1 881 0
 5937 039a FFF7FEFF 		bl	__stack_chk_fail
 5938              	.LVL753:
 5939              	.L718:
 5940              	.LBB496:
 5941              	.LBB482:
 5942              		.loc 1 692 0
 5943 039e 0122     		movs	r2, #1
 5944 03a0 7AE7     		b	.L711
 5945              	.LVL754:
 5946              	.L719:
 5947 03a2 0222     		movs	r2, #2
 5948 03a4 78E7     		b	.L711
 5949              	.LVL755:
 5950              	.L720:
 5951 03a6 0322     		movs	r2, #3
 5952 03a8 76E7     		b	.L711
 5953              	.LVL756:
 5954              	.L721:
 5955 03aa 0422     		movs	r2, #4
 5956 03ac 74E7     		b	.L711
 5957              	.LVL757:
 5958              	.L724:
 5959 03ae 0722     		movs	r2, #7
 5960 03b0 72E7     		b	.L711
 5961              	.LVL758:
 5962              	.L723:
 5963 03b2 0622     		movs	r2, #6
 5964 03b4 70E7     		b	.L711
 5965              	.LVL759:
 5966              	.L722:
 5967 03b6 0522     		movs	r2, #5
 5968 03b8 6EE7     		b	.L711
 5969              	.LVL760:
 5970              	.L725:
 5971 03ba 0822     		movs	r2, #8
 5972 03bc 6CE7     		b	.L711
 5973              	.LVL761:
 5974              	.L731:
 5975 03be 0E22     		movs	r2, #14
 5976 03c0 6AE7     		b	.L711
 5977              	.LVL762:
 5978              	.L730:
 5979 03c2 0D22     		movs	r2, #13
 5980 03c4 68E7     		b	.L711
 5981              	.LVL763:
 5982              	.L729:
 5983 03c6 0C22     		movs	r2, #12
 5984 03c8 66E7     		b	.L711
 5985              	.LVL764:
ARM GAS  C:\Users\mathi\AppData\Local\Temp\ccF8t5t9.s 			page 106


 5986              	.L728:
 5987 03ca 0B22     		movs	r2, #11
 5988 03cc 64E7     		b	.L711
 5989              	.LVL765:
 5990              	.L727:
 5991 03ce 0A22     		movs	r2, #10
 5992 03d0 62E7     		b	.L711
 5993              	.LVL766:
 5994              	.L726:
 5995 03d2 0922     		movs	r2, #9
 5996 03d4 60E7     		b	.L711
 5997              	.LBE482:
 5998              	.LBE496:
 5999              		.cfi_endproc
 6000              	.LFE16:
 6001              		.size	AsebaVMDebugMessage, .-AsebaVMDebugMessage
 6002 03d6 00BF     		.section	.text.AsebaVMShouldDropPacket,"ax",%progbits
 6003              		.align	1
 6004              		.p2align 4,,15
 6005              		.global	AsebaVMShouldDropPacket
 6006              		.syntax unified
 6007              		.thumb
 6008              		.thumb_func
 6009              		.fpu fpv4-sp-d16
 6010              		.type	AsebaVMShouldDropPacket, %function
 6011              	AsebaVMShouldDropPacket:
 6012              	.LFB17:
 6013              		.loc 1 884 0
 6014              		.cfi_startproc
 6015              		@ args = 0, pretend = 0, frame = 8
 6016              		@ frame_needed = 0, uses_anonymous_args = 0
 6017              	.LVL767:
 6018 0000 70B5     		push	{r4, r5, r6, lr}
 6019              		.cfi_def_cfa_offset 16
 6020              		.cfi_offset 4, -16
 6021              		.cfi_offset 5, -12
 6022              		.cfi_offset 6, -8
 6023              		.cfi_offset 14, -4
 6024 0002 1E4E     		ldr	r6, .L830
 6025              		.loc 1 886 0
 6026 0004 1488     		ldrh	r4, [r2]
 6027              	.LVL768:
 6028              		.loc 1 884 0
 6029 0006 3368     		ldr	r3, [r6]
 6030 0008 82B0     		sub	sp, sp, #8
 6031              		.cfi_def_cfa_offset 24
 6032              		.loc 1 884 0
 6033 000a 0193     		str	r3, [sp, #4]
 6034              		.loc 1 887 0
 6035 000c 2304     		lsls	r3, r4, #16
 6036 000e 19D4     		bmi	.L814
 6037              	.LVL769:
 6038              	.LBB497:
 6039              	.LBB498:
 6040              		.loc 1 57 0
 6041 0010 4068     		ldr	r0, [r0, #4]
 6042              	.LVL770:
ARM GAS  C:\Users\mathi\AppData\Local\Temp\ccF8t5t9.s 			page 107


 6043 0012 0588     		ldrh	r5, [r0]
 6044              	.LVL771:
 6045              		.loc 1 61 0
 6046 0014 012D     		cmp	r5, #1
 6047 0016 0ED9     		bls	.L824
 6048              		.loc 1 62 0
 6049 0018 4388     		ldrh	r3, [r0, #2]
 6050 001a A342     		cmp	r3, r4
 6051 001c 29D0     		beq	.L822
 6052 001e 0323     		movs	r3, #3
 6053 0020 06E0     		b	.L817
 6054              	.LVL772:
 6055              	.L818:
 6056 0022 30F81320 		ldrh	r2, [r0, r3, lsl #1]
 6057 0026 A242     		cmp	r2, r4
 6058 0028 03F10201 		add	r1, r3, #2
 6059 002c 18D0     		beq	.L828
 6060 002e 0B46     		mov	r3, r1
 6061              	.LVL773:
 6062              	.L817:
 6063              		.loc 1 61 0
 6064 0030 9AB2     		uxth	r2, r3
 6065 0032 9542     		cmp	r5, r2
 6066 0034 F5D8     		bhi	.L818
 6067              	.LVL774:
 6068              	.L824:
 6069              	.LBE498:
 6070              	.LBE497:
 6071              		.loc 1 903 0
 6072 0036 0120     		movs	r0, #1
 6073              	.L819:
 6074              		.loc 1 904 0
 6075 0038 019A     		ldr	r2, [sp, #4]
 6076 003a 3368     		ldr	r3, [r6]
 6077 003c 9A42     		cmp	r2, r3
 6078 003e 1AD1     		bne	.L829
 6079 0040 02B0     		add	sp, sp, #8
 6080              		.cfi_remember_state
 6081              		.cfi_def_cfa_offset 16
 6082              		@ sp needed
 6083 0042 70BD     		pop	{r4, r5, r6, pc}
 6084              	.LVL775:
 6085              	.L814:
 6086              		.cfi_restore_state
 6087              		.loc 1 892 0
 6088 0044 B4F5204F 		cmp	r4, #40960
 6089 0048 F5D3     		bcc	.L824
 6090              	.LVL776:
 6091              	.LBB500:
 6092              		.loc 1 896 0
 6093 004a 10D0     		beq	.L826
 6094              		.loc 1 896 0 is_stmt 0 discriminator 1
 6095 004c 4AF21103 		movw	r3, #40977
 6096 0050 9C42     		cmp	r4, r3
 6097 0052 0CD0     		beq	.L826
 6098              		.loc 1 901 0 is_stmt 1
 6099 0054 0088     		ldrh	r0, [r0]
ARM GAS  C:\Users\mathi\AppData\Local\Temp\ccF8t5t9.s 			page 108


 6100              	.LVL777:
 6101 0056 5388     		ldrh	r3, [r2, #2]
 6102 0058 C01A     		subs	r0, r0, r3
 6103 005a 18BF     		it	ne
 6104 005c 0120     		movne	r0, #1
 6105 005e EBE7     		b	.L819
 6106              	.LVL778:
 6107              	.L828:
 6108 0060 0133     		adds	r3, r3, #1
 6109              	.LVL779:
 6110 0062 5B00     		lsls	r3, r3, #1
 6111              	.L816:
 6112 0064 C05A     		ldrh	r0, [r0, r3]
 6113 0066 B0FA80F0 		clz	r0, r0
 6114 006a 4009     		lsrs	r0, r0, #5
 6115 006c E4E7     		b	.L819
 6116              	.LVL780:
 6117              	.L826:
 6118              		.loc 1 898 0
 6119 006e 0020     		movs	r0, #0
 6120              	.LVL781:
 6121 0070 E2E7     		b	.L819
 6122              	.LVL782:
 6123              	.L822:
 6124              	.LBE500:
 6125              	.LBB501:
 6126              	.LBB499:
 6127              		.loc 1 62 0
 6128 0072 0423     		movs	r3, #4
 6129 0074 F6E7     		b	.L816
 6130              	.LVL783:
 6131              	.L829:
 6132              	.LBE499:
 6133              	.LBE501:
 6134              		.loc 1 904 0
 6135 0076 FFF7FEFF 		bl	__stack_chk_fail
 6136              	.LVL784:
 6137              	.L831:
 6138 007a 00BF     		.align	2
 6139              	.L830:
 6140 007c 00000000 		.word	__stack_chk_guard
 6141              		.cfi_endproc
 6142              	.LFE17:
 6143              		.size	AsebaVMShouldDropPacket, .-AsebaVMShouldDropPacket
 6144              		.weak	AsebaVMRunCB
 6145              		.weak	AsebaVMResetCB
 6146              		.weak	AsebaVMErrorCB
 6147              		.text
 6148              	.Letext0:
 6149              		.file 2 "../../lib/e-puck2_main-processor/aseba/vm/../common/consts.h"
 6150              		.file 3 "c:\\eclipse_e-puck2\\tools\\gcc-arm-none-eabi-7-2017-q4-major-win32\\arm-none-eabi\\inclu
 6151              		.file 4 "c:\\eclipse_e-puck2\\tools\\gcc-arm-none-eabi-7-2017-q4-major-win32\\arm-none-eabi\\inclu
 6152              		.file 5 "c:\\eclipse_e-puck2\\tools\\gcc-arm-none-eabi-7-2017-q4-major-win32\\lib\\gcc\\arm-none-e
 6153              		.file 6 "c:\\eclipse_e-puck2\\tools\\gcc-arm-none-eabi-7-2017-q4-major-win32\\arm-none-eabi\\inclu
 6154              		.file 7 "c:\\eclipse_e-puck2\\tools\\gcc-arm-none-eabi-7-2017-q4-major-win32\\arm-none-eabi\\inclu
 6155              		.file 8 "../../lib/e-puck2_main-processor/aseba/vm/../common/types.h"
 6156              		.file 9 "../../lib/e-puck2_main-processor/aseba/vm/vm.h"
ARM GAS  C:\Users\mathi\AppData\Local\Temp\ccF8t5t9.s 			page 109


 6157              		.file 10 "c:\\eclipse_e-puck2\\tools\\gcc-arm-none-eabi-7-2017-q4-major-win32\\arm-none-eabi\\incl
 6158              		.file 11 "<built-in>"
 6159              		.section	.debug_info,"",%progbits
 6160              	.Ldebug_info0:
 6161 0000 F1270000 		.4byte	0x27f1
 6162 0004 0400     		.2byte	0x4
 6163 0006 00000000 		.4byte	.Ldebug_abbrev0
 6164 000a 04       		.byte	0x4
 6165 000b 01       		.uleb128 0x1
 6166 000c 740A0000 		.4byte	.LASF275
 6167 0010 0C       		.byte	0xc
 6168 0011 D80F0000 		.4byte	.LASF276
 6169 0015 45060000 		.4byte	.LASF277
 6170 0019 20060000 		.4byte	.Ldebug_ranges0+0x620
 6171 001d 00000000 		.4byte	0
 6172 0021 00000000 		.4byte	.Ldebug_line0
 6173 0025 02       		.uleb128 0x2
 6174 0026 07       		.byte	0x7
 6175 0027 01       		.byte	0x1
 6176 0028 8D000000 		.4byte	0x8d
 6177 002c 02       		.byte	0x2
 6178 002d 38       		.byte	0x38
 6179 002e 8D000000 		.4byte	0x8d
 6180 0032 03       		.uleb128 0x3
 6181 0033 1B0E0000 		.4byte	.LASF0
 6182 0037 00       		.byte	0
 6183 0038 03       		.uleb128 0x3
 6184 0039 E4020000 		.4byte	.LASF1
 6185 003d 01       		.byte	0x1
 6186 003e 03       		.uleb128 0x3
 6187 003f 00050000 		.4byte	.LASF2
 6188 0043 02       		.byte	0x2
 6189 0044 03       		.uleb128 0x3
 6190 0045 52090000 		.4byte	.LASF3
 6191 0049 03       		.byte	0x3
 6192 004a 03       		.uleb128 0x3
 6193 004b 85080000 		.4byte	.LASF4
 6194 004f 04       		.byte	0x4
 6195 0050 03       		.uleb128 0x3
 6196 0051 290F0000 		.4byte	.LASF5
 6197 0055 05       		.byte	0x5
 6198 0056 03       		.uleb128 0x3
 6199 0057 590F0000 		.4byte	.LASF6
 6200 005b 06       		.byte	0x6
 6201 005c 03       		.uleb128 0x3
 6202 005d 220D0000 		.4byte	.LASF7
 6203 0061 07       		.byte	0x7
 6204 0062 03       		.uleb128 0x3
 6205 0063 170A0000 		.4byte	.LASF8
 6206 0067 08       		.byte	0x8
 6207 0068 03       		.uleb128 0x3
 6208 0069 D1040000 		.4byte	.LASF9
 6209 006d 09       		.byte	0x9
 6210 006e 03       		.uleb128 0x3
 6211 006f F9060000 		.4byte	.LASF10
 6212 0073 0A       		.byte	0xa
 6213 0074 03       		.uleb128 0x3
ARM GAS  C:\Users\mathi\AppData\Local\Temp\ccF8t5t9.s 			page 110


 6214 0075 9F0E0000 		.4byte	.LASF11
 6215 0079 0B       		.byte	0xb
 6216 007a 03       		.uleb128 0x3
 6217 007b E5040000 		.4byte	.LASF12
 6218 007f 0C       		.byte	0xc
 6219 0080 03       		.uleb128 0x3
 6220 0081 4B070000 		.4byte	.LASF13
 6221 0085 0D       		.byte	0xd
 6222 0086 03       		.uleb128 0x3
 6223 0087 1A040000 		.4byte	.LASF14
 6224 008b 0E       		.byte	0xe
 6225 008c 00       		.byte	0
 6226 008d 04       		.uleb128 0x4
 6227 008e 01       		.byte	0x1
 6228 008f 08       		.byte	0x8
 6229 0090 880C0000 		.4byte	.LASF42
 6230 0094 02       		.uleb128 0x2
 6231 0095 07       		.byte	0x7
 6232 0096 01       		.byte	0x1
 6233 0097 8D000000 		.4byte	0x8d
 6234 009b 02       		.byte	0x2
 6235 009c 4C       		.byte	0x4c
 6236 009d 0E010000 		.4byte	0x10e
 6237 00a1 03       		.uleb128 0x3
 6238 00a2 36050000 		.4byte	.LASF15
 6239 00a6 00       		.byte	0
 6240 00a7 03       		.uleb128 0x3
 6241 00a8 340C0000 		.4byte	.LASF16
 6242 00ac 01       		.byte	0x1
 6243 00ad 03       		.uleb128 0x3
 6244 00ae 080C0000 		.4byte	.LASF17
 6245 00b2 02       		.byte	0x2
 6246 00b3 03       		.uleb128 0x3
 6247 00b4 670A0000 		.4byte	.LASF18
 6248 00b8 03       		.byte	0x3
 6249 00b9 03       		.uleb128 0x3
 6250 00ba 39110000 		.4byte	.LASF19
 6251 00be 04       		.byte	0x4
 6252 00bf 03       		.uleb128 0x3
 6253 00c0 C70E0000 		.4byte	.LASF20
 6254 00c4 05       		.byte	0x5
 6255 00c5 03       		.uleb128 0x3
 6256 00c6 D1100000 		.4byte	.LASF21
 6257 00ca 06       		.byte	0x6
 6258 00cb 03       		.uleb128 0x3
 6259 00cc 850E0000 		.4byte	.LASF22
 6260 00d0 07       		.byte	0x7
 6261 00d1 03       		.uleb128 0x3
 6262 00d2 3C120000 		.4byte	.LASF23
 6263 00d6 08       		.byte	0x8
 6264 00d7 03       		.uleb128 0x3
 6265 00d8 2B120000 		.4byte	.LASF24
 6266 00dc 09       		.byte	0x9
 6267 00dd 03       		.uleb128 0x3
 6268 00de 58000000 		.4byte	.LASF25
 6269 00e2 0A       		.byte	0xa
 6270 00e3 03       		.uleb128 0x3
ARM GAS  C:\Users\mathi\AppData\Local\Temp\ccF8t5t9.s 			page 111


 6271 00e4 5B100000 		.4byte	.LASF26
 6272 00e8 0B       		.byte	0xb
 6273 00e9 03       		.uleb128 0x3
 6274 00ea 490C0000 		.4byte	.LASF27
 6275 00ee 0C       		.byte	0xc
 6276 00ef 03       		.uleb128 0x3
 6277 00f0 3D000000 		.4byte	.LASF28
 6278 00f4 0D       		.byte	0xd
 6279 00f5 03       		.uleb128 0x3
 6280 00f6 22070000 		.4byte	.LASF29
 6281 00fa 0E       		.byte	0xe
 6282 00fb 03       		.uleb128 0x3
 6283 00fc B0100000 		.4byte	.LASF30
 6284 0100 0F       		.byte	0xf
 6285 0101 03       		.uleb128 0x3
 6286 0102 9B110000 		.4byte	.LASF31
 6287 0106 10       		.byte	0x10
 6288 0107 03       		.uleb128 0x3
 6289 0108 67110000 		.4byte	.LASF32
 6290 010c 11       		.byte	0x11
 6291 010d 00       		.byte	0
 6292 010e 02       		.uleb128 0x2
 6293 010f 07       		.byte	0x7
 6294 0110 01       		.byte	0x1
 6295 0111 8D000000 		.4byte	0x8d
 6296 0115 02       		.byte	0x2
 6297 0116 6A       		.byte	0x6a
 6298 0117 34010000 		.4byte	0x134
 6299 011b 03       		.uleb128 0x3
 6300 011c 02010000 		.4byte	.LASF33
 6301 0120 00       		.byte	0
 6302 0121 03       		.uleb128 0x3
 6303 0122 3B100000 		.4byte	.LASF34
 6304 0126 01       		.byte	0x1
 6305 0127 03       		.uleb128 0x3
 6306 0128 20000000 		.4byte	.LASF35
 6307 012c 02       		.byte	0x2
 6308 012d 03       		.uleb128 0x3
 6309 012e DC030000 		.4byte	.LASF36
 6310 0132 03       		.byte	0x3
 6311 0133 00       		.byte	0
 6312 0134 02       		.uleb128 0x2
 6313 0135 07       		.byte	0x7
 6314 0136 01       		.byte	0x1
 6315 0137 8D000000 		.4byte	0x8d
 6316 013b 02       		.byte	0x2
 6317 013c 7B       		.byte	0x7b
 6318 013d 54010000 		.4byte	0x154
 6319 0141 03       		.uleb128 0x3
 6320 0142 B6040000 		.4byte	.LASF37
 6321 0146 01       		.byte	0x1
 6322 0147 03       		.uleb128 0x3
 6323 0148 E7000000 		.4byte	.LASF38
 6324 014c 02       		.byte	0x2
 6325 014d 03       		.uleb128 0x3
 6326 014e B5080000 		.4byte	.LASF39
 6327 0152 04       		.byte	0x4
ARM GAS  C:\Users\mathi\AppData\Local\Temp\ccF8t5t9.s 			page 112


 6328 0153 00       		.byte	0
 6329 0154 02       		.uleb128 0x2
 6330 0155 07       		.byte	0x7
 6331 0156 02       		.byte	0x2
 6332 0157 70010000 		.4byte	0x170
 6333 015b 02       		.byte	0x2
 6334 015c 86       		.byte	0x86
 6335 015d 70010000 		.4byte	0x170
 6336 0161 05       		.uleb128 0x5
 6337 0162 58030000 		.4byte	.LASF40
 6338 0166 FFFF     		.2byte	0xffff
 6339 0168 05       		.uleb128 0x5
 6340 0169 9A0D0000 		.4byte	.LASF41
 6341 016d FEFF     		.2byte	0xfffe
 6342 016f 00       		.byte	0
 6343 0170 04       		.uleb128 0x4
 6344 0171 02       		.byte	0x2
 6345 0172 07       		.byte	0x7
 6346 0173 38070000 		.4byte	.LASF43
 6347 0177 02       		.uleb128 0x2
 6348 0178 07       		.byte	0x7
 6349 0179 02       		.byte	0x2
 6350 017a 70010000 		.4byte	0x170
 6351 017e 02       		.byte	0x2
 6352 017f 90       		.byte	0x90
 6353 0180 96020000 		.4byte	0x296
 6354 0184 05       		.uleb128 0x5
 6355 0185 88070000 		.4byte	.LASF44
 6356 0189 0080     		.2byte	0x8000
 6357 018b 05       		.uleb128 0x5
 6358 018c FF0C0000 		.4byte	.LASF45
 6359 0190 0180     		.2byte	0x8001
 6360 0192 05       		.uleb128 0x5
 6361 0193 B3050000 		.4byte	.LASF46
 6362 0197 0280     		.2byte	0x8002
 6363 0199 05       		.uleb128 0x5
 6364 019a AF020000 		.4byte	.LASF47
 6365 019e 0380     		.2byte	0x8003
 6366 01a0 05       		.uleb128 0x5
 6367 01a1 8A020000 		.4byte	.LASF48
 6368 01a5 0480     		.2byte	0x8004
 6369 01a7 05       		.uleb128 0x5
 6370 01a8 FC050000 		.4byte	.LASF49
 6371 01ac 0580     		.2byte	0x8005
 6372 01ae 05       		.uleb128 0x5
 6373 01af 0C110000 		.4byte	.LASF50
 6374 01b3 0680     		.2byte	0x8006
 6375 01b5 05       		.uleb128 0x5
 6376 01b6 41040000 		.4byte	.LASF51
 6377 01ba 0090     		.2byte	0x9000
 6378 01bc 05       		.uleb128 0x5
 6379 01bd 350E0000 		.4byte	.LASF52
 6380 01c1 0190     		.2byte	0x9001
 6381 01c3 05       		.uleb128 0x5
 6382 01c4 96090000 		.4byte	.LASF53
 6383 01c8 0290     		.2byte	0x9002
 6384 01ca 05       		.uleb128 0x5
ARM GAS  C:\Users\mathi\AppData\Local\Temp\ccF8t5t9.s 			page 113


 6385 01cb 5E0C0000 		.4byte	.LASF54
 6386 01cf 0390     		.2byte	0x9003
 6387 01d1 05       		.uleb128 0x5
 6388 01d2 AF070000 		.4byte	.LASF55
 6389 01d6 0490     		.2byte	0x9004
 6390 01d8 05       		.uleb128 0x5
 6391 01d9 19080000 		.4byte	.LASF56
 6392 01dd 0590     		.2byte	0x9005
 6393 01df 05       		.uleb128 0x5
 6394 01e0 66090000 		.4byte	.LASF57
 6395 01e4 0690     		.2byte	0x9006
 6396 01e6 05       		.uleb128 0x5
 6397 01e7 74110000 		.4byte	.LASF58
 6398 01eb 0790     		.2byte	0x9007
 6399 01ed 05       		.uleb128 0x5
 6400 01ee E30B0000 		.4byte	.LASF59
 6401 01f2 0890     		.2byte	0x9008
 6402 01f4 05       		.uleb128 0x5
 6403 01f5 AD010000 		.4byte	.LASF60
 6404 01f9 0990     		.2byte	0x9009
 6405 01fb 05       		.uleb128 0x5
 6406 01fc 24020000 		.4byte	.LASF61
 6407 0200 0A90     		.2byte	0x900a
 6408 0202 05       		.uleb128 0x5
 6409 0203 8A050000 		.4byte	.LASF62
 6410 0207 0B90     		.2byte	0x900b
 6411 0209 05       		.uleb128 0x5
 6412 020a AD060000 		.4byte	.LASF63
 6413 020e 0C90     		.2byte	0x900c
 6414 0210 05       		.uleb128 0x5
 6415 0211 3A030000 		.4byte	.LASF64
 6416 0215 00A0     		.2byte	0xa000
 6417 0217 05       		.uleb128 0x5
 6418 0218 9A080000 		.4byte	.LASF65
 6419 021c 01A0     		.2byte	0xa001
 6420 021e 05       		.uleb128 0x5
 6421 021f 67000000 		.4byte	.LASF66
 6422 0223 02A0     		.2byte	0xa002
 6423 0225 05       		.uleb128 0x5
 6424 0226 0F030000 		.4byte	.LASF67
 6425 022a 03A0     		.2byte	0xa003
 6426 022c 05       		.uleb128 0x5
 6427 022d EB0C0000 		.4byte	.LASF68
 6428 0231 04A0     		.2byte	0xa004
 6429 0233 05       		.uleb128 0x5
 6430 0234 DA080000 		.4byte	.LASF69
 6431 0238 05A0     		.2byte	0xa005
 6432 023a 05       		.uleb128 0x5
 6433 023b 770F0000 		.4byte	.LASF70
 6434 023f 06A0     		.2byte	0xa006
 6435 0241 05       		.uleb128 0x5
 6436 0242 C90C0000 		.4byte	.LASF71
 6437 0246 07A0     		.2byte	0xa007
 6438 0248 05       		.uleb128 0x5
 6439 0249 E5110000 		.4byte	.LASF72
 6440 024d 08A0     		.2byte	0xa008
 6441 024f 05       		.uleb128 0x5
ARM GAS  C:\Users\mathi\AppData\Local\Temp\ccF8t5t9.s 			page 114


 6442 0250 8A0F0000 		.4byte	.LASF73
 6443 0254 09A0     		.2byte	0xa009
 6444 0256 05       		.uleb128 0x5
 6445 0257 ED090000 		.4byte	.LASF74
 6446 025b 0AA0     		.2byte	0xa00a
 6447 025d 05       		.uleb128 0x5
 6448 025e 66040000 		.4byte	.LASF75
 6449 0262 0BA0     		.2byte	0xa00b
 6450 0264 05       		.uleb128 0x5
 6451 0265 E0070000 		.4byte	.LASF76
 6452 0269 0CA0     		.2byte	0xa00c
 6453 026b 05       		.uleb128 0x5
 6454 026c A7110000 		.4byte	.LASF77
 6455 0270 0DA0     		.2byte	0xa00d
 6456 0272 05       		.uleb128 0x5
 6457 0273 E4060000 		.4byte	.LASF78
 6458 0277 0EA0     		.2byte	0xa00e
 6459 0279 05       		.uleb128 0x5
 6460 027a 3B010000 		.4byte	.LASF79
 6461 027e 0FA0     		.2byte	0xa00f
 6462 0280 05       		.uleb128 0x5
 6463 0281 15090000 		.4byte	.LASF80
 6464 0285 10A0     		.2byte	0xa010
 6465 0287 05       		.uleb128 0x5
 6466 0288 100F0000 		.4byte	.LASF81
 6467 028c 11A0     		.2byte	0xa011
 6468 028e 05       		.uleb128 0x5
 6469 028f 40080000 		.4byte	.LASF82
 6470 0293 FFFF     		.2byte	0xffff
 6471 0295 00       		.byte	0
 6472 0296 04       		.uleb128 0x4
 6473 0297 04       		.byte	0x4
 6474 0298 07       		.byte	0x7
 6475 0299 D7050000 		.4byte	.LASF83
 6476 029d 06       		.uleb128 0x6
 6477 029e 04       		.byte	0x4
 6478 029f 05       		.byte	0x5
 6479 02a0 696E7400 		.ascii	"int\000"
 6480 02a4 04       		.uleb128 0x4
 6481 02a5 08       		.byte	0x8
 6482 02a6 05       		.byte	0x5
 6483 02a7 EF030000 		.4byte	.LASF84
 6484 02ab 04       		.uleb128 0x4
 6485 02ac 08       		.byte	0x8
 6486 02ad 04       		.byte	0x4
 6487 02ae 38090000 		.4byte	.LASF85
 6488 02b2 04       		.uleb128 0x4
 6489 02b3 01       		.byte	0x1
 6490 02b4 06       		.byte	0x6
 6491 02b5 D8020000 		.4byte	.LASF86
 6492 02b9 04       		.uleb128 0x4
 6493 02ba 02       		.byte	0x2
 6494 02bb 05       		.byte	0x5
 6495 02bc 4B0D0000 		.4byte	.LASF87
 6496 02c0 04       		.uleb128 0x4
 6497 02c1 04       		.byte	0x4
 6498 02c2 05       		.byte	0x5
ARM GAS  C:\Users\mathi\AppData\Local\Temp\ccF8t5t9.s 			page 115


 6499 02c3 8F030000 		.4byte	.LASF88
 6500 02c7 04       		.uleb128 0x4
 6501 02c8 04       		.byte	0x4
 6502 02c9 07       		.byte	0x7
 6503 02ca 9B060000 		.4byte	.LASF89
 6504 02ce 04       		.uleb128 0x4
 6505 02cf 08       		.byte	0x8
 6506 02d0 07       		.byte	0x7
 6507 02d1 7A010000 		.4byte	.LASF90
 6508 02d5 07       		.uleb128 0x7
 6509 02d6 D1070000 		.4byte	.LASF91
 6510 02da 03       		.byte	0x3
 6511 02db 22       		.byte	0x22
 6512 02dc E0020000 		.4byte	0x2e0
 6513 02e0 08       		.uleb128 0x8
 6514 02e1 04       		.byte	0x4
 6515 02e2 E6020000 		.4byte	0x2e6
 6516 02e6 09       		.uleb128 0x9
 6517 02e7 660E0000 		.4byte	.LASF198
 6518 02eb 07       		.uleb128 0x7
 6519 02ec 100A0000 		.4byte	.LASF92
 6520 02f0 04       		.byte	0x4
 6521 02f1 2C       		.byte	0x2c
 6522 02f2 C0020000 		.4byte	0x2c0
 6523 02f6 07       		.uleb128 0x7
 6524 02f7 B30E0000 		.4byte	.LASF93
 6525 02fb 04       		.byte	0x4
 6526 02fc 72       		.byte	0x72
 6527 02fd C0020000 		.4byte	0x2c0
 6528 0301 0A       		.uleb128 0xa
 6529 0302 D9070000 		.4byte	.LASF94
 6530 0306 05       		.byte	0x5
 6531 0307 6501     		.2byte	0x165
 6532 0309 96020000 		.4byte	0x296
 6533 030d 0B       		.uleb128 0xb
 6534 030e 04       		.byte	0x4
 6535 030f 04       		.byte	0x4
 6536 0310 A6       		.byte	0xa6
 6537 0311 2C030000 		.4byte	0x32c
 6538 0315 0C       		.uleb128 0xc
 6539 0316 21030000 		.4byte	.LASF95
 6540 031a 04       		.byte	0x4
 6541 031b A8       		.byte	0xa8
 6542 031c 01030000 		.4byte	0x301
 6543 0320 0C       		.uleb128 0xc
 6544 0321 E4050000 		.4byte	.LASF96
 6545 0325 04       		.byte	0x4
 6546 0326 A9       		.byte	0xa9
 6547 0327 2C030000 		.4byte	0x32c
 6548 032b 00       		.byte	0
 6549 032c 0D       		.uleb128 0xd
 6550 032d 8D000000 		.4byte	0x8d
 6551 0331 3C030000 		.4byte	0x33c
 6552 0335 0E       		.uleb128 0xe
 6553 0336 96020000 		.4byte	0x296
 6554 033a 03       		.byte	0x3
 6555 033b 00       		.byte	0
ARM GAS  C:\Users\mathi\AppData\Local\Temp\ccF8t5t9.s 			page 116


 6556 033c 0F       		.uleb128 0xf
 6557 033d 08       		.byte	0x8
 6558 033e 04       		.byte	0x4
 6559 033f A3       		.byte	0xa3
 6560 0340 5D030000 		.4byte	0x35d
 6561 0344 10       		.uleb128 0x10
 6562 0345 5E0E0000 		.4byte	.LASF97
 6563 0349 04       		.byte	0x4
 6564 034a A5       		.byte	0xa5
 6565 034b 9D020000 		.4byte	0x29d
 6566 034f 00       		.byte	0
 6567 0350 10       		.uleb128 0x10
 6568 0351 6D0E0000 		.4byte	.LASF98
 6569 0355 04       		.byte	0x4
 6570 0356 AA       		.byte	0xaa
 6571 0357 0D030000 		.4byte	0x30d
 6572 035b 04       		.byte	0x4
 6573 035c 00       		.byte	0
 6574 035d 07       		.uleb128 0x7
 6575 035e 730D0000 		.4byte	.LASF99
 6576 0362 04       		.byte	0x4
 6577 0363 AB       		.byte	0xab
 6578 0364 3C030000 		.4byte	0x33c
 6579 0368 07       		.uleb128 0x7
 6580 0369 4A050000 		.4byte	.LASF100
 6581 036d 04       		.byte	0x4
 6582 036e AF       		.byte	0xaf
 6583 036f D5020000 		.4byte	0x2d5
 6584 0373 11       		.uleb128 0x11
 6585 0374 04       		.byte	0x4
 6586 0375 08       		.uleb128 0x8
 6587 0376 04       		.byte	0x4
 6588 0377 7B030000 		.4byte	0x37b
 6589 037b 04       		.uleb128 0x4
 6590 037c 01       		.byte	0x1
 6591 037d 08       		.byte	0x8
 6592 037e BB0E0000 		.4byte	.LASF101
 6593 0382 12       		.uleb128 0x12
 6594 0383 7B030000 		.4byte	0x37b
 6595 0387 07       		.uleb128 0x7
 6596 0388 C30F0000 		.4byte	.LASF102
 6597 038c 06       		.byte	0x6
 6598 038d 16       		.byte	0x16
 6599 038e C7020000 		.4byte	0x2c7
 6600 0392 13       		.uleb128 0x13
 6601 0393 5B050000 		.4byte	.LASF107
 6602 0397 18       		.byte	0x18
 6603 0398 06       		.byte	0x6
 6604 0399 2F       		.byte	0x2f
 6605 039a E5030000 		.4byte	0x3e5
 6606 039e 10       		.uleb128 0x10
 6607 039f 530F0000 		.4byte	.LASF103
 6608 03a3 06       		.byte	0x6
 6609 03a4 31       		.byte	0x31
 6610 03a5 E5030000 		.4byte	0x3e5
 6611 03a9 00       		.byte	0
 6612 03aa 14       		.uleb128 0x14
ARM GAS  C:\Users\mathi\AppData\Local\Temp\ccF8t5t9.s 			page 117


 6613 03ab 5F6B00   		.ascii	"_k\000"
 6614 03ae 06       		.byte	0x6
 6615 03af 32       		.byte	0x32
 6616 03b0 9D020000 		.4byte	0x29d
 6617 03b4 04       		.byte	0x4
 6618 03b5 10       		.uleb128 0x10
 6619 03b6 0C0E0000 		.4byte	.LASF104
 6620 03ba 06       		.byte	0x6
 6621 03bb 32       		.byte	0x32
 6622 03bc 9D020000 		.4byte	0x29d
 6623 03c0 08       		.byte	0x8
 6624 03c1 10       		.uleb128 0x10
 6625 03c2 30050000 		.4byte	.LASF105
 6626 03c6 06       		.byte	0x6
 6627 03c7 32       		.byte	0x32
 6628 03c8 9D020000 		.4byte	0x29d
 6629 03cc 0C       		.byte	0xc
 6630 03cd 10       		.uleb128 0x10
 6631 03ce CC100000 		.4byte	.LASF106
 6632 03d2 06       		.byte	0x6
 6633 03d3 32       		.byte	0x32
 6634 03d4 9D020000 		.4byte	0x29d
 6635 03d8 10       		.byte	0x10
 6636 03d9 14       		.uleb128 0x14
 6637 03da 5F7800   		.ascii	"_x\000"
 6638 03dd 06       		.byte	0x6
 6639 03de 33       		.byte	0x33
 6640 03df EB030000 		.4byte	0x3eb
 6641 03e3 14       		.byte	0x14
 6642 03e4 00       		.byte	0
 6643 03e5 08       		.uleb128 0x8
 6644 03e6 04       		.byte	0x4
 6645 03e7 92030000 		.4byte	0x392
 6646 03eb 0D       		.uleb128 0xd
 6647 03ec 87030000 		.4byte	0x387
 6648 03f0 FB030000 		.4byte	0x3fb
 6649 03f4 0E       		.uleb128 0xe
 6650 03f5 96020000 		.4byte	0x296
 6651 03f9 00       		.byte	0
 6652 03fa 00       		.byte	0
 6653 03fb 13       		.uleb128 0x13
 6654 03fc AE050000 		.4byte	.LASF108
 6655 0400 24       		.byte	0x24
 6656 0401 06       		.byte	0x6
 6657 0402 37       		.byte	0x37
 6658 0403 74040000 		.4byte	0x474
 6659 0407 10       		.uleb128 0x10
 6660 0408 81020000 		.4byte	.LASF109
 6661 040c 06       		.byte	0x6
 6662 040d 39       		.byte	0x39
 6663 040e 9D020000 		.4byte	0x29d
 6664 0412 00       		.byte	0
 6665 0413 10       		.uleb128 0x10
 6666 0414 D40E0000 		.4byte	.LASF110
 6667 0418 06       		.byte	0x6
 6668 0419 3A       		.byte	0x3a
 6669 041a 9D020000 		.4byte	0x29d
ARM GAS  C:\Users\mathi\AppData\Local\Temp\ccF8t5t9.s 			page 118


 6670 041e 04       		.byte	0x4
 6671 041f 10       		.uleb128 0x10
 6672 0420 750E0000 		.4byte	.LASF111
 6673 0424 06       		.byte	0x6
 6674 0425 3B       		.byte	0x3b
 6675 0426 9D020000 		.4byte	0x29d
 6676 042a 08       		.byte	0x8
 6677 042b 10       		.uleb128 0x10
 6678 042c 4D120000 		.4byte	.LASF112
 6679 0430 06       		.byte	0x6
 6680 0431 3C       		.byte	0x3c
 6681 0432 9D020000 		.4byte	0x29d
 6682 0436 0C       		.byte	0xc
 6683 0437 10       		.uleb128 0x10
 6684 0438 C4090000 		.4byte	.LASF113
 6685 043c 06       		.byte	0x6
 6686 043d 3D       		.byte	0x3d
 6687 043e 9D020000 		.4byte	0x29d
 6688 0442 10       		.byte	0x10
 6689 0443 10       		.uleb128 0x10
 6690 0444 64080000 		.4byte	.LASF114
 6691 0448 06       		.byte	0x6
 6692 0449 3E       		.byte	0x3e
 6693 044a 9D020000 		.4byte	0x29d
 6694 044e 14       		.byte	0x14
 6695 044f 10       		.uleb128 0x10
 6696 0450 950E0000 		.4byte	.LASF115
 6697 0454 06       		.byte	0x6
 6698 0455 3F       		.byte	0x3f
 6699 0456 9D020000 		.4byte	0x29d
 6700 045a 18       		.byte	0x18
 6701 045b 10       		.uleb128 0x10
 6702 045c 550D0000 		.4byte	.LASF116
 6703 0460 06       		.byte	0x6
 6704 0461 40       		.byte	0x40
 6705 0462 9D020000 		.4byte	0x29d
 6706 0466 1C       		.byte	0x1c
 6707 0467 10       		.uleb128 0x10
 6708 0468 C4110000 		.4byte	.LASF117
 6709 046c 06       		.byte	0x6
 6710 046d 41       		.byte	0x41
 6711 046e 9D020000 		.4byte	0x29d
 6712 0472 20       		.byte	0x20
 6713 0473 00       		.byte	0
 6714 0474 15       		.uleb128 0x15
 6715 0475 2C030000 		.4byte	.LASF118
 6716 0479 0801     		.2byte	0x108
 6717 047b 06       		.byte	0x6
 6718 047c 4A       		.byte	0x4a
 6719 047d B4040000 		.4byte	0x4b4
 6720 0481 10       		.uleb128 0x10
 6721 0482 9D040000 		.4byte	.LASF119
 6722 0486 06       		.byte	0x6
 6723 0487 4B       		.byte	0x4b
 6724 0488 B4040000 		.4byte	0x4b4
 6725 048c 00       		.byte	0
 6726 048d 10       		.uleb128 0x10
ARM GAS  C:\Users\mathi\AppData\Local\Temp\ccF8t5t9.s 			page 119


 6727 048e 00000000 		.4byte	.LASF120
 6728 0492 06       		.byte	0x6
 6729 0493 4C       		.byte	0x4c
 6730 0494 B4040000 		.4byte	0x4b4
 6731 0498 80       		.byte	0x80
 6732 0499 16       		.uleb128 0x16
 6733 049a A90F0000 		.4byte	.LASF121
 6734 049e 06       		.byte	0x6
 6735 049f 4E       		.byte	0x4e
 6736 04a0 87030000 		.4byte	0x387
 6737 04a4 0001     		.2byte	0x100
 6738 04a6 16       		.uleb128 0x16
 6739 04a7 B7030000 		.4byte	.LASF122
 6740 04ab 06       		.byte	0x6
 6741 04ac 51       		.byte	0x51
 6742 04ad 87030000 		.4byte	0x387
 6743 04b1 0401     		.2byte	0x104
 6744 04b3 00       		.byte	0
 6745 04b4 0D       		.uleb128 0xd
 6746 04b5 73030000 		.4byte	0x373
 6747 04b9 C4040000 		.4byte	0x4c4
 6748 04bd 0E       		.uleb128 0xe
 6749 04be 96020000 		.4byte	0x296
 6750 04c2 1F       		.byte	0x1f
 6751 04c3 00       		.byte	0
 6752 04c4 15       		.uleb128 0x15
 6753 04c5 D6090000 		.4byte	.LASF123
 6754 04c9 9001     		.2byte	0x190
 6755 04cb 06       		.byte	0x6
 6756 04cc 5D       		.byte	0x5d
 6757 04cd 02050000 		.4byte	0x502
 6758 04d1 10       		.uleb128 0x10
 6759 04d2 530F0000 		.4byte	.LASF103
 6760 04d6 06       		.byte	0x6
 6761 04d7 5E       		.byte	0x5e
 6762 04d8 02050000 		.4byte	0x502
 6763 04dc 00       		.byte	0
 6764 04dd 10       		.uleb128 0x10
 6765 04de CB0D0000 		.4byte	.LASF124
 6766 04e2 06       		.byte	0x6
 6767 04e3 5F       		.byte	0x5f
 6768 04e4 9D020000 		.4byte	0x29d
 6769 04e8 04       		.byte	0x4
 6770 04e9 10       		.uleb128 0x10
 6771 04ea 1F050000 		.4byte	.LASF125
 6772 04ee 06       		.byte	0x6
 6773 04ef 61       		.byte	0x61
 6774 04f0 08050000 		.4byte	0x508
 6775 04f4 08       		.byte	0x8
 6776 04f5 10       		.uleb128 0x10
 6777 04f6 2C030000 		.4byte	.LASF118
 6778 04fa 06       		.byte	0x6
 6779 04fb 62       		.byte	0x62
 6780 04fc 74040000 		.4byte	0x474
 6781 0500 88       		.byte	0x88
 6782 0501 00       		.byte	0
 6783 0502 08       		.uleb128 0x8
ARM GAS  C:\Users\mathi\AppData\Local\Temp\ccF8t5t9.s 			page 120


 6784 0503 04       		.byte	0x4
 6785 0504 C4040000 		.4byte	0x4c4
 6786 0508 0D       		.uleb128 0xd
 6787 0509 18050000 		.4byte	0x518
 6788 050d 18050000 		.4byte	0x518
 6789 0511 0E       		.uleb128 0xe
 6790 0512 96020000 		.4byte	0x296
 6791 0516 1F       		.byte	0x1f
 6792 0517 00       		.byte	0
 6793 0518 08       		.uleb128 0x8
 6794 0519 04       		.byte	0x4
 6795 051a 1E050000 		.4byte	0x51e
 6796 051e 17       		.uleb128 0x17
 6797 051f 13       		.uleb128 0x13
 6798 0520 5F0D0000 		.4byte	.LASF126
 6799 0524 08       		.byte	0x8
 6800 0525 06       		.byte	0x6
 6801 0526 75       		.byte	0x75
 6802 0527 44050000 		.4byte	0x544
 6803 052b 10       		.uleb128 0x10
 6804 052c 09030000 		.4byte	.LASF127
 6805 0530 06       		.byte	0x6
 6806 0531 76       		.byte	0x76
 6807 0532 44050000 		.4byte	0x544
 6808 0536 00       		.byte	0
 6809 0537 10       		.uleb128 0x10
 6810 0538 4C090000 		.4byte	.LASF128
 6811 053c 06       		.byte	0x6
 6812 053d 77       		.byte	0x77
 6813 053e 9D020000 		.4byte	0x29d
 6814 0542 04       		.byte	0x4
 6815 0543 00       		.byte	0
 6816 0544 08       		.uleb128 0x8
 6817 0545 04       		.byte	0x4
 6818 0546 8D000000 		.4byte	0x8d
 6819 054a 13       		.uleb128 0x13
 6820 054b 7E0D0000 		.4byte	.LASF129
 6821 054f 68       		.byte	0x68
 6822 0550 06       		.byte	0x6
 6823 0551 B5       		.byte	0xb5
 6824 0552 74060000 		.4byte	0x674
 6825 0556 14       		.uleb128 0x14
 6826 0557 5F7000   		.ascii	"_p\000"
 6827 055a 06       		.byte	0x6
 6828 055b B6       		.byte	0xb6
 6829 055c 44050000 		.4byte	0x544
 6830 0560 00       		.byte	0
 6831 0561 14       		.uleb128 0x14
 6832 0562 5F7200   		.ascii	"_r\000"
 6833 0565 06       		.byte	0x6
 6834 0566 B7       		.byte	0xb7
 6835 0567 9D020000 		.4byte	0x29d
 6836 056b 04       		.byte	0x4
 6837 056c 14       		.uleb128 0x14
 6838 056d 5F7700   		.ascii	"_w\000"
 6839 0570 06       		.byte	0x6
 6840 0571 B8       		.byte	0xb8
ARM GAS  C:\Users\mathi\AppData\Local\Temp\ccF8t5t9.s 			page 121


 6841 0572 9D020000 		.4byte	0x29d
 6842 0576 08       		.byte	0x8
 6843 0577 10       		.uleb128 0x10
 6844 0578 B0030000 		.4byte	.LASF130
 6845 057c 06       		.byte	0x6
 6846 057d B9       		.byte	0xb9
 6847 057e B9020000 		.4byte	0x2b9
 6848 0582 0C       		.byte	0xc
 6849 0583 10       		.uleb128 0x10
 6850 0584 C8060000 		.4byte	.LASF131
 6851 0588 06       		.byte	0x6
 6852 0589 BA       		.byte	0xba
 6853 058a B9020000 		.4byte	0x2b9
 6854 058e 0E       		.byte	0xe
 6855 058f 14       		.uleb128 0x14
 6856 0590 5F626600 		.ascii	"_bf\000"
 6857 0594 06       		.byte	0x6
 6858 0595 BB       		.byte	0xbb
 6859 0596 1F050000 		.4byte	0x51f
 6860 059a 10       		.byte	0x10
 6861 059b 10       		.uleb128 0x10
 6862 059c CD090000 		.4byte	.LASF132
 6863 05a0 06       		.byte	0x6
 6864 05a1 BC       		.byte	0xbc
 6865 05a2 9D020000 		.4byte	0x29d
 6866 05a6 18       		.byte	0x18
 6867 05a7 10       		.uleb128 0x10
 6868 05a8 69030000 		.4byte	.LASF133
 6869 05ac 06       		.byte	0x6
 6870 05ad C3       		.byte	0xc3
 6871 05ae 73030000 		.4byte	0x373
 6872 05b2 1C       		.byte	0x1c
 6873 05b3 10       		.uleb128 0x10
 6874 05b4 72050000 		.4byte	.LASF134
 6875 05b8 06       		.byte	0x6
 6876 05b9 C5       		.byte	0xc5
 6877 05ba CF070000 		.4byte	0x7cf
 6878 05be 20       		.byte	0x20
 6879 05bf 10       		.uleb128 0x10
 6880 05c0 5D080000 		.4byte	.LASF135
 6881 05c4 06       		.byte	0x6
 6882 05c5 C7       		.byte	0xc7
 6883 05c6 F9070000 		.4byte	0x7f9
 6884 05ca 24       		.byte	0x24
 6885 05cb 10       		.uleb128 0x10
 6886 05cc 7F0E0000 		.4byte	.LASF136
 6887 05d0 06       		.byte	0x6
 6888 05d1 CA       		.byte	0xca
 6889 05d2 1D080000 		.4byte	0x81d
 6890 05d6 28       		.byte	0x28
 6891 05d7 10       		.uleb128 0x10
 6892 05d8 DE110000 		.4byte	.LASF137
 6893 05dc 06       		.byte	0x6
 6894 05dd CB       		.byte	0xcb
 6895 05de 37080000 		.4byte	0x837
 6896 05e2 2C       		.byte	0x2c
 6897 05e3 14       		.uleb128 0x14
ARM GAS  C:\Users\mathi\AppData\Local\Temp\ccF8t5t9.s 			page 122


 6898 05e4 5F756200 		.ascii	"_ub\000"
 6899 05e8 06       		.byte	0x6
 6900 05e9 CE       		.byte	0xce
 6901 05ea 1F050000 		.4byte	0x51f
 6902 05ee 30       		.byte	0x30
 6903 05ef 14       		.uleb128 0x14
 6904 05f0 5F757000 		.ascii	"_up\000"
 6905 05f4 06       		.byte	0x6
 6906 05f5 CF       		.byte	0xcf
 6907 05f6 44050000 		.4byte	0x544
 6908 05fa 38       		.byte	0x38
 6909 05fb 14       		.uleb128 0x14
 6910 05fc 5F757200 		.ascii	"_ur\000"
 6911 0600 06       		.byte	0x6
 6912 0601 D0       		.byte	0xd0
 6913 0602 9D020000 		.4byte	0x29d
 6914 0606 3C       		.byte	0x3c
 6915 0607 10       		.uleb128 0x10
 6916 0608 03030000 		.4byte	.LASF138
 6917 060c 06       		.byte	0x6
 6918 060d D3       		.byte	0xd3
 6919 060e 3D080000 		.4byte	0x83d
 6920 0612 40       		.byte	0x40
 6921 0613 10       		.uleb128 0x10
 6922 0614 3A080000 		.4byte	.LASF139
 6923 0618 06       		.byte	0x6
 6924 0619 D4       		.byte	0xd4
 6925 061a 4D080000 		.4byte	0x84d
 6926 061e 43       		.byte	0x43
 6927 061f 14       		.uleb128 0x14
 6928 0620 5F6C6200 		.ascii	"_lb\000"
 6929 0624 06       		.byte	0x6
 6930 0625 D7       		.byte	0xd7
 6931 0626 1F050000 		.4byte	0x51f
 6932 062a 44       		.byte	0x44
 6933 062b 10       		.uleb128 0x10
 6934 062c CD030000 		.4byte	.LASF140
 6935 0630 06       		.byte	0x6
 6936 0631 DA       		.byte	0xda
 6937 0632 9D020000 		.4byte	0x29d
 6938 0636 4C       		.byte	0x4c
 6939 0637 10       		.uleb128 0x10
 6940 0638 39040000 		.4byte	.LASF141
 6941 063c 06       		.byte	0x6
 6942 063d DB       		.byte	0xdb
 6943 063e EB020000 		.4byte	0x2eb
 6944 0642 50       		.byte	0x50
 6945 0643 10       		.uleb128 0x10
 6946 0644 E1000000 		.4byte	.LASF142
 6947 0648 06       		.byte	0x6
 6948 0649 DE       		.byte	0xde
 6949 064a 92060000 		.4byte	0x692
 6950 064e 54       		.byte	0x54
 6951 064f 10       		.uleb128 0x10
 6952 0650 FC070000 		.4byte	.LASF143
 6953 0654 06       		.byte	0x6
 6954 0655 E2       		.byte	0xe2
ARM GAS  C:\Users\mathi\AppData\Local\Temp\ccF8t5t9.s 			page 123


 6955 0656 68030000 		.4byte	0x368
 6956 065a 58       		.byte	0x58
 6957 065b 10       		.uleb128 0x10
 6958 065c 860D0000 		.4byte	.LASF144
 6959 0660 06       		.byte	0x6
 6960 0661 E4       		.byte	0xe4
 6961 0662 5D030000 		.4byte	0x35d
 6962 0666 5C       		.byte	0x5c
 6963 0667 10       		.uleb128 0x10
 6964 0668 11080000 		.4byte	.LASF145
 6965 066c 06       		.byte	0x6
 6966 066d E5       		.byte	0xe5
 6967 066e 9D020000 		.4byte	0x29d
 6968 0672 64       		.byte	0x64
 6969 0673 00       		.byte	0
 6970 0674 18       		.uleb128 0x18
 6971 0675 9D020000 		.4byte	0x29d
 6972 0679 92060000 		.4byte	0x692
 6973 067d 19       		.uleb128 0x19
 6974 067e 92060000 		.4byte	0x692
 6975 0682 19       		.uleb128 0x19
 6976 0683 73030000 		.4byte	0x373
 6977 0687 19       		.uleb128 0x19
 6978 0688 75030000 		.4byte	0x375
 6979 068c 19       		.uleb128 0x19
 6980 068d 9D020000 		.4byte	0x29d
 6981 0691 00       		.byte	0
 6982 0692 08       		.uleb128 0x8
 6983 0693 04       		.byte	0x4
 6984 0694 9D060000 		.4byte	0x69d
 6985 0698 12       		.uleb128 0x12
 6986 0699 92060000 		.4byte	0x692
 6987 069d 1A       		.uleb128 0x1a
 6988 069e 140E0000 		.4byte	.LASF146
 6989 06a2 2804     		.2byte	0x428
 6990 06a4 06       		.byte	0x6
 6991 06a5 3902     		.2byte	0x239
 6992 06a7 CF070000 		.4byte	0x7cf
 6993 06ab 1B       		.uleb128 0x1b
 6994 06ac C00E0000 		.4byte	.LASF147
 6995 06b0 06       		.byte	0x6
 6996 06b1 3B02     		.2byte	0x23b
 6997 06b3 9D020000 		.4byte	0x29d
 6998 06b7 00       		.byte	0
 6999 06b8 1B       		.uleb128 0x1b
 7000 06b9 BF030000 		.4byte	.LASF148
 7001 06bd 06       		.byte	0x6
 7002 06be 4002     		.2byte	0x240
 7003 06c0 A4080000 		.4byte	0x8a4
 7004 06c4 04       		.byte	0x4
 7005 06c5 1B       		.uleb128 0x1b
 7006 06c6 24060000 		.4byte	.LASF149
 7007 06ca 06       		.byte	0x6
 7008 06cb 4002     		.2byte	0x240
 7009 06cd A4080000 		.4byte	0x8a4
 7010 06d1 08       		.byte	0x8
 7011 06d2 1B       		.uleb128 0x1b
ARM GAS  C:\Users\mathi\AppData\Local\Temp\ccF8t5t9.s 			page 124


 7012 06d3 53050000 		.4byte	.LASF150
 7013 06d7 06       		.byte	0x6
 7014 06d8 4002     		.2byte	0x240
 7015 06da A4080000 		.4byte	0x8a4
 7016 06de 0C       		.byte	0xc
 7017 06df 1B       		.uleb128 0x1b
 7018 06e0 C60D0000 		.4byte	.LASF151
 7019 06e4 06       		.byte	0x6
 7020 06e5 4202     		.2byte	0x242
 7021 06e7 9D020000 		.4byte	0x29d
 7022 06eb 10       		.byte	0x10
 7023 06ec 1B       		.uleb128 0x1b
 7024 06ed 8D000000 		.4byte	.LASF152
 7025 06f1 06       		.byte	0x6
 7026 06f2 4302     		.2byte	0x243
 7027 06f4 860A0000 		.4byte	0xa86
 7028 06f8 14       		.byte	0x14
 7029 06f9 1B       		.uleb128 0x1b
 7030 06fa E20D0000 		.4byte	.LASF153
 7031 06fe 06       		.byte	0x6
 7032 06ff 4602     		.2byte	0x246
 7033 0701 9D020000 		.4byte	0x29d
 7034 0705 30       		.byte	0x30
 7035 0706 1B       		.uleb128 0x1b
 7036 0707 D00D0000 		.4byte	.LASF154
 7037 070b 06       		.byte	0x6
 7038 070c 4702     		.2byte	0x247
 7039 070e 9B0A0000 		.4byte	0xa9b
 7040 0712 34       		.byte	0x34
 7041 0713 1B       		.uleb128 0x1b
 7042 0714 0F040000 		.4byte	.LASF155
 7043 0718 06       		.byte	0x6
 7044 0719 4902     		.2byte	0x249
 7045 071b 9D020000 		.4byte	0x29d
 7046 071f 38       		.byte	0x38
 7047 0720 1B       		.uleb128 0x1b
 7048 0721 D80D0000 		.4byte	.LASF156
 7049 0725 06       		.byte	0x6
 7050 0726 4B02     		.2byte	0x24b
 7051 0728 AC0A0000 		.4byte	0xaac
 7052 072c 3C       		.byte	0x3c
 7053 072d 1B       		.uleb128 0x1b
 7054 072e A7070000 		.4byte	.LASF157
 7055 0732 06       		.byte	0x6
 7056 0733 4E02     		.2byte	0x24e
 7057 0735 E5030000 		.4byte	0x3e5
 7058 0739 40       		.byte	0x40
 7059 073a 1B       		.uleb128 0x1b
 7060 073b 78050000 		.4byte	.LASF158
 7061 073f 06       		.byte	0x6
 7062 0740 4F02     		.2byte	0x24f
 7063 0742 9D020000 		.4byte	0x29d
 7064 0746 44       		.byte	0x44
 7065 0747 1B       		.uleb128 0x1b
 7066 0748 1B120000 		.4byte	.LASF159
 7067 074c 06       		.byte	0x6
 7068 074d 5002     		.2byte	0x250
ARM GAS  C:\Users\mathi\AppData\Local\Temp\ccF8t5t9.s 			page 125


 7069 074f E5030000 		.4byte	0x3e5
 7070 0753 48       		.byte	0x48
 7071 0754 1B       		.uleb128 0x1b
 7072 0755 C70B0000 		.4byte	.LASF160
 7073 0759 06       		.byte	0x6
 7074 075a 5102     		.2byte	0x251
 7075 075c B20A0000 		.4byte	0xab2
 7076 0760 4C       		.byte	0x4c
 7077 0761 1B       		.uleb128 0x1b
 7078 0762 A9000000 		.4byte	.LASF161
 7079 0766 06       		.byte	0x6
 7080 0767 5402     		.2byte	0x254
 7081 0769 9D020000 		.4byte	0x29d
 7082 076d 50       		.byte	0x50
 7083 076e 1B       		.uleb128 0x1b
 7084 076f 31040000 		.4byte	.LASF162
 7085 0773 06       		.byte	0x6
 7086 0774 5502     		.2byte	0x255
 7087 0776 75030000 		.4byte	0x375
 7088 077a 54       		.byte	0x54
 7089 077b 1B       		.uleb128 0x1b
 7090 077c A70C0000 		.4byte	.LASF163
 7091 0780 06       		.byte	0x6
 7092 0781 7802     		.2byte	0x278
 7093 0783 640A0000 		.4byte	0xa64
 7094 0787 58       		.byte	0x58
 7095 0788 1C       		.uleb128 0x1c
 7096 0789 D6090000 		.4byte	.LASF123
 7097 078d 06       		.byte	0x6
 7098 078e 7C02     		.2byte	0x27c
 7099 0790 02050000 		.4byte	0x502
 7100 0794 4801     		.2byte	0x148
 7101 0796 1C       		.uleb128 0x1c
 7102 0797 C4000000 		.4byte	.LASF164
 7103 079b 06       		.byte	0x6
 7104 079c 7D02     		.2byte	0x27d
 7105 079e C4040000 		.4byte	0x4c4
 7106 07a2 4C01     		.2byte	0x14c
 7107 07a4 1C       		.uleb128 0x1c
 7108 07a5 47110000 		.4byte	.LASF165
 7109 07a9 06       		.byte	0x6
 7110 07aa 8102     		.2byte	0x281
 7111 07ac C30A0000 		.4byte	0xac3
 7112 07b0 DC02     		.2byte	0x2dc
 7113 07b2 1C       		.uleb128 0x1c
 7114 07b3 87030000 		.4byte	.LASF166
 7115 07b7 06       		.byte	0x6
 7116 07b8 8602     		.2byte	0x286
 7117 07ba 69080000 		.4byte	0x869
 7118 07be E002     		.2byte	0x2e0
 7119 07c0 1C       		.uleb128 0x1c
 7120 07c1 27030000 		.4byte	.LASF167
 7121 07c5 06       		.byte	0x6
 7122 07c6 8802     		.2byte	0x288
 7123 07c8 CF0A0000 		.4byte	0xacf
 7124 07cc EC02     		.2byte	0x2ec
 7125 07ce 00       		.byte	0
ARM GAS  C:\Users\mathi\AppData\Local\Temp\ccF8t5t9.s 			page 126


 7126 07cf 08       		.uleb128 0x8
 7127 07d0 04       		.byte	0x4
 7128 07d1 74060000 		.4byte	0x674
 7129 07d5 18       		.uleb128 0x18
 7130 07d6 9D020000 		.4byte	0x29d
 7131 07da F3070000 		.4byte	0x7f3
 7132 07de 19       		.uleb128 0x19
 7133 07df 92060000 		.4byte	0x692
 7134 07e3 19       		.uleb128 0x19
 7135 07e4 73030000 		.4byte	0x373
 7136 07e8 19       		.uleb128 0x19
 7137 07e9 F3070000 		.4byte	0x7f3
 7138 07ed 19       		.uleb128 0x19
 7139 07ee 9D020000 		.4byte	0x29d
 7140 07f2 00       		.byte	0
 7141 07f3 08       		.uleb128 0x8
 7142 07f4 04       		.byte	0x4
 7143 07f5 82030000 		.4byte	0x382
 7144 07f9 08       		.uleb128 0x8
 7145 07fa 04       		.byte	0x4
 7146 07fb D5070000 		.4byte	0x7d5
 7147 07ff 18       		.uleb128 0x18
 7148 0800 F6020000 		.4byte	0x2f6
 7149 0804 1D080000 		.4byte	0x81d
 7150 0808 19       		.uleb128 0x19
 7151 0809 92060000 		.4byte	0x692
 7152 080d 19       		.uleb128 0x19
 7153 080e 73030000 		.4byte	0x373
 7154 0812 19       		.uleb128 0x19
 7155 0813 F6020000 		.4byte	0x2f6
 7156 0817 19       		.uleb128 0x19
 7157 0818 9D020000 		.4byte	0x29d
 7158 081c 00       		.byte	0
 7159 081d 08       		.uleb128 0x8
 7160 081e 04       		.byte	0x4
 7161 081f FF070000 		.4byte	0x7ff
 7162 0823 18       		.uleb128 0x18
 7163 0824 9D020000 		.4byte	0x29d
 7164 0828 37080000 		.4byte	0x837
 7165 082c 19       		.uleb128 0x19
 7166 082d 92060000 		.4byte	0x692
 7167 0831 19       		.uleb128 0x19
 7168 0832 73030000 		.4byte	0x373
 7169 0836 00       		.byte	0
 7170 0837 08       		.uleb128 0x8
 7171 0838 04       		.byte	0x4
 7172 0839 23080000 		.4byte	0x823
 7173 083d 0D       		.uleb128 0xd
 7174 083e 8D000000 		.4byte	0x8d
 7175 0842 4D080000 		.4byte	0x84d
 7176 0846 0E       		.uleb128 0xe
 7177 0847 96020000 		.4byte	0x296
 7178 084b 02       		.byte	0x2
 7179 084c 00       		.byte	0
 7180 084d 0D       		.uleb128 0xd
 7181 084e 8D000000 		.4byte	0x8d
 7182 0852 5D080000 		.4byte	0x85d
ARM GAS  C:\Users\mathi\AppData\Local\Temp\ccF8t5t9.s 			page 127


 7183 0856 0E       		.uleb128 0xe
 7184 0857 96020000 		.4byte	0x296
 7185 085b 00       		.byte	0
 7186 085c 00       		.byte	0
 7187 085d 0A       		.uleb128 0xa
 7188 085e 6C0D0000 		.4byte	.LASF168
 7189 0862 06       		.byte	0x6
 7190 0863 1F01     		.2byte	0x11f
 7191 0865 4A050000 		.4byte	0x54a
 7192 0869 1D       		.uleb128 0x1d
 7193 086a DE100000 		.4byte	.LASF169
 7194 086e 0C       		.byte	0xc
 7195 086f 06       		.byte	0x6
 7196 0870 2301     		.2byte	0x123
 7197 0872 9E080000 		.4byte	0x89e
 7198 0876 1B       		.uleb128 0x1b
 7199 0877 530F0000 		.4byte	.LASF103
 7200 087b 06       		.byte	0x6
 7201 087c 2501     		.2byte	0x125
 7202 087e 9E080000 		.4byte	0x89e
 7203 0882 00       		.byte	0
 7204 0883 1B       		.uleb128 0x1b
 7205 0884 1B070000 		.4byte	.LASF170
 7206 0888 06       		.byte	0x6
 7207 0889 2601     		.2byte	0x126
 7208 088b 9D020000 		.4byte	0x29d
 7209 088f 04       		.byte	0x4
 7210 0890 1B       		.uleb128 0x1b
 7211 0891 660D0000 		.4byte	.LASF171
 7212 0895 06       		.byte	0x6
 7213 0896 2701     		.2byte	0x127
 7214 0898 A4080000 		.4byte	0x8a4
 7215 089c 08       		.byte	0x8
 7216 089d 00       		.byte	0
 7217 089e 08       		.uleb128 0x8
 7218 089f 04       		.byte	0x4
 7219 08a0 69080000 		.4byte	0x869
 7220 08a4 08       		.uleb128 0x8
 7221 08a5 04       		.byte	0x4
 7222 08a6 5D080000 		.4byte	0x85d
 7223 08aa 1D       		.uleb128 0x1d
 7224 08ab 85000000 		.4byte	.LASF172
 7225 08af 0E       		.byte	0xe
 7226 08b0 06       		.byte	0x6
 7227 08b1 3F01     		.2byte	0x13f
 7228 08b3 DF080000 		.4byte	0x8df
 7229 08b7 1B       		.uleb128 0x1b
 7230 08b8 2F0E0000 		.4byte	.LASF173
 7231 08bc 06       		.byte	0x6
 7232 08bd 4001     		.2byte	0x140
 7233 08bf DF080000 		.4byte	0x8df
 7234 08c3 00       		.byte	0
 7235 08c4 1B       		.uleb128 0x1b
 7236 08c5 4D0F0000 		.4byte	.LASF174
 7237 08c9 06       		.byte	0x6
 7238 08ca 4101     		.2byte	0x141
 7239 08cc DF080000 		.4byte	0x8df
ARM GAS  C:\Users\mathi\AppData\Local\Temp\ccF8t5t9.s 			page 128


 7240 08d0 06       		.byte	0x6
 7241 08d1 1B       		.uleb128 0x1b
 7242 08d2 BE0F0000 		.4byte	.LASF175
 7243 08d6 06       		.byte	0x6
 7244 08d7 4201     		.2byte	0x142
 7245 08d9 70010000 		.4byte	0x170
 7246 08dd 0C       		.byte	0xc
 7247 08de 00       		.byte	0
 7248 08df 0D       		.uleb128 0xd
 7249 08e0 70010000 		.4byte	0x170
 7250 08e4 EF080000 		.4byte	0x8ef
 7251 08e8 0E       		.uleb128 0xe
 7252 08e9 96020000 		.4byte	0x296
 7253 08ed 02       		.byte	0x2
 7254 08ee 00       		.byte	0
 7255 08ef 1E       		.uleb128 0x1e
 7256 08f0 D0       		.byte	0xd0
 7257 08f1 06       		.byte	0x6
 7258 08f2 5902     		.2byte	0x259
 7259 08f4 F0090000 		.4byte	0x9f0
 7260 08f8 1B       		.uleb128 0x1b
 7261 08f9 75100000 		.4byte	.LASF176
 7262 08fd 06       		.byte	0x6
 7263 08fe 5B02     		.2byte	0x25b
 7264 0900 96020000 		.4byte	0x296
 7265 0904 00       		.byte	0
 7266 0905 1B       		.uleb128 0x1b
 7267 0906 82040000 		.4byte	.LASF177
 7268 090a 06       		.byte	0x6
 7269 090b 5C02     		.2byte	0x25c
 7270 090d 75030000 		.4byte	0x375
 7271 0911 04       		.byte	0x4
 7272 0912 1B       		.uleb128 0x1b
 7273 0913 6F070000 		.4byte	.LASF178
 7274 0917 06       		.byte	0x6
 7275 0918 5D02     		.2byte	0x25d
 7276 091a F0090000 		.4byte	0x9f0
 7277 091e 08       		.byte	0x8
 7278 091f 1B       		.uleb128 0x1b
 7279 0920 CF110000 		.4byte	.LASF179
 7280 0924 06       		.byte	0x6
 7281 0925 5E02     		.2byte	0x25e
 7282 0927 FB030000 		.4byte	0x3fb
 7283 092b 24       		.byte	0x24
 7284 092c 1B       		.uleb128 0x1b
 7285 092d 63050000 		.4byte	.LASF180
 7286 0931 06       		.byte	0x6
 7287 0932 5F02     		.2byte	0x25f
 7288 0934 9D020000 		.4byte	0x29d
 7289 0938 48       		.byte	0x48
 7290 0939 1B       		.uleb128 0x1b
 7291 093a 8F0D0000 		.4byte	.LASF181
 7292 093e 06       		.byte	0x6
 7293 093f 6002     		.2byte	0x260
 7294 0941 CE020000 		.4byte	0x2ce
 7295 0945 50       		.byte	0x50
 7296 0946 1B       		.uleb128 0x1b
ARM GAS  C:\Users\mathi\AppData\Local\Temp\ccF8t5t9.s 			page 129


 7297 0947 02120000 		.4byte	.LASF182
 7298 094b 06       		.byte	0x6
 7299 094c 6102     		.2byte	0x261
 7300 094e AA080000 		.4byte	0x8aa
 7301 0952 58       		.byte	0x58
 7302 0953 1B       		.uleb128 0x1b
 7303 0954 B90D0000 		.4byte	.LASF183
 7304 0958 06       		.byte	0x6
 7305 0959 6202     		.2byte	0x262
 7306 095b 5D030000 		.4byte	0x35d
 7307 095f 68       		.byte	0x68
 7308 0960 1B       		.uleb128 0x1b
 7309 0961 0D120000 		.4byte	.LASF184
 7310 0965 06       		.byte	0x6
 7311 0966 6302     		.2byte	0x263
 7312 0968 5D030000 		.4byte	0x35d
 7313 096c 70       		.byte	0x70
 7314 096d 1B       		.uleb128 0x1b
 7315 096e 150C0000 		.4byte	.LASF185
 7316 0972 06       		.byte	0x6
 7317 0973 6402     		.2byte	0x264
 7318 0975 5D030000 		.4byte	0x35d
 7319 0979 78       		.byte	0x78
 7320 097a 1B       		.uleb128 0x1b
 7321 097b 29110000 		.4byte	.LASF186
 7322 097f 06       		.byte	0x6
 7323 0980 6502     		.2byte	0x265
 7324 0982 000A0000 		.4byte	0xa00
 7325 0986 80       		.byte	0x80
 7326 0987 1B       		.uleb128 0x1b
 7327 0988 63070000 		.4byte	.LASF187
 7328 098c 06       		.byte	0x6
 7329 098d 6602     		.2byte	0x266
 7330 098f 100A0000 		.4byte	0xa10
 7331 0993 88       		.byte	0x88
 7332 0994 1B       		.uleb128 0x1b
 7333 0995 CB0F0000 		.4byte	.LASF188
 7334 0999 06       		.byte	0x6
 7335 099a 6702     		.2byte	0x267
 7336 099c 9D020000 		.4byte	0x29d
 7337 09a0 A0       		.byte	0xa0
 7338 09a1 1B       		.uleb128 0x1b
 7339 09a2 8F040000 		.4byte	.LASF189
 7340 09a6 06       		.byte	0x6
 7341 09a7 6802     		.2byte	0x268
 7342 09a9 5D030000 		.4byte	0x35d
 7343 09ad A4       		.byte	0xa4
 7344 09ae 1B       		.uleb128 0x1b
 7345 09af 4A020000 		.4byte	.LASF190
 7346 09b3 06       		.byte	0x6
 7347 09b4 6902     		.2byte	0x269
 7348 09b6 5D030000 		.4byte	0x35d
 7349 09ba AC       		.byte	0xac
 7350 09bb 1B       		.uleb128 0x1b
 7351 09bc A5040000 		.4byte	.LASF191
 7352 09c0 06       		.byte	0x6
 7353 09c1 6A02     		.2byte	0x26a
ARM GAS  C:\Users\mathi\AppData\Local\Temp\ccF8t5t9.s 			page 130


 7354 09c3 5D030000 		.4byte	0x35d
 7355 09c7 B4       		.byte	0xb4
 7356 09c8 1B       		.uleb128 0x1b
 7357 09c9 15010000 		.4byte	.LASF192
 7358 09cd 06       		.byte	0x6
 7359 09ce 6B02     		.2byte	0x26b
 7360 09d0 5D030000 		.4byte	0x35d
 7361 09d4 BC       		.byte	0xbc
 7362 09d5 1B       		.uleb128 0x1b
 7363 09d6 EB050000 		.4byte	.LASF193
 7364 09da 06       		.byte	0x6
 7365 09db 6C02     		.2byte	0x26c
 7366 09dd 5D030000 		.4byte	0x35d
 7367 09e1 C4       		.byte	0xc4
 7368 09e2 1B       		.uleb128 0x1b
 7369 09e3 420D0000 		.4byte	.LASF194
 7370 09e7 06       		.byte	0x6
 7371 09e8 6D02     		.2byte	0x26d
 7372 09ea 9D020000 		.4byte	0x29d
 7373 09ee CC       		.byte	0xcc
 7374 09ef 00       		.byte	0
 7375 09f0 0D       		.uleb128 0xd
 7376 09f1 7B030000 		.4byte	0x37b
 7377 09f5 000A0000 		.4byte	0xa00
 7378 09f9 0E       		.uleb128 0xe
 7379 09fa 96020000 		.4byte	0x296
 7380 09fe 19       		.byte	0x19
 7381 09ff 00       		.byte	0
 7382 0a00 0D       		.uleb128 0xd
 7383 0a01 7B030000 		.4byte	0x37b
 7384 0a05 100A0000 		.4byte	0xa10
 7385 0a09 0E       		.uleb128 0xe
 7386 0a0a 96020000 		.4byte	0x296
 7387 0a0e 07       		.byte	0x7
 7388 0a0f 00       		.byte	0
 7389 0a10 0D       		.uleb128 0xd
 7390 0a11 7B030000 		.4byte	0x37b
 7391 0a15 200A0000 		.4byte	0xa20
 7392 0a19 0E       		.uleb128 0xe
 7393 0a1a 96020000 		.4byte	0x296
 7394 0a1e 17       		.byte	0x17
 7395 0a1f 00       		.byte	0
 7396 0a20 1E       		.uleb128 0x1e
 7397 0a21 F0       		.byte	0xf0
 7398 0a22 06       		.byte	0x6
 7399 0a23 7202     		.2byte	0x272
 7400 0a25 440A0000 		.4byte	0xa44
 7401 0a29 1B       		.uleb128 0x1b
 7402 0a2a 8F090000 		.4byte	.LASF195
 7403 0a2e 06       		.byte	0x6
 7404 0a2f 7502     		.2byte	0x275
 7405 0a31 440A0000 		.4byte	0xa44
 7406 0a35 00       		.byte	0
 7407 0a36 1B       		.uleb128 0x1b
 7408 0a37 D1080000 		.4byte	.LASF196
 7409 0a3b 06       		.byte	0x6
 7410 0a3c 7602     		.2byte	0x276
ARM GAS  C:\Users\mathi\AppData\Local\Temp\ccF8t5t9.s 			page 131


 7411 0a3e 540A0000 		.4byte	0xa54
 7412 0a42 78       		.byte	0x78
 7413 0a43 00       		.byte	0
 7414 0a44 0D       		.uleb128 0xd
 7415 0a45 44050000 		.4byte	0x544
 7416 0a49 540A0000 		.4byte	0xa54
 7417 0a4d 0E       		.uleb128 0xe
 7418 0a4e 96020000 		.4byte	0x296
 7419 0a52 1D       		.byte	0x1d
 7420 0a53 00       		.byte	0
 7421 0a54 0D       		.uleb128 0xd
 7422 0a55 96020000 		.4byte	0x296
 7423 0a59 640A0000 		.4byte	0xa64
 7424 0a5d 0E       		.uleb128 0xe
 7425 0a5e 96020000 		.4byte	0x296
 7426 0a62 1D       		.byte	0x1d
 7427 0a63 00       		.byte	0
 7428 0a64 1F       		.uleb128 0x1f
 7429 0a65 F0       		.byte	0xf0
 7430 0a66 06       		.byte	0x6
 7431 0a67 5702     		.2byte	0x257
 7432 0a69 860A0000 		.4byte	0xa86
 7433 0a6d 20       		.uleb128 0x20
 7434 0a6e 140E0000 		.4byte	.LASF146
 7435 0a72 06       		.byte	0x6
 7436 0a73 6E02     		.2byte	0x26e
 7437 0a75 EF080000 		.4byte	0x8ef
 7438 0a79 20       		.uleb128 0x20
 7439 0a7a 93110000 		.4byte	.LASF197
 7440 0a7e 06       		.byte	0x6
 7441 0a7f 7702     		.2byte	0x277
 7442 0a81 200A0000 		.4byte	0xa20
 7443 0a85 00       		.byte	0
 7444 0a86 0D       		.uleb128 0xd
 7445 0a87 7B030000 		.4byte	0x37b
 7446 0a8b 960A0000 		.4byte	0xa96
 7447 0a8f 0E       		.uleb128 0xe
 7448 0a90 96020000 		.4byte	0x296
 7449 0a94 18       		.byte	0x18
 7450 0a95 00       		.byte	0
 7451 0a96 09       		.uleb128 0x9
 7452 0a97 F3010000 		.4byte	.LASF199
 7453 0a9b 08       		.uleb128 0x8
 7454 0a9c 04       		.byte	0x4
 7455 0a9d 960A0000 		.4byte	0xa96
 7456 0aa1 21       		.uleb128 0x21
 7457 0aa2 AC0A0000 		.4byte	0xaac
 7458 0aa6 19       		.uleb128 0x19
 7459 0aa7 92060000 		.4byte	0x692
 7460 0aab 00       		.byte	0
 7461 0aac 08       		.uleb128 0x8
 7462 0aad 04       		.byte	0x4
 7463 0aae A10A0000 		.4byte	0xaa1
 7464 0ab2 08       		.uleb128 0x8
 7465 0ab3 04       		.byte	0x4
 7466 0ab4 E5030000 		.4byte	0x3e5
 7467 0ab8 21       		.uleb128 0x21
ARM GAS  C:\Users\mathi\AppData\Local\Temp\ccF8t5t9.s 			page 132


 7468 0ab9 C30A0000 		.4byte	0xac3
 7469 0abd 19       		.uleb128 0x19
 7470 0abe 9D020000 		.4byte	0x29d
 7471 0ac2 00       		.byte	0
 7472 0ac3 08       		.uleb128 0x8
 7473 0ac4 04       		.byte	0x4
 7474 0ac5 C90A0000 		.4byte	0xac9
 7475 0ac9 08       		.uleb128 0x8
 7476 0aca 04       		.byte	0x4
 7477 0acb B80A0000 		.4byte	0xab8
 7478 0acf 0D       		.uleb128 0xd
 7479 0ad0 5D080000 		.4byte	0x85d
 7480 0ad4 DF0A0000 		.4byte	0xadf
 7481 0ad8 0E       		.uleb128 0xe
 7482 0ad9 96020000 		.4byte	0x296
 7483 0add 02       		.byte	0x2
 7484 0ade 00       		.byte	0
 7485 0adf 22       		.uleb128 0x22
 7486 0ae0 98030000 		.4byte	.LASF200
 7487 0ae4 06       		.byte	0x6
 7488 0ae5 0703     		.2byte	0x307
 7489 0ae7 92060000 		.4byte	0x692
 7490 0aeb 22       		.uleb128 0x22
 7491 0aec 28100000 		.4byte	.LASF201
 7492 0af0 06       		.byte	0x6
 7493 0af1 0803     		.2byte	0x308
 7494 0af3 98060000 		.4byte	0x698
 7495 0af7 23       		.uleb128 0x23
 7496 0af8 DE090000 		.4byte	.LASF202
 7497 0afc 07       		.byte	0x7
 7498 0afd 63       		.byte	0x63
 7499 0afe 75030000 		.4byte	0x375
 7500 0b02 07       		.uleb128 0x7
 7501 0b03 56080000 		.4byte	.LASF203
 7502 0b07 08       		.byte	0x8
 7503 0b08 23       		.byte	0x23
 7504 0b09 B9020000 		.4byte	0x2b9
 7505 0b0d 07       		.uleb128 0x7
 7506 0b0e 19000000 		.4byte	.LASF204
 7507 0b12 08       		.byte	0x8
 7508 0b13 24       		.byte	0x24
 7509 0b14 70010000 		.4byte	0x170
 7510 0b18 12       		.uleb128 0x12
 7511 0b19 0D0B0000 		.4byte	0xb0d
 7512 0b1d 07       		.uleb128 0x7
 7513 0b1e D6030000 		.4byte	.LASF205
 7514 0b22 08       		.byte	0x8
 7515 0b23 26       		.byte	0x26
 7516 0b24 8D000000 		.4byte	0x8d
 7517 0b28 12       		.uleb128 0x12
 7518 0b29 1D0B0000 		.4byte	0xb1d
 7519 0b2d 02       		.uleb128 0x2
 7520 0b2e 07       		.byte	0x7
 7521 0b2f 01       		.byte	0x1
 7522 0b30 8D000000 		.4byte	0x8d
 7523 0b34 09       		.byte	0x9
 7524 0b35 37       		.byte	0x37
ARM GAS  C:\Users\mathi\AppData\Local\Temp\ccF8t5t9.s 			page 133


 7525 0b36 410B0000 		.4byte	0xb41
 7526 0b3a 03       		.uleb128 0x3
 7527 0b3b 71030000 		.4byte	.LASF206
 7528 0b3f 10       		.byte	0x10
 7529 0b40 00       		.byte	0
 7530 0b41 0F       		.uleb128 0xf
 7531 0b42 40       		.byte	0x40
 7532 0b43 09       		.byte	0x9
 7533 0b44 45       		.byte	0x45
 7534 0b45 D80B0000 		.4byte	0xbd8
 7535 0b49 10       		.uleb128 0x10
 7536 0b4a 24050000 		.4byte	.LASF207
 7537 0b4e 09       		.byte	0x9
 7538 0b4f 48       		.byte	0x48
 7539 0b50 0D0B0000 		.4byte	0xb0d
 7540 0b54 00       		.byte	0
 7541 0b55 10       		.uleb128 0x10
 7542 0b56 0C000000 		.4byte	.LASF208
 7543 0b5a 09       		.byte	0x9
 7544 0b5b 4B       		.byte	0x4b
 7545 0b5c 0D0B0000 		.4byte	0xb0d
 7546 0b60 02       		.byte	0x2
 7547 0b61 10       		.uleb128 0x10
 7548 0b62 31080000 		.4byte	.LASF209
 7549 0b66 09       		.byte	0x9
 7550 0b67 4C       		.byte	0x4c
 7551 0b68 D80B0000 		.4byte	0xbd8
 7552 0b6c 04       		.byte	0x4
 7553 0b6d 10       		.uleb128 0x10
 7554 0b6e 6C010000 		.4byte	.LASF210
 7555 0b72 09       		.byte	0x9
 7556 0b73 4F       		.byte	0x4f
 7557 0b74 0D0B0000 		.4byte	0xb0d
 7558 0b78 08       		.byte	0x8
 7559 0b79 10       		.uleb128 0x10
 7560 0b7a 7B000000 		.4byte	.LASF211
 7561 0b7e 09       		.byte	0x9
 7562 0b7f 50       		.byte	0x50
 7563 0b80 DE0B0000 		.4byte	0xbde
 7564 0b84 0C       		.byte	0xc
 7565 0b85 10       		.uleb128 0x10
 7566 0b86 DD0E0000 		.4byte	.LASF212
 7567 0b8a 09       		.byte	0x9
 7568 0b8b 53       		.byte	0x53
 7569 0b8c 0D0B0000 		.4byte	0xb0d
 7570 0b90 10       		.byte	0x10
 7571 0b91 10       		.uleb128 0x10
 7572 0b92 51110000 		.4byte	.LASF213
 7573 0b96 09       		.byte	0x9
 7574 0b97 54       		.byte	0x54
 7575 0b98 DE0B0000 		.4byte	0xbde
 7576 0b9c 14       		.byte	0x14
 7577 0b9d 10       		.uleb128 0x10
 7578 0b9e 33110000 		.4byte	.LASF214
 7579 0ba2 09       		.byte	0x9
 7580 0ba3 57       		.byte	0x57
 7581 0ba4 0D0B0000 		.4byte	0xb0d
ARM GAS  C:\Users\mathi\AppData\Local\Temp\ccF8t5t9.s 			page 134


 7582 0ba8 18       		.byte	0x18
 7583 0ba9 14       		.uleb128 0x14
 7584 0baa 706300   		.ascii	"pc\000"
 7585 0bad 09       		.byte	0x9
 7586 0bae 58       		.byte	0x58
 7587 0baf 0D0B0000 		.4byte	0xb0d
 7588 0bb3 1A       		.byte	0x1a
 7589 0bb4 14       		.uleb128 0x14
 7590 0bb5 737000   		.ascii	"sp\000"
 7591 0bb8 09       		.byte	0x9
 7592 0bb9 59       		.byte	0x59
 7593 0bba 020B0000 		.4byte	0xb02
 7594 0bbe 1C       		.byte	0x1c
 7595 0bbf 10       		.uleb128 0x10
 7596 0bc0 A4030000 		.4byte	.LASF215
 7597 0bc4 09       		.byte	0x9
 7598 0bc5 5C       		.byte	0x5c
 7599 0bc6 E40B0000 		.4byte	0xbe4
 7600 0bca 1E       		.byte	0x1e
 7601 0bcb 10       		.uleb128 0x10
 7602 0bcc 230C0000 		.4byte	.LASF216
 7603 0bd0 09       		.byte	0x9
 7604 0bd1 5D       		.byte	0x5d
 7605 0bd2 0D0B0000 		.4byte	0xb0d
 7606 0bd6 3E       		.byte	0x3e
 7607 0bd7 00       		.byte	0
 7608 0bd8 08       		.uleb128 0x8
 7609 0bd9 04       		.byte	0x4
 7610 0bda 0D0B0000 		.4byte	0xb0d
 7611 0bde 08       		.uleb128 0x8
 7612 0bdf 04       		.byte	0x4
 7613 0be0 020B0000 		.4byte	0xb02
 7614 0be4 0D       		.uleb128 0xd
 7615 0be5 0D0B0000 		.4byte	0xb0d
 7616 0be9 F40B0000 		.4byte	0xbf4
 7617 0bed 0E       		.uleb128 0xe
 7618 0bee 96020000 		.4byte	0x296
 7619 0bf2 0F       		.byte	0xf
 7620 0bf3 00       		.byte	0
 7621 0bf4 07       		.uleb128 0x7
 7622 0bf5 F4080000 		.4byte	.LASF217
 7623 0bf9 09       		.byte	0x9
 7624 0bfa 5E       		.byte	0x5e
 7625 0bfb 410B0000 		.4byte	0xb41
 7626 0bff 24       		.uleb128 0x24
 7627 0c00 FE010000 		.4byte	.LASF231
 7628 0c04 01       		.byte	0x1
 7629 0c05 7303     		.2byte	0x373
 7630 0c07 0D0B0000 		.4byte	0xb0d
 7631 0c0b 00000000 		.4byte	.LFB17
 7632 0c0f 80000000 		.4byte	.LFE17-.LFB17
 7633 0c13 01       		.uleb128 0x1
 7634 0c14 9C       		.byte	0x9c
 7635 0c15 B50C0000 		.4byte	0xcb5
 7636 0c19 25       		.uleb128 0x25
 7637 0c1a 766D00   		.ascii	"vm\000"
 7638 0c1d 01       		.byte	0x1
ARM GAS  C:\Users\mathi\AppData\Local\Temp\ccF8t5t9.s 			page 135


 7639 0c1e 7303     		.2byte	0x373
 7640 0c20 B50C0000 		.4byte	0xcb5
 7641 0c24 00000000 		.4byte	.LLST111
 7642 0c28 26       		.uleb128 0x26
 7643 0c29 ED080000 		.4byte	.LASF218
 7644 0c2d 01       		.byte	0x1
 7645 0c2e 7303     		.2byte	0x373
 7646 0c30 0D0B0000 		.4byte	0xb0d
 7647 0c34 53000000 		.4byte	.LLST112
 7648 0c38 26       		.uleb128 0x26
 7649 0c39 CF010000 		.4byte	.LASF219
 7650 0c3d 01       		.byte	0x1
 7651 0c3e 7303     		.2byte	0x373
 7652 0c40 BB0C0000 		.4byte	0xcbb
 7653 0c44 A6000000 		.4byte	.LLST113
 7654 0c48 27       		.uleb128 0x27
 7655 0c49 83070000 		.4byte	.LASF220
 7656 0c4d 01       		.byte	0x1
 7657 0c4e 7603     		.2byte	0x376
 7658 0c50 0D0B0000 		.4byte	0xb0d
 7659 0c54 01       		.uleb128 0x1
 7660 0c55 54       		.byte	0x54
 7661 0c56 28       		.uleb128 0x28
 7662 0c57 4A000000 		.4byte	.LBB500
 7663 0c5b 28000000 		.4byte	.LBE500-.LBB500
 7664 0c5f 740C0000 		.4byte	0xc74
 7665 0c63 29       		.uleb128 0x29
 7666 0c64 E8090000 		.4byte	.LASF221
 7667 0c68 01       		.byte	0x1
 7668 0c69 7F03     		.2byte	0x37f
 7669 0c6b 0D0B0000 		.4byte	0xb0d
 7670 0c6f F9000000 		.4byte	.LLST116
 7671 0c73 00       		.byte	0
 7672 0c74 2A       		.uleb128 0x2a
 7673 0c75 811C0000 		.4byte	0x1c81
 7674 0c79 10000000 		.4byte	.LBB497
 7675 0c7d 08060000 		.4byte	.Ldebug_ranges0+0x608
 7676 0c81 01       		.byte	0x1
 7677 0c82 7A03     		.2byte	0x37a
 7678 0c84 AB0C0000 		.4byte	0xcab
 7679 0c88 2B       		.uleb128 0x2b
 7680 0c89 9B1C0000 		.4byte	0x1c9b
 7681 0c8d 19010000 		.4byte	.LLST114
 7682 0c91 2B       		.uleb128 0x2b
 7683 0c92 911C0000 		.4byte	0x1c91
 7684 0c96 42010000 		.4byte	.LLST115
 7685 0c9a 2C       		.uleb128 0x2c
 7686 0c9b 08060000 		.4byte	.Ldebug_ranges0+0x608
 7687 0c9f 2D       		.uleb128 0x2d
 7688 0ca0 201D0000 		.4byte	0x1d20
 7689 0ca4 2D       		.uleb128 0x2d
 7690 0ca5 271D0000 		.4byte	0x1d27
 7691 0ca9 00       		.byte	0
 7692 0caa 00       		.byte	0
 7693 0cab 2E       		.uleb128 0x2e
 7694 0cac 7A000000 		.4byte	.LVL784
 7695 0cb0 45270000 		.4byte	0x2745
ARM GAS  C:\Users\mathi\AppData\Local\Temp\ccF8t5t9.s 			page 136


 7696 0cb4 00       		.byte	0
 7697 0cb5 08       		.uleb128 0x8
 7698 0cb6 04       		.byte	0x4
 7699 0cb7 F40B0000 		.4byte	0xbf4
 7700 0cbb 08       		.uleb128 0x8
 7701 0cbc 04       		.byte	0x4
 7702 0cbd 280B0000 		.4byte	0xb28
 7703 0cc1 2F       		.uleb128 0x2f
 7704 0cc2 CD000000 		.4byte	.LASF237
 7705 0cc6 01       		.byte	0x1
 7706 0cc7 DE02     		.2byte	0x2de
 7707 0cc9 00000000 		.4byte	.LFB16
 7708 0ccd D6030000 		.4byte	.LFE16-.LFB16
 7709 0cd1 01       		.uleb128 0x1
 7710 0cd2 9C       		.byte	0x9c
 7711 0cd3 B2110000 		.4byte	0x11b2
 7712 0cd7 25       		.uleb128 0x25
 7713 0cd8 766D00   		.ascii	"vm\000"
 7714 0cdb 01       		.byte	0x1
 7715 0cdc DE02     		.2byte	0x2de
 7716 0cde B50C0000 		.4byte	0xcb5
 7717 0ce2 7F010000 		.4byte	.LLST80
 7718 0ce6 25       		.uleb128 0x25
 7719 0ce7 696400   		.ascii	"id\000"
 7720 0cea 01       		.byte	0x1
 7721 0ceb DE02     		.2byte	0x2de
 7722 0ced 0D0B0000 		.4byte	0xb0d
 7723 0cf1 0C020000 		.4byte	.LLST81
 7724 0cf5 26       		.uleb128 0x26
 7725 0cf6 CF010000 		.4byte	.LASF219
 7726 0cfa 01       		.byte	0x1
 7727 0cfb DE02     		.2byte	0x2de
 7728 0cfd D80B0000 		.4byte	0xbd8
 7729 0d01 78020000 		.4byte	.LLST82
 7730 0d05 26       		.uleb128 0x26
 7731 0d06 5B040000 		.4byte	.LASF222
 7732 0d0a 01       		.byte	0x1
 7733 0d0b DE02     		.2byte	0x2de
 7734 0d0d 0D0B0000 		.4byte	0xb0d
 7735 0d11 20040000 		.4byte	.LLST83
 7736 0d15 28       		.uleb128 0x28
 7737 0d16 34000000 		.4byte	.LBB443
 7738 0d1a 06000000 		.4byte	.LBE443-.LBB443
 7739 0d1e 330D0000 		.4byte	0xd33
 7740 0d22 29       		.uleb128 0x29
 7741 0d23 59020000 		.4byte	.LASF223
 7742 0d27 01       		.byte	0x1
 7743 0d28 E302     		.2byte	0x2e3
 7744 0d2a 180B0000 		.4byte	0xb18
 7745 0d2e 06060000 		.4byte	.LLST84
 7746 0d32 00       		.byte	0
 7747 0d33 28       		.uleb128 0x28
 7748 0d34 70000000 		.4byte	.LBB444
 7749 0d38 14000000 		.4byte	.LBE444-.LBB444
 7750 0d3c 6C0D0000 		.4byte	0xd6c
 7751 0d40 27       		.uleb128 0x27
 7752 0d41 59020000 		.4byte	.LASF223
ARM GAS  C:\Users\mathi\AppData\Local\Temp\ccF8t5t9.s 			page 137


 7753 0d45 01       		.byte	0x1
 7754 0d46 EC02     		.2byte	0x2ec
 7755 0d48 180B0000 		.4byte	0xb18
 7756 0d4c 02       		.uleb128 0x2
 7757 0d4d 91       		.byte	0x91
 7758 0d4e 5E       		.sleb128 -34
 7759 0d4f 30       		.uleb128 0x30
 7760 0d50 82000000 		.4byte	.LVL655
 7761 0d54 4E270000 		.4byte	0x274e
 7762 0d58 31       		.uleb128 0x31
 7763 0d59 01       		.uleb128 0x1
 7764 0d5a 51       		.byte	0x51
 7765 0d5b 03       		.uleb128 0x3
 7766 0d5c 0B       		.byte	0xb
 7767 0d5d 0C90     		.2byte	0x900c
 7768 0d5f 31       		.uleb128 0x31
 7769 0d60 01       		.uleb128 0x1
 7770 0d61 52       		.byte	0x52
 7771 0d62 02       		.uleb128 0x2
 7772 0d63 91       		.byte	0x91
 7773 0d64 5E       		.sleb128 -34
 7774 0d65 31       		.uleb128 0x31
 7775 0d66 01       		.uleb128 0x1
 7776 0d67 53       		.byte	0x53
 7777 0d68 01       		.uleb128 0x1
 7778 0d69 32       		.byte	0x32
 7779 0d6a 00       		.byte	0
 7780 0d6b 00       		.byte	0
 7781 0d6c 28       		.uleb128 0x28
 7782 0d6d AC000000 		.4byte	.LBB447
 7783 0d71 24000000 		.4byte	.LBE447-.LBB447
 7784 0d75 A80D0000 		.4byte	0xda8
 7785 0d79 29       		.uleb128 0x29
 7786 0d7a 07120000 		.4byte	.LASF224
 7787 0d7e 01       		.byte	0x1
 7788 0d7f 0003     		.2byte	0x300
 7789 0d81 0D0B0000 		.4byte	0xb0d
 7790 0d85 1A060000 		.4byte	.LLST86
 7791 0d89 29       		.uleb128 0x29
 7792 0d8a 57110000 		.4byte	.LASF225
 7793 0d8e 01       		.byte	0x1
 7794 0d8f 0103     		.2byte	0x301
 7795 0d91 0D0B0000 		.4byte	0xb0d
 7796 0d95 45060000 		.4byte	.LLST87
 7797 0d99 32       		.uleb128 0x32
 7798 0d9a 6900     		.ascii	"i\000"
 7799 0d9c 01       		.byte	0x1
 7800 0d9d 0203     		.2byte	0x302
 7801 0d9f 0D0B0000 		.4byte	0xb0d
 7802 0da3 6A060000 		.4byte	.LLST88
 7803 0da7 00       		.byte	0
 7804 0da8 33       		.uleb128 0x33
 7805 0da9 D0050000 		.4byte	.Ldebug_ranges0+0x5d0
 7806 0dad 0A0E0000 		.4byte	0xe0a
 7807 0db1 27       		.uleb128 0x27
 7808 0db2 460F0000 		.4byte	.LASF226
 7809 0db6 01       		.byte	0x1
ARM GAS  C:\Users\mathi\AppData\Local\Temp\ccF8t5t9.s 			page 138


 7810 0db7 3503     		.2byte	0x335
 7811 0db9 B2110000 		.4byte	0x11b2
 7812 0dbd 02       		.uleb128 0x2
 7813 0dbe 91       		.byte	0x91
 7814 0dbf 60       		.sleb128 -32
 7815 0dc0 2A       		.uleb128 0x2a
 7816 0dc1 6F120000 		.4byte	0x126f
 7817 0dc5 C0020000 		.4byte	.LBB485
 7818 0dc9 E8050000 		.4byte	.Ldebug_ranges0+0x5e8
 7819 0dcd 01       		.byte	0x1
 7820 0dce 3703     		.2byte	0x337
 7821 0dd0 E70D0000 		.4byte	0xde7
 7822 0dd4 2B       		.uleb128 0x2b
 7823 0dd5 8B120000 		.4byte	0x128b
 7824 0dd9 7E060000 		.4byte	.LLST106
 7825 0ddd 2B       		.uleb128 0x2b
 7826 0dde 80120000 		.4byte	0x1280
 7827 0de2 9C060000 		.4byte	.LLST107
 7828 0de6 00       		.byte	0
 7829 0de7 30       		.uleb128 0x30
 7830 0de8 EA020000 		.4byte	.LVL731
 7831 0dec 4E270000 		.4byte	0x274e
 7832 0df0 31       		.uleb128 0x31
 7833 0df1 01       		.uleb128 0x1
 7834 0df2 50       		.byte	0x50
 7835 0df3 02       		.uleb128 0x2
 7836 0df4 76       		.byte	0x76
 7837 0df5 00       		.sleb128 0
 7838 0df6 31       		.uleb128 0x31
 7839 0df7 01       		.uleb128 0x1
 7840 0df8 51       		.byte	0x51
 7841 0df9 03       		.uleb128 0x3
 7842 0dfa 0B       		.byte	0xb
 7843 0dfb 0B90     		.2byte	0x900b
 7844 0dfd 31       		.uleb128 0x31
 7845 0dfe 01       		.uleb128 0x1
 7846 0dff 52       		.byte	0x52
 7847 0e00 02       		.uleb128 0x2
 7848 0e01 91       		.byte	0x91
 7849 0e02 60       		.sleb128 -32
 7850 0e03 31       		.uleb128 0x31
 7851 0e04 01       		.uleb128 0x1
 7852 0e05 53       		.byte	0x53
 7853 0e06 01       		.uleb128 0x1
 7854 0e07 34       		.byte	0x34
 7855 0e08 00       		.byte	0
 7856 0e09 00       		.byte	0
 7857 0e0a 28       		.uleb128 0x28
 7858 0e0b 9E010000 		.4byte	.LBB475
 7859 0e0f 0A000000 		.4byte	.LBE475-.LBB475
 7860 0e13 480E0000 		.4byte	0xe48
 7861 0e17 29       		.uleb128 0x29
 7862 0e18 07120000 		.4byte	.LASF224
 7863 0e1c 01       		.byte	0x1
 7864 0e1d 4603     		.2byte	0x346
 7865 0e1f 0D0B0000 		.4byte	0xb0d
 7866 0e23 BA060000 		.4byte	.LLST101
ARM GAS  C:\Users\mathi\AppData\Local\Temp\ccF8t5t9.s 			page 139


 7867 0e27 29       		.uleb128 0x29
 7868 0e28 57110000 		.4byte	.LASF225
 7869 0e2c 01       		.byte	0x1
 7870 0e2d 4703     		.2byte	0x347
 7871 0e2f 0D0B0000 		.4byte	0xb0d
 7872 0e33 CE060000 		.4byte	.LLST102
 7873 0e37 30       		.uleb128 0x30
 7874 0e38 A8010000 		.4byte	.LVL699
 7875 0e3c 59270000 		.4byte	0x2759
 7876 0e40 31       		.uleb128 0x31
 7877 0e41 01       		.uleb128 0x1
 7878 0e42 50       		.byte	0x50
 7879 0e43 02       		.uleb128 0x2
 7880 0e44 76       		.byte	0x76
 7881 0e45 00       		.sleb128 0
 7882 0e46 00       		.byte	0
 7883 0e47 00       		.byte	0
 7884 0e48 28       		.uleb128 0x28
 7885 0e49 00030000 		.4byte	.LBB491
 7886 0e4d 2A000000 		.4byte	.LBE491-.LBB491
 7887 0e51 840E0000 		.4byte	0xe84
 7888 0e55 29       		.uleb128 0x29
 7889 0e56 07120000 		.4byte	.LASF224
 7890 0e5a 01       		.byte	0x1
 7891 0e5b 5203     		.2byte	0x352
 7892 0e5d 0D0B0000 		.4byte	0xb0d
 7893 0e61 E2060000 		.4byte	.LLST108
 7894 0e65 29       		.uleb128 0x29
 7895 0e66 57110000 		.4byte	.LASF225
 7896 0e6a 01       		.byte	0x1
 7897 0e6b 5303     		.2byte	0x353
 7898 0e6d 0D0B0000 		.4byte	0xb0d
 7899 0e71 F5060000 		.4byte	.LLST109
 7900 0e75 32       		.uleb128 0x32
 7901 0e76 6900     		.ascii	"i\000"
 7902 0e78 01       		.byte	0x1
 7903 0e79 5403     		.2byte	0x354
 7904 0e7b 0D0B0000 		.4byte	0xb0d
 7905 0e7f 1A070000 		.4byte	.LLST110
 7906 0e83 00       		.byte	0
 7907 0e84 34       		.uleb128 0x34
 7908 0e85 F3110000 		.4byte	0x11f3
 7909 0e89 90000000 		.4byte	.LBB445
 7910 0e8d 1C000000 		.4byte	.LBE445-.LBB445
 7911 0e91 01       		.byte	0x1
 7912 0e92 1303     		.2byte	0x313
 7913 0e94 D30E0000 		.4byte	0xed3
 7914 0e98 2B       		.uleb128 0x2b
 7915 0e99 00120000 		.4byte	0x1200
 7916 0e9d 2E070000 		.4byte	.LLST85
 7917 0ea1 35       		.uleb128 0x35
 7918 0ea2 90000000 		.4byte	.LBB446
 7919 0ea6 1C000000 		.4byte	.LBE446-.LBB446
 7920 0eaa 2D       		.uleb128 0x2d
 7921 0eab 0C270000 		.4byte	0x270c
 7922 0eaf 30       		.uleb128 0x30
 7923 0eb0 AA000000 		.4byte	.LVL660
ARM GAS  C:\Users\mathi\AppData\Local\Temp\ccF8t5t9.s 			page 140


 7924 0eb4 4E270000 		.4byte	0x274e
 7925 0eb8 31       		.uleb128 0x31
 7926 0eb9 01       		.uleb128 0x1
 7927 0eba 50       		.byte	0x50
 7928 0ebb 02       		.uleb128 0x2
 7929 0ebc 76       		.byte	0x76
 7930 0ebd 00       		.sleb128 0
 7931 0ebe 31       		.uleb128 0x31
 7932 0ebf 01       		.uleb128 0x1
 7933 0ec0 51       		.byte	0x51
 7934 0ec1 03       		.uleb128 0x3
 7935 0ec2 0B       		.byte	0xb
 7936 0ec3 0A90     		.2byte	0x900a
 7937 0ec5 31       		.uleb128 0x31
 7938 0ec6 01       		.uleb128 0x1
 7939 0ec7 52       		.byte	0x52
 7940 0ec8 02       		.uleb128 0x2
 7941 0ec9 91       		.byte	0x91
 7942 0eca 60       		.sleb128 -32
 7943 0ecb 31       		.uleb128 0x31
 7944 0ecc 01       		.uleb128 0x1
 7945 0ecd 53       		.byte	0x53
 7946 0ece 01       		.uleb128 0x1
 7947 0ecf 34       		.byte	0x34
 7948 0ed0 00       		.byte	0
 7949 0ed1 00       		.byte	0
 7950 0ed2 00       		.byte	0
 7951 0ed3 2A       		.uleb128 0x2a
 7952 0ed4 C2110000 		.4byte	0x11c2
 7953 0ed8 D0000000 		.4byte	.LBB448
 7954 0edc 20050000 		.4byte	.Ldebug_ranges0+0x520
 7955 0ee0 01       		.byte	0x1
 7956 0ee1 0E03     		.2byte	0x30e
 7957 0ee3 1C0F0000 		.4byte	0xf1c
 7958 0ee7 2B       		.uleb128 0x2b
 7959 0ee8 CF110000 		.4byte	0x11cf
 7960 0eec 41070000 		.4byte	.LLST89
 7961 0ef0 2B       		.uleb128 0x2b
 7962 0ef1 CF110000 		.4byte	0x11cf
 7963 0ef5 41070000 		.4byte	.LLST89
 7964 0ef9 2C       		.uleb128 0x2c
 7965 0efa 20050000 		.4byte	.Ldebug_ranges0+0x520
 7966 0efe 36       		.uleb128 0x36
 7967 0eff DA110000 		.4byte	0x11da
 7968 0f03 6A070000 		.4byte	.LLST91
 7969 0f07 37       		.uleb128 0x37
 7970 0f08 E4110000 		.4byte	0x11e4
 7971 0f0c 40050000 		.4byte	.Ldebug_ranges0+0x540
 7972 0f10 36       		.uleb128 0x36
 7973 0f11 E5110000 		.4byte	0x11e5
 7974 0f15 AA070000 		.4byte	.LLST92
 7975 0f19 00       		.byte	0
 7976 0f1a 00       		.byte	0
 7977 0f1b 00       		.byte	0
 7978 0f1c 2A       		.uleb128 0x2a
 7979 0f1d 501C0000 		.4byte	0x1c50
 7980 0f21 FA000000 		.4byte	.LBB455
ARM GAS  C:\Users\mathi\AppData\Local\Temp\ccF8t5t9.s 			page 141


 7981 0f25 58050000 		.4byte	.Ldebug_ranges0+0x558
 7982 0f29 01       		.byte	0x1
 7983 0f2a 1203     		.2byte	0x312
 7984 0f2c F40F0000 		.4byte	0xff4
 7985 0f30 2B       		.uleb128 0x2b
 7986 0f31 6A1C0000 		.4byte	0x1c6a
 7987 0f35 D9070000 		.4byte	.LLST93
 7988 0f39 2B       		.uleb128 0x2b
 7989 0f3a 601C0000 		.4byte	0x1c60
 7990 0f3e 08080000 		.4byte	.LLST94
 7991 0f42 2C       		.uleb128 0x2c
 7992 0f43 58050000 		.4byte	.Ldebug_ranges0+0x558
 7993 0f47 2D       		.uleb128 0x2d
 7994 0f48 5F1D0000 		.4byte	0x1d5f
 7995 0f4c 38       		.uleb128 0x38
 7996 0f4d 811C0000 		.4byte	0x1c81
 7997 0f51 FA000000 		.4byte	.LBB457
 7998 0f55 78050000 		.4byte	.Ldebug_ranges0+0x578
 7999 0f59 01       		.byte	0x1
 8000 0f5a 46       		.byte	0x46
 8001 0f5b 820F0000 		.4byte	0xf82
 8002 0f5f 2B       		.uleb128 0x2b
 8003 0f60 9B1C0000 		.4byte	0x1c9b
 8004 0f64 31080000 		.4byte	.LLST95
 8005 0f68 2B       		.uleb128 0x2b
 8006 0f69 911C0000 		.4byte	0x1c91
 8007 0f6d 53080000 		.4byte	.LLST96
 8008 0f71 2C       		.uleb128 0x2c
 8009 0f72 78050000 		.4byte	.Ldebug_ranges0+0x578
 8010 0f76 2D       		.uleb128 0x2d
 8011 0f77 201D0000 		.4byte	0x1d20
 8012 0f7b 2D       		.uleb128 0x2d
 8013 0f7c 271D0000 		.4byte	0x1d27
 8014 0f80 00       		.byte	0
 8015 0f81 00       		.byte	0
 8016 0f82 39       		.uleb128 0x39
 8017 0f83 F3110000 		.4byte	0x11f3
 8018 0f87 6A030000 		.4byte	.LBB461
 8019 0f8b 18000000 		.4byte	.LBE461-.LBB461
 8020 0f8f 01       		.byte	0x1
 8021 0f90 55       		.byte	0x55
 8022 0f91 D00F0000 		.4byte	0xfd0
 8023 0f95 2B       		.uleb128 0x2b
 8024 0f96 00120000 		.4byte	0x1200
 8025 0f9a 71080000 		.4byte	.LLST97
 8026 0f9e 35       		.uleb128 0x35
 8027 0f9f 6A030000 		.4byte	.LBB462
 8028 0fa3 18000000 		.4byte	.LBE462-.LBB462
 8029 0fa7 2D       		.uleb128 0x2d
 8030 0fa8 0C270000 		.4byte	0x270c
 8031 0fac 30       		.uleb128 0x30
 8032 0fad 80030000 		.4byte	.LVL747
 8033 0fb1 4E270000 		.4byte	0x274e
 8034 0fb5 31       		.uleb128 0x31
 8035 0fb6 01       		.uleb128 0x1
 8036 0fb7 50       		.byte	0x50
 8037 0fb8 02       		.uleb128 0x2
ARM GAS  C:\Users\mathi\AppData\Local\Temp\ccF8t5t9.s 			page 142


 8038 0fb9 76       		.byte	0x76
 8039 0fba 00       		.sleb128 0
 8040 0fbb 31       		.uleb128 0x31
 8041 0fbc 01       		.uleb128 0x1
 8042 0fbd 51       		.byte	0x51
 8043 0fbe 03       		.uleb128 0x3
 8044 0fbf 0B       		.byte	0xb
 8045 0fc0 0A90     		.2byte	0x900a
 8046 0fc2 31       		.uleb128 0x31
 8047 0fc3 01       		.uleb128 0x1
 8048 0fc4 52       		.byte	0x52
 8049 0fc5 02       		.uleb128 0x2
 8050 0fc6 91       		.byte	0x91
 8051 0fc7 60       		.sleb128 -32
 8052 0fc8 31       		.uleb128 0x31
 8053 0fc9 01       		.uleb128 0x1
 8054 0fca 53       		.byte	0x53
 8055 0fcb 01       		.uleb128 0x1
 8056 0fcc 34       		.byte	0x34
 8057 0fcd 00       		.byte	0
 8058 0fce 00       		.byte	0
 8059 0fcf 00       		.byte	0
 8060 0fd0 30       		.uleb128 0x30
 8061 0fd1 96030000 		.4byte	.LVL751
 8062 0fd5 4E270000 		.4byte	0x274e
 8063 0fd9 31       		.uleb128 0x31
 8064 0fda 01       		.uleb128 0x1
 8065 0fdb 50       		.byte	0x50
 8066 0fdc 02       		.uleb128 0x2
 8067 0fdd 76       		.byte	0x76
 8068 0fde 00       		.sleb128 0
 8069 0fdf 31       		.uleb128 0x31
 8070 0fe0 01       		.uleb128 0x1
 8071 0fe1 51       		.byte	0x51
 8072 0fe2 03       		.uleb128 0x3
 8073 0fe3 0B       		.byte	0xb
 8074 0fe4 0890     		.2byte	0x9008
 8075 0fe6 31       		.uleb128 0x31
 8076 0fe7 01       		.uleb128 0x1
 8077 0fe8 52       		.byte	0x52
 8078 0fe9 02       		.uleb128 0x2
 8079 0fea 76       		.byte	0x76
 8080 0feb 1A       		.sleb128 26
 8081 0fec 31       		.uleb128 0x31
 8082 0fed 01       		.uleb128 0x1
 8083 0fee 53       		.byte	0x53
 8084 0fef 01       		.uleb128 0x1
 8085 0ff0 32       		.byte	0x32
 8086 0ff1 00       		.byte	0
 8087 0ff2 00       		.byte	0
 8088 0ff3 00       		.byte	0
 8089 0ff4 34       		.uleb128 0x34
 8090 0ff5 F3110000 		.4byte	0x11f3
 8091 0ff9 3E010000 		.4byte	.LBB465
 8092 0ffd 1A000000 		.4byte	.LBE465-.LBB465
 8093 1001 01       		.byte	0x1
 8094 1002 2C03     		.2byte	0x32c
ARM GAS  C:\Users\mathi\AppData\Local\Temp\ccF8t5t9.s 			page 143


 8095 1004 43100000 		.4byte	0x1043
 8096 1008 2B       		.uleb128 0x2b
 8097 1009 00120000 		.4byte	0x1200
 8098 100d 84080000 		.4byte	.LLST98
 8099 1011 35       		.uleb128 0x35
 8100 1012 3E010000 		.4byte	.LBB466
 8101 1016 1A000000 		.4byte	.LBE466-.LBB466
 8102 101a 2D       		.uleb128 0x2d
 8103 101b 0C270000 		.4byte	0x270c
 8104 101f 30       		.uleb128 0x30
 8105 1020 56010000 		.4byte	.LVL686
 8106 1024 4E270000 		.4byte	0x274e
 8107 1028 31       		.uleb128 0x31
 8108 1029 01       		.uleb128 0x1
 8109 102a 50       		.byte	0x50
 8110 102b 02       		.uleb128 0x2
 8111 102c 76       		.byte	0x76
 8112 102d 00       		.sleb128 0
 8113 102e 31       		.uleb128 0x31
 8114 102f 01       		.uleb128 0x1
 8115 1030 51       		.byte	0x51
 8116 1031 03       		.uleb128 0x3
 8117 1032 0B       		.byte	0xb
 8118 1033 0A90     		.2byte	0x900a
 8119 1035 31       		.uleb128 0x31
 8120 1036 01       		.uleb128 0x1
 8121 1037 52       		.byte	0x52
 8122 1038 02       		.uleb128 0x2
 8123 1039 91       		.byte	0x91
 8124 103a 60       		.sleb128 -32
 8125 103b 31       		.uleb128 0x31
 8126 103c 01       		.uleb128 0x1
 8127 103d 53       		.byte	0x53
 8128 103e 01       		.uleb128 0x1
 8129 103f 34       		.byte	0x34
 8130 1040 00       		.byte	0
 8131 1041 00       		.byte	0
 8132 1042 00       		.byte	0
 8133 1043 34       		.uleb128 0x34
 8134 1044 F3110000 		.4byte	0x11f3
 8135 1048 5A010000 		.4byte	.LBB467
 8136 104c 06000000 		.4byte	.LBE467-.LBB467
 8137 1050 01       		.byte	0x1
 8138 1051 1F03     		.2byte	0x31f
 8139 1053 70100000 		.4byte	0x1070
 8140 1057 2B       		.uleb128 0x2b
 8141 1058 00120000 		.4byte	0x1200
 8142 105c 97080000 		.4byte	.LLST99
 8143 1060 35       		.uleb128 0x35
 8144 1061 5A010000 		.4byte	.LBB468
 8145 1065 06000000 		.4byte	.LBE468-.LBB468
 8146 1069 2D       		.uleb128 0x2d
 8147 106a 0C270000 		.4byte	0x270c
 8148 106e 00       		.byte	0
 8149 106f 00       		.byte	0
 8150 1070 2A       		.uleb128 0x2a
 8151 1071 F3110000 		.4byte	0x11f3
ARM GAS  C:\Users\mathi\AppData\Local\Temp\ccF8t5t9.s 			page 144


 8152 1075 6A010000 		.4byte	.LBB469
 8153 1079 90050000 		.4byte	.Ldebug_ranges0+0x590
 8154 107d 01       		.byte	0x1
 8155 107e 1803     		.2byte	0x318
 8156 1080 BB100000 		.4byte	0x10bb
 8157 1084 2B       		.uleb128 0x2b
 8158 1085 00120000 		.4byte	0x1200
 8159 1089 AA080000 		.4byte	.LLST100
 8160 108d 2C       		.uleb128 0x2c
 8161 108e 90050000 		.4byte	.Ldebug_ranges0+0x590
 8162 1092 2D       		.uleb128 0x2d
 8163 1093 0C270000 		.4byte	0x270c
 8164 1097 30       		.uleb128 0x30
 8165 1098 8A010000 		.4byte	.LVL694
 8166 109c 4E270000 		.4byte	0x274e
 8167 10a0 31       		.uleb128 0x31
 8168 10a1 01       		.uleb128 0x1
 8169 10a2 50       		.byte	0x50
 8170 10a3 02       		.uleb128 0x2
 8171 10a4 76       		.byte	0x76
 8172 10a5 00       		.sleb128 0
 8173 10a6 31       		.uleb128 0x31
 8174 10a7 01       		.uleb128 0x1
 8175 10a8 51       		.byte	0x51
 8176 10a9 03       		.uleb128 0x3
 8177 10aa 0B       		.byte	0xb
 8178 10ab 0A90     		.2byte	0x900a
 8179 10ad 31       		.uleb128 0x31
 8180 10ae 01       		.uleb128 0x1
 8181 10af 52       		.byte	0x52
 8182 10b0 02       		.uleb128 0x2
 8183 10b1 91       		.byte	0x91
 8184 10b2 60       		.sleb128 -32
 8185 10b3 31       		.uleb128 0x31
 8186 10b4 01       		.uleb128 0x1
 8187 10b5 53       		.byte	0x53
 8188 10b6 01       		.uleb128 0x1
 8189 10b7 34       		.byte	0x34
 8190 10b8 00       		.byte	0
 8191 10b9 00       		.byte	0
 8192 10ba 00       		.byte	0
 8193 10bb 34       		.uleb128 0x34
 8194 10bc 18120000 		.4byte	0x1218
 8195 10c0 AA010000 		.4byte	.LBB476
 8196 10c4 06000000 		.4byte	.LBE476-.LBB476
 8197 10c8 01       		.byte	0x1
 8198 10c9 4103     		.2byte	0x341
 8199 10cb D9100000 		.4byte	0x10d9
 8200 10cf 2B       		.uleb128 0x2b
 8201 10d0 25120000 		.4byte	0x1225
 8202 10d4 BD080000 		.4byte	.LLST103
 8203 10d8 00       		.byte	0
 8204 10d9 2A       		.uleb128 0x2a
 8205 10da 31120000 		.4byte	0x1231
 8206 10de B0010000 		.4byte	.LBB478
 8207 10e2 B0050000 		.4byte	.Ldebug_ranges0+0x5b0
 8208 10e6 01       		.byte	0x1
ARM GAS  C:\Users\mathi\AppData\Local\Temp\ccF8t5t9.s 			page 145


 8209 10e7 3D03     		.2byte	0x33d
 8210 10e9 1E110000 		.4byte	0x111e
 8211 10ed 2B       		.uleb128 0x2b
 8212 10ee 4D120000 		.4byte	0x124d
 8213 10f2 D0080000 		.4byte	.LLST104
 8214 10f6 2B       		.uleb128 0x2b
 8215 10f7 42120000 		.4byte	0x1242
 8216 10fb FB080000 		.4byte	.LLST105
 8217 10ff 2C       		.uleb128 0x2c
 8218 1100 B0050000 		.4byte	.Ldebug_ranges0+0x5b0
 8219 1104 2D       		.uleb128 0x2d
 8220 1105 97260000 		.4byte	0x2697
 8221 1109 3A       		.uleb128 0x3a
 8222 110a A0260000 		.4byte	0x26a0
 8223 110e 98020000 		.4byte	.LBB480
 8224 1112 28000000 		.4byte	.LBE480-.LBB480
 8225 1116 2D       		.uleb128 0x2d
 8226 1117 AD260000 		.4byte	0x26ad
 8227 111b 00       		.byte	0
 8228 111c 00       		.byte	0
 8229 111d 00       		.byte	0
 8230 111e 2E       		.uleb128 0x2e
 8231 111f 3E000000 		.4byte	.LVL648
 8232 1123 64270000 		.4byte	0x2764
 8233 1127 3B       		.uleb128 0x3b
 8234 1128 90000000 		.4byte	.LVL658
 8235 112c E7190000 		.4byte	0x19e7
 8236 1130 3B110000 		.4byte	0x113b
 8237 1134 31       		.uleb128 0x31
 8238 1135 01       		.uleb128 0x1
 8239 1136 50       		.byte	0x50
 8240 1137 02       		.uleb128 0x2
 8241 1138 76       		.byte	0x76
 8242 1139 00       		.sleb128 0
 8243 113a 00       		.byte	0
 8244 113b 3B       		.uleb128 0x3b
 8245 113c FA000000 		.4byte	.LVL674
 8246 1140 6F270000 		.4byte	0x276f
 8247 1144 4F110000 		.4byte	0x114f
 8248 1148 31       		.uleb128 0x31
 8249 1149 01       		.uleb128 0x1
 8250 114a 50       		.byte	0x50
 8251 114b 02       		.uleb128 0x2
 8252 114c 76       		.byte	0x76
 8253 114d 00       		.sleb128 0
 8254 114e 00       		.byte	0
 8255 114f 3B       		.uleb128 0x3b
 8256 1150 30010000 		.4byte	.LVL679
 8257 1154 7A270000 		.4byte	0x277a
 8258 1158 63110000 		.4byte	0x1163
 8259 115c 31       		.uleb128 0x31
 8260 115d 01       		.uleb128 0x1
 8261 115e 50       		.byte	0x50
 8262 115f 02       		.uleb128 0x2
 8263 1160 76       		.byte	0x76
 8264 1161 00       		.sleb128 0
 8265 1162 00       		.byte	0
ARM GAS  C:\Users\mathi\AppData\Local\Temp\ccF8t5t9.s 			page 146


 8266 1163 3B       		.uleb128 0x3b
 8267 1164 38010000 		.4byte	.LVL681
 8268 1168 85270000 		.4byte	0x2785
 8269 116c 77110000 		.4byte	0x1177
 8270 1170 31       		.uleb128 0x31
 8271 1171 01       		.uleb128 0x1
 8272 1172 50       		.byte	0x50
 8273 1173 02       		.uleb128 0x2
 8274 1174 76       		.byte	0x76
 8275 1175 00       		.sleb128 0
 8276 1176 00       		.byte	0
 8277 1177 3B       		.uleb128 0x3b
 8278 1178 98010000 		.4byte	.LVL695
 8279 117c 90270000 		.4byte	0x2790
 8280 1180 8B110000 		.4byte	0x118b
 8281 1184 31       		.uleb128 0x31
 8282 1185 01       		.uleb128 0x1
 8283 1186 50       		.byte	0x50
 8284 1187 02       		.uleb128 0x2
 8285 1188 76       		.byte	0x76
 8286 1189 00       		.sleb128 0
 8287 118a 00       		.byte	0
 8288 118b 2E       		.uleb128 0x2e
 8289 118c BE020000 		.4byte	.LVL724
 8290 1190 9B270000 		.4byte	0x279b
 8291 1194 3B       		.uleb128 0x3b
 8292 1195 F2020000 		.4byte	.LVL733
 8293 1199 AA270000 		.4byte	0x27aa
 8294 119d A8110000 		.4byte	0x11a8
 8295 11a1 31       		.uleb128 0x31
 8296 11a2 01       		.uleb128 0x1
 8297 11a3 50       		.byte	0x50
 8298 11a4 02       		.uleb128 0x2
 8299 11a5 76       		.byte	0x76
 8300 11a6 00       		.sleb128 0
 8301 11a7 00       		.byte	0
 8302 11a8 2E       		.uleb128 0x2e
 8303 11a9 9E030000 		.4byte	.LVL753
 8304 11ad 45270000 		.4byte	0x2745
 8305 11b1 00       		.byte	0
 8306 11b2 0D       		.uleb128 0xd
 8307 11b3 0D0B0000 		.4byte	0xb0d
 8308 11b7 C2110000 		.4byte	0x11c2
 8309 11bb 0E       		.uleb128 0xe
 8310 11bc 96020000 		.4byte	0x296
 8311 11c0 01       		.byte	0x1
 8312 11c1 00       		.byte	0
 8313 11c2 3C       		.uleb128 0x3c
 8314 11c3 CE060000 		.4byte	.LASF278
 8315 11c7 01       		.byte	0x1
 8316 11c8 D302     		.2byte	0x2d3
 8317 11ca 01       		.byte	0x1
 8318 11cb F3110000 		.4byte	0x11f3
 8319 11cf 3D       		.uleb128 0x3d
 8320 11d0 766D00   		.ascii	"vm\000"
 8321 11d3 01       		.byte	0x1
 8322 11d4 D302     		.2byte	0x2d3
ARM GAS  C:\Users\mathi\AppData\Local\Temp\ccF8t5t9.s 			page 147


 8323 11d6 B50C0000 		.4byte	0xcb5
 8324 11da 3E       		.uleb128 0x3e
 8325 11db 6900     		.ascii	"i\000"
 8326 11dd 01       		.byte	0x1
 8327 11de D502     		.2byte	0x2d5
 8328 11e0 0D0B0000 		.4byte	0xb0d
 8329 11e4 3F       		.uleb128 0x3f
 8330 11e5 40       		.uleb128 0x40
 8331 11e6 31080000 		.4byte	.LASF209
 8332 11ea 01       		.byte	0x1
 8333 11eb D802     		.2byte	0x2d8
 8334 11ed 0D0B0000 		.4byte	0xb0d
 8335 11f1 00       		.byte	0
 8336 11f2 00       		.byte	0
 8337 11f3 41       		.uleb128 0x41
 8338 11f4 460A0000 		.4byte	.LASF227
 8339 11f8 01       		.byte	0x1
 8340 11f9 CA02     		.2byte	0x2ca
 8341 11fb 01       		.byte	0x1
 8342 11fc 18120000 		.4byte	0x1218
 8343 1200 3D       		.uleb128 0x3d
 8344 1201 766D00   		.ascii	"vm\000"
 8345 1204 01       		.byte	0x1
 8346 1205 CA02     		.2byte	0x2ca
 8347 1207 B50C0000 		.4byte	0xcb5
 8348 120b 40       		.uleb128 0x40
 8349 120c 460F0000 		.4byte	.LASF226
 8350 1210 01       		.byte	0x1
 8351 1211 CC02     		.2byte	0x2cc
 8352 1213 B2110000 		.4byte	0x11b2
 8353 1217 00       		.byte	0
 8354 1218 41       		.uleb128 0x41
 8355 1219 10100000 		.4byte	.LASF228
 8356 121d 01       		.byte	0x1
 8357 121e C402     		.2byte	0x2c4
 8358 1220 01       		.byte	0x1
 8359 1221 31120000 		.4byte	0x1231
 8360 1225 3D       		.uleb128 0x3d
 8361 1226 766D00   		.ascii	"vm\000"
 8362 1229 01       		.byte	0x1
 8363 122a C402     		.2byte	0x2c4
 8364 122c B50C0000 		.4byte	0xcb5
 8365 1230 00       		.byte	0
 8366 1231 42       		.uleb128 0x42
 8367 1232 6E080000 		.4byte	.LASF229
 8368 1236 01       		.byte	0x1
 8369 1237 B102     		.2byte	0x2b1
 8370 1239 0D0B0000 		.4byte	0xb0d
 8371 123d 01       		.byte	0x1
 8372 123e 6F120000 		.4byte	0x126f
 8373 1242 3D       		.uleb128 0x3d
 8374 1243 766D00   		.ascii	"vm\000"
 8375 1246 01       		.byte	0x1
 8376 1247 B102     		.2byte	0x2b1
 8377 1249 B50C0000 		.4byte	0xcb5
 8378 124d 3D       		.uleb128 0x3d
 8379 124e 706300   		.ascii	"pc\000"
ARM GAS  C:\Users\mathi\AppData\Local\Temp\ccF8t5t9.s 			page 148


 8380 1251 01       		.byte	0x1
 8381 1252 B102     		.2byte	0x2b1
 8382 1254 0D0B0000 		.4byte	0xb0d
 8383 1258 3E       		.uleb128 0x3e
 8384 1259 6900     		.ascii	"i\000"
 8385 125b 01       		.byte	0x1
 8386 125c B302     		.2byte	0x2b3
 8387 125e 0D0B0000 		.4byte	0xb0d
 8388 1262 3F       		.uleb128 0x3f
 8389 1263 3E       		.uleb128 0x3e
 8390 1264 6A00     		.ascii	"j\000"
 8391 1266 01       		.byte	0x1
 8392 1267 B802     		.2byte	0x2b8
 8393 1269 0D0B0000 		.4byte	0xb0d
 8394 126d 00       		.byte	0
 8395 126e 00       		.byte	0
 8396 126f 42       		.uleb128 0x42
 8397 1270 9B100000 		.4byte	.LASF230
 8398 1274 01       		.byte	0x1
 8399 1275 A002     		.2byte	0x2a0
 8400 1277 1D0B0000 		.4byte	0xb1d
 8401 127b 01       		.byte	0x1
 8402 127c 97120000 		.4byte	0x1297
 8403 1280 3D       		.uleb128 0x3d
 8404 1281 766D00   		.ascii	"vm\000"
 8405 1284 01       		.byte	0x1
 8406 1285 A002     		.2byte	0x2a0
 8407 1287 B50C0000 		.4byte	0xcb5
 8408 128b 3D       		.uleb128 0x3d
 8409 128c 706300   		.ascii	"pc\000"
 8410 128f 01       		.byte	0x1
 8411 1290 A002     		.2byte	0x2a0
 8412 1292 0D0B0000 		.4byte	0xb0d
 8413 1296 00       		.byte	0
 8414 1297 24       		.uleb128 0x24
 8415 1298 20120000 		.4byte	.LASF232
 8416 129c 01       		.byte	0x1
 8417 129d 8B02     		.2byte	0x28b
 8418 129f 0D0B0000 		.4byte	0xb0d
 8419 12a3 00000000 		.4byte	.LFB10
 8420 12a7 D4070000 		.4byte	.LFE10-.LFB10
 8421 12ab 01       		.uleb128 0x1
 8422 12ac 9C       		.byte	0x9c
 8423 12ad 92180000 		.4byte	0x1892
 8424 12b1 25       		.uleb128 0x25
 8425 12b2 766D00   		.ascii	"vm\000"
 8426 12b5 01       		.byte	0x1
 8427 12b6 8B02     		.2byte	0x28b
 8428 12b8 B50C0000 		.4byte	0xcb5
 8429 12bc 19090000 		.4byte	.LLST57
 8430 12c0 26       		.uleb128 0x26
 8431 12c1 0A090000 		.4byte	.LASF233
 8432 12c5 01       		.byte	0x1
 8433 12c6 8B02     		.2byte	0x28b
 8434 12c8 0D0B0000 		.4byte	0xb0d
 8435 12cc 37090000 		.4byte	.LLST58
 8436 12d0 2A       		.uleb128 0x2a
ARM GAS  C:\Users\mathi\AppData\Local\Temp\ccF8t5t9.s 			page 149


 8437 12d1 B7180000 		.4byte	0x18b7
 8438 12d5 24000000 		.4byte	.LBB297
 8439 12d9 A8020000 		.4byte	.Ldebug_ranges0+0x2a8
 8440 12dd 01       		.byte	0x1
 8441 12de 9902     		.2byte	0x299
 8442 12e0 57170000 		.4byte	0x1757
 8443 12e4 2B       		.uleb128 0x2b
 8444 12e5 CF180000 		.4byte	0x18cf
 8445 12e9 71090000 		.4byte	.LLST59
 8446 12ed 2B       		.uleb128 0x2b
 8447 12ee C4180000 		.4byte	0x18c4
 8448 12f2 DC090000 		.4byte	.LLST60
 8449 12f6 2A       		.uleb128 0x2a
 8450 12f7 E7190000 		.4byte	0x19e7
 8451 12fb 2C000000 		.4byte	.LBB299
 8452 12ff D0020000 		.4byte	.Ldebug_ranges0+0x2d0
 8453 1303 01       		.byte	0x1
 8454 1304 5802     		.2byte	0x258
 8455 1306 28150000 		.4byte	0x1528
 8456 130a 43       		.uleb128 0x43
 8457 130b F3190000 		.4byte	0x19f3
 8458 130f 2C       		.uleb128 0x2c
 8459 1310 D0020000 		.4byte	.Ldebug_ranges0+0x2d0
 8460 1314 2D       		.uleb128 0x2d
 8461 1315 371E0000 		.4byte	0x1e37
 8462 1319 44       		.uleb128 0x44
 8463 131a F21E0000 		.4byte	0x1ef2
 8464 131e 08030000 		.4byte	.Ldebug_ranges0+0x308
 8465 1322 85130000 		.4byte	0x1385
 8466 1326 2D       		.uleb128 0x2d
 8467 1327 FB1E0000 		.4byte	0x1efb
 8468 132b 2D       		.uleb128 0x2d
 8469 132c 041F0000 		.4byte	0x1f04
 8470 1330 2D       		.uleb128 0x2d
 8471 1331 0D1F0000 		.4byte	0x1f0d
 8472 1335 2D       		.uleb128 0x2d
 8473 1336 161F0000 		.4byte	0x1f16
 8474 133a 37       		.uleb128 0x37
 8475 133b 1F1F0000 		.4byte	0x1f1f
 8476 133f 28030000 		.4byte	.Ldebug_ranges0+0x328
 8477 1343 2D       		.uleb128 0x2d
 8478 1344 281F0000 		.4byte	0x1f28
 8479 1348 3B       		.uleb128 0x3b
 8480 1349 52070000 		.4byte	.LVL558
 8481 134d 4E270000 		.4byte	0x274e
 8482 1351 6E130000 		.4byte	0x136e
 8483 1355 31       		.uleb128 0x31
 8484 1356 01       		.uleb128 0x1
 8485 1357 50       		.byte	0x50
 8486 1358 02       		.uleb128 0x2
 8487 1359 74       		.byte	0x74
 8488 135a 00       		.sleb128 0
 8489 135b 31       		.uleb128 0x31
 8490 135c 01       		.uleb128 0x1
 8491 135d 51       		.byte	0x51
 8492 135e 03       		.uleb128 0x3
 8493 135f 0B       		.byte	0xb
ARM GAS  C:\Users\mathi\AppData\Local\Temp\ccF8t5t9.s 			page 150


 8494 1360 0690     		.2byte	0x9006
 8495 1362 31       		.uleb128 0x31
 8496 1363 01       		.uleb128 0x1
 8497 1364 52       		.byte	0x52
 8498 1365 02       		.uleb128 0x2
 8499 1366 91       		.byte	0x91
 8500 1367 54       		.sleb128 -44
 8501 1368 31       		.uleb128 0x31
 8502 1369 01       		.uleb128 0x1
 8503 136a 53       		.byte	0x53
 8504 136b 01       		.uleb128 0x1
 8505 136c 36       		.byte	0x36
 8506 136d 00       		.byte	0
 8507 136e 30       		.uleb128 0x30
 8508 136f 60070000 		.4byte	.LVL559
 8509 1373 B5270000 		.4byte	0x27b5
 8510 1377 31       		.uleb128 0x31
 8511 1378 01       		.uleb128 0x1
 8512 1379 50       		.byte	0x50
 8513 137a 02       		.uleb128 0x2
 8514 137b 74       		.byte	0x74
 8515 137c 00       		.sleb128 0
 8516 137d 31       		.uleb128 0x31
 8517 137e 01       		.uleb128 0x1
 8518 137f 51       		.byte	0x51
 8519 1380 01       		.uleb128 0x1
 8520 1381 30       		.byte	0x30
 8521 1382 00       		.byte	0
 8522 1383 00       		.byte	0
 8523 1384 00       		.byte	0
 8524 1385 44       		.uleb128 0x44
 8525 1386 C61F0000 		.4byte	0x1fc6
 8526 138a 40030000 		.4byte	.Ldebug_ranges0+0x340
 8527 138e C0130000 		.4byte	0x13c0
 8528 1392 2D       		.uleb128 0x2d
 8529 1393 CF1F0000 		.4byte	0x1fcf
 8530 1397 2D       		.uleb128 0x2d
 8531 1398 D81F0000 		.4byte	0x1fd8
 8532 139c 2D       		.uleb128 0x2d
 8533 139d E11F0000 		.4byte	0x1fe1
 8534 13a1 2D       		.uleb128 0x2d
 8535 13a2 EA1F0000 		.4byte	0x1fea
 8536 13a6 30       		.uleb128 0x30
 8537 13a7 E8050000 		.4byte	.LVL514
 8538 13ab B41B0000 		.4byte	0x1bb4
 8539 13af 31       		.uleb128 0x31
 8540 13b0 01       		.uleb128 0x1
 8541 13b1 50       		.byte	0x50
 8542 13b2 02       		.uleb128 0x2
 8543 13b3 74       		.byte	0x74
 8544 13b4 00       		.sleb128 0
 8545 13b5 31       		.uleb128 0x31
 8546 13b6 01       		.uleb128 0x1
 8547 13b7 53       		.byte	0x53
 8548 13b8 05       		.uleb128 0x5
 8549 13b9 75       		.byte	0x75
 8550 13ba 00       		.sleb128 0
ARM GAS  C:\Users\mathi\AppData\Local\Temp\ccF8t5t9.s 			page 151


 8551 13bb 08       		.byte	0x8
 8552 13bc FF       		.byte	0xff
 8553 13bd 1A       		.byte	0x1a
 8554 13be 00       		.byte	0
 8555 13bf 00       		.byte	0
 8556 13c0 45       		.uleb128 0x45
 8557 13c1 0D200000 		.4byte	0x200d
 8558 13c5 28050000 		.4byte	.LBB305
 8559 13c9 2E000000 		.4byte	.LBE305-.LBB305
 8560 13cd F8130000 		.4byte	0x13f8
 8561 13d1 2D       		.uleb128 0x2d
 8562 13d2 1A200000 		.4byte	0x201a
 8563 13d6 2D       		.uleb128 0x2d
 8564 13d7 23200000 		.4byte	0x2023
 8565 13db 30       		.uleb128 0x30
 8566 13dc 48050000 		.4byte	.LVL495
 8567 13e0 4E270000 		.4byte	0x274e
 8568 13e4 31       		.uleb128 0x31
 8569 13e5 01       		.uleb128 0x1
 8570 13e6 50       		.byte	0x50
 8571 13e7 02       		.uleb128 0x2
 8572 13e8 74       		.byte	0x74
 8573 13e9 00       		.sleb128 0
 8574 13ea 31       		.uleb128 0x31
 8575 13eb 01       		.uleb128 0x1
 8576 13ec 51       		.byte	0x51
 8577 13ed 08       		.uleb128 0x8
 8578 13ee 75       		.byte	0x75
 8579 13ef 00       		.sleb128 0
 8580 13f0 09       		.byte	0x9
 8581 13f1 F8       		.byte	0xf8
 8582 13f2 24       		.byte	0x24
 8583 13f3 09       		.byte	0x9
 8584 13f4 F8       		.byte	0xf8
 8585 13f5 25       		.byte	0x25
 8586 13f6 00       		.byte	0
 8587 13f7 00       		.byte	0
 8588 13f8 45       		.uleb128 0x45
 8589 13f9 C91E0000 		.4byte	0x1ec9
 8590 13fd 98050000 		.4byte	.LBB307
 8591 1401 34000000 		.4byte	.LBE307-.LBB307
 8592 1405 19140000 		.4byte	0x1419
 8593 1409 2D       		.uleb128 0x2d
 8594 140a D61E0000 		.4byte	0x1ed6
 8595 140e 2D       		.uleb128 0x2d
 8596 140f DF1E0000 		.4byte	0x1edf
 8597 1413 2D       		.uleb128 0x2d
 8598 1414 E81E0000 		.4byte	0x1ee8
 8599 1418 00       		.byte	0
 8600 1419 45       		.uleb128 0x45
 8601 141a AF1F0000 		.4byte	0x1faf
 8602 141e 20060000 		.4byte	.LBB309
 8603 1422 0A000000 		.4byte	.LBE309-.LBB309
 8604 1426 30140000 		.4byte	0x1430
 8605 142a 2D       		.uleb128 0x2d
 8606 142b BC1F0000 		.4byte	0x1fbc
 8607 142f 00       		.byte	0
ARM GAS  C:\Users\mathi\AppData\Local\Temp\ccF8t5t9.s 			page 152


 8608 1430 45       		.uleb128 0x45
 8609 1431 6D1F0000 		.4byte	0x1f6d
 8610 1435 2A060000 		.4byte	.LBB310
 8611 1439 2C000000 		.4byte	.LBE310-.LBB310
 8612 143d 6A140000 		.4byte	0x146a
 8613 1441 2D       		.uleb128 0x2d
 8614 1442 7A1F0000 		.4byte	0x1f7a
 8615 1446 2D       		.uleb128 0x2d
 8616 1447 831F0000 		.4byte	0x1f83
 8617 144b 2D       		.uleb128 0x2d
 8618 144c 8C1F0000 		.4byte	0x1f8c
 8619 1450 30       		.uleb128 0x30
 8620 1451 46060000 		.4byte	.LVL526
 8621 1455 B41B0000 		.4byte	0x1bb4
 8622 1459 31       		.uleb128 0x31
 8623 145a 01       		.uleb128 0x1
 8624 145b 50       		.byte	0x50
 8625 145c 02       		.uleb128 0x2
 8626 145d 74       		.byte	0x74
 8627 145e 00       		.sleb128 0
 8628 145f 31       		.uleb128 0x31
 8629 1460 01       		.uleb128 0x1
 8630 1461 53       		.byte	0x53
 8631 1462 05       		.uleb128 0x5
 8632 1463 75       		.byte	0x75
 8633 1464 00       		.sleb128 0
 8634 1465 08       		.byte	0x8
 8635 1466 FF       		.byte	0xff
 8636 1467 1A       		.byte	0x1a
 8637 1468 00       		.byte	0
 8638 1469 00       		.byte	0
 8639 146a 44       		.uleb128 0x44
 8640 146b 401E0000 		.4byte	0x1e40
 8641 146f 68030000 		.4byte	.Ldebug_ranges0+0x368
 8642 1473 AE140000 		.4byte	0x14ae
 8643 1477 2D       		.uleb128 0x2d
 8644 1478 491E0000 		.4byte	0x1e49
 8645 147c 2D       		.uleb128 0x2d
 8646 147d 521E0000 		.4byte	0x1e52
 8647 1481 46       		.uleb128 0x46
 8648 1482 841B0000 		.4byte	0x1b84
 8649 1486 5C060000 		.4byte	.LBB312
 8650 148a 80030000 		.4byte	.Ldebug_ranges0+0x380
 8651 148e 01       		.byte	0x1
 8652 148f 6B01     		.2byte	0x16b
 8653 1491 2B       		.uleb128 0x2b
 8654 1492 941B0000 		.4byte	0x1b94
 8655 1496 100A0000 		.4byte	.LLST61
 8656 149a 2B       		.uleb128 0x2b
 8657 149b A91B0000 		.4byte	0x1ba9
 8658 149f 2E0A0000 		.4byte	.LLST62
 8659 14a3 2B       		.uleb128 0x2b
 8660 14a4 9E1B0000 		.4byte	0x1b9e
 8661 14a8 700A0000 		.4byte	.LLST63
 8662 14ac 00       		.byte	0
 8663 14ad 00       		.byte	0
 8664 14ae 45       		.uleb128 0x45
ARM GAS  C:\Users\mathi\AppData\Local\Temp\ccF8t5t9.s 			page 153


 8665 14af 49200000 		.4byte	0x2049
 8666 14b3 7A060000 		.4byte	.LBB318
 8667 14b7 1E000000 		.4byte	.LBE318-.LBB318
 8668 14bb C5140000 		.4byte	0x14c5
 8669 14bf 2D       		.uleb128 0x2d
 8670 14c0 56200000 		.4byte	0x2056
 8671 14c4 00       		.byte	0
 8672 14c5 45       		.uleb128 0x45
 8673 14c6 841E0000 		.4byte	0x1e84
 8674 14ca AE060000 		.4byte	.LBB319
 8675 14ce 14000000 		.4byte	.LBE319-.LBB319
 8676 14d2 DC140000 		.4byte	0x14dc
 8677 14d6 2D       		.uleb128 0x2d
 8678 14d7 911E0000 		.4byte	0x1e91
 8679 14db 00       		.byte	0
 8680 14dc 45       		.uleb128 0x45
 8681 14dd B21E0000 		.4byte	0x1eb2
 8682 14e1 D0060000 		.4byte	.LBB320
 8683 14e5 1A000000 		.4byte	.LBE320-.LBB320
 8684 14e9 F3140000 		.4byte	0x14f3
 8685 14ed 2D       		.uleb128 0x2d
 8686 14ee BF1E0000 		.4byte	0x1ebf
 8687 14f2 00       		.byte	0
 8688 14f3 45       		.uleb128 0x45
 8689 14f4 9B1E0000 		.4byte	0x1e9b
 8690 14f8 EA060000 		.4byte	.LBB321
 8691 14fc 1A000000 		.4byte	.LBE321-.LBB321
 8692 1500 0A150000 		.4byte	0x150a
 8693 1504 2D       		.uleb128 0x2d
 8694 1505 A81E0000 		.4byte	0x1ea8
 8695 1509 00       		.byte	0
 8696 150a 30       		.uleb128 0x30
 8697 150b 1A050000 		.4byte	.LVL490
 8698 150f C0270000 		.4byte	0x27c0
 8699 1513 31       		.uleb128 0x31
 8700 1514 01       		.uleb128 0x1
 8701 1515 50       		.byte	0x50
 8702 1516 02       		.uleb128 0x2
 8703 1517 74       		.byte	0x74
 8704 1518 00       		.sleb128 0
 8705 1519 31       		.uleb128 0x31
 8706 151a 01       		.uleb128 0x1
 8707 151b 51       		.byte	0x51
 8708 151c 08       		.uleb128 0x8
 8709 151d 75       		.byte	0x75
 8710 151e 00       		.sleb128 0
 8711 151f 09       		.byte	0x9
 8712 1520 F8       		.byte	0xf8
 8713 1521 24       		.byte	0x24
 8714 1522 09       		.byte	0x9
 8715 1523 F8       		.byte	0xf8
 8716 1524 25       		.byte	0x25
 8717 1525 00       		.byte	0
 8718 1526 00       		.byte	0
 8719 1527 00       		.byte	0
 8720 1528 46       		.uleb128 0x46
 8721 1529 E7190000 		.4byte	0x19e7
ARM GAS  C:\Users\mathi\AppData\Local\Temp\ccF8t5t9.s 			page 154


 8722 152d 56010000 		.4byte	.LBB331
 8723 1531 A0030000 		.4byte	.Ldebug_ranges0+0x3a0
 8724 1535 01       		.byte	0x1
 8725 1536 4D02     		.2byte	0x24d
 8726 1538 2B       		.uleb128 0x2b
 8727 1539 F3190000 		.4byte	0x19f3
 8728 153d E50A0000 		.4byte	.LLST64
 8729 1541 2C       		.uleb128 0x2c
 8730 1542 A0030000 		.4byte	.Ldebug_ranges0+0x3a0
 8731 1546 2D       		.uleb128 0x2d
 8732 1547 371E0000 		.4byte	0x1e37
 8733 154b 44       		.uleb128 0x44
 8734 154c C61F0000 		.4byte	0x1fc6
 8735 1550 E0030000 		.4byte	.Ldebug_ranges0+0x3e0
 8736 1554 86150000 		.4byte	0x1586
 8737 1558 2D       		.uleb128 0x2d
 8738 1559 CF1F0000 		.4byte	0x1fcf
 8739 155d 2D       		.uleb128 0x2d
 8740 155e D81F0000 		.4byte	0x1fd8
 8741 1562 2D       		.uleb128 0x2d
 8742 1563 E11F0000 		.4byte	0x1fe1
 8743 1567 2D       		.uleb128 0x2d
 8744 1568 EA1F0000 		.4byte	0x1fea
 8745 156c 30       		.uleb128 0x30
 8746 156d 74010000 		.4byte	.LVL401
 8747 1571 B41B0000 		.4byte	0x1bb4
 8748 1575 31       		.uleb128 0x31
 8749 1576 01       		.uleb128 0x1
 8750 1577 50       		.byte	0x50
 8751 1578 02       		.uleb128 0x2
 8752 1579 74       		.byte	0x74
 8753 157a 00       		.sleb128 0
 8754 157b 31       		.uleb128 0x31
 8755 157c 01       		.uleb128 0x1
 8756 157d 53       		.byte	0x53
 8757 157e 05       		.uleb128 0x5
 8758 157f 7A       		.byte	0x7a
 8759 1580 00       		.sleb128 0
 8760 1581 08       		.byte	0x8
 8761 1582 FF       		.byte	0xff
 8762 1583 1A       		.byte	0x1a
 8763 1584 00       		.byte	0
 8764 1585 00       		.byte	0
 8765 1586 44       		.uleb128 0x44
 8766 1587 F21E0000 		.4byte	0x1ef2
 8767 158b 08040000 		.4byte	.Ldebug_ranges0+0x408
 8768 158f F2150000 		.4byte	0x15f2
 8769 1593 2D       		.uleb128 0x2d
 8770 1594 FB1E0000 		.4byte	0x1efb
 8771 1598 2D       		.uleb128 0x2d
 8772 1599 041F0000 		.4byte	0x1f04
 8773 159d 2D       		.uleb128 0x2d
 8774 159e 0D1F0000 		.4byte	0x1f0d
 8775 15a2 2D       		.uleb128 0x2d
 8776 15a3 161F0000 		.4byte	0x1f16
 8777 15a7 37       		.uleb128 0x37
 8778 15a8 1F1F0000 		.4byte	0x1f1f
ARM GAS  C:\Users\mathi\AppData\Local\Temp\ccF8t5t9.s 			page 155


 8779 15ac 28040000 		.4byte	.Ldebug_ranges0+0x428
 8780 15b0 2D       		.uleb128 0x2d
 8781 15b1 281F0000 		.4byte	0x1f28
 8782 15b5 3B       		.uleb128 0x3b
 8783 15b6 22070000 		.4byte	.LVL554
 8784 15ba 4E270000 		.4byte	0x274e
 8785 15be DB150000 		.4byte	0x15db
 8786 15c2 31       		.uleb128 0x31
 8787 15c3 01       		.uleb128 0x1
 8788 15c4 50       		.byte	0x50
 8789 15c5 02       		.uleb128 0x2
 8790 15c6 74       		.byte	0x74
 8791 15c7 00       		.sleb128 0
 8792 15c8 31       		.uleb128 0x31
 8793 15c9 01       		.uleb128 0x1
 8794 15ca 51       		.byte	0x51
 8795 15cb 03       		.uleb128 0x3
 8796 15cc 0B       		.byte	0xb
 8797 15cd 0690     		.2byte	0x9006
 8798 15cf 31       		.uleb128 0x31
 8799 15d0 01       		.uleb128 0x1
 8800 15d1 52       		.byte	0x52
 8801 15d2 02       		.uleb128 0x2
 8802 15d3 91       		.byte	0x91
 8803 15d4 54       		.sleb128 -44
 8804 15d5 31       		.uleb128 0x31
 8805 15d6 01       		.uleb128 0x1
 8806 15d7 53       		.byte	0x53
 8807 15d8 01       		.uleb128 0x1
 8808 15d9 36       		.byte	0x36
 8809 15da 00       		.byte	0
 8810 15db 30       		.uleb128 0x30
 8811 15dc 32070000 		.4byte	.LVL555
 8812 15e0 B5270000 		.4byte	0x27b5
 8813 15e4 31       		.uleb128 0x31
 8814 15e5 01       		.uleb128 0x1
 8815 15e6 50       		.byte	0x50
 8816 15e7 02       		.uleb128 0x2
 8817 15e8 74       		.byte	0x74
 8818 15e9 00       		.sleb128 0
 8819 15ea 31       		.uleb128 0x31
 8820 15eb 01       		.uleb128 0x1
 8821 15ec 51       		.byte	0x51
 8822 15ed 01       		.uleb128 0x1
 8823 15ee 30       		.byte	0x30
 8824 15ef 00       		.byte	0
 8825 15f0 00       		.byte	0
 8826 15f1 00       		.byte	0
 8827 15f2 44       		.uleb128 0x44
 8828 15f3 C91E0000 		.4byte	0x1ec9
 8829 15f7 40040000 		.4byte	.Ldebug_ranges0+0x440
 8830 15fb 0F160000 		.4byte	0x160f
 8831 15ff 2D       		.uleb128 0x2d
 8832 1600 D61E0000 		.4byte	0x1ed6
 8833 1604 2D       		.uleb128 0x2d
 8834 1605 DF1E0000 		.4byte	0x1edf
 8835 1609 2D       		.uleb128 0x2d
ARM GAS  C:\Users\mathi\AppData\Local\Temp\ccF8t5t9.s 			page 156


 8836 160a E81E0000 		.4byte	0x1ee8
 8837 160e 00       		.byte	0
 8838 160f 45       		.uleb128 0x45
 8839 1610 841E0000 		.4byte	0x1e84
 8840 1614 66030000 		.4byte	.LBB339
 8841 1618 1C000000 		.4byte	.LBE339-.LBB339
 8842 161c 26160000 		.4byte	0x1626
 8843 1620 2D       		.uleb128 0x2d
 8844 1621 911E0000 		.4byte	0x1e91
 8845 1625 00       		.byte	0
 8846 1626 45       		.uleb128 0x45
 8847 1627 B21E0000 		.4byte	0x1eb2
 8848 162b DE030000 		.4byte	.LBB342
 8849 162f 22000000 		.4byte	.LBE342-.LBB342
 8850 1633 3D160000 		.4byte	0x163d
 8851 1637 2D       		.uleb128 0x2d
 8852 1638 BF1E0000 		.4byte	0x1ebf
 8853 163c 00       		.byte	0
 8854 163d 45       		.uleb128 0x45
 8855 163e 9B1E0000 		.4byte	0x1e9b
 8856 1642 00040000 		.4byte	.LBB343
 8857 1646 22000000 		.4byte	.LBE343-.LBB343
 8858 164a 54160000 		.4byte	0x1654
 8859 164e 2D       		.uleb128 0x2d
 8860 164f A81E0000 		.4byte	0x1ea8
 8861 1653 00       		.byte	0
 8862 1654 45       		.uleb128 0x45
 8863 1655 49200000 		.4byte	0x2049
 8864 1659 36040000 		.4byte	.LBB344
 8865 165d 1C000000 		.4byte	.LBE344-.LBB344
 8866 1661 6B160000 		.4byte	0x166b
 8867 1665 2D       		.uleb128 0x2d
 8868 1666 56200000 		.4byte	0x2056
 8869 166a 00       		.byte	0
 8870 166b 45       		.uleb128 0x45
 8871 166c 0D200000 		.4byte	0x200d
 8872 1670 66040000 		.4byte	.LBB345
 8873 1674 24000000 		.4byte	.LBE345-.LBB345
 8874 1678 A3160000 		.4byte	0x16a3
 8875 167c 2D       		.uleb128 0x2d
 8876 167d 1A200000 		.4byte	0x201a
 8877 1681 2D       		.uleb128 0x2d
 8878 1682 23200000 		.4byte	0x2023
 8879 1686 30       		.uleb128 0x30
 8880 1687 80040000 		.4byte	.LVL468
 8881 168b 4E270000 		.4byte	0x274e
 8882 168f 31       		.uleb128 0x31
 8883 1690 01       		.uleb128 0x1
 8884 1691 50       		.byte	0x50
 8885 1692 02       		.uleb128 0x2
 8886 1693 74       		.byte	0x74
 8887 1694 00       		.sleb128 0
 8888 1695 31       		.uleb128 0x31
 8889 1696 01       		.uleb128 0x1
 8890 1697 51       		.byte	0x51
 8891 1698 08       		.uleb128 0x8
 8892 1699 7A       		.byte	0x7a
ARM GAS  C:\Users\mathi\AppData\Local\Temp\ccF8t5t9.s 			page 157


 8893 169a 00       		.sleb128 0
 8894 169b 09       		.byte	0x9
 8895 169c F8       		.byte	0xf8
 8896 169d 24       		.byte	0x24
 8897 169e 09       		.byte	0x9
 8898 169f F8       		.byte	0xf8
 8899 16a0 25       		.byte	0x25
 8900 16a1 00       		.byte	0
 8901 16a2 00       		.byte	0
 8902 16a3 45       		.uleb128 0x45
 8903 16a4 AF1F0000 		.4byte	0x1faf
 8904 16a8 8A040000 		.4byte	.LBB346
 8905 16ac 0C000000 		.4byte	.LBE346-.LBB346
 8906 16b0 BA160000 		.4byte	0x16ba
 8907 16b4 2D       		.uleb128 0x2d
 8908 16b5 BC1F0000 		.4byte	0x1fbc
 8909 16b9 00       		.byte	0
 8910 16ba 45       		.uleb128 0x45
 8911 16bb 6D1F0000 		.4byte	0x1f6d
 8912 16bf 96040000 		.4byte	.LBB347
 8913 16c3 36000000 		.4byte	.LBE347-.LBB347
 8914 16c7 F4160000 		.4byte	0x16f4
 8915 16cb 2D       		.uleb128 0x2d
 8916 16cc 7A1F0000 		.4byte	0x1f7a
 8917 16d0 2D       		.uleb128 0x2d
 8918 16d1 831F0000 		.4byte	0x1f83
 8919 16d5 2D       		.uleb128 0x2d
 8920 16d6 8C1F0000 		.4byte	0x1f8c
 8921 16da 30       		.uleb128 0x30
 8922 16db B4040000 		.4byte	.LVL477
 8923 16df B41B0000 		.4byte	0x1bb4
 8924 16e3 31       		.uleb128 0x31
 8925 16e4 01       		.uleb128 0x1
 8926 16e5 50       		.byte	0x50
 8927 16e6 02       		.uleb128 0x2
 8928 16e7 74       		.byte	0x74
 8929 16e8 00       		.sleb128 0
 8930 16e9 31       		.uleb128 0x31
 8931 16ea 01       		.uleb128 0x1
 8932 16eb 53       		.byte	0x53
 8933 16ec 05       		.uleb128 0x5
 8934 16ed 7A       		.byte	0x7a
 8935 16ee 00       		.sleb128 0
 8936 16ef 08       		.byte	0x8
 8937 16f0 FF       		.byte	0xff
 8938 16f1 1A       		.byte	0x1a
 8939 16f2 00       		.byte	0
 8940 16f3 00       		.byte	0
 8941 16f4 44       		.uleb128 0x44
 8942 16f5 401E0000 		.4byte	0x1e40
 8943 16f9 58040000 		.4byte	.Ldebug_ranges0+0x458
 8944 16fd 38170000 		.4byte	0x1738
 8945 1701 2D       		.uleb128 0x2d
 8946 1702 491E0000 		.4byte	0x1e49
 8947 1706 2D       		.uleb128 0x2d
 8948 1707 521E0000 		.4byte	0x1e52
 8949 170b 46       		.uleb128 0x46
ARM GAS  C:\Users\mathi\AppData\Local\Temp\ccF8t5t9.s 			page 158


 8950 170c 841B0000 		.4byte	0x1b84
 8951 1710 D2040000 		.4byte	.LBB349
 8952 1714 70040000 		.4byte	.Ldebug_ranges0+0x470
 8953 1718 01       		.byte	0x1
 8954 1719 6B01     		.2byte	0x16b
 8955 171b 2B       		.uleb128 0x2b
 8956 171c 941B0000 		.4byte	0x1b94
 8957 1720 3A0B0000 		.4byte	.LLST65
 8958 1724 2B       		.uleb128 0x2b
 8959 1725 A91B0000 		.4byte	0x1ba9
 8960 1729 580B0000 		.4byte	.LLST66
 8961 172d 2B       		.uleb128 0x2b
 8962 172e 9E1B0000 		.4byte	0x1b9e
 8963 1732 9A0B0000 		.4byte	.LLST67
 8964 1736 00       		.byte	0
 8965 1737 00       		.byte	0
 8966 1738 30       		.uleb128 0x30
 8967 1739 5C040000 		.4byte	.LVL465
 8968 173d C0270000 		.4byte	0x27c0
 8969 1741 31       		.uleb128 0x31
 8970 1742 01       		.uleb128 0x1
 8971 1743 50       		.byte	0x50
 8972 1744 02       		.uleb128 0x2
 8973 1745 74       		.byte	0x74
 8974 1746 00       		.sleb128 0
 8975 1747 31       		.uleb128 0x31
 8976 1748 01       		.uleb128 0x1
 8977 1749 51       		.byte	0x51
 8978 174a 08       		.uleb128 0x8
 8979 174b 7A       		.byte	0x7a
 8980 174c 00       		.sleb128 0
 8981 174d 09       		.byte	0x9
 8982 174e F8       		.byte	0xf8
 8983 174f 24       		.byte	0x24
 8984 1750 09       		.byte	0x9
 8985 1751 F8       		.byte	0xf8
 8986 1752 25       		.byte	0x25
 8987 1753 00       		.byte	0
 8988 1754 00       		.byte	0
 8989 1755 00       		.byte	0
 8990 1756 00       		.byte	0
 8991 1757 2A       		.uleb128 0x2a
 8992 1758 92180000 		.4byte	0x1892
 8993 175c 8E000000 		.4byte	.LBB379
 8994 1760 90040000 		.4byte	.Ldebug_ranges0+0x490
 8995 1764 01       		.byte	0x1
 8996 1765 9702     		.2byte	0x297
 8997 1767 88180000 		.4byte	0x1888
 8998 176b 2B       		.uleb128 0x2b
 8999 176c AA180000 		.4byte	0x18aa
 9000 1770 0F0C0000 		.4byte	.LLST68
 9001 1774 2B       		.uleb128 0x2b
 9002 1775 9F180000 		.4byte	0x189f
 9003 1779 380C0000 		.4byte	.LLST69
 9004 177d 2A       		.uleb128 0x2a
 9005 177e DC180000 		.4byte	0x18dc
 9006 1782 9C000000 		.4byte	.LBB381
ARM GAS  C:\Users\mathi\AppData\Local\Temp\ccF8t5t9.s 			page 159


 9007 1786 B0040000 		.4byte	.Ldebug_ranges0+0x4b0
 9008 178a 01       		.byte	0x1
 9009 178b 7E02     		.2byte	0x27e
 9010 178d A2170000 		.4byte	0x17a2
 9011 1791 43       		.uleb128 0x43
 9012 1792 ED180000 		.4byte	0x18ed
 9013 1796 2C       		.uleb128 0x2c
 9014 1797 B0040000 		.4byte	.Ldebug_ranges0+0x4b0
 9015 179b 2D       		.uleb128 0x2d
 9016 179c A6200000 		.4byte	0x20a6
 9017 17a0 00       		.byte	0
 9018 17a1 00       		.byte	0
 9019 17a2 2A       		.uleb128 0x2a
 9020 17a3 F3110000 		.4byte	0x11f3
 9021 17a7 C2010000 		.4byte	.LBB386
 9022 17ab D0040000 		.4byte	.Ldebug_ranges0+0x4d0
 9023 17af 01       		.byte	0x1
 9024 17b0 8102     		.2byte	0x281
 9025 17b2 F0170000 		.4byte	0x17f0
 9026 17b6 2B       		.uleb128 0x2b
 9027 17b7 00120000 		.4byte	0x1200
 9028 17bb 610C0000 		.4byte	.LLST70
 9029 17bf 2C       		.uleb128 0x2c
 9030 17c0 D0040000 		.4byte	.Ldebug_ranges0+0x4d0
 9031 17c4 47       		.uleb128 0x47
 9032 17c5 0B120000 		.4byte	0x120b
 9033 17c9 02       		.uleb128 0x2
 9034 17ca 91       		.byte	0x91
 9035 17cb 54       		.sleb128 -44
 9036 17cc 30       		.uleb128 0x30
 9037 17cd DC010000 		.4byte	.LVL410
 9038 17d1 4E270000 		.4byte	0x274e
 9039 17d5 31       		.uleb128 0x31
 9040 17d6 01       		.uleb128 0x1
 9041 17d7 50       		.byte	0x50
 9042 17d8 02       		.uleb128 0x2
 9043 17d9 74       		.byte	0x74
 9044 17da 00       		.sleb128 0
 9045 17db 31       		.uleb128 0x31
 9046 17dc 01       		.uleb128 0x1
 9047 17dd 51       		.byte	0x51
 9048 17de 03       		.uleb128 0x3
 9049 17df 0B       		.byte	0xb
 9050 17e0 0A90     		.2byte	0x900a
 9051 17e2 31       		.uleb128 0x31
 9052 17e3 01       		.uleb128 0x1
 9053 17e4 52       		.byte	0x52
 9054 17e5 02       		.uleb128 0x2
 9055 17e6 91       		.byte	0x91
 9056 17e7 54       		.sleb128 -44
 9057 17e8 31       		.uleb128 0x31
 9058 17e9 01       		.uleb128 0x1
 9059 17ea 53       		.byte	0x53
 9060 17eb 01       		.uleb128 0x1
 9061 17ec 34       		.byte	0x34
 9062 17ed 00       		.byte	0
 9063 17ee 00       		.byte	0
ARM GAS  C:\Users\mathi\AppData\Local\Temp\ccF8t5t9.s 			page 160


 9064 17ef 00       		.byte	0
 9065 17f0 2A       		.uleb128 0x2a
 9066 17f1 DC180000 		.4byte	0x18dc
 9067 17f5 5C020000 		.4byte	.LBB391
 9068 17f9 E8040000 		.4byte	.Ldebug_ranges0+0x4e8
 9069 17fd 01       		.byte	0x1
 9070 17fe 6C02     		.2byte	0x26c
 9071 1800 15180000 		.4byte	0x1815
 9072 1804 43       		.uleb128 0x43
 9073 1805 ED180000 		.4byte	0x18ed
 9074 1809 2C       		.uleb128 0x2c
 9075 180a E8040000 		.4byte	.Ldebug_ranges0+0x4e8
 9076 180e 2D       		.uleb128 0x2d
 9077 180f A6200000 		.4byte	0x20a6
 9078 1813 00       		.byte	0
 9079 1814 00       		.byte	0
 9080 1815 2A       		.uleb128 0x2a
 9081 1816 F3110000 		.4byte	0x11f3
 9082 181a 22030000 		.4byte	.LBB396
 9083 181e 08050000 		.4byte	.Ldebug_ranges0+0x508
 9084 1822 01       		.byte	0x1
 9085 1823 6F02     		.2byte	0x26f
 9086 1825 63180000 		.4byte	0x1863
 9087 1829 2B       		.uleb128 0x2b
 9088 182a 00120000 		.4byte	0x1200
 9089 182e 740C0000 		.4byte	.LLST71
 9090 1832 2C       		.uleb128 0x2c
 9091 1833 08050000 		.4byte	.Ldebug_ranges0+0x508
 9092 1837 47       		.uleb128 0x47
 9093 1838 0B120000 		.4byte	0x120b
 9094 183c 02       		.uleb128 0x2
 9095 183d 91       		.byte	0x91
 9096 183e 54       		.sleb128 -44
 9097 183f 30       		.uleb128 0x30
 9098 1840 3C030000 		.4byte	.LVL436
 9099 1844 4E270000 		.4byte	0x274e
 9100 1848 31       		.uleb128 0x31
 9101 1849 01       		.uleb128 0x1
 9102 184a 50       		.byte	0x50
 9103 184b 02       		.uleb128 0x2
 9104 184c 74       		.byte	0x74
 9105 184d 00       		.sleb128 0
 9106 184e 31       		.uleb128 0x31
 9107 184f 01       		.uleb128 0x1
 9108 1850 51       		.byte	0x51
 9109 1851 03       		.uleb128 0x3
 9110 1852 0B       		.byte	0xb
 9111 1853 0A90     		.2byte	0x900a
 9112 1855 31       		.uleb128 0x31
 9113 1856 01       		.uleb128 0x1
 9114 1857 52       		.byte	0x52
 9115 1858 02       		.uleb128 0x2
 9116 1859 91       		.byte	0x91
 9117 185a 54       		.sleb128 -44
 9118 185b 31       		.uleb128 0x31
 9119 185c 01       		.uleb128 0x1
 9120 185d 53       		.byte	0x53
ARM GAS  C:\Users\mathi\AppData\Local\Temp\ccF8t5t9.s 			page 161


 9121 185e 01       		.uleb128 0x1
 9122 185f 34       		.byte	0x34
 9123 1860 00       		.byte	0
 9124 1861 00       		.byte	0
 9125 1862 00       		.byte	0
 9126 1863 3B       		.uleb128 0x3b
 9127 1864 48010000 		.4byte	.LVL396
 9128 1868 E7190000 		.4byte	0x19e7
 9129 186c 77180000 		.4byte	0x1877
 9130 1870 31       		.uleb128 0x31
 9131 1871 01       		.uleb128 0x1
 9132 1872 50       		.byte	0x50
 9133 1873 02       		.uleb128 0x2
 9134 1874 74       		.byte	0x74
 9135 1875 00       		.sleb128 0
 9136 1876 00       		.byte	0
 9137 1877 30       		.uleb128 0x30
 9138 1878 04030000 		.4byte	.LVL432
 9139 187c E7190000 		.4byte	0x19e7
 9140 1880 31       		.uleb128 0x31
 9141 1881 01       		.uleb128 0x1
 9142 1882 50       		.byte	0x50
 9143 1883 02       		.uleb128 0x2
 9144 1884 74       		.byte	0x74
 9145 1885 00       		.sleb128 0
 9146 1886 00       		.byte	0
 9147 1887 00       		.byte	0
 9148 1888 2E       		.uleb128 0x2e
 9149 1889 D4070000 		.4byte	.LVL585
 9150 188d 45270000 		.4byte	0x2745
 9151 1891 00       		.byte	0
 9152 1892 41       		.uleb128 0x41
 9153 1893 E4100000 		.4byte	.LASF234
 9154 1897 01       		.byte	0x1
 9155 1898 6002     		.2byte	0x260
 9156 189a 01       		.byte	0x1
 9157 189b B7180000 		.4byte	0x18b7
 9158 189f 3D       		.uleb128 0x3d
 9159 18a0 766D00   		.ascii	"vm\000"
 9160 18a3 01       		.byte	0x1
 9161 18a4 6002     		.2byte	0x260
 9162 18a6 B50C0000 		.4byte	0xcb5
 9163 18aa 48       		.uleb128 0x48
 9164 18ab 0A090000 		.4byte	.LASF233
 9165 18af 01       		.byte	0x1
 9166 18b0 6002     		.2byte	0x260
 9167 18b2 0D0B0000 		.4byte	0xb0d
 9168 18b6 00       		.byte	0
 9169 18b7 41       		.uleb128 0x41
 9170 18b8 6F020000 		.4byte	.LASF235
 9171 18bc 01       		.byte	0x1
 9172 18bd 4102     		.2byte	0x241
 9173 18bf 01       		.byte	0x1
 9174 18c0 DC180000 		.4byte	0x18dc
 9175 18c4 3D       		.uleb128 0x3d
 9176 18c5 766D00   		.ascii	"vm\000"
 9177 18c8 01       		.byte	0x1
ARM GAS  C:\Users\mathi\AppData\Local\Temp\ccF8t5t9.s 			page 162


 9178 18c9 4102     		.2byte	0x241
 9179 18cb B50C0000 		.4byte	0xcb5
 9180 18cf 48       		.uleb128 0x48
 9181 18d0 0A090000 		.4byte	.LASF233
 9182 18d4 01       		.byte	0x1
 9183 18d5 4102     		.2byte	0x241
 9184 18d7 0D0B0000 		.4byte	0xb0d
 9185 18db 00       		.byte	0
 9186 18dc 42       		.uleb128 0x42
 9187 18dd 24010000 		.4byte	.LASF236
 9188 18e1 01       		.byte	0x1
 9189 18e2 3002     		.2byte	0x230
 9190 18e4 0D0B0000 		.4byte	0xb0d
 9191 18e8 01       		.byte	0x1
 9192 18e9 03190000 		.4byte	0x1903
 9193 18ed 3D       		.uleb128 0x3d
 9194 18ee 766D00   		.ascii	"vm\000"
 9195 18f1 01       		.byte	0x1
 9196 18f2 3002     		.2byte	0x230
 9197 18f4 B50C0000 		.4byte	0xcb5
 9198 18f8 3E       		.uleb128 0x3e
 9199 18f9 6900     		.ascii	"i\000"
 9200 18fb 01       		.byte	0x1
 9201 18fc 3202     		.2byte	0x232
 9202 18fe 0D0B0000 		.4byte	0xb0d
 9203 1902 00       		.byte	0
 9204 1903 2F       		.uleb128 0x2f
 9205 1904 AC0C0000 		.4byte	.LASF238
 9206 1908 01       		.byte	0x1
 9207 1909 1602     		.2byte	0x216
 9208 190b 00000000 		.4byte	.LFB6
 9209 190f 84000000 		.4byte	.LFE6-.LFB6
 9210 1913 01       		.uleb128 0x1
 9211 1914 9C       		.byte	0x9c
 9212 1915 D5190000 		.4byte	0x19d5
 9213 1919 25       		.uleb128 0x25
 9214 191a 766D00   		.ascii	"vm\000"
 9215 191d 01       		.byte	0x1
 9216 191e 1602     		.2byte	0x216
 9217 1920 B50C0000 		.4byte	0xcb5
 9218 1924 870C0000 		.4byte	.LLST40
 9219 1928 26       		.uleb128 0x26
 9220 1929 BC090000 		.4byte	.LASF239
 9221 192d 01       		.byte	0x1
 9222 192e 1602     		.2byte	0x216
 9223 1930 F3070000 		.4byte	0x7f3
 9224 1934 A50C0000 		.4byte	.LLST41
 9225 1938 27       		.uleb128 0x27
 9226 1939 C6030000 		.4byte	.LASF240
 9227 193d 01       		.byte	0x1
 9228 193e 1802     		.2byte	0x218
 9229 1940 0D0B0000 		.4byte	0xb0d
 9230 1944 01       		.uleb128 0x1
 9231 1945 5B       		.byte	0x5b
 9232 1946 29       		.uleb128 0x29
 9233 1947 460F0000 		.4byte	.LASF226
 9234 194b 01       		.byte	0x1
ARM GAS  C:\Users\mathi\AppData\Local\Temp\ccF8t5t9.s 			page 163


 9235 194c 1A02     		.2byte	0x21a
 9236 194e D5190000 		.4byte	0x19d5
 9237 1952 C30C0000 		.4byte	.LLST42
 9238 1956 3B       		.uleb128 0x3b
 9239 1957 1C000000 		.4byte	.LVL128
 9240 195b CB270000 		.4byte	0x27cb
 9241 195f 6A190000 		.4byte	0x196a
 9242 1963 31       		.uleb128 0x31
 9243 1964 01       		.uleb128 0x1
 9244 1965 50       		.byte	0x50
 9245 1966 02       		.uleb128 0x2
 9246 1967 7A       		.byte	0x7a
 9247 1968 00       		.sleb128 0
 9248 1969 00       		.byte	0
 9249 196a 3B       		.uleb128 0x3b
 9250 196b 40000000 		.4byte	.LVL130
 9251 196f B5270000 		.4byte	0x27b5
 9252 1973 84190000 		.4byte	0x1984
 9253 1977 31       		.uleb128 0x31
 9254 1978 01       		.uleb128 0x1
 9255 1979 50       		.byte	0x50
 9256 197a 02       		.uleb128 0x2
 9257 197b 75       		.byte	0x75
 9258 197c 00       		.sleb128 0
 9259 197d 31       		.uleb128 0x31
 9260 197e 01       		.uleb128 0x1
 9261 197f 51       		.byte	0x51
 9262 1980 02       		.uleb128 0x2
 9263 1981 7A       		.byte	0x7a
 9264 1982 00       		.sleb128 0
 9265 1983 00       		.byte	0
 9266 1984 3B       		.uleb128 0x3b
 9267 1985 56000000 		.4byte	.LVL131
 9268 1989 D6270000 		.4byte	0x27d6
 9269 198d A4190000 		.4byte	0x19a4
 9270 1991 31       		.uleb128 0x31
 9271 1992 01       		.uleb128 0x1
 9272 1993 50       		.byte	0x50
 9273 1994 02       		.uleb128 0x2
 9274 1995 74       		.byte	0x74
 9275 1996 03       		.sleb128 3
 9276 1997 31       		.uleb128 0x31
 9277 1998 01       		.uleb128 0x1
 9278 1999 51       		.byte	0x51
 9279 199a 02       		.uleb128 0x2
 9280 199b 7A       		.byte	0x7a
 9281 199c 00       		.sleb128 0
 9282 199d 31       		.uleb128 0x31
 9283 199e 01       		.uleb128 0x1
 9284 199f 52       		.byte	0x52
 9285 19a0 02       		.uleb128 0x2
 9286 19a1 76       		.byte	0x76
 9287 19a2 00       		.sleb128 0
 9288 19a3 00       		.byte	0
 9289 19a4 3B       		.uleb128 0x3b
 9290 19a5 66000000 		.4byte	.LVL132
 9291 19a9 4E270000 		.4byte	0x274e
ARM GAS  C:\Users\mathi\AppData\Local\Temp\ccF8t5t9.s 			page 164


 9292 19ad CB190000 		.4byte	0x19cb
 9293 19b1 31       		.uleb128 0x31
 9294 19b2 01       		.uleb128 0x1
 9295 19b3 50       		.byte	0x50
 9296 19b4 02       		.uleb128 0x2
 9297 19b5 75       		.byte	0x75
 9298 19b6 00       		.sleb128 0
 9299 19b7 31       		.uleb128 0x31
 9300 19b8 01       		.uleb128 0x1
 9301 19b9 51       		.byte	0x51
 9302 19ba 03       		.uleb128 0x3
 9303 19bb 0B       		.byte	0xb
 9304 19bc 0990     		.2byte	0x9009
 9305 19be 31       		.uleb128 0x31
 9306 19bf 01       		.uleb128 0x1
 9307 19c0 52       		.byte	0x52
 9308 19c1 02       		.uleb128 0x2
 9309 19c2 74       		.byte	0x74
 9310 19c3 00       		.sleb128 0
 9311 19c4 31       		.uleb128 0x31
 9312 19c5 01       		.uleb128 0x1
 9313 19c6 53       		.byte	0x53
 9314 19c7 02       		.uleb128 0x2
 9315 19c8 76       		.byte	0x76
 9316 19c9 03       		.sleb128 3
 9317 19ca 00       		.byte	0
 9318 19cb 2E       		.uleb128 0x2e
 9319 19cc 7C000000 		.4byte	.LVL134
 9320 19d0 45270000 		.4byte	0x2745
 9321 19d4 00       		.byte	0
 9322 19d5 0D       		.uleb128 0xd
 9323 19d6 1D0B0000 		.4byte	0xb1d
 9324 19da E7190000 		.4byte	0x19e7
 9325 19de 49       		.uleb128 0x49
 9326 19df 96020000 		.4byte	0x296
 9327 19e3 02       		.uleb128 0x2
 9328 19e4 76       		.byte	0x76
 9329 19e5 02       		.sleb128 2
 9330 19e6 00       		.byte	0
 9331 19e7 4A       		.uleb128 0x4a
 9332 19e8 E7010000 		.4byte	.LASF241
 9333 19ec 01       		.byte	0x1
 9334 19ed A9       		.byte	0xa9
 9335 19ee 01       		.byte	0x1
 9336 19ef 741B0000 		.4byte	0x1b74
 9337 19f3 4B       		.uleb128 0x4b
 9338 19f4 766D00   		.ascii	"vm\000"
 9339 19f7 01       		.byte	0x1
 9340 19f8 A9       		.byte	0xa9
 9341 19f9 B50C0000 		.4byte	0xcb5
 9342 19fd 4C       		.uleb128 0x4c
 9343 19fe 31080000 		.4byte	.LASF209
 9344 1a02 01       		.byte	0x1
 9345 1a03 AB       		.byte	0xab
 9346 1a04 0D0B0000 		.4byte	0xb0d
 9347 1a08 4D       		.uleb128 0x4d
 9348 1a09 191A0000 		.4byte	0x1a19
ARM GAS  C:\Users\mathi\AppData\Local\Temp\ccF8t5t9.s 			page 165


 9349 1a0d 4C       		.uleb128 0x4c
 9350 1a0e 37000000 		.4byte	.LASF242
 9351 1a12 01       		.byte	0x1
 9352 1a13 BE       		.byte	0xbe
 9353 1a14 020B0000 		.4byte	0xb02
 9354 1a18 00       		.byte	0
 9355 1a19 4D       		.uleb128 0x4d
 9356 1a1a 2A1A0000 		.4byte	0x1a2a
 9357 1a1e 4C       		.uleb128 0x4c
 9358 1a1f 380A0000 		.4byte	.LASF243
 9359 1a23 01       		.byte	0x1
 9360 1a24 E2       		.byte	0xe2
 9361 1a25 0D0B0000 		.4byte	0xb0d
 9362 1a29 00       		.byte	0
 9363 1a2a 4D       		.uleb128 0x4d
 9364 1a2b 3B1A0000 		.4byte	0x1a3b
 9365 1a2f 4C       		.uleb128 0x4c
 9366 1a30 380A0000 		.4byte	.LASF243
 9367 1a34 01       		.byte	0x1
 9368 1a35 F7       		.byte	0xf7
 9369 1a36 0D0B0000 		.4byte	0xb0d
 9370 1a3a 00       		.byte	0
 9371 1a3b 4D       		.uleb128 0x4d
 9372 1a3c 731A0000 		.4byte	0x1a73
 9373 1a40 40       		.uleb128 0x40
 9374 1a41 A2010000 		.4byte	.LASF244
 9375 1a45 01       		.byte	0x1
 9376 1a46 0C01     		.2byte	0x10c
 9377 1a48 0D0B0000 		.4byte	0xb0d
 9378 1a4c 40       		.uleb128 0x40
 9379 1a4d 57120000 		.4byte	.LASF245
 9380 1a51 01       		.byte	0x1
 9381 1a52 0D01     		.2byte	0x10d
 9382 1a54 0D0B0000 		.4byte	0xb0d
 9383 1a58 40       		.uleb128 0x40
 9384 1a59 380A0000 		.4byte	.LASF243
 9385 1a5d 01       		.byte	0x1
 9386 1a5e 0E01     		.2byte	0x10e
 9387 1a60 0D0B0000 		.4byte	0xb0d
 9388 1a64 3F       		.uleb128 0x3f
 9389 1a65 40       		.uleb128 0x40
 9390 1a66 460F0000 		.4byte	.LASF226
 9391 1a6a 01       		.byte	0x1
 9392 1a6b 1E01     		.2byte	0x11e
 9393 1a6d 741B0000 		.4byte	0x1b74
 9394 1a71 00       		.byte	0
 9395 1a72 00       		.byte	0
 9396 1a73 4D       		.uleb128 0x4d
 9397 1a74 B71A0000 		.4byte	0x1ab7
 9398 1a78 40       		.uleb128 0x40
 9399 1a79 A2010000 		.4byte	.LASF244
 9400 1a7d 01       		.byte	0x1
 9401 1a7e 3401     		.2byte	0x134
 9402 1a80 0D0B0000 		.4byte	0xb0d
 9403 1a84 40       		.uleb128 0x40
 9404 1a85 57120000 		.4byte	.LASF245
 9405 1a89 01       		.byte	0x1
ARM GAS  C:\Users\mathi\AppData\Local\Temp\ccF8t5t9.s 			page 166


 9406 1a8a 3501     		.2byte	0x135
 9407 1a8c 0D0B0000 		.4byte	0xb0d
 9408 1a90 40       		.uleb128 0x40
 9409 1a91 380A0000 		.4byte	.LASF243
 9410 1a95 01       		.byte	0x1
 9411 1a96 3601     		.2byte	0x136
 9412 1a98 0D0B0000 		.4byte	0xb0d
 9413 1a9c 40       		.uleb128 0x40
 9414 1a9d 16020000 		.4byte	.LASF246
 9415 1aa1 01       		.byte	0x1
 9416 1aa2 3701     		.2byte	0x137
 9417 1aa4 020B0000 		.4byte	0xb02
 9418 1aa8 3F       		.uleb128 0x3f
 9419 1aa9 40       		.uleb128 0x40
 9420 1aaa 460F0000 		.4byte	.LASF226
 9421 1aae 01       		.byte	0x1
 9422 1aaf 4801     		.2byte	0x148
 9423 1ab1 741B0000 		.4byte	0x1b74
 9424 1ab5 00       		.byte	0
 9425 1ab6 00       		.byte	0
 9426 1ab7 4D       		.uleb128 0x4d
 9427 1ab8 D51A0000 		.4byte	0x1ad5
 9428 1abc 40       		.uleb128 0x40
 9429 1abd 37000000 		.4byte	.LASF242
 9430 1ac1 01       		.byte	0x1
 9431 1ac2 5F01     		.2byte	0x15f
 9432 1ac4 020B0000 		.4byte	0xb02
 9433 1ac8 40       		.uleb128 0x40
 9434 1ac9 07100000 		.4byte	.LASF247
 9435 1acd 01       		.byte	0x1
 9436 1ace 5F01     		.2byte	0x15f
 9437 1ad0 020B0000 		.4byte	0xb02
 9438 1ad4 00       		.byte	0
 9439 1ad5 4D       		.uleb128 0x4d
 9440 1ad6 FF1A0000 		.4byte	0x1aff
 9441 1ada 40       		.uleb128 0x40
 9442 1adb 5E110000 		.4byte	.LASF248
 9443 1adf 01       		.byte	0x1
 9444 1ae0 7801     		.2byte	0x178
 9445 1ae2 020B0000 		.4byte	0xb02
 9446 1ae6 40       		.uleb128 0x40
 9447 1ae7 01090000 		.4byte	.LASF249
 9448 1aeb 01       		.byte	0x1
 9449 1aec 7801     		.2byte	0x178
 9450 1aee 020B0000 		.4byte	0xb02
 9451 1af2 40       		.uleb128 0x40
 9452 1af3 07100000 		.4byte	.LASF247
 9453 1af7 01       		.byte	0x1
 9454 1af8 7801     		.2byte	0x178
 9455 1afa 020B0000 		.4byte	0xb02
 9456 1afe 00       		.byte	0
 9457 1aff 4D       		.uleb128 0x4d
 9458 1b00 111B0000 		.4byte	0x1b11
 9459 1b04 40       		.uleb128 0x40
 9460 1b05 2B050000 		.4byte	.LASF250
 9461 1b09 01       		.byte	0x1
 9462 1b0a 9301     		.2byte	0x193
ARM GAS  C:\Users\mathi\AppData\Local\Temp\ccF8t5t9.s 			page 167


 9463 1b0c 020B0000 		.4byte	0xb02
 9464 1b10 00       		.byte	0
 9465 1b11 4D       		.uleb128 0x4d
 9466 1b12 471B0000 		.4byte	0x1b47
 9467 1b16 40       		.uleb128 0x40
 9468 1b17 FC100000 		.4byte	.LASF251
 9469 1b1b 01       		.byte	0x1
 9470 1b1c A301     		.2byte	0x1a3
 9471 1b1e 020B0000 		.4byte	0xb02
 9472 1b22 40       		.uleb128 0x40
 9473 1b23 5E110000 		.4byte	.LASF248
 9474 1b27 01       		.byte	0x1
 9475 1b28 A401     		.2byte	0x1a4
 9476 1b2a 020B0000 		.4byte	0xb02
 9477 1b2e 40       		.uleb128 0x40
 9478 1b2f 01090000 		.4byte	.LASF249
 9479 1b33 01       		.byte	0x1
 9480 1b34 A401     		.2byte	0x1a4
 9481 1b36 020B0000 		.4byte	0xb02
 9482 1b3a 40       		.uleb128 0x40
 9483 1b3b 2B050000 		.4byte	.LASF250
 9484 1b3f 01       		.byte	0x1
 9485 1b40 A501     		.2byte	0x1a5
 9486 1b42 020B0000 		.4byte	0xb02
 9487 1b46 00       		.byte	0
 9488 1b47 4D       		.uleb128 0x4d
 9489 1b48 651B0000 		.4byte	0x1b65
 9490 1b4c 40       		.uleb128 0x40
 9491 1b4d 07120000 		.4byte	.LASF224
 9492 1b51 01       		.byte	0x1
 9493 1b52 D401     		.2byte	0x1d4
 9494 1b54 0D0B0000 		.4byte	0xb0d
 9495 1b58 40       		.uleb128 0x40
 9496 1b59 57110000 		.4byte	.LASF225
 9497 1b5d 01       		.byte	0x1
 9498 1b5e D501     		.2byte	0x1d5
 9499 1b60 0D0B0000 		.4byte	0xb0d
 9500 1b64 00       		.byte	0
 9501 1b65 3F       		.uleb128 0x3f
 9502 1b66 40       		.uleb128 0x40
 9503 1b67 E8090000 		.4byte	.LASF221
 9504 1b6b 01       		.byte	0x1
 9505 1b6c F001     		.2byte	0x1f0
 9506 1b6e 0D0B0000 		.4byte	0xb0d
 9507 1b72 00       		.byte	0
 9508 1b73 00       		.byte	0
 9509 1b74 0D       		.uleb128 0xd
 9510 1b75 0D0B0000 		.4byte	0xb0d
 9511 1b79 841B0000 		.4byte	0x1b84
 9512 1b7d 0E       		.uleb128 0xe
 9513 1b7e 96020000 		.4byte	0x296
 9514 1b82 02       		.byte	0x2
 9515 1b83 00       		.byte	0
 9516 1b84 4E       		.uleb128 0x4e
 9517 1b85 61120000 		.4byte	.LASF279
 9518 1b89 01       		.byte	0x1
 9519 1b8a 96       		.byte	0x96
ARM GAS  C:\Users\mathi\AppData\Local\Temp\ccF8t5t9.s 			page 168


 9520 1b8b 020B0000 		.4byte	0xb02
 9521 1b8f 01       		.byte	0x1
 9522 1b90 B41B0000 		.4byte	0x1bb4
 9523 1b94 4B       		.uleb128 0x4b
 9524 1b95 766D00   		.ascii	"vm\000"
 9525 1b98 01       		.byte	0x1
 9526 1b99 96       		.byte	0x96
 9527 1b9a B50C0000 		.4byte	0xcb5
 9528 1b9e 4F       		.uleb128 0x4f
 9529 1b9f 37000000 		.4byte	.LASF242
 9530 1ba3 01       		.byte	0x1
 9531 1ba4 96       		.byte	0x96
 9532 1ba5 020B0000 		.4byte	0xb02
 9533 1ba9 4B       		.uleb128 0x4b
 9534 1baa 6F7000   		.ascii	"op\000"
 9535 1bad 01       		.byte	0x1
 9536 1bae 96       		.byte	0x96
 9537 1baf 0D0B0000 		.4byte	0xb0d
 9538 1bb3 00       		.byte	0
 9539 1bb4 50       		.uleb128 0x50
 9540 1bb5 82100000 		.4byte	.LASF280
 9541 1bb9 01       		.byte	0x1
 9542 1bba 5A       		.byte	0x5a
 9543 1bbb 020B0000 		.4byte	0xb02
 9544 1bbf 00000000 		.4byte	.LFB3
 9545 1bc3 FC000000 		.4byte	.LFE3-.LFB3
 9546 1bc7 01       		.uleb128 0x1
 9547 1bc8 9C       		.byte	0x9c
 9548 1bc9 501C0000 		.4byte	0x1c50
 9549 1bcd 51       		.uleb128 0x51
 9550 1bce 766D00   		.ascii	"vm\000"
 9551 1bd1 01       		.byte	0x1
 9552 1bd2 5A       		.byte	0x5a
 9553 1bd3 B50C0000 		.4byte	0xcb5
 9554 1bd7 E30C0000 		.4byte	.LLST0
 9555 1bdb 52       		.uleb128 0x52
 9556 1bdc 5E110000 		.4byte	.LASF248
 9557 1be0 01       		.byte	0x1
 9558 1be1 5A       		.byte	0x5a
 9559 1be2 020B0000 		.4byte	0xb02
 9560 1be6 010D0000 		.4byte	.LLST1
 9561 1bea 52       		.uleb128 0x52
 9562 1beb 01090000 		.4byte	.LASF249
 9563 1bef 01       		.byte	0x1
 9564 1bf0 5A       		.byte	0x5a
 9565 1bf1 020B0000 		.4byte	0xb02
 9566 1bf5 540D0000 		.4byte	.LLST2
 9567 1bf9 51       		.uleb128 0x51
 9568 1bfa 6F7000   		.ascii	"op\000"
 9569 1bfd 01       		.byte	0x1
 9570 1bfe 5A       		.byte	0x5a
 9571 1bff 0D0B0000 		.4byte	0xb0d
 9572 1c03 0B0E0000 		.4byte	.LLST3
 9573 1c07 3B       		.uleb128 0x3b
 9574 1c08 6C000000 		.4byte	.LVL13
 9575 1c0c B5270000 		.4byte	0x27b5
 9576 1c10 201C0000 		.4byte	0x1c20
ARM GAS  C:\Users\mathi\AppData\Local\Temp\ccF8t5t9.s 			page 169


 9577 1c14 31       		.uleb128 0x31
 9578 1c15 01       		.uleb128 0x1
 9579 1c16 50       		.byte	0x50
 9580 1c17 02       		.uleb128 0x2
 9581 1c18 75       		.byte	0x75
 9582 1c19 00       		.sleb128 0
 9583 1c1a 31       		.uleb128 0x31
 9584 1c1b 01       		.uleb128 0x1
 9585 1c1c 51       		.byte	0x51
 9586 1c1d 01       		.uleb128 0x1
 9587 1c1e 30       		.byte	0x30
 9588 1c1f 00       		.byte	0
 9589 1c20 3B       		.uleb128 0x3b
 9590 1c21 7E000000 		.4byte	.LVL14
 9591 1c25 4E270000 		.4byte	0x274e
 9592 1c29 461C0000 		.4byte	0x1c46
 9593 1c2d 31       		.uleb128 0x31
 9594 1c2e 01       		.uleb128 0x1
 9595 1c2f 50       		.byte	0x50
 9596 1c30 02       		.uleb128 0x2
 9597 1c31 75       		.byte	0x75
 9598 1c32 00       		.sleb128 0
 9599 1c33 31       		.uleb128 0x31
 9600 1c34 01       		.uleb128 0x1
 9601 1c35 51       		.byte	0x51
 9602 1c36 03       		.uleb128 0x3
 9603 1c37 0B       		.byte	0xb
 9604 1c38 0790     		.2byte	0x9007
 9605 1c3a 31       		.uleb128 0x31
 9606 1c3b 01       		.uleb128 0x1
 9607 1c3c 52       		.byte	0x52
 9608 1c3d 02       		.uleb128 0x2
 9609 1c3e 75       		.byte	0x75
 9610 1c3f 1A       		.sleb128 26
 9611 1c40 31       		.uleb128 0x31
 9612 1c41 01       		.uleb128 0x1
 9613 1c42 53       		.byte	0x53
 9614 1c43 01       		.uleb128 0x1
 9615 1c44 32       		.byte	0x32
 9616 1c45 00       		.byte	0
 9617 1c46 2E       		.uleb128 0x2e
 9618 1c47 F2000000 		.4byte	.LVL20
 9619 1c4b 45270000 		.4byte	0x2745
 9620 1c4f 00       		.byte	0
 9621 1c50 53       		.uleb128 0x53
 9622 1c51 E70E0000 		.4byte	.LASF252
 9623 1c55 01       		.byte	0x1
 9624 1c56 44       		.byte	0x44
 9625 1c57 0D0B0000 		.4byte	0xb0d
 9626 1c5b 01       		.byte	0x1
 9627 1c5c 811C0000 		.4byte	0x1c81
 9628 1c60 4B       		.uleb128 0x4b
 9629 1c61 766D00   		.ascii	"vm\000"
 9630 1c64 01       		.byte	0x1
 9631 1c65 44       		.byte	0x44
 9632 1c66 B50C0000 		.4byte	0xcb5
 9633 1c6a 4F       		.uleb128 0x4f
ARM GAS  C:\Users\mathi\AppData\Local\Temp\ccF8t5t9.s 			page 170


 9634 1c6b 69020000 		.4byte	.LASF253
 9635 1c6f 01       		.byte	0x1
 9636 1c70 44       		.byte	0x44
 9637 1c71 0D0B0000 		.4byte	0xb0d
 9638 1c75 4C       		.uleb128 0x4c
 9639 1c76 44090000 		.4byte	.LASF254
 9640 1c7a 01       		.byte	0x1
 9641 1c7b 46       		.byte	0x46
 9642 1c7c 0D0B0000 		.4byte	0xb0d
 9643 1c80 00       		.byte	0
 9644 1c81 53       		.uleb128 0x53
 9645 1c82 F90E0000 		.4byte	.LASF255
 9646 1c86 01       		.byte	0x1
 9647 1c87 37       		.byte	0x37
 9648 1c88 0D0B0000 		.4byte	0xb0d
 9649 1c8c 01       		.byte	0x1
 9650 1c8d BB1C0000 		.4byte	0x1cbb
 9651 1c91 4B       		.uleb128 0x4b
 9652 1c92 766D00   		.ascii	"vm\000"
 9653 1c95 01       		.byte	0x1
 9654 1c96 37       		.byte	0x37
 9655 1c97 B50C0000 		.4byte	0xcb5
 9656 1c9b 4F       		.uleb128 0x4f
 9657 1c9c 69020000 		.4byte	.LASF253
 9658 1ca0 01       		.byte	0x1
 9659 1ca1 37       		.byte	0x37
 9660 1ca2 0D0B0000 		.4byte	0xb0d
 9661 1ca6 4C       		.uleb128 0x4c
 9662 1ca7 8E120000 		.4byte	.LASF256
 9663 1cab 01       		.byte	0x1
 9664 1cac 39       		.byte	0x39
 9665 1cad 0D0B0000 		.4byte	0xb0d
 9666 1cb1 54       		.uleb128 0x54
 9667 1cb2 6900     		.ascii	"i\000"
 9668 1cb4 01       		.byte	0x1
 9669 1cb5 3A       		.byte	0x3a
 9670 1cb6 0D0B0000 		.4byte	0xb0d
 9671 1cba 00       		.byte	0
 9672 1cbb 55       		.uleb128 0x55
 9673 1cbc B20F0000 		.4byte	.LASF257
 9674 1cc0 01       		.byte	0x1
 9675 1cc1 2C       		.byte	0x2c
 9676 1cc2 00000000 		.4byte	.LFB0
 9677 1cc6 34000000 		.4byte	.LFE0-.LFB0
 9678 1cca 01       		.uleb128 0x1
 9679 1ccb 9C       		.byte	0x9c
 9680 1ccc FB1C0000 		.4byte	0x1cfb
 9681 1cd0 51       		.uleb128 0x51
 9682 1cd1 766D00   		.ascii	"vm\000"
 9683 1cd4 01       		.byte	0x1
 9684 1cd5 2C       		.byte	0x2c
 9685 1cd6 B50C0000 		.4byte	0xcb5
 9686 1cda 5E0E0000 		.4byte	.LLST4
 9687 1cde 56       		.uleb128 0x56
 9688 1cdf 2C000000 		.4byte	.LVL23
 9689 1ce3 E5270000 		.4byte	0x27e5
 9690 1ce7 F11C0000 		.4byte	0x1cf1
ARM GAS  C:\Users\mathi\AppData\Local\Temp\ccF8t5t9.s 			page 171


 9691 1ceb 31       		.uleb128 0x31
 9692 1cec 01       		.uleb128 0x1
 9693 1ced 51       		.byte	0x51
 9694 1cee 01       		.uleb128 0x1
 9695 1cef 30       		.byte	0x30
 9696 1cf0 00       		.byte	0
 9697 1cf1 2E       		.uleb128 0x2e
 9698 1cf2 30000000 		.4byte	.LVL24
 9699 1cf6 45270000 		.4byte	0x2745
 9700 1cfa 00       		.byte	0
 9701 1cfb 57       		.uleb128 0x57
 9702 1cfc 811C0000 		.4byte	0x1c81
 9703 1d00 00000000 		.4byte	.LFB1
 9704 1d04 54000000 		.4byte	.LFE1-.LFB1
 9705 1d08 01       		.uleb128 0x1
 9706 1d09 9C       		.byte	0x9c
 9707 1d0a 3A1D0000 		.4byte	0x1d3a
 9708 1d0e 2B       		.uleb128 0x2b
 9709 1d0f 911C0000 		.4byte	0x1c91
 9710 1d13 7F0E0000 		.4byte	.LLST5
 9711 1d17 2B       		.uleb128 0x2b
 9712 1d18 9B1C0000 		.4byte	0x1c9b
 9713 1d1c B90E0000 		.4byte	.LLST6
 9714 1d20 47       		.uleb128 0x47
 9715 1d21 A61C0000 		.4byte	0x1ca6
 9716 1d25 01       		.uleb128 0x1
 9717 1d26 55       		.byte	0x55
 9718 1d27 36       		.uleb128 0x36
 9719 1d28 B11C0000 		.4byte	0x1cb1
 9720 1d2c DA0E0000 		.4byte	.LLST7
 9721 1d30 2E       		.uleb128 0x2e
 9722 1d31 4E000000 		.4byte	.LVL34
 9723 1d35 45270000 		.4byte	0x2745
 9724 1d39 00       		.byte	0
 9725 1d3a 57       		.uleb128 0x57
 9726 1d3b 501C0000 		.4byte	0x1c50
 9727 1d3f 00000000 		.4byte	.LFB2
 9728 1d43 9C000000 		.4byte	.LFE2-.LFB2
 9729 1d47 01       		.uleb128 0x1
 9730 1d48 9C       		.byte	0x9c
 9731 1d49 1B1E0000 		.4byte	0x1e1b
 9732 1d4d 2B       		.uleb128 0x2b
 9733 1d4e 601C0000 		.4byte	0x1c60
 9734 1d52 100F0000 		.4byte	.LLST8
 9735 1d56 2B       		.uleb128 0x2b
 9736 1d57 6A1C0000 		.4byte	0x1c6a
 9737 1d5b 600F0000 		.4byte	.LLST9
 9738 1d5f 2D       		.uleb128 0x2d
 9739 1d60 751C0000 		.4byte	0x1c75
 9740 1d64 38       		.uleb128 0x38
 9741 1d65 811C0000 		.4byte	0x1c81
 9742 1d69 02000000 		.4byte	.LBB65
 9743 1d6d 00000000 		.4byte	.Ldebug_ranges0+0
 9744 1d71 01       		.byte	0x1
 9745 1d72 46       		.byte	0x46
 9746 1d73 9A1D0000 		.4byte	0x1d9a
 9747 1d77 2B       		.uleb128 0x2b
ARM GAS  C:\Users\mathi\AppData\Local\Temp\ccF8t5t9.s 			page 172


 9748 1d78 9B1C0000 		.4byte	0x1c9b
 9749 1d7c CC0F0000 		.4byte	.LLST10
 9750 1d80 2B       		.uleb128 0x2b
 9751 1d81 911C0000 		.4byte	0x1c91
 9752 1d85 F50F0000 		.4byte	.LLST11
 9753 1d89 2C       		.uleb128 0x2c
 9754 1d8a 00000000 		.4byte	.Ldebug_ranges0+0
 9755 1d8e 2D       		.uleb128 0x2d
 9756 1d8f 201D0000 		.4byte	0x1d20
 9757 1d93 2D       		.uleb128 0x2d
 9758 1d94 271D0000 		.4byte	0x1d27
 9759 1d98 00       		.byte	0
 9760 1d99 00       		.byte	0
 9761 1d9a 39       		.uleb128 0x39
 9762 1d9b F3110000 		.4byte	0x11f3
 9763 1d9f 64000000 		.4byte	.LBB76
 9764 1da3 18000000 		.4byte	.LBE76-.LBB76
 9765 1da7 01       		.byte	0x1
 9766 1da8 55       		.byte	0x55
 9767 1da9 EB1D0000 		.4byte	0x1deb
 9768 1dad 2B       		.uleb128 0x2b
 9769 1dae 00120000 		.4byte	0x1200
 9770 1db2 37100000 		.4byte	.LLST12
 9771 1db6 35       		.uleb128 0x35
 9772 1db7 64000000 		.4byte	.LBB77
 9773 1dbb 18000000 		.4byte	.LBE77-.LBB77
 9774 1dbf 47       		.uleb128 0x47
 9775 1dc0 0B120000 		.4byte	0x120b
 9776 1dc4 02       		.uleb128 0x2
 9777 1dc5 91       		.byte	0x91
 9778 1dc6 60       		.sleb128 -32
 9779 1dc7 30       		.uleb128 0x30
 9780 1dc8 7A000000 		.4byte	.LVL46
 9781 1dcc 4E270000 		.4byte	0x274e
 9782 1dd0 31       		.uleb128 0x31
 9783 1dd1 01       		.uleb128 0x1
 9784 1dd2 50       		.byte	0x50
 9785 1dd3 02       		.uleb128 0x2
 9786 1dd4 74       		.byte	0x74
 9787 1dd5 00       		.sleb128 0
 9788 1dd6 31       		.uleb128 0x31
 9789 1dd7 01       		.uleb128 0x1
 9790 1dd8 51       		.byte	0x51
 9791 1dd9 03       		.uleb128 0x3
 9792 1dda 0B       		.byte	0xb
 9793 1ddb 0A90     		.2byte	0x900a
 9794 1ddd 31       		.uleb128 0x31
 9795 1dde 01       		.uleb128 0x1
 9796 1ddf 52       		.byte	0x52
 9797 1de0 02       		.uleb128 0x2
 9798 1de1 7D       		.byte	0x7d
 9799 1de2 00       		.sleb128 0
 9800 1de3 31       		.uleb128 0x31
 9801 1de4 01       		.uleb128 0x1
 9802 1de5 53       		.byte	0x53
 9803 1de6 01       		.uleb128 0x1
 9804 1de7 34       		.byte	0x34
ARM GAS  C:\Users\mathi\AppData\Local\Temp\ccF8t5t9.s 			page 173


 9805 1de8 00       		.byte	0
 9806 1de9 00       		.byte	0
 9807 1dea 00       		.byte	0
 9808 1deb 3B       		.uleb128 0x3b
 9809 1dec 8C000000 		.4byte	.LVL49
 9810 1df0 4E270000 		.4byte	0x274e
 9811 1df4 111E0000 		.4byte	0x1e11
 9812 1df8 31       		.uleb128 0x31
 9813 1df9 01       		.uleb128 0x1
 9814 1dfa 50       		.byte	0x50
 9815 1dfb 02       		.uleb128 0x2
 9816 1dfc 74       		.byte	0x74
 9817 1dfd 00       		.sleb128 0
 9818 1dfe 31       		.uleb128 0x31
 9819 1dff 01       		.uleb128 0x1
 9820 1e00 51       		.byte	0x51
 9821 1e01 03       		.uleb128 0x3
 9822 1e02 0B       		.byte	0xb
 9823 1e03 0890     		.2byte	0x9008
 9824 1e05 31       		.uleb128 0x31
 9825 1e06 01       		.uleb128 0x1
 9826 1e07 52       		.byte	0x52
 9827 1e08 02       		.uleb128 0x2
 9828 1e09 74       		.byte	0x74
 9829 1e0a 1A       		.sleb128 26
 9830 1e0b 31       		.uleb128 0x31
 9831 1e0c 01       		.uleb128 0x1
 9832 1e0d 53       		.byte	0x53
 9833 1e0e 01       		.uleb128 0x1
 9834 1e0f 32       		.byte	0x32
 9835 1e10 00       		.byte	0
 9836 1e11 2E       		.uleb128 0x2e
 9837 1e12 98000000 		.4byte	.LVL52
 9838 1e16 45270000 		.4byte	0x2745
 9839 1e1a 00       		.byte	0
 9840 1e1b 57       		.uleb128 0x57
 9841 1e1c E7190000 		.4byte	0x19e7
 9842 1e20 00000000 		.4byte	.LFB5
 9843 1e24 B0020000 		.4byte	.LFE5-.LFB5
 9844 1e28 01       		.uleb128 0x1
 9845 1e29 9C       		.byte	0x9c
 9846 1e2a 8A200000 		.4byte	0x208a
 9847 1e2e 2B       		.uleb128 0x2b
 9848 1e2f F3190000 		.4byte	0x19f3
 9849 1e33 4A100000 		.4byte	.LLST13
 9850 1e37 36       		.uleb128 0x36
 9851 1e38 FD190000 		.4byte	0x19fd
 9852 1e3c 68100000 		.4byte	.LLST14
 9853 1e40 33       		.uleb128 0x33
 9854 1e41 38000000 		.4byte	.Ldebug_ranges0+0x38
 9855 1e45 841E0000 		.4byte	0x1e84
 9856 1e49 36       		.uleb128 0x36
 9857 1e4a BC1A0000 		.4byte	0x1abc
 9858 1e4e A1110000 		.4byte	.LLST15
 9859 1e52 2D       		.uleb128 0x2d
 9860 1e53 C81A0000 		.4byte	0x1ac8
 9861 1e57 46       		.uleb128 0x46
ARM GAS  C:\Users\mathi\AppData\Local\Temp\ccF8t5t9.s 			page 174


 9862 1e58 841B0000 		.4byte	0x1b84
 9863 1e5c 44000000 		.4byte	.LBB95
 9864 1e60 50000000 		.4byte	.Ldebug_ranges0+0x50
 9865 1e64 01       		.byte	0x1
 9866 1e65 6B01     		.2byte	0x16b
 9867 1e67 2B       		.uleb128 0x2b
 9868 1e68 941B0000 		.4byte	0x1b94
 9869 1e6c 27120000 		.4byte	.LLST16
 9870 1e70 2B       		.uleb128 0x2b
 9871 1e71 A91B0000 		.4byte	0x1ba9
 9872 1e75 45120000 		.4byte	.LLST17
 9873 1e79 2B       		.uleb128 0x2b
 9874 1e7a 9E1B0000 		.4byte	0x1b9e
 9875 1e7e 89120000 		.4byte	.LLST18
 9876 1e82 00       		.byte	0
 9877 1e83 00       		.byte	0
 9878 1e84 28       		.uleb128 0x28
 9879 1e85 90000000 		.4byte	.LBB101
 9880 1e89 18000000 		.4byte	.LBE101-.LBB101
 9881 1e8d 9B1E0000 		.4byte	0x1e9b
 9882 1e91 36       		.uleb128 0x36
 9883 1e92 0D1A0000 		.4byte	0x1a0d
 9884 1e96 FE120000 		.4byte	.LLST19
 9885 1e9a 00       		.byte	0
 9886 1e9b 28       		.uleb128 0x28
 9887 1e9c C4000000 		.4byte	.LBB102
 9888 1ea0 1E000000 		.4byte	.LBE102-.LBB102
 9889 1ea4 B21E0000 		.4byte	0x1eb2
 9890 1ea8 36       		.uleb128 0x36
 9891 1ea9 1E1A0000 		.4byte	0x1a1e
 9892 1ead 30130000 		.4byte	.LLST20
 9893 1eb1 00       		.byte	0
 9894 1eb2 28       		.uleb128 0x28
 9895 1eb3 E4000000 		.4byte	.LBB103
 9896 1eb7 1E000000 		.4byte	.LBE103-.LBB103
 9897 1ebb C91E0000 		.4byte	0x1ec9
 9898 1ebf 36       		.uleb128 0x36
 9899 1ec0 2F1A0000 		.4byte	0x1a2f
 9900 1ec4 68130000 		.4byte	.LLST21
 9901 1ec8 00       		.byte	0
 9902 1ec9 28       		.uleb128 0x28
 9903 1eca 04010000 		.4byte	.LBB104
 9904 1ece 2C000000 		.4byte	.LBE104-.LBB104
 9905 1ed2 F21E0000 		.4byte	0x1ef2
 9906 1ed6 36       		.uleb128 0x36
 9907 1ed7 401A0000 		.4byte	0x1a40
 9908 1edb 81130000 		.4byte	.LLST22
 9909 1edf 36       		.uleb128 0x36
 9910 1ee0 4C1A0000 		.4byte	0x1a4c
 9911 1ee4 B3130000 		.4byte	.LLST23
 9912 1ee8 36       		.uleb128 0x36
 9913 1ee9 581A0000 		.4byte	0x1a58
 9914 1eed C6130000 		.4byte	.LLST24
 9915 1ef1 00       		.byte	0
 9916 1ef2 33       		.uleb128 0x33
 9917 1ef3 70000000 		.4byte	.Ldebug_ranges0+0x70
 9918 1ef7 6D1F0000 		.4byte	0x1f6d
ARM GAS  C:\Users\mathi\AppData\Local\Temp\ccF8t5t9.s 			page 175


 9919 1efb 36       		.uleb128 0x36
 9920 1efc 781A0000 		.4byte	0x1a78
 9921 1f00 EA130000 		.4byte	.LLST25
 9922 1f04 36       		.uleb128 0x36
 9923 1f05 841A0000 		.4byte	0x1a84
 9924 1f09 1C140000 		.4byte	.LLST26
 9925 1f0d 36       		.uleb128 0x36
 9926 1f0e 901A0000 		.4byte	0x1a90
 9927 1f12 2F140000 		.4byte	.LLST27
 9928 1f16 36       		.uleb128 0x36
 9929 1f17 9C1A0000 		.4byte	0x1a9c
 9930 1f1b 59140000 		.4byte	.LLST28
 9931 1f1f 35       		.uleb128 0x35
 9932 1f20 56020000 		.4byte	.LBB106
 9933 1f24 30000000 		.4byte	.LBE106-.LBB106
 9934 1f28 47       		.uleb128 0x47
 9935 1f29 A91A0000 		.4byte	0x1aa9
 9936 1f2d 02       		.uleb128 0x2
 9937 1f2e 91       		.byte	0x91
 9938 1f2f 5C       		.sleb128 -36
 9939 1f30 3B       		.uleb128 0x3b
 9940 1f31 74020000 		.4byte	.LVL113
 9941 1f35 4E270000 		.4byte	0x274e
 9942 1f39 561F0000 		.4byte	0x1f56
 9943 1f3d 31       		.uleb128 0x31
 9944 1f3e 01       		.uleb128 0x1
 9945 1f3f 50       		.byte	0x50
 9946 1f40 02       		.uleb128 0x2
 9947 1f41 74       		.byte	0x74
 9948 1f42 00       		.sleb128 0
 9949 1f43 31       		.uleb128 0x31
 9950 1f44 01       		.uleb128 0x1
 9951 1f45 51       		.byte	0x51
 9952 1f46 03       		.uleb128 0x3
 9953 1f47 0B       		.byte	0xb
 9954 1f48 0690     		.2byte	0x9006
 9955 1f4a 31       		.uleb128 0x31
 9956 1f4b 01       		.uleb128 0x1
 9957 1f4c 52       		.byte	0x52
 9958 1f4d 02       		.uleb128 0x2
 9959 1f4e 91       		.byte	0x91
 9960 1f4f 5C       		.sleb128 -36
 9961 1f50 31       		.uleb128 0x31
 9962 1f51 01       		.uleb128 0x1
 9963 1f52 53       		.byte	0x53
 9964 1f53 01       		.uleb128 0x1
 9965 1f54 36       		.byte	0x36
 9966 1f55 00       		.byte	0
 9967 1f56 30       		.uleb128 0x30
 9968 1f57 84020000 		.4byte	.LVL114
 9969 1f5b B5270000 		.4byte	0x27b5
 9970 1f5f 31       		.uleb128 0x31
 9971 1f60 01       		.uleb128 0x1
 9972 1f61 50       		.byte	0x50
 9973 1f62 02       		.uleb128 0x2
 9974 1f63 74       		.byte	0x74
 9975 1f64 00       		.sleb128 0
ARM GAS  C:\Users\mathi\AppData\Local\Temp\ccF8t5t9.s 			page 176


 9976 1f65 31       		.uleb128 0x31
 9977 1f66 01       		.uleb128 0x1
 9978 1f67 51       		.byte	0x51
 9979 1f68 01       		.uleb128 0x1
 9980 1f69 30       		.byte	0x30
 9981 1f6a 00       		.byte	0
 9982 1f6b 00       		.byte	0
 9983 1f6c 00       		.byte	0
 9984 1f6d 28       		.uleb128 0x28
 9985 1f6e 6C010000 		.4byte	.LBB107
 9986 1f72 30000000 		.4byte	.LBE107-.LBB107
 9987 1f76 AF1F0000 		.4byte	0x1faf
 9988 1f7a 36       		.uleb128 0x36
 9989 1f7b DA1A0000 		.4byte	0x1ada
 9990 1f7f 93140000 		.4byte	.LLST29
 9991 1f83 36       		.uleb128 0x36
 9992 1f84 E61A0000 		.4byte	0x1ae6
 9993 1f88 C6140000 		.4byte	.LLST30
 9994 1f8c 36       		.uleb128 0x36
 9995 1f8d F21A0000 		.4byte	0x1af2
 9996 1f91 FD140000 		.4byte	.LLST31
 9997 1f95 30       		.uleb128 0x30
 9998 1f96 88010000 		.4byte	.LVL87
 9999 1f9a B41B0000 		.4byte	0x1bb4
 10000 1f9e 31       		.uleb128 0x31
 10001 1f9f 01       		.uleb128 0x1
 10002 1fa0 50       		.byte	0x50
 10003 1fa1 02       		.uleb128 0x2
 10004 1fa2 74       		.byte	0x74
 10005 1fa3 00       		.sleb128 0
 10006 1fa4 31       		.uleb128 0x31
 10007 1fa5 01       		.uleb128 0x1
 10008 1fa6 53       		.byte	0x53
 10009 1fa7 05       		.uleb128 0x5
 10010 1fa8 75       		.byte	0x75
 10011 1fa9 00       		.sleb128 0
 10012 1faa 08       		.byte	0x8
 10013 1fab FF       		.byte	0xff
 10014 1fac 1A       		.byte	0x1a
 10015 1fad 00       		.byte	0
 10016 1fae 00       		.byte	0
 10017 1faf 28       		.uleb128 0x28
 10018 1fb0 9E010000 		.4byte	.LBB108
 10019 1fb4 08000000 		.4byte	.LBE108-.LBB108
 10020 1fb8 C61F0000 		.4byte	0x1fc6
 10021 1fbc 36       		.uleb128 0x36
 10022 1fbd 041B0000 		.4byte	0x1b04
 10023 1fc1 10150000 		.4byte	.LLST32
 10024 1fc5 00       		.byte	0
 10025 1fc6 33       		.uleb128 0x33
 10026 1fc7 88000000 		.4byte	.Ldebug_ranges0+0x88
 10027 1fcb 0D200000 		.4byte	0x200d
 10028 1fcf 36       		.uleb128 0x36
 10029 1fd0 161B0000 		.4byte	0x1b16
 10030 1fd4 5F150000 		.4byte	.LLST33
 10031 1fd8 36       		.uleb128 0x36
 10032 1fd9 221B0000 		.4byte	0x1b22
ARM GAS  C:\Users\mathi\AppData\Local\Temp\ccF8t5t9.s 			page 177


 10033 1fdd 7D150000 		.4byte	.LLST34
 10034 1fe1 36       		.uleb128 0x36
 10035 1fe2 2E1B0000 		.4byte	0x1b2e
 10036 1fe6 DB150000 		.4byte	.LLST35
 10037 1fea 36       		.uleb128 0x36
 10038 1feb 3A1B0000 		.4byte	0x1b3a
 10039 1fef 41160000 		.4byte	.LLST36
 10040 1ff3 30       		.uleb128 0x30
 10041 1ff4 C4010000 		.4byte	.LVL97
 10042 1ff8 B41B0000 		.4byte	0x1bb4
 10043 1ffc 31       		.uleb128 0x31
 10044 1ffd 01       		.uleb128 0x1
 10045 1ffe 50       		.byte	0x50
 10046 1fff 02       		.uleb128 0x2
 10047 2000 74       		.byte	0x74
 10048 2001 00       		.sleb128 0
 10049 2002 31       		.uleb128 0x31
 10050 2003 01       		.uleb128 0x1
 10051 2004 53       		.byte	0x53
 10052 2005 05       		.uleb128 0x5
 10053 2006 75       		.byte	0x75
 10054 2007 00       		.sleb128 0
 10055 2008 08       		.byte	0x8
 10056 2009 FF       		.byte	0xff
 10057 200a 1A       		.byte	0x1a
 10058 200b 00       		.byte	0
 10059 200c 00       		.byte	0
 10060 200d 28       		.uleb128 0x28
 10061 200e EC010000 		.4byte	.LBB110
 10062 2012 20000000 		.4byte	.LBE110-.LBB110
 10063 2016 49200000 		.4byte	0x2049
 10064 201a 36       		.uleb128 0x36
 10065 201b 4C1B0000 		.4byte	0x1b4c
 10066 201f 5F160000 		.4byte	.LLST37
 10067 2023 36       		.uleb128 0x36
 10068 2024 581B0000 		.4byte	0x1b58
 10069 2028 A4160000 		.4byte	.LLST38
 10070 202c 30       		.uleb128 0x30
 10071 202d 06020000 		.4byte	.LVL103
 10072 2031 4E270000 		.4byte	0x274e
 10073 2035 31       		.uleb128 0x31
 10074 2036 01       		.uleb128 0x1
 10075 2037 50       		.byte	0x50
 10076 2038 02       		.uleb128 0x2
 10077 2039 74       		.byte	0x74
 10078 203a 00       		.sleb128 0
 10079 203b 31       		.uleb128 0x31
 10080 203c 01       		.uleb128 0x1
 10081 203d 51       		.byte	0x51
 10082 203e 08       		.uleb128 0x8
 10083 203f 75       		.byte	0x75
 10084 2040 00       		.sleb128 0
 10085 2041 09       		.byte	0x9
 10086 2042 F8       		.byte	0xf8
 10087 2043 24       		.byte	0x24
 10088 2044 09       		.byte	0x9
 10089 2045 F8       		.byte	0xf8
ARM GAS  C:\Users\mathi\AppData\Local\Temp\ccF8t5t9.s 			page 178


 10090 2046 25       		.byte	0x25
 10091 2047 00       		.byte	0
 10092 2048 00       		.byte	0
 10093 2049 28       		.uleb128 0x28
 10094 204a 20020000 		.4byte	.LBB111
 10095 204e 16000000 		.4byte	.LBE111-.LBB111
 10096 2052 60200000 		.4byte	0x2060
 10097 2056 36       		.uleb128 0x36
 10098 2057 661B0000 		.4byte	0x1b66
 10099 205b E9160000 		.4byte	.LLST39
 10100 205f 00       		.byte	0
 10101 2060 3B       		.uleb128 0x3b
 10102 2061 18020000 		.4byte	.LVL104
 10103 2065 C0270000 		.4byte	0x27c0
 10104 2069 80200000 		.4byte	0x2080
 10105 206d 31       		.uleb128 0x31
 10106 206e 01       		.uleb128 0x1
 10107 206f 50       		.byte	0x50
 10108 2070 02       		.uleb128 0x2
 10109 2071 74       		.byte	0x74
 10110 2072 00       		.sleb128 0
 10111 2073 31       		.uleb128 0x31
 10112 2074 01       		.uleb128 0x1
 10113 2075 51       		.byte	0x51
 10114 2076 08       		.uleb128 0x8
 10115 2077 75       		.byte	0x75
 10116 2078 00       		.sleb128 0
 10117 2079 09       		.byte	0x9
 10118 207a F8       		.byte	0xf8
 10119 207b 24       		.byte	0x24
 10120 207c 09       		.byte	0x9
 10121 207d F8       		.byte	0xf8
 10122 207e 25       		.byte	0x25
 10123 207f 00       		.byte	0
 10124 2080 2E       		.uleb128 0x2e
 10125 2081 A6020000 		.4byte	.LVL125
 10126 2085 45270000 		.4byte	0x2745
 10127 2089 00       		.byte	0
 10128 208a 57       		.uleb128 0x57
 10129 208b DC180000 		.4byte	0x18dc
 10130 208f 00000000 		.4byte	.LFB7
 10131 2093 D4000000 		.4byte	.LFE7-.LFB7
 10132 2097 01       		.uleb128 0x1
 10133 2098 9C       		.byte	0x9c
 10134 2099 B9200000 		.4byte	0x20b9
 10135 209d 2B       		.uleb128 0x2b
 10136 209e ED180000 		.4byte	0x18ed
 10137 20a2 1B170000 		.4byte	.LLST43
 10138 20a6 36       		.uleb128 0x36
 10139 20a7 F8180000 		.4byte	0x18f8
 10140 20ab 60170000 		.4byte	.LLST44
 10141 20af 2E       		.uleb128 0x2e
 10142 20b0 CE000000 		.4byte	.LVL157
 10143 20b4 45270000 		.4byte	0x2745
 10144 20b8 00       		.byte	0
 10145 20b9 57       		.uleb128 0x57
 10146 20ba B7180000 		.4byte	0x18b7
ARM GAS  C:\Users\mathi\AppData\Local\Temp\ccF8t5t9.s 			page 179


 10147 20be 00000000 		.4byte	.LFB8
 10148 20c2 E4050000 		.4byte	.LFE8-.LFB8
 10149 20c6 01       		.uleb128 0x1
 10150 20c7 9C       		.byte	0x9c
 10151 20c8 4C250000 		.4byte	0x254c
 10152 20cc 2B       		.uleb128 0x2b
 10153 20cd C4180000 		.4byte	0x18c4
 10154 20d1 28180000 		.4byte	.LLST45
 10155 20d5 2B       		.uleb128 0x2b
 10156 20d6 CF180000 		.4byte	0x18cf
 10157 20da 5C180000 		.4byte	.LLST46
 10158 20de 2A       		.uleb128 0x2a
 10159 20df E7190000 		.4byte	0x19e7
 10160 20e3 1A000000 		.4byte	.LBB150
 10161 20e7 A8000000 		.4byte	.Ldebug_ranges0+0xa8
 10162 20eb 01       		.byte	0x1
 10163 20ec 5802     		.2byte	0x258
 10164 20ee 0C230000 		.4byte	0x230c
 10165 20f2 43       		.uleb128 0x43
 10166 20f3 F3190000 		.4byte	0x19f3
 10167 20f7 2C       		.uleb128 0x2c
 10168 20f8 A8000000 		.4byte	.Ldebug_ranges0+0xa8
 10169 20fc 2D       		.uleb128 0x2d
 10170 20fd 371E0000 		.4byte	0x1e37
 10171 2101 44       		.uleb128 0x44
 10172 2102 F21E0000 		.4byte	0x1ef2
 10173 2106 E8000000 		.4byte	.Ldebug_ranges0+0xe8
 10174 210a 6D210000 		.4byte	0x216d
 10175 210e 2D       		.uleb128 0x2d
 10176 210f FB1E0000 		.4byte	0x1efb
 10177 2113 2D       		.uleb128 0x2d
 10178 2114 041F0000 		.4byte	0x1f04
 10179 2118 2D       		.uleb128 0x2d
 10180 2119 0D1F0000 		.4byte	0x1f0d
 10181 211d 2D       		.uleb128 0x2d
 10182 211e 161F0000 		.4byte	0x1f16
 10183 2122 37       		.uleb128 0x37
 10184 2123 1F1F0000 		.4byte	0x1f1f
 10185 2127 08010000 		.4byte	.Ldebug_ranges0+0x108
 10186 212b 2D       		.uleb128 0x2d
 10187 212c 281F0000 		.4byte	0x1f28
 10188 2130 3B       		.uleb128 0x3b
 10189 2131 62050000 		.4byte	.LVL296
 10190 2135 4E270000 		.4byte	0x274e
 10191 2139 56210000 		.4byte	0x2156
 10192 213d 31       		.uleb128 0x31
 10193 213e 01       		.uleb128 0x1
 10194 213f 50       		.byte	0x50
 10195 2140 02       		.uleb128 0x2
 10196 2141 74       		.byte	0x74
 10197 2142 00       		.sleb128 0
 10198 2143 31       		.uleb128 0x31
 10199 2144 01       		.uleb128 0x1
 10200 2145 51       		.byte	0x51
 10201 2146 03       		.uleb128 0x3
 10202 2147 0B       		.byte	0xb
 10203 2148 0690     		.2byte	0x9006
ARM GAS  C:\Users\mathi\AppData\Local\Temp\ccF8t5t9.s 			page 180


 10204 214a 31       		.uleb128 0x31
 10205 214b 01       		.uleb128 0x1
 10206 214c 52       		.byte	0x52
 10207 214d 02       		.uleb128 0x2
 10208 214e 91       		.byte	0x91
 10209 214f 54       		.sleb128 -44
 10210 2150 31       		.uleb128 0x31
 10211 2151 01       		.uleb128 0x1
 10212 2152 53       		.byte	0x53
 10213 2153 01       		.uleb128 0x1
 10214 2154 36       		.byte	0x36
 10215 2155 00       		.byte	0
 10216 2156 30       		.uleb128 0x30
 10217 2157 70050000 		.4byte	.LVL297
 10218 215b B5270000 		.4byte	0x27b5
 10219 215f 31       		.uleb128 0x31
 10220 2160 01       		.uleb128 0x1
 10221 2161 50       		.byte	0x50
 10222 2162 02       		.uleb128 0x2
 10223 2163 74       		.byte	0x74
 10224 2164 00       		.sleb128 0
 10225 2165 31       		.uleb128 0x31
 10226 2166 01       		.uleb128 0x1
 10227 2167 51       		.byte	0x51
 10228 2168 01       		.uleb128 0x1
 10229 2169 30       		.byte	0x30
 10230 216a 00       		.byte	0
 10231 216b 00       		.byte	0
 10232 216c 00       		.byte	0
 10233 216d 44       		.uleb128 0x44
 10234 216e C61F0000 		.4byte	0x1fc6
 10235 2172 20010000 		.4byte	.Ldebug_ranges0+0x120
 10236 2176 A8210000 		.4byte	0x21a8
 10237 217a 2D       		.uleb128 0x2d
 10238 217b CF1F0000 		.4byte	0x1fcf
 10239 217f 2D       		.uleb128 0x2d
 10240 2180 D81F0000 		.4byte	0x1fd8
 10241 2184 2D       		.uleb128 0x2d
 10242 2185 E11F0000 		.4byte	0x1fe1
 10243 2189 2D       		.uleb128 0x2d
 10244 218a EA1F0000 		.4byte	0x1fea
 10245 218e 30       		.uleb128 0x30
 10246 218f 72040000 		.4byte	.LVL272
 10247 2193 B41B0000 		.4byte	0x1bb4
 10248 2197 31       		.uleb128 0x31
 10249 2198 01       		.uleb128 0x1
 10250 2199 50       		.byte	0x50
 10251 219a 02       		.uleb128 0x2
 10252 219b 74       		.byte	0x74
 10253 219c 00       		.sleb128 0
 10254 219d 31       		.uleb128 0x31
 10255 219e 01       		.uleb128 0x1
 10256 219f 53       		.byte	0x53
 10257 21a0 05       		.uleb128 0x5
 10258 21a1 75       		.byte	0x75
 10259 21a2 00       		.sleb128 0
 10260 21a3 08       		.byte	0x8
ARM GAS  C:\Users\mathi\AppData\Local\Temp\ccF8t5t9.s 			page 181


 10261 21a4 FF       		.byte	0xff
 10262 21a5 1A       		.byte	0x1a
 10263 21a6 00       		.byte	0
 10264 21a7 00       		.byte	0
 10265 21a8 45       		.uleb128 0x45
 10266 21a9 841E0000 		.4byte	0x1e84
 10267 21ad 1C030000 		.4byte	.LBB156
 10268 21b1 12000000 		.4byte	.LBE156-.LBB156
 10269 21b5 BF210000 		.4byte	0x21bf
 10270 21b9 2D       		.uleb128 0x2d
 10271 21ba 911E0000 		.4byte	0x1e91
 10272 21be 00       		.byte	0
 10273 21bf 44       		.uleb128 0x44
 10274 21c0 C91E0000 		.4byte	0x1ec9
 10275 21c4 48010000 		.4byte	.Ldebug_ranges0+0x148
 10276 21c8 DC210000 		.4byte	0x21dc
 10277 21cc 2D       		.uleb128 0x2d
 10278 21cd D61E0000 		.4byte	0x1ed6
 10279 21d1 2D       		.uleb128 0x2d
 10280 21d2 DF1E0000 		.4byte	0x1edf
 10281 21d6 2D       		.uleb128 0x2d
 10282 21d7 E81E0000 		.4byte	0x1ee8
 10283 21db 00       		.byte	0
 10284 21dc 45       		.uleb128 0x45
 10285 21dd 9B1E0000 		.4byte	0x1e9b
 10286 21e1 5E030000 		.4byte	.LBB158
 10287 21e5 1A000000 		.4byte	.LBE158-.LBB158
 10288 21e9 F3210000 		.4byte	0x21f3
 10289 21ed 2D       		.uleb128 0x2d
 10290 21ee A81E0000 		.4byte	0x1ea8
 10291 21f2 00       		.byte	0
 10292 21f3 45       		.uleb128 0x45
 10293 21f4 B21E0000 		.4byte	0x1eb2
 10294 21f8 78030000 		.4byte	.LBB159
 10295 21fc 1A000000 		.4byte	.LBE159-.LBB159
 10296 2200 0A220000 		.4byte	0x220a
 10297 2204 2D       		.uleb128 0x2d
 10298 2205 BF1E0000 		.4byte	0x1ebf
 10299 2209 00       		.byte	0
 10300 220a 44       		.uleb128 0x44
 10301 220b 401E0000 		.4byte	0x1e40
 10302 220f 60010000 		.4byte	.Ldebug_ranges0+0x160
 10303 2213 4E220000 		.4byte	0x224e
 10304 2217 2D       		.uleb128 0x2d
 10305 2218 491E0000 		.4byte	0x1e49
 10306 221c 2D       		.uleb128 0x2d
 10307 221d 521E0000 		.4byte	0x1e52
 10308 2221 46       		.uleb128 0x46
 10309 2222 841B0000 		.4byte	0x1b84
 10310 2226 02040000 		.4byte	.LBB163
 10311 222a 80010000 		.4byte	.Ldebug_ranges0+0x180
 10312 222e 01       		.byte	0x1
 10313 222f 6B01     		.2byte	0x16b
 10314 2231 2B       		.uleb128 0x2b
 10315 2232 941B0000 		.4byte	0x1b94
 10316 2236 34190000 		.4byte	.LLST47
 10317 223a 2B       		.uleb128 0x2b
ARM GAS  C:\Users\mathi\AppData\Local\Temp\ccF8t5t9.s 			page 182


 10318 223b A91B0000 		.4byte	0x1ba9
 10319 223f 5D190000 		.4byte	.LLST48
 10320 2243 2B       		.uleb128 0x2b
 10321 2244 9E1B0000 		.4byte	0x1b9e
 10322 2248 BC190000 		.4byte	.LLST49
 10323 224c 00       		.byte	0
 10324 224d 00       		.byte	0
 10325 224e 45       		.uleb128 0x45
 10326 224f 6D1F0000 		.4byte	0x1f6d
 10327 2253 20040000 		.4byte	.LBB171
 10328 2257 2C000000 		.4byte	.LBE171-.LBB171
 10329 225b 88220000 		.4byte	0x2288
 10330 225f 2D       		.uleb128 0x2d
 10331 2260 7A1F0000 		.4byte	0x1f7a
 10332 2264 2D       		.uleb128 0x2d
 10333 2265 831F0000 		.4byte	0x1f83
 10334 2269 2D       		.uleb128 0x2d
 10335 226a 8C1F0000 		.4byte	0x1f8c
 10336 226e 30       		.uleb128 0x30
 10337 226f 3C040000 		.4byte	.LVL261
 10338 2273 B41B0000 		.4byte	0x1bb4
 10339 2277 31       		.uleb128 0x31
 10340 2278 01       		.uleb128 0x1
 10341 2279 50       		.byte	0x50
 10342 227a 02       		.uleb128 0x2
 10343 227b 74       		.byte	0x74
 10344 227c 00       		.sleb128 0
 10345 227d 31       		.uleb128 0x31
 10346 227e 01       		.uleb128 0x1
 10347 227f 53       		.byte	0x53
 10348 2280 05       		.uleb128 0x5
 10349 2281 75       		.byte	0x75
 10350 2282 00       		.sleb128 0
 10351 2283 08       		.byte	0x8
 10352 2284 FF       		.byte	0xff
 10353 2285 1A       		.byte	0x1a
 10354 2286 00       		.byte	0
 10355 2287 00       		.byte	0
 10356 2288 45       		.uleb128 0x45
 10357 2289 AF1F0000 		.4byte	0x1faf
 10358 228d 4C040000 		.4byte	.LBB172
 10359 2291 0A000000 		.4byte	.LBE172-.LBB172
 10360 2295 9F220000 		.4byte	0x229f
 10361 2299 2D       		.uleb128 0x2d
 10362 229a BC1F0000 		.4byte	0x1fbc
 10363 229e 00       		.byte	0
 10364 229f 45       		.uleb128 0x45
 10365 22a0 0D200000 		.4byte	0x200d
 10366 22a4 AA040000 		.4byte	.LBB174
 10367 22a8 2E000000 		.4byte	.LBE174-.LBB174
 10368 22ac D7220000 		.4byte	0x22d7
 10369 22b0 2D       		.uleb128 0x2d
 10370 22b1 1A200000 		.4byte	0x201a
 10371 22b5 2D       		.uleb128 0x2d
 10372 22b6 23200000 		.4byte	0x2023
 10373 22ba 30       		.uleb128 0x30
 10374 22bb CA040000 		.4byte	.LVL278
ARM GAS  C:\Users\mathi\AppData\Local\Temp\ccF8t5t9.s 			page 183


 10375 22bf 4E270000 		.4byte	0x274e
 10376 22c3 31       		.uleb128 0x31
 10377 22c4 01       		.uleb128 0x1
 10378 22c5 50       		.byte	0x50
 10379 22c6 02       		.uleb128 0x2
 10380 22c7 74       		.byte	0x74
 10381 22c8 00       		.sleb128 0
 10382 22c9 31       		.uleb128 0x31
 10383 22ca 01       		.uleb128 0x1
 10384 22cb 51       		.byte	0x51
 10385 22cc 08       		.uleb128 0x8
 10386 22cd 75       		.byte	0x75
 10387 22ce 00       		.sleb128 0
 10388 22cf 09       		.byte	0x9
 10389 22d0 F8       		.byte	0xf8
 10390 22d1 24       		.byte	0x24
 10391 22d2 09       		.byte	0x9
 10392 22d3 F8       		.byte	0xf8
 10393 22d4 25       		.byte	0x25
 10394 22d5 00       		.byte	0
 10395 22d6 00       		.byte	0
 10396 22d7 45       		.uleb128 0x45
 10397 22d8 49200000 		.4byte	0x2049
 10398 22dc E4040000 		.4byte	.LBB175
 10399 22e0 1E000000 		.4byte	.LBE175-.LBB175
 10400 22e4 EE220000 		.4byte	0x22ee
 10401 22e8 2D       		.uleb128 0x2d
 10402 22e9 56200000 		.4byte	0x2056
 10403 22ed 00       		.byte	0
 10404 22ee 30       		.uleb128 0x30
 10405 22ef E2040000 		.4byte	.LVL282
 10406 22f3 C0270000 		.4byte	0x27c0
 10407 22f7 31       		.uleb128 0x31
 10408 22f8 01       		.uleb128 0x1
 10409 22f9 50       		.byte	0x50
 10410 22fa 02       		.uleb128 0x2
 10411 22fb 74       		.byte	0x74
 10412 22fc 00       		.sleb128 0
 10413 22fd 31       		.uleb128 0x31
 10414 22fe 01       		.uleb128 0x1
 10415 22ff 51       		.byte	0x51
 10416 2300 08       		.uleb128 0x8
 10417 2301 75       		.byte	0x75
 10418 2302 00       		.sleb128 0
 10419 2303 09       		.byte	0x9
 10420 2304 F8       		.byte	0xf8
 10421 2305 24       		.byte	0x24
 10422 2306 09       		.byte	0x9
 10423 2307 F8       		.byte	0xf8
 10424 2308 25       		.byte	0x25
 10425 2309 00       		.byte	0
 10426 230a 00       		.byte	0
 10427 230b 00       		.byte	0
 10428 230c 2A       		.uleb128 0x2a
 10429 230d E7190000 		.4byte	0x19e7
 10430 2311 60000000 		.4byte	.LBB187
 10431 2315 A8010000 		.4byte	.Ldebug_ranges0+0x1a8
ARM GAS  C:\Users\mathi\AppData\Local\Temp\ccF8t5t9.s 			page 184


 10432 2319 01       		.byte	0x1
 10433 231a 4D02     		.2byte	0x24d
 10434 231c 42250000 		.4byte	0x2542
 10435 2320 2B       		.uleb128 0x2b
 10436 2321 F3190000 		.4byte	0x19f3
 10437 2325 2E1A0000 		.4byte	.LLST50
 10438 2329 2C       		.uleb128 0x2c
 10439 232a A8010000 		.4byte	.Ldebug_ranges0+0x1a8
 10440 232e 2D       		.uleb128 0x2d
 10441 232f 371E0000 		.4byte	0x1e37
 10442 2333 44       		.uleb128 0x44
 10443 2334 C61F0000 		.4byte	0x1fc6
 10444 2338 E8010000 		.4byte	.Ldebug_ranges0+0x1e8
 10445 233c 6E230000 		.4byte	0x236e
 10446 2340 2D       		.uleb128 0x2d
 10447 2341 CF1F0000 		.4byte	0x1fcf
 10448 2345 2D       		.uleb128 0x2d
 10449 2346 D81F0000 		.4byte	0x1fd8
 10450 234a 2D       		.uleb128 0x2d
 10451 234b E11F0000 		.4byte	0x1fe1
 10452 234f 2D       		.uleb128 0x2d
 10453 2350 EA1F0000 		.4byte	0x1fea
 10454 2354 30       		.uleb128 0x30
 10455 2355 7E000000 		.4byte	.LVL165
 10456 2359 B41B0000 		.4byte	0x1bb4
 10457 235d 31       		.uleb128 0x31
 10458 235e 01       		.uleb128 0x1
 10459 235f 50       		.byte	0x50
 10460 2360 02       		.uleb128 0x2
 10461 2361 74       		.byte	0x74
 10462 2362 00       		.sleb128 0
 10463 2363 31       		.uleb128 0x31
 10464 2364 01       		.uleb128 0x1
 10465 2365 53       		.byte	0x53
 10466 2366 05       		.uleb128 0x5
 10467 2367 7A       		.byte	0x7a
 10468 2368 00       		.sleb128 0
 10469 2369 08       		.byte	0x8
 10470 236a FF       		.byte	0xff
 10471 236b 1A       		.byte	0x1a
 10472 236c 00       		.byte	0
 10473 236d 00       		.byte	0
 10474 236e 44       		.uleb128 0x44
 10475 236f F21E0000 		.4byte	0x1ef2
 10476 2373 10020000 		.4byte	.Ldebug_ranges0+0x210
 10477 2377 DA230000 		.4byte	0x23da
 10478 237b 2D       		.uleb128 0x2d
 10479 237c FB1E0000 		.4byte	0x1efb
 10480 2380 2D       		.uleb128 0x2d
 10481 2381 041F0000 		.4byte	0x1f04
 10482 2385 2D       		.uleb128 0x2d
 10483 2386 0D1F0000 		.4byte	0x1f0d
 10484 238a 2D       		.uleb128 0x2d
 10485 238b 161F0000 		.4byte	0x1f16
 10486 238f 37       		.uleb128 0x37
 10487 2390 1F1F0000 		.4byte	0x1f1f
 10488 2394 30020000 		.4byte	.Ldebug_ranges0+0x230
ARM GAS  C:\Users\mathi\AppData\Local\Temp\ccF8t5t9.s 			page 185


 10489 2398 2D       		.uleb128 0x2d
 10490 2399 281F0000 		.4byte	0x1f28
 10491 239d 3B       		.uleb128 0x3b
 10492 239e 32050000 		.4byte	.LVL292
 10493 23a2 4E270000 		.4byte	0x274e
 10494 23a6 C3230000 		.4byte	0x23c3
 10495 23aa 31       		.uleb128 0x31
 10496 23ab 01       		.uleb128 0x1
 10497 23ac 50       		.byte	0x50
 10498 23ad 02       		.uleb128 0x2
 10499 23ae 74       		.byte	0x74
 10500 23af 00       		.sleb128 0
 10501 23b0 31       		.uleb128 0x31
 10502 23b1 01       		.uleb128 0x1
 10503 23b2 51       		.byte	0x51
 10504 23b3 03       		.uleb128 0x3
 10505 23b4 0B       		.byte	0xb
 10506 23b5 0690     		.2byte	0x9006
 10507 23b7 31       		.uleb128 0x31
 10508 23b8 01       		.uleb128 0x1
 10509 23b9 52       		.byte	0x52
 10510 23ba 02       		.uleb128 0x2
 10511 23bb 91       		.byte	0x91
 10512 23bc 54       		.sleb128 -44
 10513 23bd 31       		.uleb128 0x31
 10514 23be 01       		.uleb128 0x1
 10515 23bf 53       		.byte	0x53
 10516 23c0 01       		.uleb128 0x1
 10517 23c1 36       		.byte	0x36
 10518 23c2 00       		.byte	0
 10519 23c3 30       		.uleb128 0x30
 10520 23c4 42050000 		.4byte	.LVL293
 10521 23c8 B5270000 		.4byte	0x27b5
 10522 23cc 31       		.uleb128 0x31
 10523 23cd 01       		.uleb128 0x1
 10524 23ce 50       		.byte	0x50
 10525 23cf 02       		.uleb128 0x2
 10526 23d0 74       		.byte	0x74
 10527 23d1 00       		.sleb128 0
 10528 23d2 31       		.uleb128 0x31
 10529 23d3 01       		.uleb128 0x1
 10530 23d4 51       		.byte	0x51
 10531 23d5 01       		.uleb128 0x1
 10532 23d6 30       		.byte	0x30
 10533 23d7 00       		.byte	0
 10534 23d8 00       		.byte	0
 10535 23d9 00       		.byte	0
 10536 23da 45       		.uleb128 0x45
 10537 23db 49200000 		.4byte	0x2049
 10538 23df 5C010000 		.4byte	.LBB194
 10539 23e3 1C000000 		.4byte	.LBE194-.LBB194
 10540 23e7 F1230000 		.4byte	0x23f1
 10541 23eb 2D       		.uleb128 0x2d
 10542 23ec 56200000 		.4byte	0x2056
 10543 23f0 00       		.byte	0
 10544 23f1 45       		.uleb128 0x45
 10545 23f2 0D200000 		.4byte	0x200d
ARM GAS  C:\Users\mathi\AppData\Local\Temp\ccF8t5t9.s 			page 186


 10546 23f6 8C010000 		.4byte	.LBB195
 10547 23fa 24000000 		.4byte	.LBE195-.LBB195
 10548 23fe 29240000 		.4byte	0x2429
 10549 2402 2D       		.uleb128 0x2d
 10550 2403 1A200000 		.4byte	0x201a
 10551 2407 2D       		.uleb128 0x2d
 10552 2408 23200000 		.4byte	0x2023
 10553 240c 30       		.uleb128 0x30
 10554 240d A6010000 		.4byte	.LVL181
 10555 2411 4E270000 		.4byte	0x274e
 10556 2415 31       		.uleb128 0x31
 10557 2416 01       		.uleb128 0x1
 10558 2417 50       		.byte	0x50
 10559 2418 02       		.uleb128 0x2
 10560 2419 74       		.byte	0x74
 10561 241a 00       		.sleb128 0
 10562 241b 31       		.uleb128 0x31
 10563 241c 01       		.uleb128 0x1
 10564 241d 51       		.byte	0x51
 10565 241e 08       		.uleb128 0x8
 10566 241f 7A       		.byte	0x7a
 10567 2420 00       		.sleb128 0
 10568 2421 09       		.byte	0x9
 10569 2422 F8       		.byte	0xf8
 10570 2423 24       		.byte	0x24
 10571 2424 09       		.byte	0x9
 10572 2425 F8       		.byte	0xf8
 10573 2426 25       		.byte	0x25
 10574 2427 00       		.byte	0
 10575 2428 00       		.byte	0
 10576 2429 45       		.uleb128 0x45
 10577 242a AF1F0000 		.4byte	0x1faf
 10578 242e B0010000 		.4byte	.LBB196
 10579 2432 0C000000 		.4byte	.LBE196-.LBB196
 10580 2436 40240000 		.4byte	0x2440
 10581 243a 2D       		.uleb128 0x2d
 10582 243b BC1F0000 		.4byte	0x1fbc
 10583 243f 00       		.byte	0
 10584 2440 45       		.uleb128 0x45
 10585 2441 6D1F0000 		.4byte	0x1f6d
 10586 2445 BC010000 		.4byte	.LBB197
 10587 2449 36000000 		.4byte	.LBE197-.LBB197
 10588 244d 7A240000 		.4byte	0x247a
 10589 2451 2D       		.uleb128 0x2d
 10590 2452 7A1F0000 		.4byte	0x1f7a
 10591 2456 2D       		.uleb128 0x2d
 10592 2457 831F0000 		.4byte	0x1f83
 10593 245b 2D       		.uleb128 0x2d
 10594 245c 8C1F0000 		.4byte	0x1f8c
 10595 2460 30       		.uleb128 0x30
 10596 2461 DA010000 		.4byte	.LVL190
 10597 2465 B41B0000 		.4byte	0x1bb4
 10598 2469 31       		.uleb128 0x31
 10599 246a 01       		.uleb128 0x1
 10600 246b 50       		.byte	0x50
 10601 246c 02       		.uleb128 0x2
 10602 246d 74       		.byte	0x74
ARM GAS  C:\Users\mathi\AppData\Local\Temp\ccF8t5t9.s 			page 187


 10603 246e 00       		.sleb128 0
 10604 246f 31       		.uleb128 0x31
 10605 2470 01       		.uleb128 0x1
 10606 2471 53       		.byte	0x53
 10607 2472 05       		.uleb128 0x5
 10608 2473 7A       		.byte	0x7a
 10609 2474 00       		.sleb128 0
 10610 2475 08       		.byte	0x8
 10611 2476 FF       		.byte	0xff
 10612 2477 1A       		.byte	0x1a
 10613 2478 00       		.byte	0
 10614 2479 00       		.byte	0
 10615 247a 44       		.uleb128 0x44
 10616 247b 401E0000 		.4byte	0x1e40
 10617 247f 48020000 		.4byte	.Ldebug_ranges0+0x248
 10618 2483 BE240000 		.4byte	0x24be
 10619 2487 2D       		.uleb128 0x2d
 10620 2488 491E0000 		.4byte	0x1e49
 10621 248c 2D       		.uleb128 0x2d
 10622 248d 521E0000 		.4byte	0x1e52
 10623 2491 46       		.uleb128 0x46
 10624 2492 841B0000 		.4byte	0x1b84
 10625 2496 F8010000 		.4byte	.LBB199
 10626 249a 68020000 		.4byte	.Ldebug_ranges0+0x268
 10627 249e 01       		.byte	0x1
 10628 249f 6B01     		.2byte	0x16b
 10629 24a1 2B       		.uleb128 0x2b
 10630 24a2 941B0000 		.4byte	0x1b94
 10631 24a6 831A0000 		.4byte	.LLST51
 10632 24aa 2B       		.uleb128 0x2b
 10633 24ab A91B0000 		.4byte	0x1ba9
 10634 24af AC1A0000 		.4byte	.LLST52
 10635 24b3 2B       		.uleb128 0x2b
 10636 24b4 9E1B0000 		.4byte	0x1b9e
 10637 24b8 0B1B0000 		.4byte	.LLST53
 10638 24bc 00       		.byte	0
 10639 24bd 00       		.byte	0
 10640 24be 45       		.uleb128 0x45
 10641 24bf C91E0000 		.4byte	0x1ec9
 10642 24c3 5E020000 		.4byte	.LBB208
 10643 24c7 2E000000 		.4byte	.LBE208-.LBB208
 10644 24cb DF240000 		.4byte	0x24df
 10645 24cf 2D       		.uleb128 0x2d
 10646 24d0 D61E0000 		.4byte	0x1ed6
 10647 24d4 2D       		.uleb128 0x2d
 10648 24d5 DF1E0000 		.4byte	0x1edf
 10649 24d9 2D       		.uleb128 0x2d
 10650 24da E81E0000 		.4byte	0x1ee8
 10651 24de 00       		.byte	0
 10652 24df 45       		.uleb128 0x45
 10653 24e0 B21E0000 		.4byte	0x1eb2
 10654 24e4 8C020000 		.4byte	.LBB209
 10655 24e8 22000000 		.4byte	.LBE209-.LBB209
 10656 24ec F6240000 		.4byte	0x24f6
 10657 24f0 2D       		.uleb128 0x2d
 10658 24f1 BF1E0000 		.4byte	0x1ebf
 10659 24f5 00       		.byte	0
ARM GAS  C:\Users\mathi\AppData\Local\Temp\ccF8t5t9.s 			page 188


 10660 24f6 45       		.uleb128 0x45
 10661 24f7 9B1E0000 		.4byte	0x1e9b
 10662 24fb AE020000 		.4byte	.LBB210
 10663 24ff 22000000 		.4byte	.LBE210-.LBB210
 10664 2503 0D250000 		.4byte	0x250d
 10665 2507 2D       		.uleb128 0x2d
 10666 2508 A81E0000 		.4byte	0x1ea8
 10667 250c 00       		.byte	0
 10668 250d 45       		.uleb128 0x45
 10669 250e 841E0000 		.4byte	0x1e84
 10670 2512 E8020000 		.4byte	.LBB211
 10671 2516 1C000000 		.4byte	.LBE211-.LBB211
 10672 251a 24250000 		.4byte	0x2524
 10673 251e 2D       		.uleb128 0x2d
 10674 251f 911E0000 		.4byte	0x1e91
 10675 2523 00       		.byte	0
 10676 2524 30       		.uleb128 0x30
 10677 2525 82010000 		.4byte	.LVL178
 10678 2529 C0270000 		.4byte	0x27c0
 10679 252d 31       		.uleb128 0x31
 10680 252e 01       		.uleb128 0x1
 10681 252f 50       		.byte	0x50
 10682 2530 02       		.uleb128 0x2
 10683 2531 74       		.byte	0x74
 10684 2532 00       		.sleb128 0
 10685 2533 31       		.uleb128 0x31
 10686 2534 01       		.uleb128 0x1
 10687 2535 51       		.byte	0x51
 10688 2536 08       		.uleb128 0x8
 10689 2537 7A       		.byte	0x7a
 10690 2538 00       		.sleb128 0
 10691 2539 09       		.byte	0x9
 10692 253a F8       		.byte	0xf8
 10693 253b 24       		.byte	0x24
 10694 253c 09       		.byte	0x9
 10695 253d F8       		.byte	0xf8
 10696 253e 25       		.byte	0x25
 10697 253f 00       		.byte	0
 10698 2540 00       		.byte	0
 10699 2541 00       		.byte	0
 10700 2542 2E       		.uleb128 0x2e
 10701 2543 E4050000 		.4byte	.LVL323
 10702 2547 45270000 		.4byte	0x2745
 10703 254b 00       		.byte	0
 10704 254c 57       		.uleb128 0x57
 10705 254d 92180000 		.4byte	0x1892
 10706 2551 00000000 		.4byte	.LFB9
 10707 2555 E8010000 		.4byte	.LFE9-.LFB9
 10708 2559 01       		.uleb128 0x1
 10709 255a 9C       		.byte	0x9c
 10710 255b 43260000 		.4byte	0x2643
 10711 255f 2B       		.uleb128 0x2b
 10712 2560 9F180000 		.4byte	0x189f
 10713 2564 7D1B0000 		.4byte	.LLST54
 10714 2568 2B       		.uleb128 0x2b
 10715 2569 AA180000 		.4byte	0x18aa
 10716 256d 9B1B0000 		.4byte	.LLST55
ARM GAS  C:\Users\mathi\AppData\Local\Temp\ccF8t5t9.s 			page 189


 10717 2571 34       		.uleb128 0x34
 10718 2572 DC180000 		.4byte	0x18dc
 10719 2576 28000000 		.4byte	.LBB243
 10720 257a BA000000 		.4byte	.LBE243-.LBB243
 10721 257e 01       		.byte	0x1
 10722 257f 6C02     		.2byte	0x26c
 10723 2581 9A250000 		.4byte	0x259a
 10724 2585 43       		.uleb128 0x43
 10725 2586 ED180000 		.4byte	0x18ed
 10726 258a 35       		.uleb128 0x35
 10727 258b 28000000 		.4byte	.LBB244
 10728 258f BA000000 		.4byte	.LBE244-.LBB244
 10729 2593 2D       		.uleb128 0x2d
 10730 2594 A6200000 		.4byte	0x20a6
 10731 2598 00       		.byte	0
 10732 2599 00       		.byte	0
 10733 259a 2A       		.uleb128 0x2a
 10734 259b DC180000 		.4byte	0x18dc
 10735 259f 02010000 		.4byte	.LBB245
 10736 25a3 90020000 		.4byte	.Ldebug_ranges0+0x290
 10737 25a7 01       		.byte	0x1
 10738 25a8 7E02     		.2byte	0x27e
 10739 25aa BF250000 		.4byte	0x25bf
 10740 25ae 43       		.uleb128 0x43
 10741 25af ED180000 		.4byte	0x18ed
 10742 25b3 2C       		.uleb128 0x2c
 10743 25b4 90020000 		.4byte	.Ldebug_ranges0+0x290
 10744 25b8 2D       		.uleb128 0x2d
 10745 25b9 A6200000 		.4byte	0x20a6
 10746 25bd 00       		.byte	0
 10747 25be 00       		.byte	0
 10748 25bf 34       		.uleb128 0x34
 10749 25c0 F3110000 		.4byte	0x11f3
 10750 25c4 BC010000 		.4byte	.LBB249
 10751 25c8 16000000 		.4byte	.LBE249-.LBB249
 10752 25cc 01       		.byte	0x1
 10753 25cd 8102     		.2byte	0x281
 10754 25cf 11260000 		.4byte	0x2611
 10755 25d3 2B       		.uleb128 0x2b
 10756 25d4 00120000 		.4byte	0x1200
 10757 25d8 D21B0000 		.4byte	.LLST56
 10758 25dc 35       		.uleb128 0x35
 10759 25dd BC010000 		.4byte	.LBB250
 10760 25e1 16000000 		.4byte	.LBE250-.LBB250
 10761 25e5 47       		.uleb128 0x47
 10762 25e6 0B120000 		.4byte	0x120b
 10763 25ea 02       		.uleb128 0x2
 10764 25eb 91       		.byte	0x91
 10765 25ec 60       		.sleb128 -32
 10766 25ed 30       		.uleb128 0x30
 10767 25ee D2010000 		.4byte	.LVL367
 10768 25f2 4E270000 		.4byte	0x274e
 10769 25f6 31       		.uleb128 0x31
 10770 25f7 01       		.uleb128 0x1
 10771 25f8 50       		.byte	0x50
 10772 25f9 02       		.uleb128 0x2
 10773 25fa 74       		.byte	0x74
ARM GAS  C:\Users\mathi\AppData\Local\Temp\ccF8t5t9.s 			page 190


 10774 25fb 00       		.sleb128 0
 10775 25fc 31       		.uleb128 0x31
 10776 25fd 01       		.uleb128 0x1
 10777 25fe 51       		.byte	0x51
 10778 25ff 03       		.uleb128 0x3
 10779 2600 0B       		.byte	0xb
 10780 2601 0A90     		.2byte	0x900a
 10781 2603 31       		.uleb128 0x31
 10782 2604 01       		.uleb128 0x1
 10783 2605 52       		.byte	0x52
 10784 2606 02       		.uleb128 0x2
 10785 2607 7D       		.byte	0x7d
 10786 2608 00       		.sleb128 0
 10787 2609 31       		.uleb128 0x31
 10788 260a 01       		.uleb128 0x1
 10789 260b 53       		.byte	0x53
 10790 260c 01       		.uleb128 0x1
 10791 260d 34       		.byte	0x34
 10792 260e 00       		.byte	0
 10793 260f 00       		.byte	0
 10794 2610 00       		.byte	0
 10795 2611 3B       		.uleb128 0x3b
 10796 2612 E8000000 		.4byte	.LVL343
 10797 2616 E7190000 		.4byte	0x19e7
 10798 261a 25260000 		.4byte	0x2625
 10799 261e 31       		.uleb128 0x31
 10800 261f 01       		.uleb128 0x1
 10801 2620 50       		.byte	0x50
 10802 2621 02       		.uleb128 0x2
 10803 2622 74       		.byte	0x74
 10804 2623 00       		.sleb128 0
 10805 2624 00       		.byte	0
 10806 2625 3B       		.uleb128 0x3b
 10807 2626 80010000 		.4byte	.LVL360
 10808 262a E7190000 		.4byte	0x19e7
 10809 262e 39260000 		.4byte	0x2639
 10810 2632 31       		.uleb128 0x31
 10811 2633 01       		.uleb128 0x1
 10812 2634 50       		.byte	0x50
 10813 2635 02       		.uleb128 0x2
 10814 2636 74       		.byte	0x74
 10815 2637 00       		.sleb128 0
 10816 2638 00       		.byte	0
 10817 2639 2E       		.uleb128 0x2e
 10818 263a E2010000 		.4byte	.LVL369
 10819 263e 45270000 		.4byte	0x2745
 10820 2642 00       		.byte	0
 10821 2643 57       		.uleb128 0x57
 10822 2644 6F120000 		.4byte	0x126f
 10823 2648 00000000 		.4byte	.LFB11
 10824 264c 34000000 		.4byte	.LFE11-.LFB11
 10825 2650 01       		.uleb128 0x1
 10826 2651 9C       		.byte	0x9c
 10827 2652 72260000 		.4byte	0x2672
 10828 2656 2B       		.uleb128 0x2b
 10829 2657 80120000 		.4byte	0x1280
 10830 265b E51B0000 		.4byte	.LLST72
ARM GAS  C:\Users\mathi\AppData\Local\Temp\ccF8t5t9.s 			page 191


 10831 265f 2B       		.uleb128 0x2b
 10832 2660 8B120000 		.4byte	0x128b
 10833 2664 1F1C0000 		.4byte	.LLST73
 10834 2668 2E       		.uleb128 0x2e
 10835 2669 30000000 		.4byte	.LVL592
 10836 266d 45270000 		.4byte	0x2745
 10837 2671 00       		.byte	0
 10838 2672 57       		.uleb128 0x57
 10839 2673 31120000 		.4byte	0x1231
 10840 2677 00000000 		.4byte	.LFB12
 10841 267b 2C010000 		.4byte	.LFE12-.LFB12
 10842 267f 01       		.uleb128 0x1
 10843 2680 9C       		.byte	0x9c
 10844 2681 CA260000 		.4byte	0x26ca
 10845 2685 2B       		.uleb128 0x2b
 10846 2686 42120000 		.4byte	0x1242
 10847 268a 591C0000 		.4byte	.LLST74
 10848 268e 2B       		.uleb128 0x2b
 10849 268f 4D120000 		.4byte	0x124d
 10850 2693 AC1C0000 		.4byte	.LLST75
 10851 2697 36       		.uleb128 0x36
 10852 2698 58120000 		.4byte	0x1258
 10853 269c FF1C0000 		.4byte	.LLST76
 10854 26a0 28       		.uleb128 0x28
 10855 26a1 BE000000 		.4byte	.LBB408
 10856 26a5 28000000 		.4byte	.LBE408-.LBB408
 10857 26a9 B7260000 		.4byte	0x26b7
 10858 26ad 36       		.uleb128 0x36
 10859 26ae 63120000 		.4byte	0x1263
 10860 26b2 871E0000 		.4byte	.LLST77
 10861 26b6 00       		.byte	0
 10862 26b7 2E       		.uleb128 0x2e
 10863 26b8 E2000000 		.4byte	.LVL618
 10864 26bc 9B270000 		.4byte	0x279b
 10865 26c0 2E       		.uleb128 0x2e
 10866 26c1 26010000 		.4byte	.LVL635
 10867 26c5 45270000 		.4byte	0x2745
 10868 26c9 00       		.byte	0
 10869 26ca 57       		.uleb128 0x57
 10870 26cb 18120000 		.4byte	0x1218
 10871 26cf 00000000 		.4byte	.LFB13
 10872 26d3 24000000 		.4byte	.LFE13-.LFB13
 10873 26d7 01       		.uleb128 0x1
 10874 26d8 9C       		.byte	0x9c
 10875 26d9 F0260000 		.4byte	0x26f0
 10876 26dd 2B       		.uleb128 0x2b
 10877 26de 25120000 		.4byte	0x1225
 10878 26e2 9A1E0000 		.4byte	.LLST78
 10879 26e6 2E       		.uleb128 0x2e
 10880 26e7 20000000 		.4byte	.LVL637
 10881 26eb 45270000 		.4byte	0x2745
 10882 26ef 00       		.byte	0
 10883 26f0 57       		.uleb128 0x57
 10884 26f1 F3110000 		.4byte	0x11f3
 10885 26f5 00000000 		.4byte	.LFB14
 10886 26f9 38000000 		.4byte	.LFE14-.LFB14
 10887 26fd 01       		.uleb128 0x1
ARM GAS  C:\Users\mathi\AppData\Local\Temp\ccF8t5t9.s 			page 192


 10888 26fe 9C       		.byte	0x9c
 10889 26ff 45270000 		.4byte	0x2745
 10890 2703 2B       		.uleb128 0x2b
 10891 2704 00120000 		.4byte	0x1200
 10892 2708 BB1E0000 		.4byte	.LLST79
 10893 270c 47       		.uleb128 0x47
 10894 270d 0B120000 		.4byte	0x120b
 10895 2711 02       		.uleb128 0x2
 10896 2712 91       		.byte	0x91
 10897 2713 68       		.sleb128 -24
 10898 2714 3B       		.uleb128 0x3b
 10899 2715 22000000 		.4byte	.LVL639
 10900 2719 4E270000 		.4byte	0x274e
 10901 271d 3B270000 		.4byte	0x273b
 10902 2721 31       		.uleb128 0x31
 10903 2722 01       		.uleb128 0x1
 10904 2723 50       		.byte	0x50
 10905 2724 03       		.uleb128 0x3
 10906 2725 F3       		.byte	0xf3
 10907 2726 01       		.uleb128 0x1
 10908 2727 50       		.byte	0x50
 10909 2728 31       		.uleb128 0x31
 10910 2729 01       		.uleb128 0x1
 10911 272a 51       		.byte	0x51
 10912 272b 03       		.uleb128 0x3
 10913 272c 0B       		.byte	0xb
 10914 272d 0A90     		.2byte	0x900a
 10915 272f 31       		.uleb128 0x31
 10916 2730 01       		.uleb128 0x1
 10917 2731 52       		.byte	0x52
 10918 2732 02       		.uleb128 0x2
 10919 2733 7D       		.byte	0x7d
 10920 2734 00       		.sleb128 0
 10921 2735 31       		.uleb128 0x31
 10922 2736 01       		.uleb128 0x1
 10923 2737 53       		.byte	0x53
 10924 2738 01       		.uleb128 0x1
 10925 2739 34       		.byte	0x34
 10926 273a 00       		.byte	0
 10927 273b 2E       		.uleb128 0x2e
 10928 273c 32000000 		.4byte	.LVL640
 10929 2740 45270000 		.4byte	0x2745
 10930 2744 00       		.byte	0
 10931 2745 58       		.uleb128 0x58
 10932 2746 FB0D0000 		.4byte	.LASF281
 10933 274a FB0D0000 		.4byte	.LASF281
 10934 274e 59       		.uleb128 0x59
 10935 274f 98000000 		.4byte	.LASF258
 10936 2753 98000000 		.4byte	.LASF258
 10937 2757 09       		.byte	0x9
 10938 2758 92       		.byte	0x92
 10939 2759 59       		.uleb128 0x59
 10940 275a B1000000 		.4byte	.LASF259
 10941 275e B1000000 		.4byte	.LASF259
 10942 2762 09       		.byte	0x9
 10943 2763 9D       		.byte	0x9d
 10944 2764 59       		.uleb128 0x59
ARM GAS  C:\Users\mathi\AppData\Local\Temp\ccF8t5t9.s 			page 193


 10945 2765 79120000 		.4byte	.LASF260
 10946 2769 79120000 		.4byte	.LASF260
 10947 276d 09       		.byte	0x9
 10948 276e A0       		.byte	0xa0
 10949 276f 59       		.uleb128 0x59
 10950 2770 02080000 		.4byte	.LASF261
 10951 2774 02080000 		.4byte	.LASF261
 10952 2778 09       		.byte	0x9
 10953 2779 B9       		.byte	0xb9
 10954 277a 59       		.uleb128 0x59
 10955 277b D10B0000 		.4byte	.LASF262
 10956 277f D10B0000 		.4byte	.LASF262
 10957 2783 09       		.byte	0x9
 10958 2784 AC       		.byte	0xac
 10959 2785 59       		.uleb128 0x59
 10960 2786 2C060000 		.4byte	.LASF263
 10961 278a 2C060000 		.4byte	.LASF263
 10962 278e 09       		.byte	0x9
 10963 278f A9       		.byte	0xa9
 10964 2790 59       		.uleb128 0x59
 10965 2791 4E100000 		.4byte	.LASF264
 10966 2795 4E100000 		.4byte	.LASF264
 10967 2799 09       		.byte	0x9
 10968 279a B2       		.byte	0xb2
 10969 279b 5A       		.uleb128 0x5a
 10970 279c 82050000 		.4byte	.LASF269
 10971 27a0 FD030000 		.4byte	.LASF271
 10972 27a4 0B       		.byte	0xb
 10973 27a5 00       		.byte	0
 10974 27a6 82050000 		.4byte	.LASF269
 10975 27aa 59       		.uleb128 0x59
 10976 27ab D4010000 		.4byte	.LASF265
 10977 27af D4010000 		.4byte	.LASF265
 10978 27b3 09       		.byte	0x9
 10979 27b4 A6       		.byte	0xa6
 10980 27b5 59       		.uleb128 0x59
 10981 27b6 B80B0000 		.4byte	.LASF266
 10982 27ba B80B0000 		.4byte	.LASF266
 10983 27be 09       		.byte	0x9
 10984 27bf C1       		.byte	0xc1
 10985 27c0 59       		.uleb128 0x59
 10986 27c1 58010000 		.4byte	.LASF267
 10987 27c5 58010000 		.4byte	.LASF267
 10988 27c9 09       		.byte	0x9
 10989 27ca A3       		.byte	0xa3
 10990 27cb 59       		.uleb128 0x59
 10991 27cc 7C070000 		.4byte	.LASF268
 10992 27d0 7C070000 		.4byte	.LASF268
 10993 27d4 0A       		.byte	0xa
 10994 27d5 29       		.byte	0x29
 10995 27d6 5A       		.uleb128 0x5a
 10996 27d7 CA070000 		.4byte	.LASF270
 10997 27db 960C0000 		.4byte	.LASF272
 10998 27df 0B       		.byte	0xb
 10999 27e0 00       		.byte	0
 11000 27e1 CA070000 		.4byte	.LASF270
 11001 27e5 5A       		.uleb128 0x5a
ARM GAS  C:\Users\mathi\AppData\Local\Temp\ccF8t5t9.s 			page 194


 11002 27e6 6E100000 		.4byte	.LASF273
 11003 27ea 91010000 		.4byte	.LASF274
 11004 27ee 0B       		.byte	0xb
 11005 27ef 00       		.byte	0
 11006 27f0 6E100000 		.4byte	.LASF273
 11007 27f4 00       		.byte	0
 11008              		.section	.debug_abbrev,"",%progbits
 11009              	.Ldebug_abbrev0:
 11010 0000 01       		.uleb128 0x1
 11011 0001 11       		.uleb128 0x11
 11012 0002 01       		.byte	0x1
 11013 0003 25       		.uleb128 0x25
 11014 0004 0E       		.uleb128 0xe
 11015 0005 13       		.uleb128 0x13
 11016 0006 0B       		.uleb128 0xb
 11017 0007 03       		.uleb128 0x3
 11018 0008 0E       		.uleb128 0xe
 11019 0009 1B       		.uleb128 0x1b
 11020 000a 0E       		.uleb128 0xe
 11021 000b 55       		.uleb128 0x55
 11022 000c 17       		.uleb128 0x17
 11023 000d 11       		.uleb128 0x11
 11024 000e 01       		.uleb128 0x1
 11025 000f 10       		.uleb128 0x10
 11026 0010 17       		.uleb128 0x17
 11027 0011 00       		.byte	0
 11028 0012 00       		.byte	0
 11029 0013 02       		.uleb128 0x2
 11030 0014 04       		.uleb128 0x4
 11031 0015 01       		.byte	0x1
 11032 0016 3E       		.uleb128 0x3e
 11033 0017 0B       		.uleb128 0xb
 11034 0018 0B       		.uleb128 0xb
 11035 0019 0B       		.uleb128 0xb
 11036 001a 49       		.uleb128 0x49
 11037 001b 13       		.uleb128 0x13
 11038 001c 3A       		.uleb128 0x3a
 11039 001d 0B       		.uleb128 0xb
 11040 001e 3B       		.uleb128 0x3b
 11041 001f 0B       		.uleb128 0xb
 11042 0020 01       		.uleb128 0x1
 11043 0021 13       		.uleb128 0x13
 11044 0022 00       		.byte	0
 11045 0023 00       		.byte	0
 11046 0024 03       		.uleb128 0x3
 11047 0025 28       		.uleb128 0x28
 11048 0026 00       		.byte	0
 11049 0027 03       		.uleb128 0x3
 11050 0028 0E       		.uleb128 0xe
 11051 0029 1C       		.uleb128 0x1c
 11052 002a 0B       		.uleb128 0xb
 11053 002b 00       		.byte	0
 11054 002c 00       		.byte	0
 11055 002d 04       		.uleb128 0x4
 11056 002e 24       		.uleb128 0x24
 11057 002f 00       		.byte	0
 11058 0030 0B       		.uleb128 0xb
ARM GAS  C:\Users\mathi\AppData\Local\Temp\ccF8t5t9.s 			page 195


 11059 0031 0B       		.uleb128 0xb
 11060 0032 3E       		.uleb128 0x3e
 11061 0033 0B       		.uleb128 0xb
 11062 0034 03       		.uleb128 0x3
 11063 0035 0E       		.uleb128 0xe
 11064 0036 00       		.byte	0
 11065 0037 00       		.byte	0
 11066 0038 05       		.uleb128 0x5
 11067 0039 28       		.uleb128 0x28
 11068 003a 00       		.byte	0
 11069 003b 03       		.uleb128 0x3
 11070 003c 0E       		.uleb128 0xe
 11071 003d 1C       		.uleb128 0x1c
 11072 003e 05       		.uleb128 0x5
 11073 003f 00       		.byte	0
 11074 0040 00       		.byte	0
 11075 0041 06       		.uleb128 0x6
 11076 0042 24       		.uleb128 0x24
 11077 0043 00       		.byte	0
 11078 0044 0B       		.uleb128 0xb
 11079 0045 0B       		.uleb128 0xb
 11080 0046 3E       		.uleb128 0x3e
 11081 0047 0B       		.uleb128 0xb
 11082 0048 03       		.uleb128 0x3
 11083 0049 08       		.uleb128 0x8
 11084 004a 00       		.byte	0
 11085 004b 00       		.byte	0
 11086 004c 07       		.uleb128 0x7
 11087 004d 16       		.uleb128 0x16
 11088 004e 00       		.byte	0
 11089 004f 03       		.uleb128 0x3
 11090 0050 0E       		.uleb128 0xe
 11091 0051 3A       		.uleb128 0x3a
 11092 0052 0B       		.uleb128 0xb
 11093 0053 3B       		.uleb128 0x3b
 11094 0054 0B       		.uleb128 0xb
 11095 0055 49       		.uleb128 0x49
 11096 0056 13       		.uleb128 0x13
 11097 0057 00       		.byte	0
 11098 0058 00       		.byte	0
 11099 0059 08       		.uleb128 0x8
 11100 005a 0F       		.uleb128 0xf
 11101 005b 00       		.byte	0
 11102 005c 0B       		.uleb128 0xb
 11103 005d 0B       		.uleb128 0xb
 11104 005e 49       		.uleb128 0x49
 11105 005f 13       		.uleb128 0x13
 11106 0060 00       		.byte	0
 11107 0061 00       		.byte	0
 11108 0062 09       		.uleb128 0x9
 11109 0063 13       		.uleb128 0x13
 11110 0064 00       		.byte	0
 11111 0065 03       		.uleb128 0x3
 11112 0066 0E       		.uleb128 0xe
 11113 0067 3C       		.uleb128 0x3c
 11114 0068 19       		.uleb128 0x19
 11115 0069 00       		.byte	0
ARM GAS  C:\Users\mathi\AppData\Local\Temp\ccF8t5t9.s 			page 196


 11116 006a 00       		.byte	0
 11117 006b 0A       		.uleb128 0xa
 11118 006c 16       		.uleb128 0x16
 11119 006d 00       		.byte	0
 11120 006e 03       		.uleb128 0x3
 11121 006f 0E       		.uleb128 0xe
 11122 0070 3A       		.uleb128 0x3a
 11123 0071 0B       		.uleb128 0xb
 11124 0072 3B       		.uleb128 0x3b
 11125 0073 05       		.uleb128 0x5
 11126 0074 49       		.uleb128 0x49
 11127 0075 13       		.uleb128 0x13
 11128 0076 00       		.byte	0
 11129 0077 00       		.byte	0
 11130 0078 0B       		.uleb128 0xb
 11131 0079 17       		.uleb128 0x17
 11132 007a 01       		.byte	0x1
 11133 007b 0B       		.uleb128 0xb
 11134 007c 0B       		.uleb128 0xb
 11135 007d 3A       		.uleb128 0x3a
 11136 007e 0B       		.uleb128 0xb
 11137 007f 3B       		.uleb128 0x3b
 11138 0080 0B       		.uleb128 0xb
 11139 0081 01       		.uleb128 0x1
 11140 0082 13       		.uleb128 0x13
 11141 0083 00       		.byte	0
 11142 0084 00       		.byte	0
 11143 0085 0C       		.uleb128 0xc
 11144 0086 0D       		.uleb128 0xd
 11145 0087 00       		.byte	0
 11146 0088 03       		.uleb128 0x3
 11147 0089 0E       		.uleb128 0xe
 11148 008a 3A       		.uleb128 0x3a
 11149 008b 0B       		.uleb128 0xb
 11150 008c 3B       		.uleb128 0x3b
 11151 008d 0B       		.uleb128 0xb
 11152 008e 49       		.uleb128 0x49
 11153 008f 13       		.uleb128 0x13
 11154 0090 00       		.byte	0
 11155 0091 00       		.byte	0
 11156 0092 0D       		.uleb128 0xd
 11157 0093 01       		.uleb128 0x1
 11158 0094 01       		.byte	0x1
 11159 0095 49       		.uleb128 0x49
 11160 0096 13       		.uleb128 0x13
 11161 0097 01       		.uleb128 0x1
 11162 0098 13       		.uleb128 0x13
 11163 0099 00       		.byte	0
 11164 009a 00       		.byte	0
 11165 009b 0E       		.uleb128 0xe
 11166 009c 21       		.uleb128 0x21
 11167 009d 00       		.byte	0
 11168 009e 49       		.uleb128 0x49
 11169 009f 13       		.uleb128 0x13
 11170 00a0 2F       		.uleb128 0x2f
 11171 00a1 0B       		.uleb128 0xb
 11172 00a2 00       		.byte	0
ARM GAS  C:\Users\mathi\AppData\Local\Temp\ccF8t5t9.s 			page 197


 11173 00a3 00       		.byte	0
 11174 00a4 0F       		.uleb128 0xf
 11175 00a5 13       		.uleb128 0x13
 11176 00a6 01       		.byte	0x1
 11177 00a7 0B       		.uleb128 0xb
 11178 00a8 0B       		.uleb128 0xb
 11179 00a9 3A       		.uleb128 0x3a
 11180 00aa 0B       		.uleb128 0xb
 11181 00ab 3B       		.uleb128 0x3b
 11182 00ac 0B       		.uleb128 0xb
 11183 00ad 01       		.uleb128 0x1
 11184 00ae 13       		.uleb128 0x13
 11185 00af 00       		.byte	0
 11186 00b0 00       		.byte	0
 11187 00b1 10       		.uleb128 0x10
 11188 00b2 0D       		.uleb128 0xd
 11189 00b3 00       		.byte	0
 11190 00b4 03       		.uleb128 0x3
 11191 00b5 0E       		.uleb128 0xe
 11192 00b6 3A       		.uleb128 0x3a
 11193 00b7 0B       		.uleb128 0xb
 11194 00b8 3B       		.uleb128 0x3b
 11195 00b9 0B       		.uleb128 0xb
 11196 00ba 49       		.uleb128 0x49
 11197 00bb 13       		.uleb128 0x13
 11198 00bc 38       		.uleb128 0x38
 11199 00bd 0B       		.uleb128 0xb
 11200 00be 00       		.byte	0
 11201 00bf 00       		.byte	0
 11202 00c0 11       		.uleb128 0x11
 11203 00c1 0F       		.uleb128 0xf
 11204 00c2 00       		.byte	0
 11205 00c3 0B       		.uleb128 0xb
 11206 00c4 0B       		.uleb128 0xb
 11207 00c5 00       		.byte	0
 11208 00c6 00       		.byte	0
 11209 00c7 12       		.uleb128 0x12
 11210 00c8 26       		.uleb128 0x26
 11211 00c9 00       		.byte	0
 11212 00ca 49       		.uleb128 0x49
 11213 00cb 13       		.uleb128 0x13
 11214 00cc 00       		.byte	0
 11215 00cd 00       		.byte	0
 11216 00ce 13       		.uleb128 0x13
 11217 00cf 13       		.uleb128 0x13
 11218 00d0 01       		.byte	0x1
 11219 00d1 03       		.uleb128 0x3
 11220 00d2 0E       		.uleb128 0xe
 11221 00d3 0B       		.uleb128 0xb
 11222 00d4 0B       		.uleb128 0xb
 11223 00d5 3A       		.uleb128 0x3a
 11224 00d6 0B       		.uleb128 0xb
 11225 00d7 3B       		.uleb128 0x3b
 11226 00d8 0B       		.uleb128 0xb
 11227 00d9 01       		.uleb128 0x1
 11228 00da 13       		.uleb128 0x13
 11229 00db 00       		.byte	0
ARM GAS  C:\Users\mathi\AppData\Local\Temp\ccF8t5t9.s 			page 198


 11230 00dc 00       		.byte	0
 11231 00dd 14       		.uleb128 0x14
 11232 00de 0D       		.uleb128 0xd
 11233 00df 00       		.byte	0
 11234 00e0 03       		.uleb128 0x3
 11235 00e1 08       		.uleb128 0x8
 11236 00e2 3A       		.uleb128 0x3a
 11237 00e3 0B       		.uleb128 0xb
 11238 00e4 3B       		.uleb128 0x3b
 11239 00e5 0B       		.uleb128 0xb
 11240 00e6 49       		.uleb128 0x49
 11241 00e7 13       		.uleb128 0x13
 11242 00e8 38       		.uleb128 0x38
 11243 00e9 0B       		.uleb128 0xb
 11244 00ea 00       		.byte	0
 11245 00eb 00       		.byte	0
 11246 00ec 15       		.uleb128 0x15
 11247 00ed 13       		.uleb128 0x13
 11248 00ee 01       		.byte	0x1
 11249 00ef 03       		.uleb128 0x3
 11250 00f0 0E       		.uleb128 0xe
 11251 00f1 0B       		.uleb128 0xb
 11252 00f2 05       		.uleb128 0x5
 11253 00f3 3A       		.uleb128 0x3a
 11254 00f4 0B       		.uleb128 0xb
 11255 00f5 3B       		.uleb128 0x3b
 11256 00f6 0B       		.uleb128 0xb
 11257 00f7 01       		.uleb128 0x1
 11258 00f8 13       		.uleb128 0x13
 11259 00f9 00       		.byte	0
 11260 00fa 00       		.byte	0
 11261 00fb 16       		.uleb128 0x16
 11262 00fc 0D       		.uleb128 0xd
 11263 00fd 00       		.byte	0
 11264 00fe 03       		.uleb128 0x3
 11265 00ff 0E       		.uleb128 0xe
 11266 0100 3A       		.uleb128 0x3a
 11267 0101 0B       		.uleb128 0xb
 11268 0102 3B       		.uleb128 0x3b
 11269 0103 0B       		.uleb128 0xb
 11270 0104 49       		.uleb128 0x49
 11271 0105 13       		.uleb128 0x13
 11272 0106 38       		.uleb128 0x38
 11273 0107 05       		.uleb128 0x5
 11274 0108 00       		.byte	0
 11275 0109 00       		.byte	0
 11276 010a 17       		.uleb128 0x17
 11277 010b 15       		.uleb128 0x15
 11278 010c 00       		.byte	0
 11279 010d 27       		.uleb128 0x27
 11280 010e 19       		.uleb128 0x19
 11281 010f 00       		.byte	0
 11282 0110 00       		.byte	0
 11283 0111 18       		.uleb128 0x18
 11284 0112 15       		.uleb128 0x15
 11285 0113 01       		.byte	0x1
 11286 0114 27       		.uleb128 0x27
ARM GAS  C:\Users\mathi\AppData\Local\Temp\ccF8t5t9.s 			page 199


 11287 0115 19       		.uleb128 0x19
 11288 0116 49       		.uleb128 0x49
 11289 0117 13       		.uleb128 0x13
 11290 0118 01       		.uleb128 0x1
 11291 0119 13       		.uleb128 0x13
 11292 011a 00       		.byte	0
 11293 011b 00       		.byte	0
 11294 011c 19       		.uleb128 0x19
 11295 011d 05       		.uleb128 0x5
 11296 011e 00       		.byte	0
 11297 011f 49       		.uleb128 0x49
 11298 0120 13       		.uleb128 0x13
 11299 0121 00       		.byte	0
 11300 0122 00       		.byte	0
 11301 0123 1A       		.uleb128 0x1a
 11302 0124 13       		.uleb128 0x13
 11303 0125 01       		.byte	0x1
 11304 0126 03       		.uleb128 0x3
 11305 0127 0E       		.uleb128 0xe
 11306 0128 0B       		.uleb128 0xb
 11307 0129 05       		.uleb128 0x5
 11308 012a 3A       		.uleb128 0x3a
 11309 012b 0B       		.uleb128 0xb
 11310 012c 3B       		.uleb128 0x3b
 11311 012d 05       		.uleb128 0x5
 11312 012e 01       		.uleb128 0x1
 11313 012f 13       		.uleb128 0x13
 11314 0130 00       		.byte	0
 11315 0131 00       		.byte	0
 11316 0132 1B       		.uleb128 0x1b
 11317 0133 0D       		.uleb128 0xd
 11318 0134 00       		.byte	0
 11319 0135 03       		.uleb128 0x3
 11320 0136 0E       		.uleb128 0xe
 11321 0137 3A       		.uleb128 0x3a
 11322 0138 0B       		.uleb128 0xb
 11323 0139 3B       		.uleb128 0x3b
 11324 013a 05       		.uleb128 0x5
 11325 013b 49       		.uleb128 0x49
 11326 013c 13       		.uleb128 0x13
 11327 013d 38       		.uleb128 0x38
 11328 013e 0B       		.uleb128 0xb
 11329 013f 00       		.byte	0
 11330 0140 00       		.byte	0
 11331 0141 1C       		.uleb128 0x1c
 11332 0142 0D       		.uleb128 0xd
 11333 0143 00       		.byte	0
 11334 0144 03       		.uleb128 0x3
 11335 0145 0E       		.uleb128 0xe
 11336 0146 3A       		.uleb128 0x3a
 11337 0147 0B       		.uleb128 0xb
 11338 0148 3B       		.uleb128 0x3b
 11339 0149 05       		.uleb128 0x5
 11340 014a 49       		.uleb128 0x49
 11341 014b 13       		.uleb128 0x13
 11342 014c 38       		.uleb128 0x38
 11343 014d 05       		.uleb128 0x5
ARM GAS  C:\Users\mathi\AppData\Local\Temp\ccF8t5t9.s 			page 200


 11344 014e 00       		.byte	0
 11345 014f 00       		.byte	0
 11346 0150 1D       		.uleb128 0x1d
 11347 0151 13       		.uleb128 0x13
 11348 0152 01       		.byte	0x1
 11349 0153 03       		.uleb128 0x3
 11350 0154 0E       		.uleb128 0xe
 11351 0155 0B       		.uleb128 0xb
 11352 0156 0B       		.uleb128 0xb
 11353 0157 3A       		.uleb128 0x3a
 11354 0158 0B       		.uleb128 0xb
 11355 0159 3B       		.uleb128 0x3b
 11356 015a 05       		.uleb128 0x5
 11357 015b 01       		.uleb128 0x1
 11358 015c 13       		.uleb128 0x13
 11359 015d 00       		.byte	0
 11360 015e 00       		.byte	0
 11361 015f 1E       		.uleb128 0x1e
 11362 0160 13       		.uleb128 0x13
 11363 0161 01       		.byte	0x1
 11364 0162 0B       		.uleb128 0xb
 11365 0163 0B       		.uleb128 0xb
 11366 0164 3A       		.uleb128 0x3a
 11367 0165 0B       		.uleb128 0xb
 11368 0166 3B       		.uleb128 0x3b
 11369 0167 05       		.uleb128 0x5
 11370 0168 01       		.uleb128 0x1
 11371 0169 13       		.uleb128 0x13
 11372 016a 00       		.byte	0
 11373 016b 00       		.byte	0
 11374 016c 1F       		.uleb128 0x1f
 11375 016d 17       		.uleb128 0x17
 11376 016e 01       		.byte	0x1
 11377 016f 0B       		.uleb128 0xb
 11378 0170 0B       		.uleb128 0xb
 11379 0171 3A       		.uleb128 0x3a
 11380 0172 0B       		.uleb128 0xb
 11381 0173 3B       		.uleb128 0x3b
 11382 0174 05       		.uleb128 0x5
 11383 0175 01       		.uleb128 0x1
 11384 0176 13       		.uleb128 0x13
 11385 0177 00       		.byte	0
 11386 0178 00       		.byte	0
 11387 0179 20       		.uleb128 0x20
 11388 017a 0D       		.uleb128 0xd
 11389 017b 00       		.byte	0
 11390 017c 03       		.uleb128 0x3
 11391 017d 0E       		.uleb128 0xe
 11392 017e 3A       		.uleb128 0x3a
 11393 017f 0B       		.uleb128 0xb
 11394 0180 3B       		.uleb128 0x3b
 11395 0181 05       		.uleb128 0x5
 11396 0182 49       		.uleb128 0x49
 11397 0183 13       		.uleb128 0x13
 11398 0184 00       		.byte	0
 11399 0185 00       		.byte	0
 11400 0186 21       		.uleb128 0x21
ARM GAS  C:\Users\mathi\AppData\Local\Temp\ccF8t5t9.s 			page 201


 11401 0187 15       		.uleb128 0x15
 11402 0188 01       		.byte	0x1
 11403 0189 27       		.uleb128 0x27
 11404 018a 19       		.uleb128 0x19
 11405 018b 01       		.uleb128 0x1
 11406 018c 13       		.uleb128 0x13
 11407 018d 00       		.byte	0
 11408 018e 00       		.byte	0
 11409 018f 22       		.uleb128 0x22
 11410 0190 34       		.uleb128 0x34
 11411 0191 00       		.byte	0
 11412 0192 03       		.uleb128 0x3
 11413 0193 0E       		.uleb128 0xe
 11414 0194 3A       		.uleb128 0x3a
 11415 0195 0B       		.uleb128 0xb
 11416 0196 3B       		.uleb128 0x3b
 11417 0197 05       		.uleb128 0x5
 11418 0198 49       		.uleb128 0x49
 11419 0199 13       		.uleb128 0x13
 11420 019a 3F       		.uleb128 0x3f
 11421 019b 19       		.uleb128 0x19
 11422 019c 3C       		.uleb128 0x3c
 11423 019d 19       		.uleb128 0x19
 11424 019e 00       		.byte	0
 11425 019f 00       		.byte	0
 11426 01a0 23       		.uleb128 0x23
 11427 01a1 34       		.uleb128 0x34
 11428 01a2 00       		.byte	0
 11429 01a3 03       		.uleb128 0x3
 11430 01a4 0E       		.uleb128 0xe
 11431 01a5 3A       		.uleb128 0x3a
 11432 01a6 0B       		.uleb128 0xb
 11433 01a7 3B       		.uleb128 0x3b
 11434 01a8 0B       		.uleb128 0xb
 11435 01a9 49       		.uleb128 0x49
 11436 01aa 13       		.uleb128 0x13
 11437 01ab 3F       		.uleb128 0x3f
 11438 01ac 19       		.uleb128 0x19
 11439 01ad 3C       		.uleb128 0x3c
 11440 01ae 19       		.uleb128 0x19
 11441 01af 00       		.byte	0
 11442 01b0 00       		.byte	0
 11443 01b1 24       		.uleb128 0x24
 11444 01b2 2E       		.uleb128 0x2e
 11445 01b3 01       		.byte	0x1
 11446 01b4 3F       		.uleb128 0x3f
 11447 01b5 19       		.uleb128 0x19
 11448 01b6 03       		.uleb128 0x3
 11449 01b7 0E       		.uleb128 0xe
 11450 01b8 3A       		.uleb128 0x3a
 11451 01b9 0B       		.uleb128 0xb
 11452 01ba 3B       		.uleb128 0x3b
 11453 01bb 05       		.uleb128 0x5
 11454 01bc 27       		.uleb128 0x27
 11455 01bd 19       		.uleb128 0x19
 11456 01be 49       		.uleb128 0x49
 11457 01bf 13       		.uleb128 0x13
ARM GAS  C:\Users\mathi\AppData\Local\Temp\ccF8t5t9.s 			page 202


 11458 01c0 11       		.uleb128 0x11
 11459 01c1 01       		.uleb128 0x1
 11460 01c2 12       		.uleb128 0x12
 11461 01c3 06       		.uleb128 0x6
 11462 01c4 40       		.uleb128 0x40
 11463 01c5 18       		.uleb128 0x18
 11464 01c6 9742     		.uleb128 0x2117
 11465 01c8 19       		.uleb128 0x19
 11466 01c9 01       		.uleb128 0x1
 11467 01ca 13       		.uleb128 0x13
 11468 01cb 00       		.byte	0
 11469 01cc 00       		.byte	0
 11470 01cd 25       		.uleb128 0x25
 11471 01ce 05       		.uleb128 0x5
 11472 01cf 00       		.byte	0
 11473 01d0 03       		.uleb128 0x3
 11474 01d1 08       		.uleb128 0x8
 11475 01d2 3A       		.uleb128 0x3a
 11476 01d3 0B       		.uleb128 0xb
 11477 01d4 3B       		.uleb128 0x3b
 11478 01d5 05       		.uleb128 0x5
 11479 01d6 49       		.uleb128 0x49
 11480 01d7 13       		.uleb128 0x13
 11481 01d8 02       		.uleb128 0x2
 11482 01d9 17       		.uleb128 0x17
 11483 01da 00       		.byte	0
 11484 01db 00       		.byte	0
 11485 01dc 26       		.uleb128 0x26
 11486 01dd 05       		.uleb128 0x5
 11487 01de 00       		.byte	0
 11488 01df 03       		.uleb128 0x3
 11489 01e0 0E       		.uleb128 0xe
 11490 01e1 3A       		.uleb128 0x3a
 11491 01e2 0B       		.uleb128 0xb
 11492 01e3 3B       		.uleb128 0x3b
 11493 01e4 05       		.uleb128 0x5
 11494 01e5 49       		.uleb128 0x49
 11495 01e6 13       		.uleb128 0x13
 11496 01e7 02       		.uleb128 0x2
 11497 01e8 17       		.uleb128 0x17
 11498 01e9 00       		.byte	0
 11499 01ea 00       		.byte	0
 11500 01eb 27       		.uleb128 0x27
 11501 01ec 34       		.uleb128 0x34
 11502 01ed 00       		.byte	0
 11503 01ee 03       		.uleb128 0x3
 11504 01ef 0E       		.uleb128 0xe
 11505 01f0 3A       		.uleb128 0x3a
 11506 01f1 0B       		.uleb128 0xb
 11507 01f2 3B       		.uleb128 0x3b
 11508 01f3 05       		.uleb128 0x5
 11509 01f4 49       		.uleb128 0x49
 11510 01f5 13       		.uleb128 0x13
 11511 01f6 02       		.uleb128 0x2
 11512 01f7 18       		.uleb128 0x18
 11513 01f8 00       		.byte	0
 11514 01f9 00       		.byte	0
ARM GAS  C:\Users\mathi\AppData\Local\Temp\ccF8t5t9.s 			page 203


 11515 01fa 28       		.uleb128 0x28
 11516 01fb 0B       		.uleb128 0xb
 11517 01fc 01       		.byte	0x1
 11518 01fd 11       		.uleb128 0x11
 11519 01fe 01       		.uleb128 0x1
 11520 01ff 12       		.uleb128 0x12
 11521 0200 06       		.uleb128 0x6
 11522 0201 01       		.uleb128 0x1
 11523 0202 13       		.uleb128 0x13
 11524 0203 00       		.byte	0
 11525 0204 00       		.byte	0
 11526 0205 29       		.uleb128 0x29
 11527 0206 34       		.uleb128 0x34
 11528 0207 00       		.byte	0
 11529 0208 03       		.uleb128 0x3
 11530 0209 0E       		.uleb128 0xe
 11531 020a 3A       		.uleb128 0x3a
 11532 020b 0B       		.uleb128 0xb
 11533 020c 3B       		.uleb128 0x3b
 11534 020d 05       		.uleb128 0x5
 11535 020e 49       		.uleb128 0x49
 11536 020f 13       		.uleb128 0x13
 11537 0210 02       		.uleb128 0x2
 11538 0211 17       		.uleb128 0x17
 11539 0212 00       		.byte	0
 11540 0213 00       		.byte	0
 11541 0214 2A       		.uleb128 0x2a
 11542 0215 1D       		.uleb128 0x1d
 11543 0216 01       		.byte	0x1
 11544 0217 31       		.uleb128 0x31
 11545 0218 13       		.uleb128 0x13
 11546 0219 52       		.uleb128 0x52
 11547 021a 01       		.uleb128 0x1
 11548 021b 55       		.uleb128 0x55
 11549 021c 17       		.uleb128 0x17
 11550 021d 58       		.uleb128 0x58
 11551 021e 0B       		.uleb128 0xb
 11552 021f 59       		.uleb128 0x59
 11553 0220 05       		.uleb128 0x5
 11554 0221 01       		.uleb128 0x1
 11555 0222 13       		.uleb128 0x13
 11556 0223 00       		.byte	0
 11557 0224 00       		.byte	0
 11558 0225 2B       		.uleb128 0x2b
 11559 0226 05       		.uleb128 0x5
 11560 0227 00       		.byte	0
 11561 0228 31       		.uleb128 0x31
 11562 0229 13       		.uleb128 0x13
 11563 022a 02       		.uleb128 0x2
 11564 022b 17       		.uleb128 0x17
 11565 022c 00       		.byte	0
 11566 022d 00       		.byte	0
 11567 022e 2C       		.uleb128 0x2c
 11568 022f 0B       		.uleb128 0xb
 11569 0230 01       		.byte	0x1
 11570 0231 55       		.uleb128 0x55
 11571 0232 17       		.uleb128 0x17
ARM GAS  C:\Users\mathi\AppData\Local\Temp\ccF8t5t9.s 			page 204


 11572 0233 00       		.byte	0
 11573 0234 00       		.byte	0
 11574 0235 2D       		.uleb128 0x2d
 11575 0236 34       		.uleb128 0x34
 11576 0237 00       		.byte	0
 11577 0238 31       		.uleb128 0x31
 11578 0239 13       		.uleb128 0x13
 11579 023a 00       		.byte	0
 11580 023b 00       		.byte	0
 11581 023c 2E       		.uleb128 0x2e
 11582 023d 898201   		.uleb128 0x4109
 11583 0240 00       		.byte	0
 11584 0241 11       		.uleb128 0x11
 11585 0242 01       		.uleb128 0x1
 11586 0243 31       		.uleb128 0x31
 11587 0244 13       		.uleb128 0x13
 11588 0245 00       		.byte	0
 11589 0246 00       		.byte	0
 11590 0247 2F       		.uleb128 0x2f
 11591 0248 2E       		.uleb128 0x2e
 11592 0249 01       		.byte	0x1
 11593 024a 3F       		.uleb128 0x3f
 11594 024b 19       		.uleb128 0x19
 11595 024c 03       		.uleb128 0x3
 11596 024d 0E       		.uleb128 0xe
 11597 024e 3A       		.uleb128 0x3a
 11598 024f 0B       		.uleb128 0xb
 11599 0250 3B       		.uleb128 0x3b
 11600 0251 05       		.uleb128 0x5
 11601 0252 27       		.uleb128 0x27
 11602 0253 19       		.uleb128 0x19
 11603 0254 11       		.uleb128 0x11
 11604 0255 01       		.uleb128 0x1
 11605 0256 12       		.uleb128 0x12
 11606 0257 06       		.uleb128 0x6
 11607 0258 40       		.uleb128 0x40
 11608 0259 18       		.uleb128 0x18
 11609 025a 9742     		.uleb128 0x2117
 11610 025c 19       		.uleb128 0x19
 11611 025d 01       		.uleb128 0x1
 11612 025e 13       		.uleb128 0x13
 11613 025f 00       		.byte	0
 11614 0260 00       		.byte	0
 11615 0261 30       		.uleb128 0x30
 11616 0262 898201   		.uleb128 0x4109
 11617 0265 01       		.byte	0x1
 11618 0266 11       		.uleb128 0x11
 11619 0267 01       		.uleb128 0x1
 11620 0268 31       		.uleb128 0x31
 11621 0269 13       		.uleb128 0x13
 11622 026a 00       		.byte	0
 11623 026b 00       		.byte	0
 11624 026c 31       		.uleb128 0x31
 11625 026d 8A8201   		.uleb128 0x410a
 11626 0270 00       		.byte	0
 11627 0271 02       		.uleb128 0x2
 11628 0272 18       		.uleb128 0x18
ARM GAS  C:\Users\mathi\AppData\Local\Temp\ccF8t5t9.s 			page 205


 11629 0273 9142     		.uleb128 0x2111
 11630 0275 18       		.uleb128 0x18
 11631 0276 00       		.byte	0
 11632 0277 00       		.byte	0
 11633 0278 32       		.uleb128 0x32
 11634 0279 34       		.uleb128 0x34
 11635 027a 00       		.byte	0
 11636 027b 03       		.uleb128 0x3
 11637 027c 08       		.uleb128 0x8
 11638 027d 3A       		.uleb128 0x3a
 11639 027e 0B       		.uleb128 0xb
 11640 027f 3B       		.uleb128 0x3b
 11641 0280 05       		.uleb128 0x5
 11642 0281 49       		.uleb128 0x49
 11643 0282 13       		.uleb128 0x13
 11644 0283 02       		.uleb128 0x2
 11645 0284 17       		.uleb128 0x17
 11646 0285 00       		.byte	0
 11647 0286 00       		.byte	0
 11648 0287 33       		.uleb128 0x33
 11649 0288 0B       		.uleb128 0xb
 11650 0289 01       		.byte	0x1
 11651 028a 55       		.uleb128 0x55
 11652 028b 17       		.uleb128 0x17
 11653 028c 01       		.uleb128 0x1
 11654 028d 13       		.uleb128 0x13
 11655 028e 00       		.byte	0
 11656 028f 00       		.byte	0
 11657 0290 34       		.uleb128 0x34
 11658 0291 1D       		.uleb128 0x1d
 11659 0292 01       		.byte	0x1
 11660 0293 31       		.uleb128 0x31
 11661 0294 13       		.uleb128 0x13
 11662 0295 11       		.uleb128 0x11
 11663 0296 01       		.uleb128 0x1
 11664 0297 12       		.uleb128 0x12
 11665 0298 06       		.uleb128 0x6
 11666 0299 58       		.uleb128 0x58
 11667 029a 0B       		.uleb128 0xb
 11668 029b 59       		.uleb128 0x59
 11669 029c 05       		.uleb128 0x5
 11670 029d 01       		.uleb128 0x1
 11671 029e 13       		.uleb128 0x13
 11672 029f 00       		.byte	0
 11673 02a0 00       		.byte	0
 11674 02a1 35       		.uleb128 0x35
 11675 02a2 0B       		.uleb128 0xb
 11676 02a3 01       		.byte	0x1
 11677 02a4 11       		.uleb128 0x11
 11678 02a5 01       		.uleb128 0x1
 11679 02a6 12       		.uleb128 0x12
 11680 02a7 06       		.uleb128 0x6
 11681 02a8 00       		.byte	0
 11682 02a9 00       		.byte	0
 11683 02aa 36       		.uleb128 0x36
 11684 02ab 34       		.uleb128 0x34
 11685 02ac 00       		.byte	0
ARM GAS  C:\Users\mathi\AppData\Local\Temp\ccF8t5t9.s 			page 206


 11686 02ad 31       		.uleb128 0x31
 11687 02ae 13       		.uleb128 0x13
 11688 02af 02       		.uleb128 0x2
 11689 02b0 17       		.uleb128 0x17
 11690 02b1 00       		.byte	0
 11691 02b2 00       		.byte	0
 11692 02b3 37       		.uleb128 0x37
 11693 02b4 0B       		.uleb128 0xb
 11694 02b5 01       		.byte	0x1
 11695 02b6 31       		.uleb128 0x31
 11696 02b7 13       		.uleb128 0x13
 11697 02b8 55       		.uleb128 0x55
 11698 02b9 17       		.uleb128 0x17
 11699 02ba 00       		.byte	0
 11700 02bb 00       		.byte	0
 11701 02bc 38       		.uleb128 0x38
 11702 02bd 1D       		.uleb128 0x1d
 11703 02be 01       		.byte	0x1
 11704 02bf 31       		.uleb128 0x31
 11705 02c0 13       		.uleb128 0x13
 11706 02c1 52       		.uleb128 0x52
 11707 02c2 01       		.uleb128 0x1
 11708 02c3 55       		.uleb128 0x55
 11709 02c4 17       		.uleb128 0x17
 11710 02c5 58       		.uleb128 0x58
 11711 02c6 0B       		.uleb128 0xb
 11712 02c7 59       		.uleb128 0x59
 11713 02c8 0B       		.uleb128 0xb
 11714 02c9 01       		.uleb128 0x1
 11715 02ca 13       		.uleb128 0x13
 11716 02cb 00       		.byte	0
 11717 02cc 00       		.byte	0
 11718 02cd 39       		.uleb128 0x39
 11719 02ce 1D       		.uleb128 0x1d
 11720 02cf 01       		.byte	0x1
 11721 02d0 31       		.uleb128 0x31
 11722 02d1 13       		.uleb128 0x13
 11723 02d2 11       		.uleb128 0x11
 11724 02d3 01       		.uleb128 0x1
 11725 02d4 12       		.uleb128 0x12
 11726 02d5 06       		.uleb128 0x6
 11727 02d6 58       		.uleb128 0x58
 11728 02d7 0B       		.uleb128 0xb
 11729 02d8 59       		.uleb128 0x59
 11730 02d9 0B       		.uleb128 0xb
 11731 02da 01       		.uleb128 0x1
 11732 02db 13       		.uleb128 0x13
 11733 02dc 00       		.byte	0
 11734 02dd 00       		.byte	0
 11735 02de 3A       		.uleb128 0x3a
 11736 02df 0B       		.uleb128 0xb
 11737 02e0 01       		.byte	0x1
 11738 02e1 31       		.uleb128 0x31
 11739 02e2 13       		.uleb128 0x13
 11740 02e3 11       		.uleb128 0x11
 11741 02e4 01       		.uleb128 0x1
 11742 02e5 12       		.uleb128 0x12
ARM GAS  C:\Users\mathi\AppData\Local\Temp\ccF8t5t9.s 			page 207


 11743 02e6 06       		.uleb128 0x6
 11744 02e7 00       		.byte	0
 11745 02e8 00       		.byte	0
 11746 02e9 3B       		.uleb128 0x3b
 11747 02ea 898201   		.uleb128 0x4109
 11748 02ed 01       		.byte	0x1
 11749 02ee 11       		.uleb128 0x11
 11750 02ef 01       		.uleb128 0x1
 11751 02f0 31       		.uleb128 0x31
 11752 02f1 13       		.uleb128 0x13
 11753 02f2 01       		.uleb128 0x1
 11754 02f3 13       		.uleb128 0x13
 11755 02f4 00       		.byte	0
 11756 02f5 00       		.byte	0
 11757 02f6 3C       		.uleb128 0x3c
 11758 02f7 2E       		.uleb128 0x2e
 11759 02f8 01       		.byte	0x1
 11760 02f9 03       		.uleb128 0x3
 11761 02fa 0E       		.uleb128 0xe
 11762 02fb 3A       		.uleb128 0x3a
 11763 02fc 0B       		.uleb128 0xb
 11764 02fd 3B       		.uleb128 0x3b
 11765 02fe 05       		.uleb128 0x5
 11766 02ff 27       		.uleb128 0x27
 11767 0300 19       		.uleb128 0x19
 11768 0301 20       		.uleb128 0x20
 11769 0302 0B       		.uleb128 0xb
 11770 0303 01       		.uleb128 0x1
 11771 0304 13       		.uleb128 0x13
 11772 0305 00       		.byte	0
 11773 0306 00       		.byte	0
 11774 0307 3D       		.uleb128 0x3d
 11775 0308 05       		.uleb128 0x5
 11776 0309 00       		.byte	0
 11777 030a 03       		.uleb128 0x3
 11778 030b 08       		.uleb128 0x8
 11779 030c 3A       		.uleb128 0x3a
 11780 030d 0B       		.uleb128 0xb
 11781 030e 3B       		.uleb128 0x3b
 11782 030f 05       		.uleb128 0x5
 11783 0310 49       		.uleb128 0x49
 11784 0311 13       		.uleb128 0x13
 11785 0312 00       		.byte	0
 11786 0313 00       		.byte	0
 11787 0314 3E       		.uleb128 0x3e
 11788 0315 34       		.uleb128 0x34
 11789 0316 00       		.byte	0
 11790 0317 03       		.uleb128 0x3
 11791 0318 08       		.uleb128 0x8
 11792 0319 3A       		.uleb128 0x3a
 11793 031a 0B       		.uleb128 0xb
 11794 031b 3B       		.uleb128 0x3b
 11795 031c 05       		.uleb128 0x5
 11796 031d 49       		.uleb128 0x49
 11797 031e 13       		.uleb128 0x13
 11798 031f 00       		.byte	0
 11799 0320 00       		.byte	0
ARM GAS  C:\Users\mathi\AppData\Local\Temp\ccF8t5t9.s 			page 208


 11800 0321 3F       		.uleb128 0x3f
 11801 0322 0B       		.uleb128 0xb
 11802 0323 01       		.byte	0x1
 11803 0324 00       		.byte	0
 11804 0325 00       		.byte	0
 11805 0326 40       		.uleb128 0x40
 11806 0327 34       		.uleb128 0x34
 11807 0328 00       		.byte	0
 11808 0329 03       		.uleb128 0x3
 11809 032a 0E       		.uleb128 0xe
 11810 032b 3A       		.uleb128 0x3a
 11811 032c 0B       		.uleb128 0xb
 11812 032d 3B       		.uleb128 0x3b
 11813 032e 05       		.uleb128 0x5
 11814 032f 49       		.uleb128 0x49
 11815 0330 13       		.uleb128 0x13
 11816 0331 00       		.byte	0
 11817 0332 00       		.byte	0
 11818 0333 41       		.uleb128 0x41
 11819 0334 2E       		.uleb128 0x2e
 11820 0335 01       		.byte	0x1
 11821 0336 3F       		.uleb128 0x3f
 11822 0337 19       		.uleb128 0x19
 11823 0338 03       		.uleb128 0x3
 11824 0339 0E       		.uleb128 0xe
 11825 033a 3A       		.uleb128 0x3a
 11826 033b 0B       		.uleb128 0xb
 11827 033c 3B       		.uleb128 0x3b
 11828 033d 05       		.uleb128 0x5
 11829 033e 27       		.uleb128 0x27
 11830 033f 19       		.uleb128 0x19
 11831 0340 20       		.uleb128 0x20
 11832 0341 0B       		.uleb128 0xb
 11833 0342 01       		.uleb128 0x1
 11834 0343 13       		.uleb128 0x13
 11835 0344 00       		.byte	0
 11836 0345 00       		.byte	0
 11837 0346 42       		.uleb128 0x42
 11838 0347 2E       		.uleb128 0x2e
 11839 0348 01       		.byte	0x1
 11840 0349 3F       		.uleb128 0x3f
 11841 034a 19       		.uleb128 0x19
 11842 034b 03       		.uleb128 0x3
 11843 034c 0E       		.uleb128 0xe
 11844 034d 3A       		.uleb128 0x3a
 11845 034e 0B       		.uleb128 0xb
 11846 034f 3B       		.uleb128 0x3b
 11847 0350 05       		.uleb128 0x5
 11848 0351 27       		.uleb128 0x27
 11849 0352 19       		.uleb128 0x19
 11850 0353 49       		.uleb128 0x49
 11851 0354 13       		.uleb128 0x13
 11852 0355 20       		.uleb128 0x20
 11853 0356 0B       		.uleb128 0xb
 11854 0357 01       		.uleb128 0x1
 11855 0358 13       		.uleb128 0x13
 11856 0359 00       		.byte	0
ARM GAS  C:\Users\mathi\AppData\Local\Temp\ccF8t5t9.s 			page 209


 11857 035a 00       		.byte	0
 11858 035b 43       		.uleb128 0x43
 11859 035c 05       		.uleb128 0x5
 11860 035d 00       		.byte	0
 11861 035e 31       		.uleb128 0x31
 11862 035f 13       		.uleb128 0x13
 11863 0360 00       		.byte	0
 11864 0361 00       		.byte	0
 11865 0362 44       		.uleb128 0x44
 11866 0363 0B       		.uleb128 0xb
 11867 0364 01       		.byte	0x1
 11868 0365 31       		.uleb128 0x31
 11869 0366 13       		.uleb128 0x13
 11870 0367 55       		.uleb128 0x55
 11871 0368 17       		.uleb128 0x17
 11872 0369 01       		.uleb128 0x1
 11873 036a 13       		.uleb128 0x13
 11874 036b 00       		.byte	0
 11875 036c 00       		.byte	0
 11876 036d 45       		.uleb128 0x45
 11877 036e 0B       		.uleb128 0xb
 11878 036f 01       		.byte	0x1
 11879 0370 31       		.uleb128 0x31
 11880 0371 13       		.uleb128 0x13
 11881 0372 11       		.uleb128 0x11
 11882 0373 01       		.uleb128 0x1
 11883 0374 12       		.uleb128 0x12
 11884 0375 06       		.uleb128 0x6
 11885 0376 01       		.uleb128 0x1
 11886 0377 13       		.uleb128 0x13
 11887 0378 00       		.byte	0
 11888 0379 00       		.byte	0
 11889 037a 46       		.uleb128 0x46
 11890 037b 1D       		.uleb128 0x1d
 11891 037c 01       		.byte	0x1
 11892 037d 31       		.uleb128 0x31
 11893 037e 13       		.uleb128 0x13
 11894 037f 52       		.uleb128 0x52
 11895 0380 01       		.uleb128 0x1
 11896 0381 55       		.uleb128 0x55
 11897 0382 17       		.uleb128 0x17
 11898 0383 58       		.uleb128 0x58
 11899 0384 0B       		.uleb128 0xb
 11900 0385 59       		.uleb128 0x59
 11901 0386 05       		.uleb128 0x5
 11902 0387 00       		.byte	0
 11903 0388 00       		.byte	0
 11904 0389 47       		.uleb128 0x47
 11905 038a 34       		.uleb128 0x34
 11906 038b 00       		.byte	0
 11907 038c 31       		.uleb128 0x31
 11908 038d 13       		.uleb128 0x13
 11909 038e 02       		.uleb128 0x2
 11910 038f 18       		.uleb128 0x18
 11911 0390 00       		.byte	0
 11912 0391 00       		.byte	0
 11913 0392 48       		.uleb128 0x48
ARM GAS  C:\Users\mathi\AppData\Local\Temp\ccF8t5t9.s 			page 210


 11914 0393 05       		.uleb128 0x5
 11915 0394 00       		.byte	0
 11916 0395 03       		.uleb128 0x3
 11917 0396 0E       		.uleb128 0xe
 11918 0397 3A       		.uleb128 0x3a
 11919 0398 0B       		.uleb128 0xb
 11920 0399 3B       		.uleb128 0x3b
 11921 039a 05       		.uleb128 0x5
 11922 039b 49       		.uleb128 0x49
 11923 039c 13       		.uleb128 0x13
 11924 039d 00       		.byte	0
 11925 039e 00       		.byte	0
 11926 039f 49       		.uleb128 0x49
 11927 03a0 21       		.uleb128 0x21
 11928 03a1 00       		.byte	0
 11929 03a2 49       		.uleb128 0x49
 11930 03a3 13       		.uleb128 0x13
 11931 03a4 2F       		.uleb128 0x2f
 11932 03a5 18       		.uleb128 0x18
 11933 03a6 00       		.byte	0
 11934 03a7 00       		.byte	0
 11935 03a8 4A       		.uleb128 0x4a
 11936 03a9 2E       		.uleb128 0x2e
 11937 03aa 01       		.byte	0x1
 11938 03ab 3F       		.uleb128 0x3f
 11939 03ac 19       		.uleb128 0x19
 11940 03ad 03       		.uleb128 0x3
 11941 03ae 0E       		.uleb128 0xe
 11942 03af 3A       		.uleb128 0x3a
 11943 03b0 0B       		.uleb128 0xb
 11944 03b1 3B       		.uleb128 0x3b
 11945 03b2 0B       		.uleb128 0xb
 11946 03b3 27       		.uleb128 0x27
 11947 03b4 19       		.uleb128 0x19
 11948 03b5 20       		.uleb128 0x20
 11949 03b6 0B       		.uleb128 0xb
 11950 03b7 01       		.uleb128 0x1
 11951 03b8 13       		.uleb128 0x13
 11952 03b9 00       		.byte	0
 11953 03ba 00       		.byte	0
 11954 03bb 4B       		.uleb128 0x4b
 11955 03bc 05       		.uleb128 0x5
 11956 03bd 00       		.byte	0
 11957 03be 03       		.uleb128 0x3
 11958 03bf 08       		.uleb128 0x8
 11959 03c0 3A       		.uleb128 0x3a
 11960 03c1 0B       		.uleb128 0xb
 11961 03c2 3B       		.uleb128 0x3b
 11962 03c3 0B       		.uleb128 0xb
 11963 03c4 49       		.uleb128 0x49
 11964 03c5 13       		.uleb128 0x13
 11965 03c6 00       		.byte	0
 11966 03c7 00       		.byte	0
 11967 03c8 4C       		.uleb128 0x4c
 11968 03c9 34       		.uleb128 0x34
 11969 03ca 00       		.byte	0
 11970 03cb 03       		.uleb128 0x3
ARM GAS  C:\Users\mathi\AppData\Local\Temp\ccF8t5t9.s 			page 211


 11971 03cc 0E       		.uleb128 0xe
 11972 03cd 3A       		.uleb128 0x3a
 11973 03ce 0B       		.uleb128 0xb
 11974 03cf 3B       		.uleb128 0x3b
 11975 03d0 0B       		.uleb128 0xb
 11976 03d1 49       		.uleb128 0x49
 11977 03d2 13       		.uleb128 0x13
 11978 03d3 00       		.byte	0
 11979 03d4 00       		.byte	0
 11980 03d5 4D       		.uleb128 0x4d
 11981 03d6 0B       		.uleb128 0xb
 11982 03d7 01       		.byte	0x1
 11983 03d8 01       		.uleb128 0x1
 11984 03d9 13       		.uleb128 0x13
 11985 03da 00       		.byte	0
 11986 03db 00       		.byte	0
 11987 03dc 4E       		.uleb128 0x4e
 11988 03dd 2E       		.uleb128 0x2e
 11989 03de 01       		.byte	0x1
 11990 03df 03       		.uleb128 0x3
 11991 03e0 0E       		.uleb128 0xe
 11992 03e1 3A       		.uleb128 0x3a
 11993 03e2 0B       		.uleb128 0xb
 11994 03e3 3B       		.uleb128 0x3b
 11995 03e4 0B       		.uleb128 0xb
 11996 03e5 27       		.uleb128 0x27
 11997 03e6 19       		.uleb128 0x19
 11998 03e7 49       		.uleb128 0x49
 11999 03e8 13       		.uleb128 0x13
 12000 03e9 20       		.uleb128 0x20
 12001 03ea 0B       		.uleb128 0xb
 12002 03eb 01       		.uleb128 0x1
 12003 03ec 13       		.uleb128 0x13
 12004 03ed 00       		.byte	0
 12005 03ee 00       		.byte	0
 12006 03ef 4F       		.uleb128 0x4f
 12007 03f0 05       		.uleb128 0x5
 12008 03f1 00       		.byte	0
 12009 03f2 03       		.uleb128 0x3
 12010 03f3 0E       		.uleb128 0xe
 12011 03f4 3A       		.uleb128 0x3a
 12012 03f5 0B       		.uleb128 0xb
 12013 03f6 3B       		.uleb128 0x3b
 12014 03f7 0B       		.uleb128 0xb
 12015 03f8 49       		.uleb128 0x49
 12016 03f9 13       		.uleb128 0x13
 12017 03fa 00       		.byte	0
 12018 03fb 00       		.byte	0
 12019 03fc 50       		.uleb128 0x50
 12020 03fd 2E       		.uleb128 0x2e
 12021 03fe 01       		.byte	0x1
 12022 03ff 03       		.uleb128 0x3
 12023 0400 0E       		.uleb128 0xe
 12024 0401 3A       		.uleb128 0x3a
 12025 0402 0B       		.uleb128 0xb
 12026 0403 3B       		.uleb128 0x3b
 12027 0404 0B       		.uleb128 0xb
ARM GAS  C:\Users\mathi\AppData\Local\Temp\ccF8t5t9.s 			page 212


 12028 0405 27       		.uleb128 0x27
 12029 0406 19       		.uleb128 0x19
 12030 0407 49       		.uleb128 0x49
 12031 0408 13       		.uleb128 0x13
 12032 0409 11       		.uleb128 0x11
 12033 040a 01       		.uleb128 0x1
 12034 040b 12       		.uleb128 0x12
 12035 040c 06       		.uleb128 0x6
 12036 040d 40       		.uleb128 0x40
 12037 040e 18       		.uleb128 0x18
 12038 040f 9742     		.uleb128 0x2117
 12039 0411 19       		.uleb128 0x19
 12040 0412 01       		.uleb128 0x1
 12041 0413 13       		.uleb128 0x13
 12042 0414 00       		.byte	0
 12043 0415 00       		.byte	0
 12044 0416 51       		.uleb128 0x51
 12045 0417 05       		.uleb128 0x5
 12046 0418 00       		.byte	0
 12047 0419 03       		.uleb128 0x3
 12048 041a 08       		.uleb128 0x8
 12049 041b 3A       		.uleb128 0x3a
 12050 041c 0B       		.uleb128 0xb
 12051 041d 3B       		.uleb128 0x3b
 12052 041e 0B       		.uleb128 0xb
 12053 041f 49       		.uleb128 0x49
 12054 0420 13       		.uleb128 0x13
 12055 0421 02       		.uleb128 0x2
 12056 0422 17       		.uleb128 0x17
 12057 0423 00       		.byte	0
 12058 0424 00       		.byte	0
 12059 0425 52       		.uleb128 0x52
 12060 0426 05       		.uleb128 0x5
 12061 0427 00       		.byte	0
 12062 0428 03       		.uleb128 0x3
 12063 0429 0E       		.uleb128 0xe
 12064 042a 3A       		.uleb128 0x3a
 12065 042b 0B       		.uleb128 0xb
 12066 042c 3B       		.uleb128 0x3b
 12067 042d 0B       		.uleb128 0xb
 12068 042e 49       		.uleb128 0x49
 12069 042f 13       		.uleb128 0x13
 12070 0430 02       		.uleb128 0x2
 12071 0431 17       		.uleb128 0x17
 12072 0432 00       		.byte	0
 12073 0433 00       		.byte	0
 12074 0434 53       		.uleb128 0x53
 12075 0435 2E       		.uleb128 0x2e
 12076 0436 01       		.byte	0x1
 12077 0437 3F       		.uleb128 0x3f
 12078 0438 19       		.uleb128 0x19
 12079 0439 03       		.uleb128 0x3
 12080 043a 0E       		.uleb128 0xe
 12081 043b 3A       		.uleb128 0x3a
 12082 043c 0B       		.uleb128 0xb
 12083 043d 3B       		.uleb128 0x3b
 12084 043e 0B       		.uleb128 0xb
ARM GAS  C:\Users\mathi\AppData\Local\Temp\ccF8t5t9.s 			page 213


 12085 043f 27       		.uleb128 0x27
 12086 0440 19       		.uleb128 0x19
 12087 0441 49       		.uleb128 0x49
 12088 0442 13       		.uleb128 0x13
 12089 0443 20       		.uleb128 0x20
 12090 0444 0B       		.uleb128 0xb
 12091 0445 01       		.uleb128 0x1
 12092 0446 13       		.uleb128 0x13
 12093 0447 00       		.byte	0
 12094 0448 00       		.byte	0
 12095 0449 54       		.uleb128 0x54
 12096 044a 34       		.uleb128 0x34
 12097 044b 00       		.byte	0
 12098 044c 03       		.uleb128 0x3
 12099 044d 08       		.uleb128 0x8
 12100 044e 3A       		.uleb128 0x3a
 12101 044f 0B       		.uleb128 0xb
 12102 0450 3B       		.uleb128 0x3b
 12103 0451 0B       		.uleb128 0xb
 12104 0452 49       		.uleb128 0x49
 12105 0453 13       		.uleb128 0x13
 12106 0454 00       		.byte	0
 12107 0455 00       		.byte	0
 12108 0456 55       		.uleb128 0x55
 12109 0457 2E       		.uleb128 0x2e
 12110 0458 01       		.byte	0x1
 12111 0459 3F       		.uleb128 0x3f
 12112 045a 19       		.uleb128 0x19
 12113 045b 03       		.uleb128 0x3
 12114 045c 0E       		.uleb128 0xe
 12115 045d 3A       		.uleb128 0x3a
 12116 045e 0B       		.uleb128 0xb
 12117 045f 3B       		.uleb128 0x3b
 12118 0460 0B       		.uleb128 0xb
 12119 0461 27       		.uleb128 0x27
 12120 0462 19       		.uleb128 0x19
 12121 0463 11       		.uleb128 0x11
 12122 0464 01       		.uleb128 0x1
 12123 0465 12       		.uleb128 0x12
 12124 0466 06       		.uleb128 0x6
 12125 0467 40       		.uleb128 0x40
 12126 0468 18       		.uleb128 0x18
 12127 0469 9742     		.uleb128 0x2117
 12128 046b 19       		.uleb128 0x19
 12129 046c 01       		.uleb128 0x1
 12130 046d 13       		.uleb128 0x13
 12131 046e 00       		.byte	0
 12132 046f 00       		.byte	0
 12133 0470 56       		.uleb128 0x56
 12134 0471 898201   		.uleb128 0x4109
 12135 0474 01       		.byte	0x1
 12136 0475 11       		.uleb128 0x11
 12137 0476 01       		.uleb128 0x1
 12138 0477 9542     		.uleb128 0x2115
 12139 0479 19       		.uleb128 0x19
 12140 047a 31       		.uleb128 0x31
 12141 047b 13       		.uleb128 0x13
ARM GAS  C:\Users\mathi\AppData\Local\Temp\ccF8t5t9.s 			page 214


 12142 047c 01       		.uleb128 0x1
 12143 047d 13       		.uleb128 0x13
 12144 047e 00       		.byte	0
 12145 047f 00       		.byte	0
 12146 0480 57       		.uleb128 0x57
 12147 0481 2E       		.uleb128 0x2e
 12148 0482 01       		.byte	0x1
 12149 0483 31       		.uleb128 0x31
 12150 0484 13       		.uleb128 0x13
 12151 0485 11       		.uleb128 0x11
 12152 0486 01       		.uleb128 0x1
 12153 0487 12       		.uleb128 0x12
 12154 0488 06       		.uleb128 0x6
 12155 0489 40       		.uleb128 0x40
 12156 048a 18       		.uleb128 0x18
 12157 048b 9742     		.uleb128 0x2117
 12158 048d 19       		.uleb128 0x19
 12159 048e 01       		.uleb128 0x1
 12160 048f 13       		.uleb128 0x13
 12161 0490 00       		.byte	0
 12162 0491 00       		.byte	0
 12163 0492 58       		.uleb128 0x58
 12164 0493 2E       		.uleb128 0x2e
 12165 0494 00       		.byte	0
 12166 0495 3F       		.uleb128 0x3f
 12167 0496 19       		.uleb128 0x19
 12168 0497 3C       		.uleb128 0x3c
 12169 0498 19       		.uleb128 0x19
 12170 0499 6E       		.uleb128 0x6e
 12171 049a 0E       		.uleb128 0xe
 12172 049b 03       		.uleb128 0x3
 12173 049c 0E       		.uleb128 0xe
 12174 049d 00       		.byte	0
 12175 049e 00       		.byte	0
 12176 049f 59       		.uleb128 0x59
 12177 04a0 2E       		.uleb128 0x2e
 12178 04a1 00       		.byte	0
 12179 04a2 3F       		.uleb128 0x3f
 12180 04a3 19       		.uleb128 0x19
 12181 04a4 3C       		.uleb128 0x3c
 12182 04a5 19       		.uleb128 0x19
 12183 04a6 6E       		.uleb128 0x6e
 12184 04a7 0E       		.uleb128 0xe
 12185 04a8 03       		.uleb128 0x3
 12186 04a9 0E       		.uleb128 0xe
 12187 04aa 3A       		.uleb128 0x3a
 12188 04ab 0B       		.uleb128 0xb
 12189 04ac 3B       		.uleb128 0x3b
 12190 04ad 0B       		.uleb128 0xb
 12191 04ae 00       		.byte	0
 12192 04af 00       		.byte	0
 12193 04b0 5A       		.uleb128 0x5a
 12194 04b1 2E       		.uleb128 0x2e
 12195 04b2 00       		.byte	0
 12196 04b3 3F       		.uleb128 0x3f
 12197 04b4 19       		.uleb128 0x19
 12198 04b5 3C       		.uleb128 0x3c
ARM GAS  C:\Users\mathi\AppData\Local\Temp\ccF8t5t9.s 			page 215


 12199 04b6 19       		.uleb128 0x19
 12200 04b7 6E       		.uleb128 0x6e
 12201 04b8 0E       		.uleb128 0xe
 12202 04b9 03       		.uleb128 0x3
 12203 04ba 0E       		.uleb128 0xe
 12204 04bb 3A       		.uleb128 0x3a
 12205 04bc 0B       		.uleb128 0xb
 12206 04bd 3B       		.uleb128 0x3b
 12207 04be 0B       		.uleb128 0xb
 12208 04bf 6E       		.uleb128 0x6e
 12209 04c0 0E       		.uleb128 0xe
 12210 04c1 00       		.byte	0
 12211 04c2 00       		.byte	0
 12212 04c3 00       		.byte	0
 12213              		.section	.debug_loc,"",%progbits
 12214              	.Ldebug_loc0:
 12215              	.LLST111:
 12216 0000 00000000 		.4byte	.LVL767
 12217 0004 12000000 		.4byte	.LVL770
 12218 0008 0100     		.2byte	0x1
 12219 000a 50       		.byte	0x50
 12220 000b 12000000 		.4byte	.LVL770
 12221 000f 44000000 		.4byte	.LVL775
 12222 0013 0400     		.2byte	0x4
 12223 0015 F3       		.byte	0xf3
 12224 0016 01       		.uleb128 0x1
 12225 0017 50       		.byte	0x50
 12226 0018 9F       		.byte	0x9f
 12227 0019 44000000 		.4byte	.LVL775
 12228 001d 56000000 		.4byte	.LVL777
 12229 0021 0100     		.2byte	0x1
 12230 0023 50       		.byte	0x50
 12231 0024 56000000 		.4byte	.LVL777
 12232 0028 6E000000 		.4byte	.LVL780
 12233 002c 0400     		.2byte	0x4
 12234 002e F3       		.byte	0xf3
 12235 002f 01       		.uleb128 0x1
 12236 0030 50       		.byte	0x50
 12237 0031 9F       		.byte	0x9f
 12238 0032 6E000000 		.4byte	.LVL780
 12239 0036 70000000 		.4byte	.LVL781
 12240 003a 0100     		.2byte	0x1
 12241 003c 50       		.byte	0x50
 12242 003d 70000000 		.4byte	.LVL781
 12243 0041 80000000 		.4byte	.LFE17
 12244 0045 0400     		.2byte	0x4
 12245 0047 F3       		.byte	0xf3
 12246 0048 01       		.uleb128 0x1
 12247 0049 50       		.byte	0x50
 12248 004a 9F       		.byte	0x9f
 12249 004b 00000000 		.4byte	0
 12250 004f 00000000 		.4byte	0
 12251              	.LLST112:
 12252 0053 00000000 		.4byte	.LVL767
 12253 0057 22000000 		.4byte	.LVL772
 12254 005b 0100     		.2byte	0x1
 12255 005d 51       		.byte	0x51
ARM GAS  C:\Users\mathi\AppData\Local\Temp\ccF8t5t9.s 			page 216


 12256 005e 22000000 		.4byte	.LVL772
 12257 0062 44000000 		.4byte	.LVL775
 12258 0066 0400     		.2byte	0x4
 12259 0068 F3       		.byte	0xf3
 12260 0069 01       		.uleb128 0x1
 12261 006a 51       		.byte	0x51
 12262 006b 9F       		.byte	0x9f
 12263 006c 44000000 		.4byte	.LVL775
 12264 0070 60000000 		.4byte	.LVL778
 12265 0074 0100     		.2byte	0x1
 12266 0076 51       		.byte	0x51
 12267 0077 60000000 		.4byte	.LVL778
 12268 007b 6E000000 		.4byte	.LVL780
 12269 007f 0400     		.2byte	0x4
 12270 0081 F3       		.byte	0xf3
 12271 0082 01       		.uleb128 0x1
 12272 0083 51       		.byte	0x51
 12273 0084 9F       		.byte	0x9f
 12274 0085 6E000000 		.4byte	.LVL780
 12275 0089 76000000 		.4byte	.LVL783
 12276 008d 0100     		.2byte	0x1
 12277 008f 51       		.byte	0x51
 12278 0090 76000000 		.4byte	.LVL783
 12279 0094 80000000 		.4byte	.LFE17
 12280 0098 0400     		.2byte	0x4
 12281 009a F3       		.byte	0xf3
 12282 009b 01       		.uleb128 0x1
 12283 009c 51       		.byte	0x51
 12284 009d 9F       		.byte	0x9f
 12285 009e 00000000 		.4byte	0
 12286 00a2 00000000 		.4byte	0
 12287              	.LLST113:
 12288 00a6 00000000 		.4byte	.LVL767
 12289 00aa 22000000 		.4byte	.LVL772
 12290 00ae 0100     		.2byte	0x1
 12291 00b0 52       		.byte	0x52
 12292 00b1 22000000 		.4byte	.LVL772
 12293 00b5 44000000 		.4byte	.LVL775
 12294 00b9 0400     		.2byte	0x4
 12295 00bb F3       		.byte	0xf3
 12296 00bc 01       		.uleb128 0x1
 12297 00bd 52       		.byte	0x52
 12298 00be 9F       		.byte	0x9f
 12299 00bf 44000000 		.4byte	.LVL775
 12300 00c3 60000000 		.4byte	.LVL778
 12301 00c7 0100     		.2byte	0x1
 12302 00c9 52       		.byte	0x52
 12303 00ca 60000000 		.4byte	.LVL778
 12304 00ce 6E000000 		.4byte	.LVL780
 12305 00d2 0400     		.2byte	0x4
 12306 00d4 F3       		.byte	0xf3
 12307 00d5 01       		.uleb128 0x1
 12308 00d6 52       		.byte	0x52
 12309 00d7 9F       		.byte	0x9f
 12310 00d8 6E000000 		.4byte	.LVL780
 12311 00dc 76000000 		.4byte	.LVL783
 12312 00e0 0100     		.2byte	0x1
ARM GAS  C:\Users\mathi\AppData\Local\Temp\ccF8t5t9.s 			page 217


 12313 00e2 52       		.byte	0x52
 12314 00e3 76000000 		.4byte	.LVL783
 12315 00e7 80000000 		.4byte	.LFE17
 12316 00eb 0400     		.2byte	0x4
 12317 00ed F3       		.byte	0xf3
 12318 00ee 01       		.uleb128 0x1
 12319 00ef 52       		.byte	0x52
 12320 00f0 9F       		.byte	0x9f
 12321 00f1 00000000 		.4byte	0
 12322 00f5 00000000 		.4byte	0
 12323              	.LLST116:
 12324 00f9 4A000000 		.4byte	.LVL776
 12325 00fd 60000000 		.4byte	.LVL778
 12326 0101 0200     		.2byte	0x2
 12327 0103 72       		.byte	0x72
 12328 0104 02       		.sleb128 2
 12329 0105 6E000000 		.4byte	.LVL780
 12330 0109 72000000 		.4byte	.LVL782
 12331 010d 0200     		.2byte	0x2
 12332 010f 72       		.byte	0x72
 12333 0110 02       		.sleb128 2
 12334 0111 00000000 		.4byte	0
 12335 0115 00000000 		.4byte	0
 12336              	.LLST114:
 12337 0119 10000000 		.4byte	.LVL769
 12338 011d 36000000 		.4byte	.LVL774
 12339 0121 0100     		.2byte	0x1
 12340 0123 54       		.byte	0x54
 12341 0124 60000000 		.4byte	.LVL778
 12342 0128 6E000000 		.4byte	.LVL780
 12343 012c 0100     		.2byte	0x1
 12344 012e 54       		.byte	0x54
 12345 012f 72000000 		.4byte	.LVL782
 12346 0133 76000000 		.4byte	.LVL783
 12347 0137 0100     		.2byte	0x1
 12348 0139 54       		.byte	0x54
 12349 013a 00000000 		.4byte	0
 12350 013e 00000000 		.4byte	0
 12351              	.LLST115:
 12352 0142 10000000 		.4byte	.LVL769
 12353 0146 12000000 		.4byte	.LVL770
 12354 014a 0100     		.2byte	0x1
 12355 014c 50       		.byte	0x50
 12356 014d 12000000 		.4byte	.LVL770
 12357 0151 36000000 		.4byte	.LVL774
 12358 0155 0400     		.2byte	0x4
 12359 0157 F3       		.byte	0xf3
 12360 0158 01       		.uleb128 0x1
 12361 0159 50       		.byte	0x50
 12362 015a 9F       		.byte	0x9f
 12363 015b 60000000 		.4byte	.LVL778
 12364 015f 6E000000 		.4byte	.LVL780
 12365 0163 0400     		.2byte	0x4
 12366 0165 F3       		.byte	0xf3
 12367 0166 01       		.uleb128 0x1
 12368 0167 50       		.byte	0x50
 12369 0168 9F       		.byte	0x9f
ARM GAS  C:\Users\mathi\AppData\Local\Temp\ccF8t5t9.s 			page 218


 12370 0169 72000000 		.4byte	.LVL782
 12371 016d 76000000 		.4byte	.LVL783
 12372 0171 0400     		.2byte	0x4
 12373 0173 F3       		.byte	0xf3
 12374 0174 01       		.uleb128 0x1
 12375 0175 50       		.byte	0x50
 12376 0176 9F       		.byte	0x9f
 12377 0177 00000000 		.4byte	0
 12378 017b 00000000 		.4byte	0
 12379              	.LLST80:
 12380 017f 00000000 		.4byte	.LVL641
 12381 0183 20000000 		.4byte	.LVL643
 12382 0187 0100     		.2byte	0x1
 12383 0189 50       		.byte	0x50
 12384 018a 20000000 		.4byte	.LVL643
 12385 018e 26000000 		.4byte	.LVL644
 12386 0192 0100     		.2byte	0x1
 12387 0194 56       		.byte	0x56
 12388 0195 26000000 		.4byte	.LVL644
 12389 0199 34000000 		.4byte	.LVL645
 12390 019d 0400     		.2byte	0x4
 12391 019f F3       		.byte	0xf3
 12392 01a0 01       		.uleb128 0x1
 12393 01a1 50       		.byte	0x50
 12394 01a2 9F       		.byte	0x9f
 12395 01a3 34000000 		.4byte	.LVL645
 12396 01a7 3D000000 		.4byte	.LVL648-1
 12397 01ab 0100     		.2byte	0x1
 12398 01ad 50       		.byte	0x50
 12399 01ae 3D000000 		.4byte	.LVL648-1
 12400 01b2 40000000 		.4byte	.LVL649
 12401 01b6 0400     		.2byte	0x4
 12402 01b8 F3       		.byte	0xf3
 12403 01b9 01       		.uleb128 0x1
 12404 01ba 50       		.byte	0x50
 12405 01bb 9F       		.byte	0x9f
 12406 01bc 40000000 		.4byte	.LVL649
 12407 01c0 70000000 		.4byte	.LVL652
 12408 01c4 0100     		.2byte	0x1
 12409 01c6 56       		.byte	0x56
 12410 01c7 70000000 		.4byte	.LVL652
 12411 01cb 81000000 		.4byte	.LVL655-1
 12412 01cf 0100     		.2byte	0x1
 12413 01d1 50       		.byte	0x50
 12414 01d2 81000000 		.4byte	.LVL655-1
 12415 01d6 84000000 		.4byte	.LVL656
 12416 01da 0400     		.2byte	0x4
 12417 01dc F3       		.byte	0xf3
 12418 01dd 01       		.uleb128 0x1
 12419 01de 50       		.byte	0x50
 12420 01df 9F       		.byte	0x9f
 12421 01e0 84000000 		.4byte	.LVL656
 12422 01e4 9A030000 		.4byte	.LVL752
 12423 01e8 0100     		.2byte	0x1
 12424 01ea 56       		.byte	0x56
 12425 01eb 9A030000 		.4byte	.LVL752
 12426 01ef 9E030000 		.4byte	.LVL753
ARM GAS  C:\Users\mathi\AppData\Local\Temp\ccF8t5t9.s 			page 219


 12427 01f3 0400     		.2byte	0x4
 12428 01f5 F3       		.byte	0xf3
 12429 01f6 01       		.uleb128 0x1
 12430 01f7 50       		.byte	0x50
 12431 01f8 9F       		.byte	0x9f
 12432 01f9 9E030000 		.4byte	.LVL753
 12433 01fd D6030000 		.4byte	.LFE16
 12434 0201 0100     		.2byte	0x1
 12435 0203 56       		.byte	0x56
 12436 0204 00000000 		.4byte	0
 12437 0208 00000000 		.4byte	0
 12438              	.LLST81:
 12439 020c 00000000 		.4byte	.LVL641
 12440 0210 26000000 		.4byte	.LVL644
 12441 0214 0100     		.2byte	0x1
 12442 0216 51       		.byte	0x51
 12443 0217 26000000 		.4byte	.LVL644
 12444 021b 34000000 		.4byte	.LVL645
 12445 021f 0400     		.2byte	0x4
 12446 0221 F3       		.byte	0xf3
 12447 0222 01       		.uleb128 0x1
 12448 0223 51       		.byte	0x51
 12449 0224 9F       		.byte	0x9f
 12450 0225 34000000 		.4byte	.LVL645
 12451 0229 3A000000 		.4byte	.LVL647
 12452 022d 0100     		.2byte	0x1
 12453 022f 51       		.byte	0x51
 12454 0230 3A000000 		.4byte	.LVL647
 12455 0234 40000000 		.4byte	.LVL649
 12456 0238 0400     		.2byte	0x4
 12457 023a F3       		.byte	0xf3
 12458 023b 01       		.uleb128 0x1
 12459 023c 51       		.byte	0x51
 12460 023d 9F       		.byte	0x9f
 12461 023e 40000000 		.4byte	.LVL649
 12462 0242 44000000 		.4byte	.LVL650
 12463 0246 0100     		.2byte	0x1
 12464 0248 51       		.byte	0x51
 12465 0249 44000000 		.4byte	.LVL650
 12466 024d 70000000 		.4byte	.LVL652
 12467 0251 0400     		.2byte	0x4
 12468 0253 F3       		.byte	0xf3
 12469 0254 01       		.uleb128 0x1
 12470 0255 51       		.byte	0x51
 12471 0256 9F       		.byte	0x9f
 12472 0257 70000000 		.4byte	.LVL652
 12473 025b 7C000000 		.4byte	.LVL654
 12474 025f 0100     		.2byte	0x1
 12475 0261 51       		.byte	0x51
 12476 0262 7C000000 		.4byte	.LVL654
 12477 0266 D6030000 		.4byte	.LFE16
 12478 026a 0400     		.2byte	0x4
 12479 026c F3       		.byte	0xf3
 12480 026d 01       		.uleb128 0x1
 12481 026e 51       		.byte	0x51
 12482 026f 9F       		.byte	0x9f
 12483 0270 00000000 		.4byte	0
ARM GAS  C:\Users\mathi\AppData\Local\Temp\ccF8t5t9.s 			page 220


 12484 0274 00000000 		.4byte	0
 12485              	.LLST82:
 12486 0278 00000000 		.4byte	.LVL641
 12487 027c 16000000 		.4byte	.LVL642
 12488 0280 0100     		.2byte	0x1
 12489 0282 52       		.byte	0x52
 12490 0283 16000000 		.4byte	.LVL642
 12491 0287 26000000 		.4byte	.LVL644
 12492 028b 0100     		.2byte	0x1
 12493 028d 55       		.byte	0x55
 12494 028e 34000000 		.4byte	.LVL645
 12495 0292 3D000000 		.4byte	.LVL648-1
 12496 0296 0100     		.2byte	0x1
 12497 0298 52       		.byte	0x52
 12498 0299 40000000 		.4byte	.LVL649
 12499 029d 48000000 		.4byte	.LVL651
 12500 02a1 0100     		.2byte	0x1
 12501 02a3 55       		.byte	0x55
 12502 02a4 48000000 		.4byte	.LVL651
 12503 02a8 70000000 		.4byte	.LVL652
 12504 02ac 0100     		.2byte	0x1
 12505 02ae 52       		.byte	0x52
 12506 02af 70000000 		.4byte	.LVL652
 12507 02b3 84000000 		.4byte	.LVL656
 12508 02b7 0100     		.2byte	0x1
 12509 02b9 55       		.byte	0x55
 12510 02ba 84000000 		.4byte	.LVL656
 12511 02be 8F000000 		.4byte	.LVL658-1
 12512 02c2 0100     		.2byte	0x1
 12513 02c4 52       		.byte	0x52
 12514 02c5 8F000000 		.4byte	.LVL658-1
 12515 02c9 90000000 		.4byte	.LVL658
 12516 02cd 0300     		.2byte	0x3
 12517 02cf 75       		.byte	0x75
 12518 02d0 02       		.sleb128 2
 12519 02d1 9F       		.byte	0x9f
 12520 02d2 90000000 		.4byte	.LVL658
 12521 02d6 AC000000 		.4byte	.LVL661
 12522 02da 0600     		.2byte	0x6
 12523 02dc F3       		.byte	0xf3
 12524 02dd 01       		.uleb128 0x1
 12525 02de 52       		.byte	0x52
 12526 02df 23       		.byte	0x23
 12527 02e0 02       		.uleb128 0x2
 12528 02e1 9F       		.byte	0x9f
 12529 02e2 AC000000 		.4byte	.LVL661
 12530 02e6 C2000000 		.4byte	.LVL666
 12531 02ea 0100     		.2byte	0x1
 12532 02ec 52       		.byte	0x52
 12533 02ed C2000000 		.4byte	.LVL666
 12534 02f1 2A010000 		.4byte	.LVL678
 12535 02f5 0600     		.2byte	0x6
 12536 02f7 F3       		.byte	0xf3
 12537 02f8 01       		.uleb128 0x1
 12538 02f9 52       		.byte	0x52
 12539 02fa 23       		.byte	0x23
 12540 02fb 02       		.uleb128 0x2
ARM GAS  C:\Users\mathi\AppData\Local\Temp\ccF8t5t9.s 			page 221


 12541 02fc 9F       		.byte	0x9f
 12542 02fd 2A010000 		.4byte	.LVL678
 12543 0301 2F010000 		.4byte	.LVL679-1
 12544 0305 0100     		.2byte	0x1
 12545 0307 52       		.byte	0x52
 12546 0308 2F010000 		.4byte	.LVL679-1
 12547 030c 32010000 		.4byte	.LVL680
 12548 0310 0300     		.2byte	0x3
 12549 0312 75       		.byte	0x75
 12550 0313 02       		.sleb128 2
 12551 0314 9F       		.byte	0x9f
 12552 0315 32010000 		.4byte	.LVL680
 12553 0319 37010000 		.4byte	.LVL681-1
 12554 031d 0100     		.2byte	0x1
 12555 031f 52       		.byte	0x52
 12556 0320 37010000 		.4byte	.LVL681-1
 12557 0324 3A010000 		.4byte	.LVL682
 12558 0328 0300     		.2byte	0x3
 12559 032a 75       		.byte	0x75
 12560 032b 02       		.sleb128 2
 12561 032c 9F       		.byte	0x9f
 12562 032d 3A010000 		.4byte	.LVL682
 12563 0331 4A010000 		.4byte	.LVL685
 12564 0335 0100     		.2byte	0x1
 12565 0337 52       		.byte	0x52
 12566 0338 4A010000 		.4byte	.LVL685
 12567 033c 58010000 		.4byte	.LVL687
 12568 0340 0600     		.2byte	0x6
 12569 0342 F3       		.byte	0xf3
 12570 0343 01       		.uleb128 0x1
 12571 0344 52       		.byte	0x52
 12572 0345 23       		.byte	0x23
 12573 0346 02       		.uleb128 0x2
 12574 0347 9F       		.byte	0x9f
 12575 0348 58010000 		.4byte	.LVL687
 12576 034c 7C010000 		.4byte	.LVL693
 12577 0350 0100     		.2byte	0x1
 12578 0352 52       		.byte	0x52
 12579 0353 7C010000 		.4byte	.LVL693
 12580 0357 9A010000 		.4byte	.LVL696
 12581 035b 0600     		.2byte	0x6
 12582 035d F3       		.byte	0xf3
 12583 035e 01       		.uleb128 0x1
 12584 035f 52       		.byte	0x52
 12585 0360 23       		.byte	0x23
 12586 0361 02       		.uleb128 0x2
 12587 0362 9F       		.byte	0x9f
 12588 0363 9A010000 		.4byte	.LVL696
 12589 0367 A2010000 		.4byte	.LVL698
 12590 036b 0100     		.2byte	0x1
 12591 036d 52       		.byte	0x52
 12592 036e A2010000 		.4byte	.LVL698
 12593 0372 AA010000 		.4byte	.LVL700
 12594 0376 0300     		.2byte	0x3
 12595 0378 75       		.byte	0x75
 12596 0379 02       		.sleb128 2
 12597 037a 9F       		.byte	0x9f
ARM GAS  C:\Users\mathi\AppData\Local\Temp\ccF8t5t9.s 			page 222


 12598 037b AA010000 		.4byte	.LVL700
 12599 037f B4010000 		.4byte	.LVL704
 12600 0383 0100     		.2byte	0x1
 12601 0385 52       		.byte	0x52
 12602 0386 B4010000 		.4byte	.LVL704
 12603 038a C0020000 		.4byte	.LVL725
 12604 038e 0300     		.2byte	0x3
 12605 0390 75       		.byte	0x75
 12606 0391 02       		.sleb128 2
 12607 0392 9F       		.byte	0x9f
 12608 0393 C0020000 		.4byte	.LVL725
 12609 0397 C4020000 		.4byte	.LVL727
 12610 039b 0100     		.2byte	0x1
 12611 039d 52       		.byte	0x52
 12612 039e C4020000 		.4byte	.LVL727
 12613 03a2 D6020000 		.4byte	.LVL729
 12614 03a6 0300     		.2byte	0x3
 12615 03a8 75       		.byte	0x75
 12616 03a9 02       		.sleb128 2
 12617 03aa 9F       		.byte	0x9f
 12618 03ab D6020000 		.4byte	.LVL729
 12619 03af EC020000 		.4byte	.LVL732
 12620 03b3 0600     		.2byte	0x6
 12621 03b5 F3       		.byte	0xf3
 12622 03b6 01       		.uleb128 0x1
 12623 03b7 52       		.byte	0x52
 12624 03b8 23       		.byte	0x23
 12625 03b9 02       		.uleb128 0x2
 12626 03ba 9F       		.byte	0x9f
 12627 03bb EC020000 		.4byte	.LVL732
 12628 03bf F1020000 		.4byte	.LVL733-1
 12629 03c3 0100     		.2byte	0x1
 12630 03c5 52       		.byte	0x52
 12631 03c6 F1020000 		.4byte	.LVL733-1
 12632 03ca 00030000 		.4byte	.LVL734
 12633 03ce 0300     		.2byte	0x3
 12634 03d0 75       		.byte	0x75
 12635 03d1 02       		.sleb128 2
 12636 03d2 9F       		.byte	0x9f
 12637 03d3 00030000 		.4byte	.LVL734
 12638 03d7 16030000 		.4byte	.LVL737
 12639 03db 0100     		.2byte	0x1
 12640 03dd 52       		.byte	0x52
 12641 03de 16030000 		.4byte	.LVL737
 12642 03e2 82030000 		.4byte	.LVL748
 12643 03e6 0600     		.2byte	0x6
 12644 03e8 F3       		.byte	0xf3
 12645 03e9 01       		.uleb128 0x1
 12646 03ea 52       		.byte	0x52
 12647 03eb 23       		.byte	0x23
 12648 03ec 02       		.uleb128 0x2
 12649 03ed 9F       		.byte	0x9f
 12650 03ee 82030000 		.4byte	.LVL748
 12651 03f2 84030000 		.4byte	.LVL749
 12652 03f6 0300     		.2byte	0x3
 12653 03f8 75       		.byte	0x75
 12654 03f9 02       		.sleb128 2
ARM GAS  C:\Users\mathi\AppData\Local\Temp\ccF8t5t9.s 			page 223


 12655 03fa 9F       		.byte	0x9f
 12656 03fb 84030000 		.4byte	.LVL749
 12657 03ff 9A030000 		.4byte	.LVL752
 12658 0403 0600     		.2byte	0x6
 12659 0405 F3       		.byte	0xf3
 12660 0406 01       		.uleb128 0x1
 12661 0407 52       		.byte	0x52
 12662 0408 23       		.byte	0x23
 12663 0409 02       		.uleb128 0x2
 12664 040a 9F       		.byte	0x9f
 12665 040b 9E030000 		.4byte	.LVL753
 12666 040f D6030000 		.4byte	.LFE16
 12667 0413 0300     		.2byte	0x3
 12668 0415 75       		.byte	0x75
 12669 0416 02       		.sleb128 2
 12670 0417 9F       		.byte	0x9f
 12671 0418 00000000 		.4byte	0
 12672 041c 00000000 		.4byte	0
 12673              	.LLST83:
 12674 0420 00000000 		.4byte	.LVL641
 12675 0424 26000000 		.4byte	.LVL644
 12676 0428 0100     		.2byte	0x1
 12677 042a 53       		.byte	0x53
 12678 042b 34000000 		.4byte	.LVL645
 12679 042f 36000000 		.4byte	.LVL646
 12680 0433 0100     		.2byte	0x1
 12681 0435 53       		.byte	0x53
 12682 0436 36000000 		.4byte	.LVL646
 12683 043a 3A000000 		.4byte	.LVL647
 12684 043e 0400     		.2byte	0x4
 12685 0440 F3       		.byte	0xf3
 12686 0441 01       		.uleb128 0x1
 12687 0442 53       		.byte	0x53
 12688 0443 9F       		.byte	0x9f
 12689 0444 40000000 		.4byte	.LVL649
 12690 0448 48000000 		.4byte	.LVL651
 12691 044c 0100     		.2byte	0x1
 12692 044e 53       		.byte	0x53
 12693 044f 48000000 		.4byte	.LVL651
 12694 0453 70000000 		.4byte	.LVL652
 12695 0457 0300     		.2byte	0x3
 12696 0459 73       		.byte	0x73
 12697 045a 7F       		.sleb128 -1
 12698 045b 9F       		.byte	0x9f
 12699 045c 70000000 		.4byte	.LVL652
 12700 0460 74000000 		.4byte	.LVL653
 12701 0464 0100     		.2byte	0x1
 12702 0466 53       		.byte	0x53
 12703 0467 74000000 		.4byte	.LVL653
 12704 046b 84000000 		.4byte	.LVL656
 12705 046f 0400     		.2byte	0x4
 12706 0471 F3       		.byte	0xf3
 12707 0472 01       		.uleb128 0x1
 12708 0473 53       		.byte	0x53
 12709 0474 9F       		.byte	0x9f
 12710 0475 84000000 		.4byte	.LVL656
 12711 0479 86000000 		.4byte	.LVL657
ARM GAS  C:\Users\mathi\AppData\Local\Temp\ccF8t5t9.s 			page 224


 12712 047d 0300     		.2byte	0x3
 12713 047f 73       		.byte	0x73
 12714 0480 7F       		.sleb128 -1
 12715 0481 9F       		.byte	0x9f
 12716 0482 86000000 		.4byte	.LVL657
 12717 0486 AC000000 		.4byte	.LVL661
 12718 048a 0600     		.2byte	0x6
 12719 048c F3       		.byte	0xf3
 12720 048d 01       		.uleb128 0x1
 12721 048e 53       		.byte	0x53
 12722 048f 31       		.byte	0x31
 12723 0490 1C       		.byte	0x1c
 12724 0491 9F       		.byte	0x9f
 12725 0492 AC000000 		.4byte	.LVL661
 12726 0496 B4000000 		.4byte	.LVL663
 12727 049a 0300     		.2byte	0x3
 12728 049c 73       		.byte	0x73
 12729 049d 7F       		.sleb128 -1
 12730 049e 9F       		.byte	0x9f
 12731 049f B4000000 		.4byte	.LVL663
 12732 04a3 2A010000 		.4byte	.LVL678
 12733 04a7 0600     		.2byte	0x6
 12734 04a9 F3       		.byte	0xf3
 12735 04aa 01       		.uleb128 0x1
 12736 04ab 53       		.byte	0x53
 12737 04ac 31       		.byte	0x31
 12738 04ad 1C       		.byte	0x1c
 12739 04ae 9F       		.byte	0x9f
 12740 04af 2A010000 		.4byte	.LVL678
 12741 04b3 2F010000 		.4byte	.LVL679-1
 12742 04b7 0300     		.2byte	0x3
 12743 04b9 73       		.byte	0x73
 12744 04ba 7F       		.sleb128 -1
 12745 04bb 9F       		.byte	0x9f
 12746 04bc 2F010000 		.4byte	.LVL679-1
 12747 04c0 32010000 		.4byte	.LVL680
 12748 04c4 0600     		.2byte	0x6
 12749 04c6 F3       		.byte	0xf3
 12750 04c7 01       		.uleb128 0x1
 12751 04c8 53       		.byte	0x53
 12752 04c9 31       		.byte	0x31
 12753 04ca 1C       		.byte	0x1c
 12754 04cb 9F       		.byte	0x9f
 12755 04cc 32010000 		.4byte	.LVL680
 12756 04d0 37010000 		.4byte	.LVL681-1
 12757 04d4 0300     		.2byte	0x3
 12758 04d6 73       		.byte	0x73
 12759 04d7 7F       		.sleb128 -1
 12760 04d8 9F       		.byte	0x9f
 12761 04d9 37010000 		.4byte	.LVL681-1
 12762 04dd 3A010000 		.4byte	.LVL682
 12763 04e1 0600     		.2byte	0x6
 12764 04e3 F3       		.byte	0xf3
 12765 04e4 01       		.uleb128 0x1
 12766 04e5 53       		.byte	0x53
 12767 04e6 31       		.byte	0x31
 12768 04e7 1C       		.byte	0x1c
ARM GAS  C:\Users\mathi\AppData\Local\Temp\ccF8t5t9.s 			page 225


 12769 04e8 9F       		.byte	0x9f
 12770 04e9 3A010000 		.4byte	.LVL682
 12771 04ed 3C010000 		.4byte	.LVL683
 12772 04f1 0300     		.2byte	0x3
 12773 04f3 73       		.byte	0x73
 12774 04f4 7F       		.sleb128 -1
 12775 04f5 9F       		.byte	0x9f
 12776 04f6 3C010000 		.4byte	.LVL683
 12777 04fa 58010000 		.4byte	.LVL687
 12778 04fe 0600     		.2byte	0x6
 12779 0500 F3       		.byte	0xf3
 12780 0501 01       		.uleb128 0x1
 12781 0502 53       		.byte	0x53
 12782 0503 31       		.byte	0x31
 12783 0504 1C       		.byte	0x1c
 12784 0505 9F       		.byte	0x9f
 12785 0506 58010000 		.4byte	.LVL687
 12786 050a 5C010000 		.4byte	.LVL688
 12787 050e 0300     		.2byte	0x3
 12788 0510 73       		.byte	0x73
 12789 0511 7F       		.sleb128 -1
 12790 0512 9F       		.byte	0x9f
 12791 0513 5C010000 		.4byte	.LVL688
 12792 0517 68010000 		.4byte	.LVL690
 12793 051b 0600     		.2byte	0x6
 12794 051d F3       		.byte	0xf3
 12795 051e 01       		.uleb128 0x1
 12796 051f 53       		.byte	0x53
 12797 0520 31       		.byte	0x31
 12798 0521 1C       		.byte	0x1c
 12799 0522 9F       		.byte	0x9f
 12800 0523 68010000 		.4byte	.LVL690
 12801 0527 6C010000 		.4byte	.LVL691
 12802 052b 0300     		.2byte	0x3
 12803 052d 73       		.byte	0x73
 12804 052e 7F       		.sleb128 -1
 12805 052f 9F       		.byte	0x9f
 12806 0530 6C010000 		.4byte	.LVL691
 12807 0534 9A010000 		.4byte	.LVL696
 12808 0538 0600     		.2byte	0x6
 12809 053a F3       		.byte	0xf3
 12810 053b 01       		.uleb128 0x1
 12811 053c 53       		.byte	0x53
 12812 053d 31       		.byte	0x31
 12813 053e 1C       		.byte	0x1c
 12814 053f 9F       		.byte	0x9f
 12815 0540 9A010000 		.4byte	.LVL696
 12816 0544 A7010000 		.4byte	.LVL699-1
 12817 0548 0300     		.2byte	0x3
 12818 054a 73       		.byte	0x73
 12819 054b 7F       		.sleb128 -1
 12820 054c 9F       		.byte	0x9f
 12821 054d A7010000 		.4byte	.LVL699-1
 12822 0551 AA010000 		.4byte	.LVL700
 12823 0555 0600     		.2byte	0x6
 12824 0557 F3       		.byte	0xf3
 12825 0558 01       		.uleb128 0x1
ARM GAS  C:\Users\mathi\AppData\Local\Temp\ccF8t5t9.s 			page 226


 12826 0559 53       		.byte	0x53
 12827 055a 31       		.byte	0x31
 12828 055b 1C       		.byte	0x1c
 12829 055c 9F       		.byte	0x9f
 12830 055d AA010000 		.4byte	.LVL700
 12831 0561 AC010000 		.4byte	.LVL701
 12832 0565 0300     		.2byte	0x3
 12833 0567 73       		.byte	0x73
 12834 0568 7F       		.sleb128 -1
 12835 0569 9F       		.byte	0x9f
 12836 056a AC010000 		.4byte	.LVL701
 12837 056e B0010000 		.4byte	.LVL702
 12838 0572 0600     		.2byte	0x6
 12839 0574 F3       		.byte	0xf3
 12840 0575 01       		.uleb128 0x1
 12841 0576 53       		.byte	0x53
 12842 0577 31       		.byte	0x31
 12843 0578 1C       		.byte	0x1c
 12844 0579 9F       		.byte	0x9f
 12845 057a B0010000 		.4byte	.LVL702
 12846 057e B2010000 		.4byte	.LVL703
 12847 0582 0300     		.2byte	0x3
 12848 0584 73       		.byte	0x73
 12849 0585 7F       		.sleb128 -1
 12850 0586 9F       		.byte	0x9f
 12851 0587 B2010000 		.4byte	.LVL703
 12852 058b C0020000 		.4byte	.LVL725
 12853 058f 0600     		.2byte	0x6
 12854 0591 F3       		.byte	0xf3
 12855 0592 01       		.uleb128 0x1
 12856 0593 53       		.byte	0x53
 12857 0594 31       		.byte	0x31
 12858 0595 1C       		.byte	0x1c
 12859 0596 9F       		.byte	0x9f
 12860 0597 C0020000 		.4byte	.LVL725
 12861 059b C2020000 		.4byte	.LVL726
 12862 059f 0300     		.2byte	0x3
 12863 05a1 73       		.byte	0x73
 12864 05a2 7F       		.sleb128 -1
 12865 05a3 9F       		.byte	0x9f
 12866 05a4 C2020000 		.4byte	.LVL726
 12867 05a8 EC020000 		.4byte	.LVL732
 12868 05ac 0600     		.2byte	0x6
 12869 05ae F3       		.byte	0xf3
 12870 05af 01       		.uleb128 0x1
 12871 05b0 53       		.byte	0x53
 12872 05b1 31       		.byte	0x31
 12873 05b2 1C       		.byte	0x1c
 12874 05b3 9F       		.byte	0x9f
 12875 05b4 EC020000 		.4byte	.LVL732
 12876 05b8 F1020000 		.4byte	.LVL733-1
 12877 05bc 0300     		.2byte	0x3
 12878 05be 73       		.byte	0x73
 12879 05bf 7F       		.sleb128 -1
 12880 05c0 9F       		.byte	0x9f
 12881 05c1 F1020000 		.4byte	.LVL733-1
 12882 05c5 00030000 		.4byte	.LVL734
ARM GAS  C:\Users\mathi\AppData\Local\Temp\ccF8t5t9.s 			page 227


 12883 05c9 0600     		.2byte	0x6
 12884 05cb F3       		.byte	0xf3
 12885 05cc 01       		.uleb128 0x1
 12886 05cd 53       		.byte	0x53
 12887 05ce 31       		.byte	0x31
 12888 05cf 1C       		.byte	0x1c
 12889 05d0 9F       		.byte	0x9f
 12890 05d1 00030000 		.4byte	.LVL734
 12891 05d5 0A030000 		.4byte	.LVL736
 12892 05d9 0300     		.2byte	0x3
 12893 05db 73       		.byte	0x73
 12894 05dc 7F       		.sleb128 -1
 12895 05dd 9F       		.byte	0x9f
 12896 05de 0A030000 		.4byte	.LVL736
 12897 05e2 9A030000 		.4byte	.LVL752
 12898 05e6 0600     		.2byte	0x6
 12899 05e8 F3       		.byte	0xf3
 12900 05e9 01       		.uleb128 0x1
 12901 05ea 53       		.byte	0x53
 12902 05eb 31       		.byte	0x31
 12903 05ec 1C       		.byte	0x1c
 12904 05ed 9F       		.byte	0x9f
 12905 05ee 9E030000 		.4byte	.LVL753
 12906 05f2 D6030000 		.4byte	.LFE16
 12907 05f6 0600     		.2byte	0x6
 12908 05f8 F3       		.byte	0xf3
 12909 05f9 01       		.uleb128 0x1
 12910 05fa 53       		.byte	0x53
 12911 05fb 31       		.byte	0x31
 12912 05fc 1C       		.byte	0x1c
 12913 05fd 9F       		.byte	0x9f
 12914 05fe 00000000 		.4byte	0
 12915 0602 00000000 		.4byte	0
 12916              	.LLST84:
 12917 0606 34000000 		.4byte	.LVL645
 12918 060a 3A000000 		.4byte	.LVL647
 12919 060e 0200     		.2byte	0x2
 12920 0610 72       		.byte	0x72
 12921 0611 00       		.sleb128 0
 12922 0612 00000000 		.4byte	0
 12923 0616 00000000 		.4byte	0
 12924              	.LLST86:
 12925 061a B0000000 		.4byte	.LVL662
 12926 061e B8000000 		.4byte	.LVL664
 12927 0622 0100     		.2byte	0x1
 12928 0624 51       		.byte	0x51
 12929 0625 B8000000 		.4byte	.LVL664
 12930 0629 BC000000 		.4byte	.LVL665
 12931 062d 0200     		.2byte	0x2
 12932 062f 75       		.byte	0x75
 12933 0630 02       		.sleb128 2
 12934 0631 BC000000 		.4byte	.LVL665
 12935 0635 C2000000 		.4byte	.LVL666
 12936 0639 0200     		.2byte	0x2
 12937 063b 72       		.byte	0x72
 12938 063c 00       		.sleb128 0
 12939 063d 00000000 		.4byte	0
ARM GAS  C:\Users\mathi\AppData\Local\Temp\ccF8t5t9.s 			page 228


 12940 0641 00000000 		.4byte	0
 12941              	.LLST87:
 12942 0645 B0000000 		.4byte	.LVL662
 12943 0649 B4000000 		.4byte	.LVL663
 12944 064d 0300     		.2byte	0x3
 12945 064f 73       		.byte	0x73
 12946 0650 7E       		.sleb128 -2
 12947 0651 9F       		.byte	0x9f
 12948 0652 B4000000 		.4byte	.LVL663
 12949 0656 D0000000 		.4byte	.LVL667
 12950 065a 0600     		.2byte	0x6
 12951 065c F3       		.byte	0xf3
 12952 065d 01       		.uleb128 0x1
 12953 065e 53       		.byte	0x53
 12954 065f 32       		.byte	0x32
 12955 0660 1C       		.byte	0x1c
 12956 0661 9F       		.byte	0x9f
 12957 0662 00000000 		.4byte	0
 12958 0666 00000000 		.4byte	0
 12959              	.LLST88:
 12960 066a B0000000 		.4byte	.LVL662
 12961 066e C2000000 		.4byte	.LVL666
 12962 0672 0200     		.2byte	0x2
 12963 0674 30       		.byte	0x30
 12964 0675 9F       		.byte	0x9f
 12965 0676 00000000 		.4byte	0
 12966 067a 00000000 		.4byte	0
 12967              	.LLST106:
 12968 067e C8020000 		.4byte	.LVL728
 12969 0682 D8020000 		.4byte	.LVL730
 12970 0686 0100     		.2byte	0x1
 12971 0688 52       		.byte	0x52
 12972 0689 82030000 		.4byte	.LVL748
 12973 068d 86030000 		.4byte	.LVL750
 12974 0691 0100     		.2byte	0x1
 12975 0693 52       		.byte	0x52
 12976 0694 00000000 		.4byte	0
 12977 0698 00000000 		.4byte	0
 12978              	.LLST107:
 12979 069c C8020000 		.4byte	.LVL728
 12980 06a0 D8020000 		.4byte	.LVL730
 12981 06a4 0100     		.2byte	0x1
 12982 06a6 56       		.byte	0x56
 12983 06a7 82030000 		.4byte	.LVL748
 12984 06ab 86030000 		.4byte	.LVL750
 12985 06af 0100     		.2byte	0x1
 12986 06b1 56       		.byte	0x56
 12987 06b2 00000000 		.4byte	0
 12988 06b6 00000000 		.4byte	0
 12989              	.LLST101:
 12990 06ba 9E010000 		.4byte	.LVL697
 12991 06be A7010000 		.4byte	.LVL699-1
 12992 06c2 0200     		.2byte	0x2
 12993 06c4 75       		.byte	0x75
 12994 06c5 02       		.sleb128 2
 12995 06c6 00000000 		.4byte	0
 12996 06ca 00000000 		.4byte	0
ARM GAS  C:\Users\mathi\AppData\Local\Temp\ccF8t5t9.s 			page 229


 12997              	.LLST102:
 12998 06ce 9E010000 		.4byte	.LVL697
 12999 06d2 A7010000 		.4byte	.LVL699-1
 13000 06d6 0200     		.2byte	0x2
 13001 06d8 75       		.byte	0x75
 13002 06d9 04       		.sleb128 4
 13003 06da 00000000 		.4byte	0
 13004 06de 00000000 		.4byte	0
 13005              	.LLST108:
 13006 06e2 04030000 		.4byte	.LVL735
 13007 06e6 16030000 		.4byte	.LVL737
 13008 06ea 0100     		.2byte	0x1
 13009 06ec 51       		.byte	0x51
 13010 06ed 00000000 		.4byte	0
 13011 06f1 00000000 		.4byte	0
 13012              	.LLST109:
 13013 06f5 04030000 		.4byte	.LVL735
 13014 06f9 0A030000 		.4byte	.LVL736
 13015 06fd 0300     		.2byte	0x3
 13016 06ff 73       		.byte	0x73
 13017 0700 7E       		.sleb128 -2
 13018 0701 9F       		.byte	0x9f
 13019 0702 0A030000 		.4byte	.LVL736
 13020 0706 2A030000 		.4byte	.LVL738
 13021 070a 0600     		.2byte	0x6
 13022 070c F3       		.byte	0xf3
 13023 070d 01       		.uleb128 0x1
 13024 070e 53       		.byte	0x53
 13025 070f 32       		.byte	0x32
 13026 0710 1C       		.byte	0x1c
 13027 0711 9F       		.byte	0x9f
 13028 0712 00000000 		.4byte	0
 13029 0716 00000000 		.4byte	0
 13030              	.LLST110:
 13031 071a 04030000 		.4byte	.LVL735
 13032 071e 16030000 		.4byte	.LVL737
 13033 0722 0200     		.2byte	0x2
 13034 0724 30       		.byte	0x30
 13035 0725 9F       		.byte	0x9f
 13036 0726 00000000 		.4byte	0
 13037 072a 00000000 		.4byte	0
 13038              	.LLST85:
 13039 072e 90000000 		.4byte	.LVL658
 13040 0732 98000000 		.4byte	.LVL659
 13041 0736 0100     		.2byte	0x1
 13042 0738 56       		.byte	0x56
 13043 0739 00000000 		.4byte	0
 13044 073d 00000000 		.4byte	0
 13045              	.LLST89:
 13046 0741 D6000000 		.4byte	.LVL668
 13047 0745 2A010000 		.4byte	.LVL678
 13048 0749 0100     		.2byte	0x1
 13049 074b 56       		.byte	0x56
 13050 074c 2A030000 		.4byte	.LVL738
 13051 0750 82030000 		.4byte	.LVL748
 13052 0754 0100     		.2byte	0x1
 13053 0756 56       		.byte	0x56
ARM GAS  C:\Users\mathi\AppData\Local\Temp\ccF8t5t9.s 			page 230


 13054 0757 86030000 		.4byte	.LVL750
 13055 075b 9A030000 		.4byte	.LVL752
 13056 075f 0100     		.2byte	0x1
 13057 0761 56       		.byte	0x56
 13058 0762 00000000 		.4byte	0
 13059 0766 00000000 		.4byte	0
 13060              	.LLST91:
 13061 076a D6000000 		.4byte	.LVL668
 13062 076e DC000000 		.4byte	.LVL669
 13063 0772 0200     		.2byte	0x2
 13064 0774 30       		.byte	0x30
 13065 0775 9F       		.byte	0x9f
 13066 0776 DC000000 		.4byte	.LVL669
 13067 077a EA000000 		.4byte	.LVL671
 13068 077e 0100     		.2byte	0x1
 13069 0780 53       		.byte	0x53
 13070 0781 EC000000 		.4byte	.LVL672
 13071 0785 F0000000 		.4byte	.LVL673
 13072 0789 0100     		.2byte	0x1
 13073 078b 53       		.byte	0x53
 13074 078c 2A030000 		.4byte	.LVL738
 13075 0790 34030000 		.4byte	.LVL741
 13076 0794 0100     		.2byte	0x1
 13077 0796 53       		.byte	0x53
 13078 0797 38030000 		.4byte	.LVL742
 13079 079b 42030000 		.4byte	.LVL743
 13080 079f 0100     		.2byte	0x1
 13081 07a1 53       		.byte	0x53
 13082 07a2 00000000 		.4byte	0
 13083 07a6 00000000 		.4byte	0
 13084              	.LLST92:
 13085 07aa E0000000 		.4byte	.LVL670
 13086 07ae F0000000 		.4byte	.LVL673
 13087 07b2 0100     		.2byte	0x1
 13088 07b4 52       		.byte	0x52
 13089 07b5 2A030000 		.4byte	.LVL738
 13090 07b9 2E030000 		.4byte	.LVL739
 13091 07bd 0100     		.2byte	0x1
 13092 07bf 52       		.byte	0x52
 13093 07c0 2E030000 		.4byte	.LVL739
 13094 07c4 32030000 		.4byte	.LVL740
 13095 07c8 0700     		.2byte	0x7
 13096 07ca 73       		.byte	0x73
 13097 07cb 00       		.sleb128 0
 13098 07cc 31       		.byte	0x31
 13099 07cd 24       		.byte	0x24
 13100 07ce 70       		.byte	0x70
 13101 07cf 00       		.sleb128 0
 13102 07d0 22       		.byte	0x22
 13103 07d1 00000000 		.4byte	0
 13104 07d5 00000000 		.4byte	0
 13105              	.LLST93:
 13106 07d9 FA000000 		.4byte	.LVL674
 13107 07dd 2A010000 		.4byte	.LVL678
 13108 07e1 0300     		.2byte	0x3
 13109 07e3 09       		.byte	0x9
 13110 07e4 FF       		.byte	0xff
ARM GAS  C:\Users\mathi\AppData\Local\Temp\ccF8t5t9.s 			page 231


 13111 07e5 9F       		.byte	0x9f
 13112 07e6 42030000 		.4byte	.LVL743
 13113 07ea 82030000 		.4byte	.LVL748
 13114 07ee 0300     		.2byte	0x3
 13115 07f0 09       		.byte	0x9
 13116 07f1 FF       		.byte	0xff
 13117 07f2 9F       		.byte	0x9f
 13118 07f3 86030000 		.4byte	.LVL750
 13119 07f7 9A030000 		.4byte	.LVL752
 13120 07fb 0300     		.2byte	0x3
 13121 07fd 09       		.byte	0x9
 13122 07fe FF       		.byte	0xff
 13123 07ff 9F       		.byte	0x9f
 13124 0800 00000000 		.4byte	0
 13125 0804 00000000 		.4byte	0
 13126              	.LLST94:
 13127 0808 FA000000 		.4byte	.LVL674
 13128 080c 2A010000 		.4byte	.LVL678
 13129 0810 0100     		.2byte	0x1
 13130 0812 56       		.byte	0x56
 13131 0813 42030000 		.4byte	.LVL743
 13132 0817 82030000 		.4byte	.LVL748
 13133 081b 0100     		.2byte	0x1
 13134 081d 56       		.byte	0x56
 13135 081e 86030000 		.4byte	.LVL750
 13136 0822 9A030000 		.4byte	.LVL752
 13137 0826 0100     		.2byte	0x1
 13138 0828 56       		.byte	0x56
 13139 0829 00000000 		.4byte	0
 13140 082d 00000000 		.4byte	0
 13141              	.LLST95:
 13142 0831 FA000000 		.4byte	.LVL674
 13143 0835 2A010000 		.4byte	.LVL678
 13144 0839 0300     		.2byte	0x3
 13145 083b 09       		.byte	0x9
 13146 083c FF       		.byte	0xff
 13147 083d 9F       		.byte	0x9f
 13148 083e 42030000 		.4byte	.LVL743
 13149 0842 4C030000 		.4byte	.LVL745
 13150 0846 0300     		.2byte	0x3
 13151 0848 09       		.byte	0x9
 13152 0849 FF       		.byte	0xff
 13153 084a 9F       		.byte	0x9f
 13154 084b 00000000 		.4byte	0
 13155 084f 00000000 		.4byte	0
 13156              	.LLST96:
 13157 0853 FA000000 		.4byte	.LVL674
 13158 0857 2A010000 		.4byte	.LVL678
 13159 085b 0100     		.2byte	0x1
 13160 085d 56       		.byte	0x56
 13161 085e 42030000 		.4byte	.LVL743
 13162 0862 4C030000 		.4byte	.LVL745
 13163 0866 0100     		.2byte	0x1
 13164 0868 56       		.byte	0x56
 13165 0869 00000000 		.4byte	0
 13166 086d 00000000 		.4byte	0
 13167              	.LLST97:
ARM GAS  C:\Users\mathi\AppData\Local\Temp\ccF8t5t9.s 			page 232


 13168 0871 6A030000 		.4byte	.LVL746
 13169 0875 82030000 		.4byte	.LVL748
 13170 0879 0100     		.2byte	0x1
 13171 087b 56       		.byte	0x56
 13172 087c 00000000 		.4byte	0
 13173 0880 00000000 		.4byte	0
 13174              	.LLST98:
 13175 0884 3E010000 		.4byte	.LVL684
 13176 0888 58010000 		.4byte	.LVL687
 13177 088c 0100     		.2byte	0x1
 13178 088e 56       		.byte	0x56
 13179 088f 00000000 		.4byte	0
 13180 0893 00000000 		.4byte	0
 13181              	.LLST99:
 13182 0897 66010000 		.4byte	.LVL689
 13183 089b 68010000 		.4byte	.LVL690
 13184 089f 0100     		.2byte	0x1
 13185 08a1 56       		.byte	0x56
 13186 08a2 00000000 		.4byte	0
 13187 08a6 00000000 		.4byte	0
 13188              	.LLST100:
 13189 08aa 7A010000 		.4byte	.LVL692
 13190 08ae 8A010000 		.4byte	.LVL694
 13191 08b2 0100     		.2byte	0x1
 13192 08b4 56       		.byte	0x56
 13193 08b5 00000000 		.4byte	0
 13194 08b9 00000000 		.4byte	0
 13195              	.LLST103:
 13196 08bd AA010000 		.4byte	.LVL700
 13197 08c1 B0010000 		.4byte	.LVL702
 13198 08c5 0100     		.2byte	0x1
 13199 08c7 56       		.byte	0x56
 13200 08c8 00000000 		.4byte	0
 13201 08cc 00000000 		.4byte	0
 13202              	.LLST104:
 13203 08d0 B4010000 		.4byte	.LVL704
 13204 08d4 C2010000 		.4byte	.LVL705
 13205 08d8 0100     		.2byte	0x1
 13206 08da 52       		.byte	0x52
 13207 08db C2010000 		.4byte	.LVL705
 13208 08df A0020000 		.4byte	.LVL722
 13209 08e3 0200     		.2byte	0x2
 13210 08e5 75       		.byte	0x75
 13211 08e6 02       		.sleb128 2
 13212 08e7 9E030000 		.4byte	.LVL753
 13213 08eb D6030000 		.4byte	.LFE16
 13214 08ef 0200     		.2byte	0x2
 13215 08f1 75       		.byte	0x75
 13216 08f2 02       		.sleb128 2
 13217 08f3 00000000 		.4byte	0
 13218 08f7 00000000 		.4byte	0
 13219              	.LLST105:
 13220 08fb B4010000 		.4byte	.LVL704
 13221 08ff C0020000 		.4byte	.LVL725
 13222 0903 0100     		.2byte	0x1
 13223 0905 56       		.byte	0x56
 13224 0906 9E030000 		.4byte	.LVL753
ARM GAS  C:\Users\mathi\AppData\Local\Temp\ccF8t5t9.s 			page 233


 13225 090a D6030000 		.4byte	.LFE16
 13226 090e 0100     		.2byte	0x1
 13227 0910 56       		.byte	0x56
 13228 0911 00000000 		.4byte	0
 13229 0915 00000000 		.4byte	0
 13230              	.LLST57:
 13231 0919 00000000 		.4byte	.LVL370
 13232 091d 12000000 		.4byte	.LVL371
 13233 0921 0100     		.2byte	0x1
 13234 0923 50       		.byte	0x50
 13235 0924 12000000 		.4byte	.LVL371
 13236 0928 D4070000 		.4byte	.LFE10
 13237 092c 0100     		.2byte	0x1
 13238 092e 54       		.byte	0x54
 13239 092f 00000000 		.4byte	0
 13240 0933 00000000 		.4byte	0
 13241              	.LLST58:
 13242 0937 00000000 		.4byte	.LVL370
 13243 093b 1E000000 		.4byte	.LVL372
 13244 093f 0100     		.2byte	0x1
 13245 0941 51       		.byte	0x51
 13246 0942 1E000000 		.4byte	.LVL372
 13247 0946 74000000 		.4byte	.LVL376
 13248 094a 0400     		.2byte	0x4
 13249 094c F3       		.byte	0xf3
 13250 094d 01       		.uleb128 0x1
 13251 094e 51       		.byte	0x51
 13252 094f 9F       		.byte	0x9f
 13253 0950 74000000 		.4byte	.LVL376
 13254 0954 76000000 		.4byte	.LVL377
 13255 0958 0100     		.2byte	0x1
 13256 095a 51       		.byte	0x51
 13257 095b 76000000 		.4byte	.LVL377
 13258 095f D4070000 		.4byte	.LFE10
 13259 0963 0400     		.2byte	0x4
 13260 0965 F3       		.byte	0xf3
 13261 0966 01       		.uleb128 0x1
 13262 0967 51       		.byte	0x51
 13263 0968 9F       		.byte	0x9f
 13264 0969 00000000 		.4byte	0
 13265 096d 00000000 		.4byte	0
 13266              	.LLST59:
 13267 0971 24000000 		.4byte	.LVL373
 13268 0975 3C000000 		.4byte	.LVL374
 13269 0979 0100     		.2byte	0x1
 13270 097b 55       		.byte	0x55
 13271 097c 56010000 		.4byte	.LVL397
 13272 0980 AC010000 		.4byte	.LVL405
 13273 0984 0100     		.2byte	0x1
 13274 0986 55       		.byte	0x55
 13275 0987 B0010000 		.4byte	.LVL406
 13276 098b B4010000 		.4byte	.LVL407
 13277 098f 0100     		.2byte	0x1
 13278 0991 55       		.byte	0x55
 13279 0992 E0010000 		.4byte	.LVL411
 13280 0996 58020000 		.4byte	.LVL414
 13281 099a 0100     		.2byte	0x1
ARM GAS  C:\Users\mathi\AppData\Local\Temp\ccF8t5t9.s 			page 234


 13282 099c 55       		.byte	0x55
 13283 099d 40030000 		.4byte	.LVL437
 13284 09a1 FE040000 		.4byte	.LVL483
 13285 09a5 0100     		.2byte	0x1
 13286 09a7 55       		.byte	0x55
 13287 09a8 04070000 		.4byte	.LVL553
 13288 09ac 34070000 		.4byte	.LVL556
 13289 09b0 0100     		.2byte	0x1
 13290 09b2 55       		.byte	0x55
 13291 09b3 68070000 		.4byte	.LVL560
 13292 09b7 80070000 		.4byte	.LVL563
 13293 09bb 0100     		.2byte	0x1
 13294 09bd 55       		.byte	0x55
 13295 09be 98070000 		.4byte	.LVL566
 13296 09c2 AC070000 		.4byte	.LVL573
 13297 09c6 0100     		.2byte	0x1
 13298 09c8 55       		.byte	0x55
 13299 09c9 C0070000 		.4byte	.LVL580
 13300 09cd C8070000 		.4byte	.LVL582
 13301 09d1 0100     		.2byte	0x1
 13302 09d3 55       		.byte	0x55
 13303 09d4 00000000 		.4byte	0
 13304 09d8 00000000 		.4byte	0
 13305              	.LLST60:
 13306 09dc 24000000 		.4byte	.LVL373
 13307 09e0 74000000 		.4byte	.LVL376
 13308 09e4 0100     		.2byte	0x1
 13309 09e6 54       		.byte	0x54
 13310 09e7 56010000 		.4byte	.LVL397
 13311 09eb B4010000 		.4byte	.LVL407
 13312 09ef 0100     		.2byte	0x1
 13313 09f1 54       		.byte	0x54
 13314 09f2 E0010000 		.4byte	.LVL411
 13315 09f6 58020000 		.4byte	.LVL414
 13316 09fa 0100     		.2byte	0x1
 13317 09fc 54       		.byte	0x54
 13318 09fd 40030000 		.4byte	.LVL437
 13319 0a01 D0070000 		.4byte	.LVL584
 13320 0a05 0100     		.2byte	0x1
 13321 0a07 54       		.byte	0x54
 13322 0a08 00000000 		.4byte	0
 13323 0a0c 00000000 		.4byte	0
 13324              	.LLST61:
 13325 0a10 64060000 		.4byte	.LVL529
 13326 0a14 7A060000 		.4byte	.LVL532
 13327 0a18 0100     		.2byte	0x1
 13328 0a1a 54       		.byte	0x54
 13329 0a1b AC070000 		.4byte	.LVL573
 13330 0a1f C0070000 		.4byte	.LVL580
 13331 0a23 0100     		.2byte	0x1
 13332 0a25 54       		.byte	0x54
 13333 0a26 00000000 		.4byte	0
 13334 0a2a 00000000 		.4byte	0
 13335              	.LLST62:
 13336 0a2e 64060000 		.4byte	.LVL529
 13337 0a32 74060000 		.4byte	.LVL530
 13338 0a36 1300     		.2byte	0x13
ARM GAS  C:\Users\mathi\AppData\Local\Temp\ccF8t5t9.s 			page 235


 13339 0a38 74       		.byte	0x74
 13340 0a39 1A       		.sleb128 26
 13341 0a3a 94       		.byte	0x94
 13342 0a3b 02       		.byte	0x2
 13343 0a3c 0A       		.byte	0xa
 13344 0a3d FFFF     		.2byte	0xffff
 13345 0a3f 1A       		.byte	0x1a
 13346 0a40 31       		.byte	0x31
 13347 0a41 24       		.byte	0x24
 13348 0a42 70       		.byte	0x70
 13349 0a43 00       		.sleb128 0
 13350 0a44 22       		.byte	0x22
 13351 0a45 94       		.byte	0x94
 13352 0a46 02       		.byte	0x2
 13353 0a47 08       		.byte	0x8
 13354 0a48 FF       		.byte	0xff
 13355 0a49 1A       		.byte	0x1a
 13356 0a4a 9F       		.byte	0x9f
 13357 0a4b AC070000 		.4byte	.LVL573
 13358 0a4f C0070000 		.4byte	.LVL580
 13359 0a53 1300     		.2byte	0x13
 13360 0a55 74       		.byte	0x74
 13361 0a56 1A       		.sleb128 26
 13362 0a57 94       		.byte	0x94
 13363 0a58 02       		.byte	0x2
 13364 0a59 0A       		.byte	0xa
 13365 0a5a FFFF     		.2byte	0xffff
 13366 0a5c 1A       		.byte	0x1a
 13367 0a5d 31       		.byte	0x31
 13368 0a5e 24       		.byte	0x24
 13369 0a5f 70       		.byte	0x70
 13370 0a60 00       		.sleb128 0
 13371 0a61 22       		.byte	0x22
 13372 0a62 94       		.byte	0x94
 13373 0a63 02       		.byte	0x2
 13374 0a64 08       		.byte	0x8
 13375 0a65 FF       		.byte	0xff
 13376 0a66 1A       		.byte	0x1a
 13377 0a67 9F       		.byte	0x9f
 13378 0a68 00000000 		.4byte	0
 13379 0a6c 00000000 		.4byte	0
 13380              	.LLST63:
 13381 0a70 64060000 		.4byte	.LVL529
 13382 0a74 74060000 		.4byte	.LVL530
 13383 0a78 0100     		.2byte	0x1
 13384 0a7a 53       		.byte	0x53
 13385 0a7b AC070000 		.4byte	.LVL573
 13386 0a7f AE070000 		.4byte	.LVL574
 13387 0a83 0100     		.2byte	0x1
 13388 0a85 53       		.byte	0x53
 13389 0a86 AE070000 		.4byte	.LVL574
 13390 0a8a B0070000 		.4byte	.LVL575
 13391 0a8e 0700     		.2byte	0x7
 13392 0a90 71       		.byte	0x71
 13393 0a91 00       		.sleb128 0
 13394 0a92 31       		.byte	0x31
 13395 0a93 24       		.byte	0x24
ARM GAS  C:\Users\mathi\AppData\Local\Temp\ccF8t5t9.s 			page 236


 13396 0a94 72       		.byte	0x72
 13397 0a95 00       		.sleb128 0
 13398 0a96 22       		.byte	0x22
 13399 0a97 B0070000 		.4byte	.LVL575
 13400 0a9b B2070000 		.4byte	.LVL576
 13401 0a9f 0100     		.2byte	0x1
 13402 0aa1 53       		.byte	0x53
 13403 0aa2 B2070000 		.4byte	.LVL576
 13404 0aa6 B4070000 		.4byte	.LVL577
 13405 0aaa 0400     		.2byte	0x4
 13406 0aac 73       		.byte	0x73
 13407 0aad 00       		.sleb128 0
 13408 0aae 1F       		.byte	0x1f
 13409 0aaf 9F       		.byte	0x9f
 13410 0ab0 B4070000 		.4byte	.LVL577
 13411 0ab4 B6070000 		.4byte	.LVL578
 13412 0ab8 0700     		.2byte	0x7
 13413 0aba 71       		.byte	0x71
 13414 0abb 00       		.sleb128 0
 13415 0abc 31       		.byte	0x31
 13416 0abd 24       		.byte	0x24
 13417 0abe 72       		.byte	0x72
 13418 0abf 00       		.sleb128 0
 13419 0ac0 22       		.byte	0x22
 13420 0ac1 B6070000 		.4byte	.LVL578
 13421 0ac5 BC070000 		.4byte	.LVL579
 13422 0ac9 0100     		.2byte	0x1
 13423 0acb 53       		.byte	0x53
 13424 0acc BC070000 		.4byte	.LVL579
 13425 0ad0 C0070000 		.4byte	.LVL580
 13426 0ad4 0700     		.2byte	0x7
 13427 0ad6 71       		.byte	0x71
 13428 0ad7 00       		.sleb128 0
 13429 0ad8 31       		.byte	0x31
 13430 0ad9 24       		.byte	0x24
 13431 0ada 72       		.byte	0x72
 13432 0adb 00       		.sleb128 0
 13433 0adc 22       		.byte	0x22
 13434 0add 00000000 		.4byte	0
 13435 0ae1 00000000 		.4byte	0
 13436              	.LLST64:
 13437 0ae5 56010000 		.4byte	.LVL397
 13438 0ae9 A6010000 		.4byte	.LVL404
 13439 0aed 0100     		.2byte	0x1
 13440 0aef 54       		.byte	0x54
 13441 0af0 F8010000 		.4byte	.LVL412
 13442 0af4 58020000 		.4byte	.LVL414
 13443 0af8 0100     		.2byte	0x1
 13444 0afa 54       		.byte	0x54
 13445 0afb 40030000 		.4byte	.LVL437
 13446 0aff FE040000 		.4byte	.LVL483
 13447 0b03 0100     		.2byte	0x1
 13448 0b05 54       		.byte	0x54
 13449 0b06 04070000 		.4byte	.LVL553
 13450 0b0a 34070000 		.4byte	.LVL556
 13451 0b0e 0100     		.2byte	0x1
 13452 0b10 54       		.byte	0x54
ARM GAS  C:\Users\mathi\AppData\Local\Temp\ccF8t5t9.s 			page 237


 13453 0b11 68070000 		.4byte	.LVL560
 13454 0b15 80070000 		.4byte	.LVL563
 13455 0b19 0100     		.2byte	0x1
 13456 0b1b 54       		.byte	0x54
 13457 0b1c 98070000 		.4byte	.LVL566
 13458 0b20 AC070000 		.4byte	.LVL573
 13459 0b24 0100     		.2byte	0x1
 13460 0b26 54       		.byte	0x54
 13461 0b27 C0070000 		.4byte	.LVL580
 13462 0b2b C8070000 		.4byte	.LVL582
 13463 0b2f 0100     		.2byte	0x1
 13464 0b31 54       		.byte	0x54
 13465 0b32 00000000 		.4byte	0
 13466 0b36 00000000 		.4byte	0
 13467              	.LLST65:
 13468 0b3a DE040000 		.4byte	.LVL480
 13469 0b3e FE040000 		.4byte	.LVL483
 13470 0b42 0100     		.2byte	0x1
 13471 0b44 54       		.byte	0x54
 13472 0b45 98070000 		.4byte	.LVL566
 13473 0b49 AC070000 		.4byte	.LVL573
 13474 0b4d 0100     		.2byte	0x1
 13475 0b4f 54       		.byte	0x54
 13476 0b50 00000000 		.4byte	0
 13477 0b54 00000000 		.4byte	0
 13478              	.LLST66:
 13479 0b58 DE040000 		.4byte	.LVL480
 13480 0b5c F0040000 		.4byte	.LVL481
 13481 0b60 1300     		.2byte	0x13
 13482 0b62 74       		.byte	0x74
 13483 0b63 1A       		.sleb128 26
 13484 0b64 94       		.byte	0x94
 13485 0b65 02       		.byte	0x2
 13486 0b66 0A       		.byte	0xa
 13487 0b67 FFFF     		.2byte	0xffff
 13488 0b69 1A       		.byte	0x1a
 13489 0b6a 31       		.byte	0x31
 13490 0b6b 24       		.byte	0x24
 13491 0b6c 70       		.byte	0x70
 13492 0b6d 00       		.sleb128 0
 13493 0b6e 22       		.byte	0x22
 13494 0b6f 94       		.byte	0x94
 13495 0b70 02       		.byte	0x2
 13496 0b71 08       		.byte	0x8
 13497 0b72 FF       		.byte	0xff
 13498 0b73 1A       		.byte	0x1a
 13499 0b74 9F       		.byte	0x9f
 13500 0b75 98070000 		.4byte	.LVL566
 13501 0b79 AC070000 		.4byte	.LVL573
 13502 0b7d 1300     		.2byte	0x13
 13503 0b7f 74       		.byte	0x74
 13504 0b80 1A       		.sleb128 26
 13505 0b81 94       		.byte	0x94
 13506 0b82 02       		.byte	0x2
 13507 0b83 0A       		.byte	0xa
 13508 0b84 FFFF     		.2byte	0xffff
 13509 0b86 1A       		.byte	0x1a
ARM GAS  C:\Users\mathi\AppData\Local\Temp\ccF8t5t9.s 			page 238


 13510 0b87 31       		.byte	0x31
 13511 0b88 24       		.byte	0x24
 13512 0b89 70       		.byte	0x70
 13513 0b8a 00       		.sleb128 0
 13514 0b8b 22       		.byte	0x22
 13515 0b8c 94       		.byte	0x94
 13516 0b8d 02       		.byte	0x2
 13517 0b8e 08       		.byte	0x8
 13518 0b8f FF       		.byte	0xff
 13519 0b90 1A       		.byte	0x1a
 13520 0b91 9F       		.byte	0x9f
 13521 0b92 00000000 		.4byte	0
 13522 0b96 00000000 		.4byte	0
 13523              	.LLST67:
 13524 0b9a DE040000 		.4byte	.LVL480
 13525 0b9e F0040000 		.4byte	.LVL481
 13526 0ba2 0100     		.2byte	0x1
 13527 0ba4 53       		.byte	0x53
 13528 0ba5 98070000 		.4byte	.LVL566
 13529 0ba9 9A070000 		.4byte	.LVL567
 13530 0bad 0100     		.2byte	0x1
 13531 0baf 53       		.byte	0x53
 13532 0bb0 9A070000 		.4byte	.LVL567
 13533 0bb4 9C070000 		.4byte	.LVL568
 13534 0bb8 0400     		.2byte	0x4
 13535 0bba 73       		.byte	0x73
 13536 0bbb 00       		.sleb128 0
 13537 0bbc 1F       		.byte	0x1f
 13538 0bbd 9F       		.byte	0x9f
 13539 0bbe 9C070000 		.4byte	.LVL568
 13540 0bc2 9E070000 		.4byte	.LVL569
 13541 0bc6 0700     		.2byte	0x7
 13542 0bc8 71       		.byte	0x71
 13543 0bc9 00       		.sleb128 0
 13544 0bca 31       		.byte	0x31
 13545 0bcb 24       		.byte	0x24
 13546 0bcc 72       		.byte	0x72
 13547 0bcd 00       		.sleb128 0
 13548 0bce 22       		.byte	0x22
 13549 0bcf 9E070000 		.4byte	.LVL569
 13550 0bd3 A4070000 		.4byte	.LVL570
 13551 0bd7 0100     		.2byte	0x1
 13552 0bd9 53       		.byte	0x53
 13553 0bda A4070000 		.4byte	.LVL570
 13554 0bde A8070000 		.4byte	.LVL571
 13555 0be2 0700     		.2byte	0x7
 13556 0be4 71       		.byte	0x71
 13557 0be5 00       		.sleb128 0
 13558 0be6 31       		.byte	0x31
 13559 0be7 24       		.byte	0x24
 13560 0be8 72       		.byte	0x72
 13561 0be9 00       		.sleb128 0
 13562 0bea 22       		.byte	0x22
 13563 0beb A8070000 		.4byte	.LVL571
 13564 0bef AA070000 		.4byte	.LVL572
 13565 0bf3 0100     		.2byte	0x1
 13566 0bf5 53       		.byte	0x53
ARM GAS  C:\Users\mathi\AppData\Local\Temp\ccF8t5t9.s 			page 239


 13567 0bf6 AA070000 		.4byte	.LVL572
 13568 0bfa AC070000 		.4byte	.LVL573
 13569 0bfe 0700     		.2byte	0x7
 13570 0c00 71       		.byte	0x71
 13571 0c01 00       		.sleb128 0
 13572 0c02 31       		.byte	0x31
 13573 0c03 24       		.byte	0x24
 13574 0c04 72       		.byte	0x72
 13575 0c05 00       		.sleb128 0
 13576 0c06 22       		.byte	0x22
 13577 0c07 00000000 		.4byte	0
 13578 0c0b 00000000 		.4byte	0
 13579              	.LLST68:
 13580 0c0f 86000000 		.4byte	.LVL378
 13581 0c13 9C000000 		.4byte	.LVL379
 13582 0c17 0100     		.2byte	0x1
 13583 0c19 55       		.byte	0x55
 13584 0c1a 58020000 		.4byte	.LVL414
 13585 0c1e 0C030000 		.4byte	.LVL433
 13586 0c22 0100     		.2byte	0x1
 13587 0c24 55       		.byte	0x55
 13588 0c25 10030000 		.4byte	.LVL434
 13589 0c29 40030000 		.4byte	.LVL437
 13590 0c2d 0100     		.2byte	0x1
 13591 0c2f 55       		.byte	0x55
 13592 0c30 00000000 		.4byte	0
 13593 0c34 00000000 		.4byte	0
 13594              	.LLST69:
 13595 0c38 86000000 		.4byte	.LVL378
 13596 0c3c 56010000 		.4byte	.LVL397
 13597 0c40 0100     		.2byte	0x1
 13598 0c42 54       		.byte	0x54
 13599 0c43 BE010000 		.4byte	.LVL408
 13600 0c47 E0010000 		.4byte	.LVL411
 13601 0c4b 0100     		.2byte	0x1
 13602 0c4d 54       		.byte	0x54
 13603 0c4e 58020000 		.4byte	.LVL414
 13604 0c52 40030000 		.4byte	.LVL437
 13605 0c56 0100     		.2byte	0x1
 13606 0c58 54       		.byte	0x54
 13607 0c59 00000000 		.4byte	0
 13608 0c5d 00000000 		.4byte	0
 13609              	.LLST70:
 13610 0c61 C6010000 		.4byte	.LVL409
 13611 0c65 E0010000 		.4byte	.LVL411
 13612 0c69 0100     		.2byte	0x1
 13613 0c6b 54       		.byte	0x54
 13614 0c6c 00000000 		.4byte	0
 13615 0c70 00000000 		.4byte	0
 13616              	.LLST71:
 13617 0c74 26030000 		.4byte	.LVL435
 13618 0c78 40030000 		.4byte	.LVL437
 13619 0c7c 0100     		.2byte	0x1
 13620 0c7e 54       		.byte	0x54
 13621 0c7f 00000000 		.4byte	0
 13622 0c83 00000000 		.4byte	0
 13623              	.LLST40:
ARM GAS  C:\Users\mathi\AppData\Local\Temp\ccF8t5t9.s 			page 240


 13624 0c87 00000000 		.4byte	.LVL126
 13625 0c8b 16000000 		.4byte	.LVL127
 13626 0c8f 0100     		.2byte	0x1
 13627 0c91 50       		.byte	0x50
 13628 0c92 16000000 		.4byte	.LVL127
 13629 0c96 84000000 		.4byte	.LFE6
 13630 0c9a 0100     		.2byte	0x1
 13631 0c9c 55       		.byte	0x55
 13632 0c9d 00000000 		.4byte	0
 13633 0ca1 00000000 		.4byte	0
 13634              	.LLST41:
 13635 0ca5 00000000 		.4byte	.LVL126
 13636 0ca9 1B000000 		.4byte	.LVL128-1
 13637 0cad 0100     		.2byte	0x1
 13638 0caf 51       		.byte	0x51
 13639 0cb0 1B000000 		.4byte	.LVL128-1
 13640 0cb4 84000000 		.4byte	.LFE6
 13641 0cb8 0100     		.2byte	0x1
 13642 0cba 5A       		.byte	0x5a
 13643 0cbb 00000000 		.4byte	0
 13644 0cbf 00000000 		.4byte	0
 13645              	.LLST42:
 13646 0cc3 36000000 		.4byte	.LVL129
 13647 0cc7 3F000000 		.4byte	.LVL130-1
 13648 0ccb 0200     		.2byte	0x2
 13649 0ccd 73       		.byte	0x73
 13650 0cce 00       		.sleb128 0
 13651 0ccf 3F000000 		.4byte	.LVL130-1
 13652 0cd3 84000000 		.4byte	.LFE6
 13653 0cd7 0200     		.2byte	0x2
 13654 0cd9 74       		.byte	0x74
 13655 0cda 00       		.sleb128 0
 13656 0cdb 00000000 		.4byte	0
 13657 0cdf 00000000 		.4byte	0
 13658              	.LLST0:
 13659 0ce3 00000000 		.4byte	.LVL0
 13660 0ce7 14000000 		.4byte	.LVL1
 13661 0ceb 0100     		.2byte	0x1
 13662 0ced 50       		.byte	0x50
 13663 0cee 14000000 		.4byte	.LVL1
 13664 0cf2 FC000000 		.4byte	.LFE3
 13665 0cf6 0100     		.2byte	0x1
 13666 0cf8 55       		.byte	0x55
 13667 0cf9 00000000 		.4byte	0
 13668 0cfd 00000000 		.4byte	0
 13669              	.LLST1:
 13670 0d01 00000000 		.4byte	.LVL0
 13671 0d05 36000000 		.4byte	.LVL3
 13672 0d09 0100     		.2byte	0x1
 13673 0d0b 51       		.byte	0x51
 13674 0d0c 36000000 		.4byte	.LVL3
 13675 0d10 42000000 		.4byte	.LVL4
 13676 0d14 0400     		.2byte	0x4
 13677 0d16 F3       		.byte	0xf3
 13678 0d17 01       		.uleb128 0x1
 13679 0d18 51       		.byte	0x51
 13680 0d19 9F       		.byte	0x9f
ARM GAS  C:\Users\mathi\AppData\Local\Temp\ccF8t5t9.s 			page 241


 13681 0d1a 42000000 		.4byte	.LVL4
 13682 0d1e 66000000 		.4byte	.LVL12
 13683 0d22 0100     		.2byte	0x1
 13684 0d24 51       		.byte	0x51
 13685 0d25 66000000 		.4byte	.LVL12
 13686 0d29 82000000 		.4byte	.LVL15
 13687 0d2d 0400     		.2byte	0x4
 13688 0d2f F3       		.byte	0xf3
 13689 0d30 01       		.uleb128 0x1
 13690 0d31 51       		.byte	0x51
 13691 0d32 9F       		.byte	0x9f
 13692 0d33 82000000 		.4byte	.LVL15
 13693 0d37 EE000000 		.4byte	.LVL19
 13694 0d3b 0100     		.2byte	0x1
 13695 0d3d 51       		.byte	0x51
 13696 0d3e EE000000 		.4byte	.LVL19
 13697 0d42 FC000000 		.4byte	.LFE3
 13698 0d46 0400     		.2byte	0x4
 13699 0d48 F3       		.byte	0xf3
 13700 0d49 01       		.uleb128 0x1
 13701 0d4a 51       		.byte	0x51
 13702 0d4b 9F       		.byte	0x9f
 13703 0d4c 00000000 		.4byte	0
 13704 0d50 00000000 		.4byte	0
 13705              	.LLST2:
 13706 0d54 00000000 		.4byte	.LVL0
 13707 0d58 34000000 		.4byte	.LVL2
 13708 0d5c 0100     		.2byte	0x1
 13709 0d5e 52       		.byte	0x52
 13710 0d5f 34000000 		.4byte	.LVL2
 13711 0d63 42000000 		.4byte	.LVL4
 13712 0d67 0400     		.2byte	0x4
 13713 0d69 F3       		.byte	0xf3
 13714 0d6a 01       		.uleb128 0x1
 13715 0d6b 52       		.byte	0x52
 13716 0d6c 9F       		.byte	0x9f
 13717 0d6d 42000000 		.4byte	.LVL4
 13718 0d71 4A000000 		.4byte	.LVL5
 13719 0d75 0100     		.2byte	0x1
 13720 0d77 52       		.byte	0x52
 13721 0d78 4A000000 		.4byte	.LVL5
 13722 0d7c 4E000000 		.4byte	.LVL6
 13723 0d80 0400     		.2byte	0x4
 13724 0d82 F3       		.byte	0xf3
 13725 0d83 01       		.uleb128 0x1
 13726 0d84 52       		.byte	0x52
 13727 0d85 9F       		.byte	0x9f
 13728 0d86 4E000000 		.4byte	.LVL6
 13729 0d8a 50000000 		.4byte	.LVL7
 13730 0d8e 0100     		.2byte	0x1
 13731 0d90 52       		.byte	0x52
 13732 0d91 50000000 		.4byte	.LVL7
 13733 0d95 54000000 		.4byte	.LVL8
 13734 0d99 0400     		.2byte	0x4
 13735 0d9b F3       		.byte	0xf3
 13736 0d9c 01       		.uleb128 0x1
 13737 0d9d 52       		.byte	0x52
ARM GAS  C:\Users\mathi\AppData\Local\Temp\ccF8t5t9.s 			page 242


 13738 0d9e 9F       		.byte	0x9f
 13739 0d9f 54000000 		.4byte	.LVL8
 13740 0da3 58000000 		.4byte	.LVL9
 13741 0da7 0100     		.2byte	0x1
 13742 0da9 52       		.byte	0x52
 13743 0daa 58000000 		.4byte	.LVL9
 13744 0dae 5C000000 		.4byte	.LVL10
 13745 0db2 0400     		.2byte	0x4
 13746 0db4 F3       		.byte	0xf3
 13747 0db5 01       		.uleb128 0x1
 13748 0db6 52       		.byte	0x52
 13749 0db7 9F       		.byte	0x9f
 13750 0db8 5C000000 		.4byte	.LVL10
 13751 0dbc 6B000000 		.4byte	.LVL13-1
 13752 0dc0 0100     		.2byte	0x1
 13753 0dc2 52       		.byte	0x52
 13754 0dc3 6B000000 		.4byte	.LVL13-1
 13755 0dc7 82000000 		.4byte	.LVL15
 13756 0dcb 0400     		.2byte	0x4
 13757 0dcd F3       		.byte	0xf3
 13758 0dce 01       		.uleb128 0x1
 13759 0dcf 52       		.byte	0x52
 13760 0dd0 9F       		.byte	0x9f
 13761 0dd1 82000000 		.4byte	.LVL15
 13762 0dd5 8E000000 		.4byte	.LVL16
 13763 0dd9 0100     		.2byte	0x1
 13764 0ddb 52       		.byte	0x52
 13765 0ddc 8E000000 		.4byte	.LVL16
 13766 0de0 92000000 		.4byte	.LVL17
 13767 0de4 0400     		.2byte	0x4
 13768 0de6 F3       		.byte	0xf3
 13769 0de7 01       		.uleb128 0x1
 13770 0de8 52       		.byte	0x52
 13771 0de9 9F       		.byte	0x9f
 13772 0dea 92000000 		.4byte	.LVL17
 13773 0dee EA000000 		.4byte	.LVL18
 13774 0df2 0100     		.2byte	0x1
 13775 0df4 52       		.byte	0x52
 13776 0df5 EA000000 		.4byte	.LVL18
 13777 0df9 FC000000 		.4byte	.LFE3
 13778 0dfd 0400     		.2byte	0x4
 13779 0dff F3       		.byte	0xf3
 13780 0e00 01       		.uleb128 0x1
 13781 0e01 52       		.byte	0x52
 13782 0e02 9F       		.byte	0x9f
 13783 0e03 00000000 		.4byte	0
 13784 0e07 00000000 		.4byte	0
 13785              	.LLST3:
 13786 0e0b 00000000 		.4byte	.LVL0
 13787 0e0f 36000000 		.4byte	.LVL3
 13788 0e13 0100     		.2byte	0x1
 13789 0e15 53       		.byte	0x53
 13790 0e16 36000000 		.4byte	.LVL3
 13791 0e1a 42000000 		.4byte	.LVL4
 13792 0e1e 0400     		.2byte	0x4
 13793 0e20 F3       		.byte	0xf3
 13794 0e21 01       		.uleb128 0x1
ARM GAS  C:\Users\mathi\AppData\Local\Temp\ccF8t5t9.s 			page 243


 13795 0e22 53       		.byte	0x53
 13796 0e23 9F       		.byte	0x9f
 13797 0e24 42000000 		.4byte	.LVL4
 13798 0e28 62000000 		.4byte	.LVL11
 13799 0e2c 0100     		.2byte	0x1
 13800 0e2e 53       		.byte	0x53
 13801 0e2f 62000000 		.4byte	.LVL11
 13802 0e33 82000000 		.4byte	.LVL15
 13803 0e37 0400     		.2byte	0x4
 13804 0e39 F3       		.byte	0xf3
 13805 0e3a 01       		.uleb128 0x1
 13806 0e3b 53       		.byte	0x53
 13807 0e3c 9F       		.byte	0x9f
 13808 0e3d 82000000 		.4byte	.LVL15
 13809 0e41 EE000000 		.4byte	.LVL19
 13810 0e45 0100     		.2byte	0x1
 13811 0e47 53       		.byte	0x53
 13812 0e48 EE000000 		.4byte	.LVL19
 13813 0e4c FC000000 		.4byte	.LFE3
 13814 0e50 0400     		.2byte	0x4
 13815 0e52 F3       		.byte	0xf3
 13816 0e53 01       		.uleb128 0x1
 13817 0e54 53       		.byte	0x53
 13818 0e55 9F       		.byte	0x9f
 13819 0e56 00000000 		.4byte	0
 13820 0e5a 00000000 		.4byte	0
 13821              	.LLST4:
 13822 0e5e 00000000 		.4byte	.LVL21
 13823 0e62 1C000000 		.4byte	.LVL22
 13824 0e66 0100     		.2byte	0x1
 13825 0e68 50       		.byte	0x50
 13826 0e69 1C000000 		.4byte	.LVL22
 13827 0e6d 34000000 		.4byte	.LFE0
 13828 0e71 0400     		.2byte	0x4
 13829 0e73 F3       		.byte	0xf3
 13830 0e74 01       		.uleb128 0x1
 13831 0e75 50       		.byte	0x50
 13832 0e76 9F       		.byte	0x9f
 13833 0e77 00000000 		.4byte	0
 13834 0e7b 00000000 		.4byte	0
 13835              	.LLST5:
 13836 0e7f 00000000 		.4byte	.LVL25
 13837 0e83 1C000000 		.4byte	.LVL27
 13838 0e87 0100     		.2byte	0x1
 13839 0e89 50       		.byte	0x50
 13840 0e8a 1C000000 		.4byte	.LVL27
 13841 0e8e 46000000 		.4byte	.LVL32
 13842 0e92 0400     		.2byte	0x4
 13843 0e94 F3       		.byte	0xf3
 13844 0e95 01       		.uleb128 0x1
 13845 0e96 50       		.byte	0x50
 13846 0e97 9F       		.byte	0x9f
 13847 0e98 46000000 		.4byte	.LVL32
 13848 0e9c 4A000000 		.4byte	.LVL33
 13849 0ea0 0100     		.2byte	0x1
 13850 0ea2 50       		.byte	0x50
 13851 0ea3 4A000000 		.4byte	.LVL33
ARM GAS  C:\Users\mathi\AppData\Local\Temp\ccF8t5t9.s 			page 244


 13852 0ea7 54000000 		.4byte	.LFE1
 13853 0eab 0400     		.2byte	0x4
 13854 0ead F3       		.byte	0xf3
 13855 0eae 01       		.uleb128 0x1
 13856 0eaf 50       		.byte	0x50
 13857 0eb0 9F       		.byte	0x9f
 13858 0eb1 00000000 		.4byte	0
 13859 0eb5 00000000 		.4byte	0
 13860              	.LLST6:
 13861 0eb9 00000000 		.4byte	.LVL25
 13862 0ebd 4D000000 		.4byte	.LVL34-1
 13863 0ec1 0100     		.2byte	0x1
 13864 0ec3 51       		.byte	0x51
 13865 0ec4 4D000000 		.4byte	.LVL34-1
 13866 0ec8 54000000 		.4byte	.LFE1
 13867 0ecc 0400     		.2byte	0x4
 13868 0ece F3       		.byte	0xf3
 13869 0ecf 01       		.uleb128 0x1
 13870 0ed0 51       		.byte	0x51
 13871 0ed1 9F       		.byte	0x9f
 13872 0ed2 00000000 		.4byte	0
 13873 0ed6 00000000 		.4byte	0
 13874              	.LLST7:
 13875 0eda 08000000 		.4byte	.LVL26
 13876 0ede 1C000000 		.4byte	.LVL27
 13877 0ee2 0200     		.2byte	0x2
 13878 0ee4 31       		.byte	0x31
 13879 0ee5 9F       		.byte	0x9f
 13880 0ee6 1C000000 		.4byte	.LVL27
 13881 0eea 30000000 		.4byte	.LVL29
 13882 0eee 0100     		.2byte	0x1
 13883 0ef0 53       		.byte	0x53
 13884 0ef1 3E000000 		.4byte	.LVL30
 13885 0ef5 40000000 		.4byte	.LVL31
 13886 0ef9 0100     		.2byte	0x1
 13887 0efb 53       		.byte	0x53
 13888 0efc 46000000 		.4byte	.LVL32
 13889 0f00 4A000000 		.4byte	.LVL33
 13890 0f04 0200     		.2byte	0x2
 13891 0f06 31       		.byte	0x31
 13892 0f07 9F       		.byte	0x9f
 13893 0f08 00000000 		.4byte	0
 13894 0f0c 00000000 		.4byte	0
 13895              	.LLST8:
 13896 0f10 00000000 		.4byte	.LVL35
 13897 0f14 1E000000 		.4byte	.LVL37
 13898 0f18 0100     		.2byte	0x1
 13899 0f1a 50       		.byte	0x50
 13900 0f1b 1E000000 		.4byte	.LVL37
 13901 0f1f 32000000 		.4byte	.LVL39
 13902 0f23 0100     		.2byte	0x1
 13903 0f25 54       		.byte	0x54
 13904 0f26 32000000 		.4byte	.LVL39
 13905 0f2a 42000000 		.4byte	.LVL41
 13906 0f2e 0400     		.2byte	0x4
 13907 0f30 F3       		.byte	0xf3
 13908 0f31 01       		.uleb128 0x1
ARM GAS  C:\Users\mathi\AppData\Local\Temp\ccF8t5t9.s 			page 245


 13909 0f32 50       		.byte	0x50
 13910 0f33 9F       		.byte	0x9f
 13911 0f34 42000000 		.4byte	.LVL41
 13912 0f38 90000000 		.4byte	.LVL50
 13913 0f3c 0100     		.2byte	0x1
 13914 0f3e 54       		.byte	0x54
 13915 0f3f 90000000 		.4byte	.LVL50
 13916 0f43 94000000 		.4byte	.LVL51
 13917 0f47 0100     		.2byte	0x1
 13918 0f49 50       		.byte	0x50
 13919 0f4a 94000000 		.4byte	.LVL51
 13920 0f4e 9C000000 		.4byte	.LFE2
 13921 0f52 0400     		.2byte	0x4
 13922 0f54 F3       		.byte	0xf3
 13923 0f55 01       		.uleb128 0x1
 13924 0f56 50       		.byte	0x50
 13925 0f57 9F       		.byte	0x9f
 13926 0f58 00000000 		.4byte	0
 13927 0f5c 00000000 		.4byte	0
 13928              	.LLST9:
 13929 0f60 00000000 		.4byte	.LVL35
 13930 0f64 34000000 		.4byte	.LVL40
 13931 0f68 0100     		.2byte	0x1
 13932 0f6a 51       		.byte	0x51
 13933 0f6b 34000000 		.4byte	.LVL40
 13934 0f6f 42000000 		.4byte	.LVL41
 13935 0f73 0400     		.2byte	0x4
 13936 0f75 F3       		.byte	0xf3
 13937 0f76 01       		.uleb128 0x1
 13938 0f77 51       		.byte	0x51
 13939 0f78 9F       		.byte	0x9f
 13940 0f79 42000000 		.4byte	.LVL41
 13941 0f7d 52000000 		.4byte	.LVL44
 13942 0f81 0100     		.2byte	0x1
 13943 0f83 51       		.byte	0x51
 13944 0f84 52000000 		.4byte	.LVL44
 13945 0f88 7C000000 		.4byte	.LVL47
 13946 0f8c 0400     		.2byte	0x4
 13947 0f8e F3       		.byte	0xf3
 13948 0f8f 01       		.uleb128 0x1
 13949 0f90 51       		.byte	0x51
 13950 0f91 9F       		.byte	0x9f
 13951 0f92 7C000000 		.4byte	.LVL47
 13952 0f96 86000000 		.4byte	.LVL48
 13953 0f9a 0100     		.2byte	0x1
 13954 0f9c 51       		.byte	0x51
 13955 0f9d 86000000 		.4byte	.LVL48
 13956 0fa1 90000000 		.4byte	.LVL50
 13957 0fa5 0400     		.2byte	0x4
 13958 0fa7 F3       		.byte	0xf3
 13959 0fa8 01       		.uleb128 0x1
 13960 0fa9 51       		.byte	0x51
 13961 0faa 9F       		.byte	0x9f
 13962 0fab 90000000 		.4byte	.LVL50
 13963 0faf 94000000 		.4byte	.LVL51
 13964 0fb3 0100     		.2byte	0x1
 13965 0fb5 51       		.byte	0x51
ARM GAS  C:\Users\mathi\AppData\Local\Temp\ccF8t5t9.s 			page 246


 13966 0fb6 94000000 		.4byte	.LVL51
 13967 0fba 9C000000 		.4byte	.LFE2
 13968 0fbe 0400     		.2byte	0x4
 13969 0fc0 F3       		.byte	0xf3
 13970 0fc1 01       		.uleb128 0x1
 13971 0fc2 51       		.byte	0x51
 13972 0fc3 9F       		.byte	0x9f
 13973 0fc4 00000000 		.4byte	0
 13974 0fc8 00000000 		.4byte	0
 13975              	.LLST10:
 13976 0fcc 10000000 		.4byte	.LVL36
 13977 0fd0 34000000 		.4byte	.LVL40
 13978 0fd4 0100     		.2byte	0x1
 13979 0fd6 51       		.byte	0x51
 13980 0fd7 42000000 		.4byte	.LVL41
 13981 0fdb 48000000 		.4byte	.LVL43
 13982 0fdf 0100     		.2byte	0x1
 13983 0fe1 51       		.byte	0x51
 13984 0fe2 90000000 		.4byte	.LVL50
 13985 0fe6 94000000 		.4byte	.LVL51
 13986 0fea 0100     		.2byte	0x1
 13987 0fec 51       		.byte	0x51
 13988 0fed 00000000 		.4byte	0
 13989 0ff1 00000000 		.4byte	0
 13990              	.LLST11:
 13991 0ff5 10000000 		.4byte	.LVL36
 13992 0ff9 1E000000 		.4byte	.LVL37
 13993 0ffd 0100     		.2byte	0x1
 13994 0fff 50       		.byte	0x50
 13995 1000 1E000000 		.4byte	.LVL37
 13996 1004 32000000 		.4byte	.LVL39
 13997 1008 0100     		.2byte	0x1
 13998 100a 54       		.byte	0x54
 13999 100b 32000000 		.4byte	.LVL39
 14000 100f 34000000 		.4byte	.LVL40
 14001 1013 0400     		.2byte	0x4
 14002 1015 F3       		.byte	0xf3
 14003 1016 01       		.uleb128 0x1
 14004 1017 50       		.byte	0x50
 14005 1018 9F       		.byte	0x9f
 14006 1019 42000000 		.4byte	.LVL41
 14007 101d 48000000 		.4byte	.LVL43
 14008 1021 0100     		.2byte	0x1
 14009 1023 54       		.byte	0x54
 14010 1024 90000000 		.4byte	.LVL50
 14011 1028 94000000 		.4byte	.LVL51
 14012 102c 0100     		.2byte	0x1
 14013 102e 50       		.byte	0x50
 14014 102f 00000000 		.4byte	0
 14015 1033 00000000 		.4byte	0
 14016              	.LLST12:
 14017 1037 64000000 		.4byte	.LVL45
 14018 103b 7C000000 		.4byte	.LVL47
 14019 103f 0100     		.2byte	0x1
 14020 1041 54       		.byte	0x54
 14021 1042 00000000 		.4byte	0
 14022 1046 00000000 		.4byte	0
ARM GAS  C:\Users\mathi\AppData\Local\Temp\ccF8t5t9.s 			page 247


 14023              	.LLST13:
 14024 104a 00000000 		.4byte	.LVL53
 14025 104e 18000000 		.4byte	.LVL55
 14026 1052 0100     		.2byte	0x1
 14027 1054 50       		.byte	0x50
 14028 1055 18000000 		.4byte	.LVL55
 14029 1059 B0020000 		.4byte	.LFE5
 14030 105d 0100     		.2byte	0x1
 14031 105f 54       		.byte	0x54
 14032 1060 00000000 		.4byte	0
 14033 1064 00000000 		.4byte	0
 14034              	.LLST14:
 14035 1068 0C000000 		.4byte	.LVL54
 14036 106c 46000000 		.4byte	.LVL56
 14037 1070 0100     		.2byte	0x1
 14038 1072 55       		.byte	0x55
 14039 1073 46000000 		.4byte	.LVL56
 14040 1077 60000000 		.4byte	.LVL59
 14041 107b 0E00     		.2byte	0xe
 14042 107d 74       		.byte	0x74
 14043 107e 1A       		.sleb128 26
 14044 107f 94       		.byte	0x94
 14045 1080 02       		.byte	0x2
 14046 1081 0A       		.byte	0xa
 14047 1082 FFFF     		.2byte	0xffff
 14048 1084 1A       		.byte	0x1a
 14049 1085 31       		.byte	0x31
 14050 1086 24       		.byte	0x24
 14051 1087 74       		.byte	0x74
 14052 1088 04       		.sleb128 4
 14053 1089 06       		.byte	0x6
 14054 108a 22       		.byte	0x22
 14055 108b 74000000 		.4byte	.LVL61
 14056 108f 9C000000 		.4byte	.LVL63
 14057 1093 0100     		.2byte	0x1
 14058 1095 55       		.byte	0x55
 14059 1096 9C000000 		.4byte	.LVL63
 14060 109a 9E000000 		.4byte	.LVL64
 14061 109e 0800     		.2byte	0x8
 14062 10a0 71       		.byte	0x71
 14063 10a1 00       		.sleb128 0
 14064 10a2 31       		.byte	0x31
 14065 10a3 24       		.byte	0x24
 14066 10a4 74       		.byte	0x74
 14067 10a5 04       		.sleb128 4
 14068 10a6 06       		.byte	0x6
 14069 10a7 22       		.byte	0x22
 14070 10a8 AA000000 		.4byte	.LVL65
 14071 10ac D2000000 		.4byte	.LVL67
 14072 10b0 0100     		.2byte	0x1
 14073 10b2 55       		.byte	0x55
 14074 10b3 D2000000 		.4byte	.LVL67
 14075 10b7 D4000000 		.4byte	.LVL68
 14076 10bb 0E00     		.2byte	0xe
 14077 10bd 74       		.byte	0x74
 14078 10be 1A       		.sleb128 26
 14079 10bf 94       		.byte	0x94
ARM GAS  C:\Users\mathi\AppData\Local\Temp\ccF8t5t9.s 			page 248


 14080 10c0 02       		.byte	0x2
 14081 10c1 0A       		.byte	0xa
 14082 10c2 FFFF     		.2byte	0xffff
 14083 10c4 1A       		.byte	0x1a
 14084 10c5 31       		.byte	0x31
 14085 10c6 24       		.byte	0x24
 14086 10c7 74       		.byte	0x74
 14087 10c8 04       		.sleb128 4
 14088 10c9 06       		.byte	0x6
 14089 10ca 22       		.byte	0x22
 14090 10cb E4000000 		.4byte	.LVL69
 14091 10cf F2000000 		.4byte	.LVL70
 14092 10d3 0100     		.2byte	0x1
 14093 10d5 55       		.byte	0x55
 14094 10d6 04010000 		.4byte	.LVL71
 14095 10da 1E010000 		.4byte	.LVL74
 14096 10de 0100     		.2byte	0x1
 14097 10e0 55       		.byte	0x55
 14098 10e1 1E010000 		.4byte	.LVL74
 14099 10e5 2A010000 		.4byte	.LVL76
 14100 10e9 0800     		.2byte	0x8
 14101 10eb 71       		.byte	0x71
 14102 10ec 00       		.sleb128 0
 14103 10ed 31       		.byte	0x31
 14104 10ee 24       		.byte	0x24
 14105 10ef 74       		.byte	0x74
 14106 10f0 04       		.sleb128 4
 14107 10f1 06       		.byte	0x6
 14108 10f2 22       		.byte	0x22
 14109 10f3 32010000 		.4byte	.LVL77
 14110 10f7 52010000 		.4byte	.LVL81
 14111 10fb 0100     		.2byte	0x1
 14112 10fd 55       		.byte	0x55
 14113 10fe 52010000 		.4byte	.LVL81
 14114 1102 5E010000 		.4byte	.LVL83
 14115 1106 0800     		.2byte	0x8
 14116 1108 71       		.byte	0x71
 14117 1109 00       		.sleb128 0
 14118 110a 31       		.byte	0x31
 14119 110b 24       		.byte	0x24
 14120 110c 74       		.byte	0x74
 14121 110d 04       		.sleb128 4
 14122 110e 06       		.byte	0x6
 14123 110f 22       		.byte	0x22
 14124 1110 6C010000 		.4byte	.LVL84
 14125 1114 A2010000 		.4byte	.LVL89
 14126 1118 0100     		.2byte	0x1
 14127 111a 55       		.byte	0x55
 14128 111b A2010000 		.4byte	.LVL89
 14129 111f A4010000 		.4byte	.LVL90
 14130 1123 0700     		.2byte	0x7
 14131 1125 71       		.byte	0x71
 14132 1126 00       		.sleb128 0
 14133 1127 31       		.byte	0x31
 14134 1128 24       		.byte	0x24
 14135 1129 72       		.byte	0x72
 14136 112a 00       		.sleb128 0
ARM GAS  C:\Users\mathi\AppData\Local\Temp\ccF8t5t9.s 			page 249


 14137 112b 22       		.byte	0x22
 14138 112c A4010000 		.4byte	.LVL90
 14139 1130 A6010000 		.4byte	.LVL91
 14140 1134 0D00     		.2byte	0xd
 14141 1136 74       		.byte	0x74
 14142 1137 1A       		.sleb128 26
 14143 1138 94       		.byte	0x94
 14144 1139 02       		.byte	0x2
 14145 113a 0A       		.byte	0xa
 14146 113b FFFF     		.2byte	0xffff
 14147 113d 1A       		.byte	0x1a
 14148 113e 31       		.byte	0x31
 14149 113f 24       		.byte	0x24
 14150 1140 72       		.byte	0x72
 14151 1141 00       		.sleb128 0
 14152 1142 22       		.byte	0x22
 14153 1143 A8010000 		.4byte	.LVL92
 14154 1147 D2010000 		.4byte	.LVL98
 14155 114b 0100     		.2byte	0x1
 14156 114d 55       		.byte	0x55
 14157 114e EC010000 		.4byte	.LVL100
 14158 1152 2E020000 		.4byte	.LVL106
 14159 1156 0100     		.2byte	0x1
 14160 1158 55       		.byte	0x55
 14161 1159 2E020000 		.4byte	.LVL106
 14162 115d 30020000 		.4byte	.LVL107
 14163 1161 0800     		.2byte	0x8
 14164 1163 71       		.byte	0x71
 14165 1164 7F       		.sleb128 -1
 14166 1165 31       		.byte	0x31
 14167 1166 24       		.byte	0x24
 14168 1167 74       		.byte	0x74
 14169 1168 04       		.sleb128 4
 14170 1169 06       		.byte	0x6
 14171 116a 22       		.byte	0x22
 14172 116b 38020000 		.4byte	.LVL108
 14173 116f 4E020000 		.4byte	.LVL111
 14174 1173 0100     		.2byte	0x1
 14175 1175 55       		.byte	0x55
 14176 1176 56020000 		.4byte	.LVL112
 14177 117a 86020000 		.4byte	.LVL115
 14178 117e 0100     		.2byte	0x1
 14179 1180 55       		.byte	0x55
 14180 1181 86020000 		.4byte	.LVL115
 14181 1185 9A020000 		.4byte	.LVL122
 14182 1189 0E00     		.2byte	0xe
 14183 118b 74       		.byte	0x74
 14184 118c 1A       		.sleb128 26
 14185 118d 94       		.byte	0x94
 14186 118e 02       		.byte	0x2
 14187 118f 0A       		.byte	0xa
 14188 1190 FFFF     		.2byte	0xffff
 14189 1192 1A       		.byte	0x1a
 14190 1193 31       		.byte	0x31
 14191 1194 24       		.byte	0x24
 14192 1195 74       		.byte	0x74
 14193 1196 04       		.sleb128 4
ARM GAS  C:\Users\mathi\AppData\Local\Temp\ccF8t5t9.s 			page 250


 14194 1197 06       		.byte	0x6
 14195 1198 22       		.byte	0x22
 14196 1199 00000000 		.4byte	0
 14197 119d 00000000 		.4byte	0
 14198              	.LLST15:
 14199 11a1 4C000000 		.4byte	.LVL57
 14200 11a5 5C000000 		.4byte	.LVL58
 14201 11a9 0100     		.2byte	0x1
 14202 11ab 53       		.byte	0x53
 14203 11ac 5C000000 		.4byte	.LVL58
 14204 11b0 60000000 		.4byte	.LVL59
 14205 11b4 0700     		.2byte	0x7
 14206 11b6 71       		.byte	0x71
 14207 11b7 00       		.sleb128 0
 14208 11b8 31       		.byte	0x31
 14209 11b9 24       		.byte	0x24
 14210 11ba 72       		.byte	0x72
 14211 11bb 00       		.sleb128 0
 14212 11bc 22       		.byte	0x22
 14213 11bd 86020000 		.4byte	.LVL115
 14214 11c1 8C020000 		.4byte	.LVL116
 14215 11c5 0100     		.2byte	0x1
 14216 11c7 53       		.byte	0x53
 14217 11c8 8C020000 		.4byte	.LVL116
 14218 11cc 90020000 		.4byte	.LVL117
 14219 11d0 0700     		.2byte	0x7
 14220 11d2 71       		.byte	0x71
 14221 11d3 00       		.sleb128 0
 14222 11d4 31       		.byte	0x31
 14223 11d5 24       		.byte	0x24
 14224 11d6 72       		.byte	0x72
 14225 11d7 00       		.sleb128 0
 14226 11d8 22       		.byte	0x22
 14227 11d9 90020000 		.4byte	.LVL117
 14228 11dd 92020000 		.4byte	.LVL118
 14229 11e1 0100     		.2byte	0x1
 14230 11e3 53       		.byte	0x53
 14231 11e4 92020000 		.4byte	.LVL118
 14232 11e8 94020000 		.4byte	.LVL119
 14233 11ec 0700     		.2byte	0x7
 14234 11ee 71       		.byte	0x71
 14235 11ef 00       		.sleb128 0
 14236 11f0 31       		.byte	0x31
 14237 11f1 24       		.byte	0x24
 14238 11f2 72       		.byte	0x72
 14239 11f3 00       		.sleb128 0
 14240 11f4 22       		.byte	0x22
 14241 11f5 94020000 		.4byte	.LVL119
 14242 11f9 96020000 		.4byte	.LVL120
 14243 11fd 0100     		.2byte	0x1
 14244 11ff 53       		.byte	0x53
 14245 1200 96020000 		.4byte	.LVL120
 14246 1204 98020000 		.4byte	.LVL121
 14247 1208 0400     		.2byte	0x4
 14248 120a 73       		.byte	0x73
 14249 120b 00       		.sleb128 0
 14250 120c 1F       		.byte	0x1f
ARM GAS  C:\Users\mathi\AppData\Local\Temp\ccF8t5t9.s 			page 251


 14251 120d 9F       		.byte	0x9f
 14252 120e 98020000 		.4byte	.LVL121
 14253 1212 9A020000 		.4byte	.LVL122
 14254 1216 0700     		.2byte	0x7
 14255 1218 71       		.byte	0x71
 14256 1219 00       		.sleb128 0
 14257 121a 31       		.byte	0x31
 14258 121b 24       		.byte	0x24
 14259 121c 72       		.byte	0x72
 14260 121d 00       		.sleb128 0
 14261 121e 22       		.byte	0x22
 14262 121f 00000000 		.4byte	0
 14263 1223 00000000 		.4byte	0
 14264              	.LLST16:
 14265 1227 4C000000 		.4byte	.LVL57
 14266 122b 66000000 		.4byte	.LVL60
 14267 122f 0100     		.2byte	0x1
 14268 1231 54       		.byte	0x54
 14269 1232 86020000 		.4byte	.LVL115
 14270 1236 9A020000 		.4byte	.LVL122
 14271 123a 0100     		.2byte	0x1
 14272 123c 54       		.byte	0x54
 14273 123d 00000000 		.4byte	0
 14274 1241 00000000 		.4byte	0
 14275              	.LLST17:
 14276 1245 4C000000 		.4byte	.LVL57
 14277 1249 5C000000 		.4byte	.LVL58
 14278 124d 1400     		.2byte	0x14
 14279 124f 74       		.byte	0x74
 14280 1250 1A       		.sleb128 26
 14281 1251 94       		.byte	0x94
 14282 1252 02       		.byte	0x2
 14283 1253 0A       		.byte	0xa
 14284 1254 FFFF     		.2byte	0xffff
 14285 1256 1A       		.byte	0x1a
 14286 1257 31       		.byte	0x31
 14287 1258 24       		.byte	0x24
 14288 1259 74       		.byte	0x74
 14289 125a 04       		.sleb128 4
 14290 125b 06       		.byte	0x6
 14291 125c 22       		.byte	0x22
 14292 125d 94       		.byte	0x94
 14293 125e 02       		.byte	0x2
 14294 125f 08       		.byte	0x8
 14295 1260 FF       		.byte	0xff
 14296 1261 1A       		.byte	0x1a
 14297 1262 9F       		.byte	0x9f
 14298 1263 86020000 		.4byte	.LVL115
 14299 1267 9A020000 		.4byte	.LVL122
 14300 126b 1400     		.2byte	0x14
 14301 126d 74       		.byte	0x74
 14302 126e 1A       		.sleb128 26
 14303 126f 94       		.byte	0x94
 14304 1270 02       		.byte	0x2
 14305 1271 0A       		.byte	0xa
 14306 1272 FFFF     		.2byte	0xffff
 14307 1274 1A       		.byte	0x1a
ARM GAS  C:\Users\mathi\AppData\Local\Temp\ccF8t5t9.s 			page 252


 14308 1275 31       		.byte	0x31
 14309 1276 24       		.byte	0x24
 14310 1277 74       		.byte	0x74
 14311 1278 04       		.sleb128 4
 14312 1279 06       		.byte	0x6
 14313 127a 22       		.byte	0x22
 14314 127b 94       		.byte	0x94
 14315 127c 02       		.byte	0x2
 14316 127d 08       		.byte	0x8
 14317 127e FF       		.byte	0xff
 14318 127f 1A       		.byte	0x1a
 14319 1280 9F       		.byte	0x9f
 14320 1281 00000000 		.4byte	0
 14321 1285 00000000 		.4byte	0
 14322              	.LLST18:
 14323 1289 4C000000 		.4byte	.LVL57
 14324 128d 5C000000 		.4byte	.LVL58
 14325 1291 0100     		.2byte	0x1
 14326 1293 53       		.byte	0x53
 14327 1294 86020000 		.4byte	.LVL115
 14328 1298 8C020000 		.4byte	.LVL116
 14329 129c 0100     		.2byte	0x1
 14330 129e 53       		.byte	0x53
 14331 129f 8C020000 		.4byte	.LVL116
 14332 12a3 90020000 		.4byte	.LVL117
 14333 12a7 0700     		.2byte	0x7
 14334 12a9 71       		.byte	0x71
 14335 12aa 00       		.sleb128 0
 14336 12ab 31       		.byte	0x31
 14337 12ac 24       		.byte	0x24
 14338 12ad 72       		.byte	0x72
 14339 12ae 00       		.sleb128 0
 14340 12af 22       		.byte	0x22
 14341 12b0 90020000 		.4byte	.LVL117
 14342 12b4 92020000 		.4byte	.LVL118
 14343 12b8 0100     		.2byte	0x1
 14344 12ba 53       		.byte	0x53
 14345 12bb 92020000 		.4byte	.LVL118
 14346 12bf 94020000 		.4byte	.LVL119
 14347 12c3 0700     		.2byte	0x7
 14348 12c5 71       		.byte	0x71
 14349 12c6 00       		.sleb128 0
 14350 12c7 31       		.byte	0x31
 14351 12c8 24       		.byte	0x24
 14352 12c9 72       		.byte	0x72
 14353 12ca 00       		.sleb128 0
 14354 12cb 22       		.byte	0x22
 14355 12cc 94020000 		.4byte	.LVL119
 14356 12d0 96020000 		.4byte	.LVL120
 14357 12d4 0100     		.2byte	0x1
 14358 12d6 53       		.byte	0x53
 14359 12d7 96020000 		.4byte	.LVL120
 14360 12db 98020000 		.4byte	.LVL121
 14361 12df 0400     		.2byte	0x4
 14362 12e1 73       		.byte	0x73
 14363 12e2 00       		.sleb128 0
 14364 12e3 1F       		.byte	0x1f
ARM GAS  C:\Users\mathi\AppData\Local\Temp\ccF8t5t9.s 			page 253


 14365 12e4 9F       		.byte	0x9f
 14366 12e5 98020000 		.4byte	.LVL121
 14367 12e9 9A020000 		.4byte	.LVL122
 14368 12ed 0700     		.2byte	0x7
 14369 12ef 71       		.byte	0x71
 14370 12f0 00       		.sleb128 0
 14371 12f1 31       		.byte	0x31
 14372 12f2 24       		.byte	0x24
 14373 12f3 72       		.byte	0x72
 14374 12f4 00       		.sleb128 0
 14375 12f5 22       		.byte	0x22
 14376 12f6 00000000 		.4byte	0
 14377 12fa 00000000 		.4byte	0
 14378              	.LLST19:
 14379 12fe 90000000 		.4byte	.LVL62
 14380 1302 9C000000 		.4byte	.LVL63
 14381 1306 0700     		.2byte	0x7
 14382 1308 75       		.byte	0x75
 14383 1309 00       		.sleb128 0
 14384 130a 34       		.byte	0x34
 14385 130b 24       		.byte	0x24
 14386 130c 34       		.byte	0x34
 14387 130d 26       		.byte	0x26
 14388 130e 9F       		.byte	0x9f
 14389 130f 9C000000 		.4byte	.LVL63
 14390 1313 9E000000 		.4byte	.LVL64
 14391 1317 0F00     		.2byte	0xf
 14392 1319 71       		.byte	0x71
 14393 131a 00       		.sleb128 0
 14394 131b 31       		.byte	0x31
 14395 131c 24       		.byte	0x24
 14396 131d 74       		.byte	0x74
 14397 131e 04       		.sleb128 4
 14398 131f 06       		.byte	0x6
 14399 1320 22       		.byte	0x22
 14400 1321 94       		.byte	0x94
 14401 1322 02       		.byte	0x2
 14402 1323 34       		.byte	0x34
 14403 1324 24       		.byte	0x24
 14404 1325 34       		.byte	0x34
 14405 1326 26       		.byte	0x26
 14406 1327 9F       		.byte	0x9f
 14407 1328 00000000 		.4byte	0
 14408 132c 00000000 		.4byte	0
 14409              	.LLST20:
 14410 1330 C4000000 		.4byte	.LVL66
 14411 1334 D2000000 		.4byte	.LVL67
 14412 1338 0700     		.2byte	0x7
 14413 133a 75       		.byte	0x75
 14414 133b 00       		.sleb128 0
 14415 133c 0A       		.byte	0xa
 14416 133d FF0F     		.2byte	0xfff
 14417 133f 1A       		.byte	0x1a
 14418 1340 9F       		.byte	0x9f
 14419 1341 D2000000 		.4byte	.LVL67
 14420 1345 D4000000 		.4byte	.LVL68
 14421 1349 1500     		.2byte	0x15
ARM GAS  C:\Users\mathi\AppData\Local\Temp\ccF8t5t9.s 			page 254


 14422 134b 74       		.byte	0x74
 14423 134c 1A       		.sleb128 26
 14424 134d 94       		.byte	0x94
 14425 134e 02       		.byte	0x2
 14426 134f 0A       		.byte	0xa
 14427 1350 FFFF     		.2byte	0xffff
 14428 1352 1A       		.byte	0x1a
 14429 1353 31       		.byte	0x31
 14430 1354 24       		.byte	0x24
 14431 1355 74       		.byte	0x74
 14432 1356 04       		.sleb128 4
 14433 1357 06       		.byte	0x6
 14434 1358 22       		.byte	0x22
 14435 1359 94       		.byte	0x94
 14436 135a 02       		.byte	0x2
 14437 135b 0A       		.byte	0xa
 14438 135c FF0F     		.2byte	0xfff
 14439 135e 1A       		.byte	0x1a
 14440 135f 9F       		.byte	0x9f
 14441 1360 00000000 		.4byte	0
 14442 1364 00000000 		.4byte	0
 14443              	.LLST21:
 14444 1368 E4000000 		.4byte	.LVL69
 14445 136c F2000000 		.4byte	.LVL70
 14446 1370 0700     		.2byte	0x7
 14447 1372 75       		.byte	0x75
 14448 1373 00       		.sleb128 0
 14449 1374 0A       		.byte	0xa
 14450 1375 FF0F     		.2byte	0xfff
 14451 1377 1A       		.byte	0x1a
 14452 1378 9F       		.byte	0x9f
 14453 1379 00000000 		.4byte	0
 14454 137d 00000000 		.4byte	0
 14455              	.LLST22:
 14456 1381 04010000 		.4byte	.LVL71
 14457 1385 1E010000 		.4byte	.LVL74
 14458 1389 0700     		.2byte	0x7
 14459 138b 75       		.byte	0x75
 14460 138c 00       		.sleb128 0
 14461 138d 0A       		.byte	0xa
 14462 138e FF0F     		.2byte	0xfff
 14463 1390 1A       		.byte	0x1a
 14464 1391 9F       		.byte	0x9f
 14465 1392 1E010000 		.4byte	.LVL74
 14466 1396 2A010000 		.4byte	.LVL76
 14467 139a 0F00     		.2byte	0xf
 14468 139c 71       		.byte	0x71
 14469 139d 00       		.sleb128 0
 14470 139e 31       		.byte	0x31
 14471 139f 24       		.byte	0x24
 14472 13a0 74       		.byte	0x74
 14473 13a1 04       		.sleb128 4
 14474 13a2 06       		.byte	0x6
 14475 13a3 22       		.byte	0x22
 14476 13a4 94       		.byte	0x94
 14477 13a5 02       		.byte	0x2
 14478 13a6 0A       		.byte	0xa
ARM GAS  C:\Users\mathi\AppData\Local\Temp\ccF8t5t9.s 			page 255


 14479 13a7 FF0F     		.2byte	0xfff
 14480 13a9 1A       		.byte	0x1a
 14481 13aa 9F       		.byte	0x9f
 14482 13ab 00000000 		.4byte	0
 14483 13af 00000000 		.4byte	0
 14484              	.LLST23:
 14485 13b3 10010000 		.4byte	.LVL72
 14486 13b7 32010000 		.4byte	.LVL77
 14487 13bb 0100     		.2byte	0x1
 14488 13bd 5C       		.byte	0x5c
 14489 13be 00000000 		.4byte	0
 14490 13c2 00000000 		.4byte	0
 14491              	.LLST24:
 14492 13c6 14010000 		.4byte	.LVL73
 14493 13ca 22010000 		.4byte	.LVL75
 14494 13ce 0100     		.2byte	0x1
 14495 13d0 57       		.byte	0x57
 14496 13d1 22010000 		.4byte	.LVL75
 14497 13d5 2A010000 		.4byte	.LVL76
 14498 13d9 0700     		.2byte	0x7
 14499 13db 70       		.byte	0x70
 14500 13dc 00       		.sleb128 0
 14501 13dd 31       		.byte	0x31
 14502 13de 24       		.byte	0x24
 14503 13df 73       		.byte	0x73
 14504 13e0 00       		.sleb128 0
 14505 13e1 22       		.byte	0x22
 14506 13e2 00000000 		.4byte	0
 14507 13e6 00000000 		.4byte	0
 14508              	.LLST25:
 14509 13ea 32010000 		.4byte	.LVL77
 14510 13ee 52010000 		.4byte	.LVL81
 14511 13f2 0700     		.2byte	0x7
 14512 13f4 75       		.byte	0x75
 14513 13f5 00       		.sleb128 0
 14514 13f6 0A       		.byte	0xa
 14515 13f7 FF0F     		.2byte	0xfff
 14516 13f9 1A       		.byte	0x1a
 14517 13fa 9F       		.byte	0x9f
 14518 13fb 52010000 		.4byte	.LVL81
 14519 13ff 5E010000 		.4byte	.LVL83
 14520 1403 0F00     		.2byte	0xf
 14521 1405 71       		.byte	0x71
 14522 1406 00       		.sleb128 0
 14523 1407 31       		.byte	0x31
 14524 1408 24       		.byte	0x24
 14525 1409 74       		.byte	0x74
 14526 140a 04       		.sleb128 4
 14527 140b 06       		.byte	0x6
 14528 140c 22       		.byte	0x22
 14529 140d 94       		.byte	0x94
 14530 140e 02       		.byte	0x2
 14531 140f 0A       		.byte	0xa
 14532 1410 FF0F     		.2byte	0xfff
 14533 1412 1A       		.byte	0x1a
 14534 1413 9F       		.byte	0x9f
 14535 1414 00000000 		.4byte	0
ARM GAS  C:\Users\mathi\AppData\Local\Temp\ccF8t5t9.s 			page 256


 14536 1418 00000000 		.4byte	0
 14537              	.LLST26:
 14538 141c 3E010000 		.4byte	.LVL78
 14539 1420 6C010000 		.4byte	.LVL84
 14540 1424 0100     		.2byte	0x1
 14541 1426 5C       		.byte	0x5c
 14542 1427 00000000 		.4byte	0
 14543 142b 00000000 		.4byte	0
 14544              	.LLST27:
 14545 142f 42010000 		.4byte	.LVL79
 14546 1433 5A010000 		.4byte	.LVL82
 14547 1437 0100     		.2byte	0x1
 14548 1439 57       		.byte	0x57
 14549 143a 5A010000 		.4byte	.LVL82
 14550 143e 5E010000 		.4byte	.LVL83
 14551 1442 0D00     		.2byte	0xd
 14552 1444 74       		.byte	0x74
 14553 1445 1C       		.sleb128 28
 14554 1446 94       		.byte	0x94
 14555 1447 02       		.byte	0x2
 14556 1448 40       		.byte	0x40
 14557 1449 24       		.byte	0x24
 14558 144a 40       		.byte	0x40
 14559 144b 26       		.byte	0x26
 14560 144c 31       		.byte	0x31
 14561 144d 24       		.byte	0x24
 14562 144e 70       		.byte	0x70
 14563 144f 00       		.sleb128 0
 14564 1450 22       		.byte	0x22
 14565 1451 00000000 		.4byte	0
 14566 1455 00000000 		.4byte	0
 14567              	.LLST28:
 14568 1459 3E010000 		.4byte	.LVL78
 14569 145d 48010000 		.4byte	.LVL80
 14570 1461 0B00     		.2byte	0xb
 14571 1463 73       		.byte	0x73
 14572 1464 FFFFFFFF 		.sleb128 2147483647
 14572      07
 14573 1469 31       		.byte	0x31
 14574 146a 24       		.byte	0x24
 14575 146b 70       		.byte	0x70
 14576 146c 00       		.sleb128 0
 14577 146d 22       		.byte	0x22
 14578 146e 48010000 		.4byte	.LVL80
 14579 1472 5E010000 		.4byte	.LVL83
 14580 1476 1300     		.2byte	0x13
 14581 1478 74       		.byte	0x74
 14582 1479 1C       		.sleb128 28
 14583 147a 94       		.byte	0x94
 14584 147b 02       		.byte	0x2
 14585 147c 40       		.byte	0x40
 14586 147d 24       		.byte	0x24
 14587 147e 40       		.byte	0x40
 14588 147f 26       		.byte	0x26
 14589 1480 23       		.byte	0x23
 14590 1481 FFFFFFFF 		.uleb128 0x7fffffff
 14590      07
ARM GAS  C:\Users\mathi\AppData\Local\Temp\ccF8t5t9.s 			page 257


 14591 1486 31       		.byte	0x31
 14592 1487 24       		.byte	0x24
 14593 1488 70       		.byte	0x70
 14594 1489 00       		.sleb128 0
 14595 148a 22       		.byte	0x22
 14596 148b 00000000 		.4byte	0
 14597 148f 00000000 		.4byte	0
 14598              	.LLST29:
 14599 1493 72010000 		.4byte	.LVL85
 14600 1497 84010000 		.4byte	.LVL86
 14601 149b 0B00     		.2byte	0xb
 14602 149d 77       		.byte	0x77
 14603 149e FFFFFFFF 		.sleb128 2147483647
 14603      07
 14604 14a3 31       		.byte	0x31
 14605 14a4 24       		.byte	0x24
 14606 14a5 70       		.byte	0x70
 14607 14a6 00       		.sleb128 0
 14608 14a7 22       		.byte	0x22
 14609 14a8 84010000 		.4byte	.LVL86
 14610 14ac 87010000 		.4byte	.LVL87-1
 14611 14b0 0C00     		.2byte	0xc
 14612 14b2 77       		.byte	0x77
 14613 14b3 FFFFFFFF 		.sleb128 2147483647
 14613      07
 14614 14b8 31       		.byte	0x31
 14615 14b9 24       		.byte	0x24
 14616 14ba 70       		.byte	0x70
 14617 14bb 14       		.sleb128 20
 14618 14bc 06       		.byte	0x6
 14619 14bd 22       		.byte	0x22
 14620 14be 00000000 		.4byte	0
 14621 14c2 00000000 		.4byte	0
 14622              	.LLST30:
 14623 14c6 72010000 		.4byte	.LVL85
 14624 14ca 84010000 		.4byte	.LVL86
 14625 14ce 0D00     		.2byte	0xd
 14626 14d0 77       		.byte	0x77
 14627 14d1 FFFFFFFF 		.sleb128 2147483647
 14627      07
 14628 14d6 31       		.byte	0x31
 14629 14d7 24       		.byte	0x24
 14630 14d8 70       		.byte	0x70
 14631 14d9 00       		.sleb128 0
 14632 14da 22       		.byte	0x22
 14633 14db 23       		.byte	0x23
 14634 14dc 02       		.uleb128 0x2
 14635 14dd 84010000 		.4byte	.LVL86
 14636 14e1 87010000 		.4byte	.LVL87-1
 14637 14e5 0E00     		.2byte	0xe
 14638 14e7 77       		.byte	0x77
 14639 14e8 FFFFFFFF 		.sleb128 2147483647
 14639      07
 14640 14ed 31       		.byte	0x31
 14641 14ee 24       		.byte	0x24
 14642 14ef 70       		.byte	0x70
 14643 14f0 14       		.sleb128 20
ARM GAS  C:\Users\mathi\AppData\Local\Temp\ccF8t5t9.s 			page 258


 14644 14f1 06       		.byte	0x6
 14645 14f2 22       		.byte	0x22
 14646 14f3 23       		.byte	0x23
 14647 14f4 02       		.uleb128 0x2
 14648 14f5 00000000 		.4byte	0
 14649 14f9 00000000 		.4byte	0
 14650              	.LLST31:
 14651 14fd 88010000 		.4byte	.LVL87
 14652 1501 9E010000 		.4byte	.LVL88
 14653 1505 0100     		.2byte	0x1
 14654 1507 50       		.byte	0x50
 14655 1508 00000000 		.4byte	0
 14656 150c 00000000 		.4byte	0
 14657              	.LLST32:
 14658 1510 9E010000 		.4byte	.LVL88
 14659 1514 A2010000 		.4byte	.LVL89
 14660 1518 0700     		.2byte	0x7
 14661 151a 75       		.byte	0x75
 14662 151b 00       		.sleb128 0
 14663 151c 34       		.byte	0x34
 14664 151d 24       		.byte	0x24
 14665 151e 34       		.byte	0x34
 14666 151f 26       		.byte	0x26
 14667 1520 9F       		.byte	0x9f
 14668 1521 A2010000 		.4byte	.LVL89
 14669 1525 A4010000 		.4byte	.LVL90
 14670 1529 0E00     		.2byte	0xe
 14671 152b 71       		.byte	0x71
 14672 152c 00       		.sleb128 0
 14673 152d 31       		.byte	0x31
 14674 152e 24       		.byte	0x24
 14675 152f 72       		.byte	0x72
 14676 1530 00       		.sleb128 0
 14677 1531 22       		.byte	0x22
 14678 1532 94       		.byte	0x94
 14679 1533 02       		.byte	0x2
 14680 1534 34       		.byte	0x34
 14681 1535 24       		.byte	0x24
 14682 1536 34       		.byte	0x34
 14683 1537 26       		.byte	0x26
 14684 1538 9F       		.byte	0x9f
 14685 1539 A4010000 		.4byte	.LVL90
 14686 153d A6010000 		.4byte	.LVL91
 14687 1541 1400     		.2byte	0x14
 14688 1543 74       		.byte	0x74
 14689 1544 1A       		.sleb128 26
 14690 1545 94       		.byte	0x94
 14691 1546 02       		.byte	0x2
 14692 1547 0A       		.byte	0xa
 14693 1548 FFFF     		.2byte	0xffff
 14694 154a 1A       		.byte	0x1a
 14695 154b 31       		.byte	0x31
 14696 154c 24       		.byte	0x24
 14697 154d 72       		.byte	0x72
 14698 154e 00       		.sleb128 0
 14699 154f 22       		.byte	0x22
 14700 1550 94       		.byte	0x94
ARM GAS  C:\Users\mathi\AppData\Local\Temp\ccF8t5t9.s 			page 259


 14701 1551 02       		.byte	0x2
 14702 1552 34       		.byte	0x34
 14703 1553 24       		.byte	0x24
 14704 1554 34       		.byte	0x34
 14705 1555 26       		.byte	0x26
 14706 1556 9F       		.byte	0x9f
 14707 1557 00000000 		.4byte	0
 14708 155b 00000000 		.4byte	0
 14709              	.LLST33:
 14710 155f C4010000 		.4byte	.LVL97
 14711 1563 DA010000 		.4byte	.LVL99
 14712 1567 0100     		.2byte	0x1
 14713 1569 50       		.byte	0x50
 14714 156a 38020000 		.4byte	.LVL108
 14715 156e 48020000 		.4byte	.LVL110
 14716 1572 0100     		.2byte	0x1
 14717 1574 50       		.byte	0x50
 14718 1575 00000000 		.4byte	0
 14719 1579 00000000 		.4byte	0
 14720              	.LLST34:
 14721 157d AE010000 		.4byte	.LVL93
 14722 1581 B8010000 		.4byte	.LVL94
 14723 1585 0B00     		.2byte	0xb
 14724 1587 72       		.byte	0x72
 14725 1588 FFFFFFFF 		.sleb128 2147483647
 14725      07
 14726 158d 31       		.byte	0x31
 14727 158e 24       		.byte	0x24
 14728 158f 71       		.byte	0x71
 14729 1590 00       		.sleb128 0
 14730 1591 22       		.byte	0x22
 14731 1592 B8010000 		.4byte	.LVL94
 14732 1596 BC010000 		.4byte	.LVL95
 14733 159a 0700     		.2byte	0x7
 14734 159c 73       		.byte	0x73
 14735 159d 00       		.sleb128 0
 14736 159e 31       		.byte	0x31
 14737 159f 24       		.byte	0x24
 14738 15a0 71       		.byte	0x71
 14739 15a1 00       		.sleb128 0
 14740 15a2 22       		.byte	0x22
 14741 15a3 BC010000 		.4byte	.LVL95
 14742 15a7 C0010000 		.4byte	.LVL96
 14743 15ab 0800     		.2byte	0x8
 14744 15ad 73       		.byte	0x73
 14745 15ae 00       		.sleb128 0
 14746 15af 31       		.byte	0x31
 14747 15b0 24       		.byte	0x24
 14748 15b1 74       		.byte	0x74
 14749 15b2 14       		.sleb128 20
 14750 15b3 06       		.byte	0x6
 14751 15b4 22       		.byte	0x22
 14752 15b5 C0010000 		.4byte	.LVL96
 14753 15b9 C3010000 		.4byte	.LVL97-1
 14754 15bd 1400     		.2byte	0x14
 14755 15bf 74       		.byte	0x74
 14756 15c0 1C       		.sleb128 28
ARM GAS  C:\Users\mathi\AppData\Local\Temp\ccF8t5t9.s 			page 260


 14757 15c1 94       		.byte	0x94
 14758 15c2 02       		.byte	0x2
 14759 15c3 40       		.byte	0x40
 14760 15c4 24       		.byte	0x24
 14761 15c5 40       		.byte	0x40
 14762 15c6 26       		.byte	0x26
 14763 15c7 23       		.byte	0x23
 14764 15c8 FFFFFFFF 		.uleb128 0x7fffffff
 14764      07
 14765 15cd 31       		.byte	0x31
 14766 15ce 24       		.byte	0x24
 14767 15cf 74       		.byte	0x74
 14768 15d0 14       		.sleb128 20
 14769 15d1 06       		.byte	0x6
 14770 15d2 22       		.byte	0x22
 14771 15d3 00000000 		.4byte	0
 14772 15d7 00000000 		.4byte	0
 14773              	.LLST35:
 14774 15db AE010000 		.4byte	.LVL93
 14775 15df B8010000 		.4byte	.LVL94
 14776 15e3 0D00     		.2byte	0xd
 14777 15e5 72       		.byte	0x72
 14778 15e6 FFFFFFFF 		.sleb128 2147483647
 14778      07
 14779 15eb 31       		.byte	0x31
 14780 15ec 24       		.byte	0x24
 14781 15ed 71       		.byte	0x71
 14782 15ee 00       		.sleb128 0
 14783 15ef 22       		.byte	0x22
 14784 15f0 23       		.byte	0x23
 14785 15f1 02       		.uleb128 0x2
 14786 15f2 B8010000 		.4byte	.LVL94
 14787 15f6 BC010000 		.4byte	.LVL95
 14788 15fa 0900     		.2byte	0x9
 14789 15fc 73       		.byte	0x73
 14790 15fd 00       		.sleb128 0
 14791 15fe 31       		.byte	0x31
 14792 15ff 24       		.byte	0x24
 14793 1600 71       		.byte	0x71
 14794 1601 00       		.sleb128 0
 14795 1602 22       		.byte	0x22
 14796 1603 23       		.byte	0x23
 14797 1604 02       		.uleb128 0x2
 14798 1605 BC010000 		.4byte	.LVL95
 14799 1609 C0010000 		.4byte	.LVL96
 14800 160d 0A00     		.2byte	0xa
 14801 160f 73       		.byte	0x73
 14802 1610 00       		.sleb128 0
 14803 1611 31       		.byte	0x31
 14804 1612 24       		.byte	0x24
 14805 1613 74       		.byte	0x74
 14806 1614 14       		.sleb128 20
 14807 1615 06       		.byte	0x6
 14808 1616 22       		.byte	0x22
 14809 1617 23       		.byte	0x23
 14810 1618 02       		.uleb128 0x2
 14811 1619 C0010000 		.4byte	.LVL96
ARM GAS  C:\Users\mathi\AppData\Local\Temp\ccF8t5t9.s 			page 261


 14812 161d C3010000 		.4byte	.LVL97-1
 14813 1621 1600     		.2byte	0x16
 14814 1623 74       		.byte	0x74
 14815 1624 1C       		.sleb128 28
 14816 1625 94       		.byte	0x94
 14817 1626 02       		.byte	0x2
 14818 1627 40       		.byte	0x40
 14819 1628 24       		.byte	0x24
 14820 1629 40       		.byte	0x40
 14821 162a 26       		.byte	0x26
 14822 162b 23       		.byte	0x23
 14823 162c FFFFFFFF 		.uleb128 0x7fffffff
 14823      07
 14824 1631 31       		.byte	0x31
 14825 1632 24       		.byte	0x24
 14826 1633 74       		.byte	0x74
 14827 1634 14       		.sleb128 20
 14828 1635 06       		.byte	0x6
 14829 1636 22       		.byte	0x22
 14830 1637 23       		.byte	0x23
 14831 1638 02       		.uleb128 0x2
 14832 1639 00000000 		.4byte	0
 14833 163d 00000000 		.4byte	0
 14834              	.LLST36:
 14835 1641 46020000 		.4byte	.LVL109
 14836 1645 4E020000 		.4byte	.LVL111
 14837 1649 0100     		.2byte	0x1
 14838 164b 53       		.byte	0x53
 14839 164c A0020000 		.4byte	.LVL123
 14840 1650 A2020000 		.4byte	.LVL124
 14841 1654 0100     		.2byte	0x1
 14842 1656 53       		.byte	0x53
 14843 1657 00000000 		.4byte	0
 14844 165b 00000000 		.4byte	0
 14845              	.LLST37:
 14846 165f EC010000 		.4byte	.LVL100
 14847 1663 F0010000 		.4byte	.LVL101
 14848 1667 0700     		.2byte	0x7
 14849 1669 72       		.byte	0x72
 14850 166a 00       		.sleb128 0
 14851 166b 70       		.byte	0x70
 14852 166c 00       		.sleb128 0
 14853 166d 22       		.byte	0x22
 14854 166e 23       		.byte	0x23
 14855 166f 02       		.uleb128 0x2
 14856 1670 F0010000 		.4byte	.LVL101
 14857 1674 F4010000 		.4byte	.LVL102
 14858 1678 0800     		.2byte	0x8
 14859 167a 74       		.byte	0x74
 14860 167b 04       		.sleb128 4
 14861 167c 06       		.byte	0x6
 14862 167d 70       		.byte	0x70
 14863 167e 00       		.sleb128 0
 14864 167f 22       		.byte	0x22
 14865 1680 23       		.byte	0x23
 14866 1681 02       		.uleb128 0x2
 14867 1682 F4010000 		.4byte	.LVL102
ARM GAS  C:\Users\mathi\AppData\Local\Temp\ccF8t5t9.s 			page 262


 14868 1686 05020000 		.4byte	.LVL103-1
 14869 168a 1000     		.2byte	0x10
 14870 168c 74       		.byte	0x74
 14871 168d 1A       		.sleb128 26
 14872 168e 94       		.byte	0x94
 14873 168f 02       		.byte	0x2
 14874 1690 0A       		.byte	0xa
 14875 1691 FFFF     		.2byte	0xffff
 14876 1693 1A       		.byte	0x1a
 14877 1694 31       		.byte	0x31
 14878 1695 24       		.byte	0x24
 14879 1696 74       		.byte	0x74
 14880 1697 04       		.sleb128 4
 14881 1698 06       		.byte	0x6
 14882 1699 22       		.byte	0x22
 14883 169a 23       		.byte	0x23
 14884 169b 02       		.uleb128 0x2
 14885 169c 00000000 		.4byte	0
 14886 16a0 00000000 		.4byte	0
 14887              	.LLST38:
 14888 16a4 EC010000 		.4byte	.LVL100
 14889 16a8 F0010000 		.4byte	.LVL101
 14890 16ac 0700     		.2byte	0x7
 14891 16ae 72       		.byte	0x72
 14892 16af 00       		.sleb128 0
 14893 16b0 70       		.byte	0x70
 14894 16b1 00       		.sleb128 0
 14895 16b2 22       		.byte	0x22
 14896 16b3 23       		.byte	0x23
 14897 16b4 04       		.uleb128 0x4
 14898 16b5 F0010000 		.4byte	.LVL101
 14899 16b9 F4010000 		.4byte	.LVL102
 14900 16bd 0800     		.2byte	0x8
 14901 16bf 74       		.byte	0x74
 14902 16c0 04       		.sleb128 4
 14903 16c1 06       		.byte	0x6
 14904 16c2 70       		.byte	0x70
 14905 16c3 00       		.sleb128 0
 14906 16c4 22       		.byte	0x22
 14907 16c5 23       		.byte	0x23
 14908 16c6 04       		.uleb128 0x4
 14909 16c7 F4010000 		.4byte	.LVL102
 14910 16cb 05020000 		.4byte	.LVL103-1
 14911 16cf 1000     		.2byte	0x10
 14912 16d1 74       		.byte	0x74
 14913 16d2 1A       		.sleb128 26
 14914 16d3 94       		.byte	0x94
 14915 16d4 02       		.byte	0x2
 14916 16d5 0A       		.byte	0xa
 14917 16d6 FFFF     		.2byte	0xffff
 14918 16d8 1A       		.byte	0x1a
 14919 16d9 31       		.byte	0x31
 14920 16da 24       		.byte	0x24
 14921 16db 74       		.byte	0x74
 14922 16dc 04       		.sleb128 4
 14923 16dd 06       		.byte	0x6
 14924 16de 22       		.byte	0x22
ARM GAS  C:\Users\mathi\AppData\Local\Temp\ccF8t5t9.s 			page 263


 14925 16df 23       		.byte	0x23
 14926 16e0 04       		.uleb128 0x4
 14927 16e1 00000000 		.4byte	0
 14928 16e5 00000000 		.4byte	0
 14929              	.LLST39:
 14930 16e9 20020000 		.4byte	.LVL105
 14931 16ed 2E020000 		.4byte	.LVL106
 14932 16f1 0700     		.2byte	0x7
 14933 16f3 75       		.byte	0x75
 14934 16f4 00       		.sleb128 0
 14935 16f5 0A       		.byte	0xa
 14936 16f6 FF0F     		.2byte	0xfff
 14937 16f8 1A       		.byte	0x1a
 14938 16f9 9F       		.byte	0x9f
 14939 16fa 2E020000 		.4byte	.LVL106
 14940 16fe 30020000 		.4byte	.LVL107
 14941 1702 0F00     		.2byte	0xf
 14942 1704 71       		.byte	0x71
 14943 1705 7F       		.sleb128 -1
 14944 1706 31       		.byte	0x31
 14945 1707 24       		.byte	0x24
 14946 1708 74       		.byte	0x74
 14947 1709 04       		.sleb128 4
 14948 170a 06       		.byte	0x6
 14949 170b 22       		.byte	0x22
 14950 170c 94       		.byte	0x94
 14951 170d 02       		.byte	0x2
 14952 170e 0A       		.byte	0xa
 14953 170f FF0F     		.2byte	0xfff
 14954 1711 1A       		.byte	0x1a
 14955 1712 9F       		.byte	0x9f
 14956 1713 00000000 		.4byte	0
 14957 1717 00000000 		.4byte	0
 14958              	.LLST43:
 14959 171b 00000000 		.4byte	.LVL135
 14960 171f 0A000000 		.4byte	.LVL136
 14961 1723 0100     		.2byte	0x1
 14962 1725 50       		.byte	0x50
 14963 1726 0A000000 		.4byte	.LVL136
 14964 172a B6000000 		.4byte	.LVL154
 14965 172e 0100     		.2byte	0x1
 14966 1730 53       		.byte	0x53
 14967 1731 B6000000 		.4byte	.LVL154
 14968 1735 BE000000 		.4byte	.LVL155
 14969 1739 0400     		.2byte	0x4
 14970 173b F3       		.byte	0xf3
 14971 173c 01       		.uleb128 0x1
 14972 173d 50       		.byte	0x50
 14973 173e 9F       		.byte	0x9f
 14974 173f BE000000 		.4byte	.LVL155
 14975 1743 CA000000 		.4byte	.LVL156
 14976 1747 0100     		.2byte	0x1
 14977 1749 53       		.byte	0x53
 14978 174a CA000000 		.4byte	.LVL156
 14979 174e D4000000 		.4byte	.LFE7
 14980 1752 0400     		.2byte	0x4
 14981 1754 F3       		.byte	0xf3
ARM GAS  C:\Users\mathi\AppData\Local\Temp\ccF8t5t9.s 			page 264


 14982 1755 01       		.uleb128 0x1
 14983 1756 50       		.byte	0x50
 14984 1757 9F       		.byte	0x9f
 14985 1758 00000000 		.4byte	0
 14986 175c 00000000 		.4byte	0
 14987              	.LLST44:
 14988 1760 0E000000 		.4byte	.LVL137
 14989 1764 1A000000 		.4byte	.LVL138
 14990 1768 0200     		.2byte	0x2
 14991 176a 30       		.byte	0x30
 14992 176b 9F       		.byte	0x9f
 14993 176c 1A000000 		.4byte	.LVL138
 14994 1770 24000000 		.4byte	.LVL139
 14995 1774 0200     		.2byte	0x2
 14996 1776 31       		.byte	0x31
 14997 1777 9F       		.byte	0x9f
 14998 1778 24000000 		.4byte	.LVL139
 14999 177c 2E000000 		.4byte	.LVL140
 15000 1780 0200     		.2byte	0x2
 15001 1782 32       		.byte	0x32
 15002 1783 9F       		.byte	0x9f
 15003 1784 2E000000 		.4byte	.LVL140
 15004 1788 38000000 		.4byte	.LVL141
 15005 178c 0200     		.2byte	0x2
 15006 178e 33       		.byte	0x33
 15007 178f 9F       		.byte	0x9f
 15008 1790 38000000 		.4byte	.LVL141
 15009 1794 42000000 		.4byte	.LVL142
 15010 1798 0200     		.2byte	0x2
 15011 179a 34       		.byte	0x34
 15012 179b 9F       		.byte	0x9f
 15013 179c 42000000 		.4byte	.LVL142
 15014 17a0 4C000000 		.4byte	.LVL143
 15015 17a4 0200     		.2byte	0x2
 15016 17a6 35       		.byte	0x35
 15017 17a7 9F       		.byte	0x9f
 15018 17a8 4C000000 		.4byte	.LVL143
 15019 17ac 56000000 		.4byte	.LVL144
 15020 17b0 0200     		.2byte	0x2
 15021 17b2 36       		.byte	0x36
 15022 17b3 9F       		.byte	0x9f
 15023 17b4 56000000 		.4byte	.LVL144
 15024 17b8 60000000 		.4byte	.LVL145
 15025 17bc 0200     		.2byte	0x2
 15026 17be 37       		.byte	0x37
 15027 17bf 9F       		.byte	0x9f
 15028 17c0 60000000 		.4byte	.LVL145
 15029 17c4 6A000000 		.4byte	.LVL146
 15030 17c8 0200     		.2byte	0x2
 15031 17ca 38       		.byte	0x38
 15032 17cb 9F       		.byte	0x9f
 15033 17cc 6A000000 		.4byte	.LVL146
 15034 17d0 74000000 		.4byte	.LVL147
 15035 17d4 0200     		.2byte	0x2
 15036 17d6 39       		.byte	0x39
 15037 17d7 9F       		.byte	0x9f
 15038 17d8 74000000 		.4byte	.LVL147
ARM GAS  C:\Users\mathi\AppData\Local\Temp\ccF8t5t9.s 			page 265


 15039 17dc 7E000000 		.4byte	.LVL148
 15040 17e0 0200     		.2byte	0x2
 15041 17e2 3A       		.byte	0x3a
 15042 17e3 9F       		.byte	0x9f
 15043 17e4 7E000000 		.4byte	.LVL148
 15044 17e8 88000000 		.4byte	.LVL149
 15045 17ec 0200     		.2byte	0x2
 15046 17ee 3B       		.byte	0x3b
 15047 17ef 9F       		.byte	0x9f
 15048 17f0 88000000 		.4byte	.LVL149
 15049 17f4 92000000 		.4byte	.LVL150
 15050 17f8 0200     		.2byte	0x2
 15051 17fa 3C       		.byte	0x3c
 15052 17fb 9F       		.byte	0x9f
 15053 17fc 92000000 		.4byte	.LVL150
 15054 1800 9C000000 		.4byte	.LVL151
 15055 1804 0200     		.2byte	0x2
 15056 1806 3D       		.byte	0x3d
 15057 1807 9F       		.byte	0x9f
 15058 1808 9C000000 		.4byte	.LVL151
 15059 180c A6000000 		.4byte	.LVL152
 15060 1810 0200     		.2byte	0x2
 15061 1812 3E       		.byte	0x3e
 15062 1813 9F       		.byte	0x9f
 15063 1814 A6000000 		.4byte	.LVL152
 15064 1818 B0000000 		.4byte	.LVL153
 15065 181c 0200     		.2byte	0x2
 15066 181e 3F       		.byte	0x3f
 15067 181f 9F       		.byte	0x9f
 15068 1820 00000000 		.4byte	0
 15069 1824 00000000 		.4byte	0
 15070              	.LLST45:
 15071 1828 00000000 		.4byte	.LVL158
 15072 182c 2A000000 		.4byte	.LVL159
 15073 1830 0100     		.2byte	0x1
 15074 1832 50       		.byte	0x50
 15075 1833 2A000000 		.4byte	.LVL159
 15076 1837 D4000000 		.4byte	.LVL172
 15077 183b 0100     		.2byte	0x1
 15078 183d 54       		.byte	0x54
 15079 183e D4000000 		.4byte	.LVL172
 15080 1842 EE000000 		.4byte	.LVL173
 15081 1846 0100     		.2byte	0x1
 15082 1848 50       		.byte	0x50
 15083 1849 EE000000 		.4byte	.LVL173
 15084 184d E4050000 		.4byte	.LFE8
 15085 1851 0100     		.2byte	0x1
 15086 1853 54       		.byte	0x54
 15087 1854 00000000 		.4byte	0
 15088 1858 00000000 		.4byte	0
 15089              	.LLST46:
 15090 185c 00000000 		.4byte	.LVL158
 15091 1860 2A000000 		.4byte	.LVL159
 15092 1864 0100     		.2byte	0x1
 15093 1866 51       		.byte	0x51
 15094 1867 2A000000 		.4byte	.LVL159
 15095 186b 60000000 		.4byte	.LVL161
ARM GAS  C:\Users\mathi\AppData\Local\Temp\ccF8t5t9.s 			page 266


 15096 186f 0400     		.2byte	0x4
 15097 1871 F3       		.byte	0xf3
 15098 1872 01       		.uleb128 0x1
 15099 1873 51       		.byte	0x51
 15100 1874 9F       		.byte	0x9f
 15101 1875 60000000 		.4byte	.LVL161
 15102 1879 B6000000 		.4byte	.LVL169
 15103 187d 0100     		.2byte	0x1
 15104 187f 55       		.byte	0x55
 15105 1880 BA000000 		.4byte	.LVL170
 15106 1884 BE000000 		.4byte	.LVL171
 15107 1888 0100     		.2byte	0x1
 15108 188a 55       		.byte	0x55
 15109 188b D4000000 		.4byte	.LVL172
 15110 188f EE000000 		.4byte	.LVL173
 15111 1893 0100     		.2byte	0x1
 15112 1895 51       		.byte	0x51
 15113 1896 EE000000 		.4byte	.LVL173
 15114 189a 0E030000 		.4byte	.LVL221
 15115 189e 0100     		.2byte	0x1
 15116 18a0 55       		.byte	0x55
 15117 18a1 0E030000 		.4byte	.LVL221
 15118 18a5 14050000 		.4byte	.LVL291
 15119 18a9 0400     		.2byte	0x4
 15120 18ab F3       		.byte	0xf3
 15121 18ac 01       		.uleb128 0x1
 15122 18ad 51       		.byte	0x51
 15123 18ae 9F       		.byte	0x9f
 15124 18af 14050000 		.4byte	.LVL291
 15125 18b3 44050000 		.4byte	.LVL294
 15126 18b7 0100     		.2byte	0x1
 15127 18b9 55       		.byte	0x55
 15128 18ba 44050000 		.4byte	.LVL294
 15129 18be 78050000 		.4byte	.LVL298
 15130 18c2 0400     		.2byte	0x4
 15131 18c4 F3       		.byte	0xf3
 15132 18c5 01       		.uleb128 0x1
 15133 18c6 51       		.byte	0x51
 15134 18c7 9F       		.byte	0x9f
 15135 18c8 78050000 		.4byte	.LVL298
 15136 18cc 90050000 		.4byte	.LVL301
 15137 18d0 0100     		.2byte	0x1
 15138 18d2 55       		.byte	0x55
 15139 18d3 90050000 		.4byte	.LVL301
 15140 18d7 A8050000 		.4byte	.LVL304
 15141 18db 0400     		.2byte	0x4
 15142 18dd F3       		.byte	0xf3
 15143 18de 01       		.uleb128 0x1
 15144 18df 51       		.byte	0x51
 15145 18e0 9F       		.byte	0x9f
 15146 18e1 A8050000 		.4byte	.LVL304
 15147 18e5 AC050000 		.4byte	.LVL306
 15148 18e9 0100     		.2byte	0x1
 15149 18eb 55       		.byte	0x55
 15150 18ec AC050000 		.4byte	.LVL306
 15151 18f0 B0050000 		.4byte	.LVL308
 15152 18f4 0400     		.2byte	0x4
ARM GAS  C:\Users\mathi\AppData\Local\Temp\ccF8t5t9.s 			page 267


 15153 18f6 F3       		.byte	0xf3
 15154 18f7 01       		.uleb128 0x1
 15155 18f8 51       		.byte	0x51
 15156 18f9 9F       		.byte	0x9f
 15157 18fa B0050000 		.4byte	.LVL308
 15158 18fe C0050000 		.4byte	.LVL313
 15159 1902 0100     		.2byte	0x1
 15160 1904 55       		.byte	0x55
 15161 1905 C0050000 		.4byte	.LVL313
 15162 1909 D0050000 		.4byte	.LVL318
 15163 190d 0400     		.2byte	0x4
 15164 190f F3       		.byte	0xf3
 15165 1910 01       		.uleb128 0x1
 15166 1911 51       		.byte	0x51
 15167 1912 9F       		.byte	0x9f
 15168 1913 D0050000 		.4byte	.LVL318
 15169 1917 D8050000 		.4byte	.LVL320
 15170 191b 0100     		.2byte	0x1
 15171 191d 55       		.byte	0x55
 15172 191e D8050000 		.4byte	.LVL320
 15173 1922 E0050000 		.4byte	.LVL322
 15174 1926 0400     		.2byte	0x4
 15175 1928 F3       		.byte	0xf3
 15176 1929 01       		.uleb128 0x1
 15177 192a 51       		.byte	0x51
 15178 192b 9F       		.byte	0x9f
 15179 192c 00000000 		.4byte	0
 15180 1930 00000000 		.4byte	0
 15181              	.LLST47:
 15182 1934 0A040000 		.4byte	.LVL252
 15183 1938 20040000 		.4byte	.LVL255
 15184 193c 0100     		.2byte	0x1
 15185 193e 54       		.byte	0x54
 15186 193f AC050000 		.4byte	.LVL306
 15187 1943 B0050000 		.4byte	.LVL308
 15188 1947 0100     		.2byte	0x1
 15189 1949 54       		.byte	0x54
 15190 194a C0050000 		.4byte	.LVL313
 15191 194e D0050000 		.4byte	.LVL318
 15192 1952 0100     		.2byte	0x1
 15193 1954 54       		.byte	0x54
 15194 1955 00000000 		.4byte	0
 15195 1959 00000000 		.4byte	0
 15196              	.LLST48:
 15197 195d 0A040000 		.4byte	.LVL252
 15198 1961 1A040000 		.4byte	.LVL253
 15199 1965 1300     		.2byte	0x13
 15200 1967 74       		.byte	0x74
 15201 1968 1A       		.sleb128 26
 15202 1969 94       		.byte	0x94
 15203 196a 02       		.byte	0x2
 15204 196b 0A       		.byte	0xa
 15205 196c FFFF     		.2byte	0xffff
 15206 196e 1A       		.byte	0x1a
 15207 196f 31       		.byte	0x31
 15208 1970 24       		.byte	0x24
 15209 1971 70       		.byte	0x70
ARM GAS  C:\Users\mathi\AppData\Local\Temp\ccF8t5t9.s 			page 268


 15210 1972 00       		.sleb128 0
 15211 1973 22       		.byte	0x22
 15212 1974 94       		.byte	0x94
 15213 1975 02       		.byte	0x2
 15214 1976 08       		.byte	0x8
 15215 1977 FF       		.byte	0xff
 15216 1978 1A       		.byte	0x1a
 15217 1979 9F       		.byte	0x9f
 15218 197a AC050000 		.4byte	.LVL306
 15219 197e B0050000 		.4byte	.LVL308
 15220 1982 1300     		.2byte	0x13
 15221 1984 74       		.byte	0x74
 15222 1985 1A       		.sleb128 26
 15223 1986 94       		.byte	0x94
 15224 1987 02       		.byte	0x2
 15225 1988 0A       		.byte	0xa
 15226 1989 FFFF     		.2byte	0xffff
 15227 198b 1A       		.byte	0x1a
 15228 198c 31       		.byte	0x31
 15229 198d 24       		.byte	0x24
 15230 198e 70       		.byte	0x70
 15231 198f 00       		.sleb128 0
 15232 1990 22       		.byte	0x22
 15233 1991 94       		.byte	0x94
 15234 1992 02       		.byte	0x2
 15235 1993 08       		.byte	0x8
 15236 1994 FF       		.byte	0xff
 15237 1995 1A       		.byte	0x1a
 15238 1996 9F       		.byte	0x9f
 15239 1997 C0050000 		.4byte	.LVL313
 15240 199b D0050000 		.4byte	.LVL318
 15241 199f 1300     		.2byte	0x13
 15242 19a1 74       		.byte	0x74
 15243 19a2 1A       		.sleb128 26
 15244 19a3 94       		.byte	0x94
 15245 19a4 02       		.byte	0x2
 15246 19a5 0A       		.byte	0xa
 15247 19a6 FFFF     		.2byte	0xffff
 15248 19a8 1A       		.byte	0x1a
 15249 19a9 31       		.byte	0x31
 15250 19aa 24       		.byte	0x24
 15251 19ab 70       		.byte	0x70
 15252 19ac 00       		.sleb128 0
 15253 19ad 22       		.byte	0x22
 15254 19ae 94       		.byte	0x94
 15255 19af 02       		.byte	0x2
 15256 19b0 08       		.byte	0x8
 15257 19b1 FF       		.byte	0xff
 15258 19b2 1A       		.byte	0x1a
 15259 19b3 9F       		.byte	0x9f
 15260 19b4 00000000 		.4byte	0
 15261 19b8 00000000 		.4byte	0
 15262              	.LLST49:
 15263 19bc 0A040000 		.4byte	.LVL252
 15264 19c0 1A040000 		.4byte	.LVL253
 15265 19c4 0100     		.2byte	0x1
 15266 19c6 53       		.byte	0x53
ARM GAS  C:\Users\mathi\AppData\Local\Temp\ccF8t5t9.s 			page 269


 15267 19c7 AC050000 		.4byte	.LVL306
 15268 19cb AE050000 		.4byte	.LVL307
 15269 19cf 0100     		.2byte	0x1
 15270 19d1 53       		.byte	0x53
 15271 19d2 AE050000 		.4byte	.LVL307
 15272 19d6 B0050000 		.4byte	.LVL308
 15273 19da 0400     		.2byte	0x4
 15274 19dc 73       		.byte	0x73
 15275 19dd 00       		.sleb128 0
 15276 19de 20       		.byte	0x20
 15277 19df 9F       		.byte	0x9f
 15278 19e0 C0050000 		.4byte	.LVL313
 15279 19e4 C2050000 		.4byte	.LVL314
 15280 19e8 0100     		.2byte	0x1
 15281 19ea 53       		.byte	0x53
 15282 19eb C2050000 		.4byte	.LVL314
 15283 19ef C4050000 		.4byte	.LVL315
 15284 19f3 0400     		.2byte	0x4
 15285 19f5 73       		.byte	0x73
 15286 19f6 00       		.sleb128 0
 15287 19f7 1F       		.byte	0x1f
 15288 19f8 9F       		.byte	0x9f
 15289 19f9 C4050000 		.4byte	.LVL315
 15290 19fd C6050000 		.4byte	.LVL316
 15291 1a01 0700     		.2byte	0x7
 15292 1a03 71       		.byte	0x71
 15293 1a04 00       		.sleb128 0
 15294 1a05 31       		.byte	0x31
 15295 1a06 24       		.byte	0x24
 15296 1a07 72       		.byte	0x72
 15297 1a08 00       		.sleb128 0
 15298 1a09 22       		.byte	0x22
 15299 1a0a C6050000 		.4byte	.LVL316
 15300 1a0e CC050000 		.4byte	.LVL317
 15301 1a12 0100     		.2byte	0x1
 15302 1a14 53       		.byte	0x53
 15303 1a15 CC050000 		.4byte	.LVL317
 15304 1a19 D0050000 		.4byte	.LVL318
 15305 1a1d 0700     		.2byte	0x7
 15306 1a1f 71       		.byte	0x71
 15307 1a20 00       		.sleb128 0
 15308 1a21 31       		.byte	0x31
 15309 1a22 24       		.byte	0x24
 15310 1a23 72       		.byte	0x72
 15311 1a24 00       		.sleb128 0
 15312 1a25 22       		.byte	0x22
 15313 1a26 00000000 		.4byte	0
 15314 1a2a 00000000 		.4byte	0
 15315              	.LLST50:
 15316 1a2e 60000000 		.4byte	.LVL161
 15317 1a32 B0000000 		.4byte	.LVL168
 15318 1a36 0100     		.2byte	0x1
 15319 1a38 54       		.byte	0x54
 15320 1a39 EE000000 		.4byte	.LVL173
 15321 1a3d 0E030000 		.4byte	.LVL221
 15322 1a41 0100     		.2byte	0x1
 15323 1a43 54       		.byte	0x54
ARM GAS  C:\Users\mathi\AppData\Local\Temp\ccF8t5t9.s 			page 270


 15324 1a44 14050000 		.4byte	.LVL291
 15325 1a48 44050000 		.4byte	.LVL294
 15326 1a4c 0100     		.2byte	0x1
 15327 1a4e 54       		.byte	0x54
 15328 1a4f 78050000 		.4byte	.LVL298
 15329 1a53 90050000 		.4byte	.LVL301
 15330 1a57 0100     		.2byte	0x1
 15331 1a59 54       		.byte	0x54
 15332 1a5a A8050000 		.4byte	.LVL304
 15333 1a5e AC050000 		.4byte	.LVL306
 15334 1a62 0100     		.2byte	0x1
 15335 1a64 54       		.byte	0x54
 15336 1a65 B0050000 		.4byte	.LVL308
 15337 1a69 C0050000 		.4byte	.LVL313
 15338 1a6d 0100     		.2byte	0x1
 15339 1a6f 54       		.byte	0x54
 15340 1a70 D0050000 		.4byte	.LVL318
 15341 1a74 D8050000 		.4byte	.LVL320
 15342 1a78 0100     		.2byte	0x1
 15343 1a7a 54       		.byte	0x54
 15344 1a7b 00000000 		.4byte	0
 15345 1a7f 00000000 		.4byte	0
 15346              	.LLST51:
 15347 1a83 04020000 		.4byte	.LVL193
 15348 1a87 24020000 		.4byte	.LVL196
 15349 1a8b 0100     		.2byte	0x1
 15350 1a8d 54       		.byte	0x54
 15351 1a8e A8050000 		.4byte	.LVL304
 15352 1a92 AC050000 		.4byte	.LVL306
 15353 1a96 0100     		.2byte	0x1
 15354 1a98 54       		.byte	0x54
 15355 1a99 B0050000 		.4byte	.LVL308
 15356 1a9d C0050000 		.4byte	.LVL313
 15357 1aa1 0100     		.2byte	0x1
 15358 1aa3 54       		.byte	0x54
 15359 1aa4 00000000 		.4byte	0
 15360 1aa8 00000000 		.4byte	0
 15361              	.LLST52:
 15362 1aac 04020000 		.4byte	.LVL193
 15363 1ab0 16020000 		.4byte	.LVL194
 15364 1ab4 1300     		.2byte	0x13
 15365 1ab6 74       		.byte	0x74
 15366 1ab7 1A       		.sleb128 26
 15367 1ab8 94       		.byte	0x94
 15368 1ab9 02       		.byte	0x2
 15369 1aba 0A       		.byte	0xa
 15370 1abb FFFF     		.2byte	0xffff
 15371 1abd 1A       		.byte	0x1a
 15372 1abe 31       		.byte	0x31
 15373 1abf 24       		.byte	0x24
 15374 1ac0 70       		.byte	0x70
 15375 1ac1 00       		.sleb128 0
 15376 1ac2 22       		.byte	0x22
 15377 1ac3 94       		.byte	0x94
 15378 1ac4 02       		.byte	0x2
 15379 1ac5 08       		.byte	0x8
 15380 1ac6 FF       		.byte	0xff
ARM GAS  C:\Users\mathi\AppData\Local\Temp\ccF8t5t9.s 			page 271


 15381 1ac7 1A       		.byte	0x1a
 15382 1ac8 9F       		.byte	0x9f
 15383 1ac9 A8050000 		.4byte	.LVL304
 15384 1acd AC050000 		.4byte	.LVL306
 15385 1ad1 1300     		.2byte	0x13
 15386 1ad3 74       		.byte	0x74
 15387 1ad4 1A       		.sleb128 26
 15388 1ad5 94       		.byte	0x94
 15389 1ad6 02       		.byte	0x2
 15390 1ad7 0A       		.byte	0xa
 15391 1ad8 FFFF     		.2byte	0xffff
 15392 1ada 1A       		.byte	0x1a
 15393 1adb 31       		.byte	0x31
 15394 1adc 24       		.byte	0x24
 15395 1add 70       		.byte	0x70
 15396 1ade 00       		.sleb128 0
 15397 1adf 22       		.byte	0x22
 15398 1ae0 94       		.byte	0x94
 15399 1ae1 02       		.byte	0x2
 15400 1ae2 08       		.byte	0x8
 15401 1ae3 FF       		.byte	0xff
 15402 1ae4 1A       		.byte	0x1a
 15403 1ae5 9F       		.byte	0x9f
 15404 1ae6 B0050000 		.4byte	.LVL308
 15405 1aea C0050000 		.4byte	.LVL313
 15406 1aee 1300     		.2byte	0x13
 15407 1af0 74       		.byte	0x74
 15408 1af1 1A       		.sleb128 26
 15409 1af2 94       		.byte	0x94
 15410 1af3 02       		.byte	0x2
 15411 1af4 0A       		.byte	0xa
 15412 1af5 FFFF     		.2byte	0xffff
 15413 1af7 1A       		.byte	0x1a
 15414 1af8 31       		.byte	0x31
 15415 1af9 24       		.byte	0x24
 15416 1afa 70       		.byte	0x70
 15417 1afb 00       		.sleb128 0
 15418 1afc 22       		.byte	0x22
 15419 1afd 94       		.byte	0x94
 15420 1afe 02       		.byte	0x2
 15421 1aff 08       		.byte	0x8
 15422 1b00 FF       		.byte	0xff
 15423 1b01 1A       		.byte	0x1a
 15424 1b02 9F       		.byte	0x9f
 15425 1b03 00000000 		.4byte	0
 15426 1b07 00000000 		.4byte	0
 15427              	.LLST53:
 15428 1b0b 04020000 		.4byte	.LVL193
 15429 1b0f 16020000 		.4byte	.LVL194
 15430 1b13 0100     		.2byte	0x1
 15431 1b15 53       		.byte	0x53
 15432 1b16 A8050000 		.4byte	.LVL304
 15433 1b1a AA050000 		.4byte	.LVL305
 15434 1b1e 0100     		.2byte	0x1
 15435 1b20 53       		.byte	0x53
 15436 1b21 AA050000 		.4byte	.LVL305
 15437 1b25 AC050000 		.4byte	.LVL306
ARM GAS  C:\Users\mathi\AppData\Local\Temp\ccF8t5t9.s 			page 272


 15438 1b29 0400     		.2byte	0x4
 15439 1b2b 73       		.byte	0x73
 15440 1b2c 00       		.sleb128 0
 15441 1b2d 20       		.byte	0x20
 15442 1b2e 9F       		.byte	0x9f
 15443 1b2f B0050000 		.4byte	.LVL308
 15444 1b33 B2050000 		.4byte	.LVL309
 15445 1b37 0100     		.2byte	0x1
 15446 1b39 53       		.byte	0x53
 15447 1b3a B2050000 		.4byte	.LVL309
 15448 1b3e B4050000 		.4byte	.LVL310
 15449 1b42 0400     		.2byte	0x4
 15450 1b44 73       		.byte	0x73
 15451 1b45 00       		.sleb128 0
 15452 1b46 1F       		.byte	0x1f
 15453 1b47 9F       		.byte	0x9f
 15454 1b48 B4050000 		.4byte	.LVL310
 15455 1b4c B6050000 		.4byte	.LVL311
 15456 1b50 0700     		.2byte	0x7
 15457 1b52 71       		.byte	0x71
 15458 1b53 00       		.sleb128 0
 15459 1b54 31       		.byte	0x31
 15460 1b55 24       		.byte	0x24
 15461 1b56 72       		.byte	0x72
 15462 1b57 00       		.sleb128 0
 15463 1b58 22       		.byte	0x22
 15464 1b59 B6050000 		.4byte	.LVL311
 15465 1b5d BC050000 		.4byte	.LVL312
 15466 1b61 0100     		.2byte	0x1
 15467 1b63 53       		.byte	0x53
 15468 1b64 BC050000 		.4byte	.LVL312
 15469 1b68 C0050000 		.4byte	.LVL313
 15470 1b6c 0700     		.2byte	0x7
 15471 1b6e 71       		.byte	0x71
 15472 1b6f 00       		.sleb128 0
 15473 1b70 31       		.byte	0x31
 15474 1b71 24       		.byte	0x24
 15475 1b72 72       		.byte	0x72
 15476 1b73 00       		.sleb128 0
 15477 1b74 22       		.byte	0x22
 15478 1b75 00000000 		.4byte	0
 15479 1b79 00000000 		.4byte	0
 15480              	.LLST54:
 15481 1b7d 00000000 		.4byte	.LVL324
 15482 1b81 28000000 		.4byte	.LVL326
 15483 1b85 0100     		.2byte	0x1
 15484 1b87 50       		.byte	0x50
 15485 1b88 28000000 		.4byte	.LVL326
 15486 1b8c E8010000 		.4byte	.LFE9
 15487 1b90 0100     		.2byte	0x1
 15488 1b92 54       		.byte	0x54
 15489 1b93 00000000 		.4byte	0
 15490 1b97 00000000 		.4byte	0
 15491              	.LLST55:
 15492 1b9b 00000000 		.4byte	.LVL324
 15493 1b9f 26000000 		.4byte	.LVL325
 15494 1ba3 0100     		.2byte	0x1
ARM GAS  C:\Users\mathi\AppData\Local\Temp\ccF8t5t9.s 			page 273


 15495 1ba5 51       		.byte	0x51
 15496 1ba6 26000000 		.4byte	.LVL325
 15497 1baa F0000000 		.4byte	.LVL344
 15498 1bae 0100     		.2byte	0x1
 15499 1bb0 57       		.byte	0x57
 15500 1bb1 F4000000 		.4byte	.LVL345
 15501 1bb5 FA000000 		.4byte	.LVL346
 15502 1bb9 0100     		.2byte	0x1
 15503 1bbb 57       		.byte	0x57
 15504 1bbc 02010000 		.4byte	.LVL347
 15505 1bc0 B6010000 		.4byte	.LVL365
 15506 1bc4 0400     		.2byte	0x4
 15507 1bc6 F3       		.byte	0xf3
 15508 1bc7 01       		.uleb128 0x1
 15509 1bc8 51       		.byte	0x51
 15510 1bc9 9F       		.byte	0x9f
 15511 1bca 00000000 		.4byte	0
 15512 1bce 00000000 		.4byte	0
 15513              	.LLST56:
 15514 1bd2 BC010000 		.4byte	.LVL366
 15515 1bd6 D2010000 		.4byte	.LVL367
 15516 1bda 0100     		.2byte	0x1
 15517 1bdc 54       		.byte	0x54
 15518 1bdd 00000000 		.4byte	0
 15519 1be1 00000000 		.4byte	0
 15520              	.LLST72:
 15521 1be5 00000000 		.4byte	.LVL586
 15522 1be9 1A000000 		.4byte	.LVL587
 15523 1bed 0100     		.2byte	0x1
 15524 1bef 50       		.byte	0x50
 15525 1bf0 1A000000 		.4byte	.LVL587
 15526 1bf4 28000000 		.4byte	.LVL589
 15527 1bf8 0400     		.2byte	0x4
 15528 1bfa F3       		.byte	0xf3
 15529 1bfb 01       		.uleb128 0x1
 15530 1bfc 50       		.byte	0x50
 15531 1bfd 9F       		.byte	0x9f
 15532 1bfe 28000000 		.4byte	.LVL589
 15533 1c02 2A000000 		.4byte	.LVL590
 15534 1c06 0100     		.2byte	0x1
 15535 1c08 50       		.byte	0x50
 15536 1c09 2A000000 		.4byte	.LVL590
 15537 1c0d 34000000 		.4byte	.LFE11
 15538 1c11 0400     		.2byte	0x4
 15539 1c13 F3       		.byte	0xf3
 15540 1c14 01       		.uleb128 0x1
 15541 1c15 50       		.byte	0x50
 15542 1c16 9F       		.byte	0x9f
 15543 1c17 00000000 		.4byte	0
 15544 1c1b 00000000 		.4byte	0
 15545              	.LLST73:
 15546 1c1f 00000000 		.4byte	.LVL586
 15547 1c23 1E000000 		.4byte	.LVL588
 15548 1c27 0100     		.2byte	0x1
 15549 1c29 51       		.byte	0x51
 15550 1c2a 1E000000 		.4byte	.LVL588
 15551 1c2e 28000000 		.4byte	.LVL589
ARM GAS  C:\Users\mathi\AppData\Local\Temp\ccF8t5t9.s 			page 274


 15552 1c32 0400     		.2byte	0x4
 15553 1c34 F3       		.byte	0xf3
 15554 1c35 01       		.uleb128 0x1
 15555 1c36 51       		.byte	0x51
 15556 1c37 9F       		.byte	0x9f
 15557 1c38 28000000 		.4byte	.LVL589
 15558 1c3c 2C000000 		.4byte	.LVL591
 15559 1c40 0100     		.2byte	0x1
 15560 1c42 51       		.byte	0x51
 15561 1c43 2C000000 		.4byte	.LVL591
 15562 1c47 34000000 		.4byte	.LFE11
 15563 1c4b 0400     		.2byte	0x4
 15564 1c4d F3       		.byte	0xf3
 15565 1c4e 01       		.uleb128 0x1
 15566 1c4f 51       		.byte	0x51
 15567 1c50 9F       		.byte	0x9f
 15568 1c51 00000000 		.4byte	0
 15569 1c55 00000000 		.4byte	0
 15570              	.LLST74:
 15571 1c59 00000000 		.4byte	.LVL593
 15572 1c5d AE000000 		.4byte	.LVL611
 15573 1c61 0100     		.2byte	0x1
 15574 1c63 50       		.byte	0x50
 15575 1c64 AE000000 		.4byte	.LVL611
 15576 1c68 BC000000 		.4byte	.LVL612
 15577 1c6c 0400     		.2byte	0x4
 15578 1c6e F3       		.byte	0xf3
 15579 1c6f 01       		.uleb128 0x1
 15580 1c70 50       		.byte	0x50
 15581 1c71 9F       		.byte	0x9f
 15582 1c72 BC000000 		.4byte	.LVL612
 15583 1c76 DE000000 		.4byte	.LVL617
 15584 1c7a 0100     		.2byte	0x1
 15585 1c7c 50       		.byte	0x50
 15586 1c7d DE000000 		.4byte	.LVL617
 15587 1c81 E6000000 		.4byte	.LVL619
 15588 1c85 0400     		.2byte	0x4
 15589 1c87 F3       		.byte	0xf3
 15590 1c88 01       		.uleb128 0x1
 15591 1c89 50       		.byte	0x50
 15592 1c8a 9F       		.byte	0x9f
 15593 1c8b E6000000 		.4byte	.LVL619
 15594 1c8f 22010000 		.4byte	.LVL634
 15595 1c93 0100     		.2byte	0x1
 15596 1c95 50       		.byte	0x50
 15597 1c96 22010000 		.4byte	.LVL634
 15598 1c9a 2C010000 		.4byte	.LFE12
 15599 1c9e 0400     		.2byte	0x4
 15600 1ca0 F3       		.byte	0xf3
 15601 1ca1 01       		.uleb128 0x1
 15602 1ca2 50       		.byte	0x50
 15603 1ca3 9F       		.byte	0x9f
 15604 1ca4 00000000 		.4byte	0
 15605 1ca8 00000000 		.4byte	0
 15606              	.LLST75:
 15607 1cac 00000000 		.4byte	.LVL593
 15608 1cb0 AE000000 		.4byte	.LVL611
ARM GAS  C:\Users\mathi\AppData\Local\Temp\ccF8t5t9.s 			page 275


 15609 1cb4 0100     		.2byte	0x1
 15610 1cb6 51       		.byte	0x51
 15611 1cb7 AE000000 		.4byte	.LVL611
 15612 1cbb BC000000 		.4byte	.LVL612
 15613 1cbf 0400     		.2byte	0x4
 15614 1cc1 F3       		.byte	0xf3
 15615 1cc2 01       		.uleb128 0x1
 15616 1cc3 51       		.byte	0x51
 15617 1cc4 9F       		.byte	0x9f
 15618 1cc5 BC000000 		.4byte	.LVL612
 15619 1cc9 C0000000 		.4byte	.LVL614
 15620 1ccd 0100     		.2byte	0x1
 15621 1ccf 51       		.byte	0x51
 15622 1cd0 C0000000 		.4byte	.LVL614
 15623 1cd4 E6000000 		.4byte	.LVL619
 15624 1cd8 0400     		.2byte	0x4
 15625 1cda F3       		.byte	0xf3
 15626 1cdb 01       		.uleb128 0x1
 15627 1cdc 51       		.byte	0x51
 15628 1cdd 9F       		.byte	0x9f
 15629 1cde E6000000 		.4byte	.LVL619
 15630 1ce2 22010000 		.4byte	.LVL634
 15631 1ce6 0100     		.2byte	0x1
 15632 1ce8 51       		.byte	0x51
 15633 1ce9 22010000 		.4byte	.LVL634
 15634 1ced 2C010000 		.4byte	.LFE12
 15635 1cf1 0400     		.2byte	0x4
 15636 1cf3 F3       		.byte	0xf3
 15637 1cf4 01       		.uleb128 0x1
 15638 1cf5 51       		.byte	0x51
 15639 1cf6 9F       		.byte	0x9f
 15640 1cf7 00000000 		.4byte	0
 15641 1cfb 00000000 		.4byte	0
 15642              	.LLST76:
 15643 1cff 0C000000 		.4byte	.LVL594
 15644 1d03 16000000 		.4byte	.LVL595
 15645 1d07 0200     		.2byte	0x2
 15646 1d09 30       		.byte	0x30
 15647 1d0a 9F       		.byte	0x9f
 15648 1d0b 16000000 		.4byte	.LVL595
 15649 1d0f 20000000 		.4byte	.LVL596
 15650 1d13 0200     		.2byte	0x2
 15651 1d15 31       		.byte	0x31
 15652 1d16 9F       		.byte	0x9f
 15653 1d17 20000000 		.4byte	.LVL596
 15654 1d1b 2A000000 		.4byte	.LVL597
 15655 1d1f 0200     		.2byte	0x2
 15656 1d21 32       		.byte	0x32
 15657 1d22 9F       		.byte	0x9f
 15658 1d23 2A000000 		.4byte	.LVL597
 15659 1d27 34000000 		.4byte	.LVL598
 15660 1d2b 0200     		.2byte	0x2
 15661 1d2d 33       		.byte	0x33
 15662 1d2e 9F       		.byte	0x9f
 15663 1d2f 34000000 		.4byte	.LVL598
 15664 1d33 3E000000 		.4byte	.LVL599
 15665 1d37 0200     		.2byte	0x2
ARM GAS  C:\Users\mathi\AppData\Local\Temp\ccF8t5t9.s 			page 276


 15666 1d39 34       		.byte	0x34
 15667 1d3a 9F       		.byte	0x9f
 15668 1d3b 3E000000 		.4byte	.LVL599
 15669 1d3f 48000000 		.4byte	.LVL600
 15670 1d43 0200     		.2byte	0x2
 15671 1d45 35       		.byte	0x35
 15672 1d46 9F       		.byte	0x9f
 15673 1d47 48000000 		.4byte	.LVL600
 15674 1d4b 52000000 		.4byte	.LVL601
 15675 1d4f 0200     		.2byte	0x2
 15676 1d51 36       		.byte	0x36
 15677 1d52 9F       		.byte	0x9f
 15678 1d53 52000000 		.4byte	.LVL601
 15679 1d57 5C000000 		.4byte	.LVL602
 15680 1d5b 0200     		.2byte	0x2
 15681 1d5d 37       		.byte	0x37
 15682 1d5e 9F       		.byte	0x9f
 15683 1d5f 5C000000 		.4byte	.LVL602
 15684 1d63 66000000 		.4byte	.LVL603
 15685 1d67 0200     		.2byte	0x2
 15686 1d69 38       		.byte	0x38
 15687 1d6a 9F       		.byte	0x9f
 15688 1d6b 66000000 		.4byte	.LVL603
 15689 1d6f 70000000 		.4byte	.LVL604
 15690 1d73 0200     		.2byte	0x2
 15691 1d75 39       		.byte	0x39
 15692 1d76 9F       		.byte	0x9f
 15693 1d77 70000000 		.4byte	.LVL604
 15694 1d7b 7A000000 		.4byte	.LVL605
 15695 1d7f 0200     		.2byte	0x2
 15696 1d81 3A       		.byte	0x3a
 15697 1d82 9F       		.byte	0x9f
 15698 1d83 7A000000 		.4byte	.LVL605
 15699 1d87 84000000 		.4byte	.LVL606
 15700 1d8b 0200     		.2byte	0x2
 15701 1d8d 3B       		.byte	0x3b
 15702 1d8e 9F       		.byte	0x9f
 15703 1d8f 84000000 		.4byte	.LVL606
 15704 1d93 8E000000 		.4byte	.LVL607
 15705 1d97 0200     		.2byte	0x2
 15706 1d99 3C       		.byte	0x3c
 15707 1d9a 9F       		.byte	0x9f
 15708 1d9b 8E000000 		.4byte	.LVL607
 15709 1d9f 98000000 		.4byte	.LVL608
 15710 1da3 0200     		.2byte	0x2
 15711 1da5 3D       		.byte	0x3d
 15712 1da6 9F       		.byte	0x9f
 15713 1da7 98000000 		.4byte	.LVL608
 15714 1dab A2000000 		.4byte	.LVL609
 15715 1daf 0200     		.2byte	0x2
 15716 1db1 3E       		.byte	0x3e
 15717 1db2 9F       		.byte	0x9f
 15718 1db3 A2000000 		.4byte	.LVL609
 15719 1db7 AC000000 		.4byte	.LVL610
 15720 1dbb 0200     		.2byte	0x2
 15721 1dbd 3F       		.byte	0x3f
 15722 1dbe 9F       		.byte	0x9f
ARM GAS  C:\Users\mathi\AppData\Local\Temp\ccF8t5t9.s 			page 277


 15723 1dbf BC000000 		.4byte	.LVL612
 15724 1dc3 BE000000 		.4byte	.LVL613
 15725 1dc7 0200     		.2byte	0x2
 15726 1dc9 30       		.byte	0x30
 15727 1dca 9F       		.byte	0x9f
 15728 1dcb E6000000 		.4byte	.LVL619
 15729 1dcf EA000000 		.4byte	.LVL620
 15730 1dd3 0200     		.2byte	0x2
 15731 1dd5 31       		.byte	0x31
 15732 1dd6 9F       		.byte	0x9f
 15733 1dd7 EA000000 		.4byte	.LVL620
 15734 1ddb EE000000 		.4byte	.LVL621
 15735 1ddf 0200     		.2byte	0x2
 15736 1de1 32       		.byte	0x32
 15737 1de2 9F       		.byte	0x9f
 15738 1de3 EE000000 		.4byte	.LVL621
 15739 1de7 F2000000 		.4byte	.LVL622
 15740 1deb 0200     		.2byte	0x2
 15741 1ded 3F       		.byte	0x3f
 15742 1dee 9F       		.byte	0x9f
 15743 1def F2000000 		.4byte	.LVL622
 15744 1df3 F6000000 		.4byte	.LVL623
 15745 1df7 0200     		.2byte	0x2
 15746 1df9 33       		.byte	0x33
 15747 1dfa 9F       		.byte	0x9f
 15748 1dfb F6000000 		.4byte	.LVL623
 15749 1dff FA000000 		.4byte	.LVL624
 15750 1e03 0200     		.2byte	0x2
 15751 1e05 34       		.byte	0x34
 15752 1e06 9F       		.byte	0x9f
 15753 1e07 FA000000 		.4byte	.LVL624
 15754 1e0b FE000000 		.4byte	.LVL625
 15755 1e0f 0200     		.2byte	0x2
 15756 1e11 35       		.byte	0x35
 15757 1e12 9F       		.byte	0x9f
 15758 1e13 FE000000 		.4byte	.LVL625
 15759 1e17 02010000 		.4byte	.LVL626
 15760 1e1b 0200     		.2byte	0x2
 15761 1e1d 36       		.byte	0x36
 15762 1e1e 9F       		.byte	0x9f
 15763 1e1f 02010000 		.4byte	.LVL626
 15764 1e23 06010000 		.4byte	.LVL627
 15765 1e27 0200     		.2byte	0x2
 15766 1e29 37       		.byte	0x37
 15767 1e2a 9F       		.byte	0x9f
 15768 1e2b 06010000 		.4byte	.LVL627
 15769 1e2f 0A010000 		.4byte	.LVL628
 15770 1e33 0200     		.2byte	0x2
 15771 1e35 38       		.byte	0x38
 15772 1e36 9F       		.byte	0x9f
 15773 1e37 0A010000 		.4byte	.LVL628
 15774 1e3b 0E010000 		.4byte	.LVL629
 15775 1e3f 0200     		.2byte	0x2
 15776 1e41 39       		.byte	0x39
 15777 1e42 9F       		.byte	0x9f
 15778 1e43 0E010000 		.4byte	.LVL629
 15779 1e47 12010000 		.4byte	.LVL630
ARM GAS  C:\Users\mathi\AppData\Local\Temp\ccF8t5t9.s 			page 278


 15780 1e4b 0200     		.2byte	0x2
 15781 1e4d 3A       		.byte	0x3a
 15782 1e4e 9F       		.byte	0x9f
 15783 1e4f 12010000 		.4byte	.LVL630
 15784 1e53 16010000 		.4byte	.LVL631
 15785 1e57 0200     		.2byte	0x2
 15786 1e59 3B       		.byte	0x3b
 15787 1e5a 9F       		.byte	0x9f
 15788 1e5b 16010000 		.4byte	.LVL631
 15789 1e5f 1A010000 		.4byte	.LVL632
 15790 1e63 0200     		.2byte	0x2
 15791 1e65 3C       		.byte	0x3c
 15792 1e66 9F       		.byte	0x9f
 15793 1e67 1A010000 		.4byte	.LVL632
 15794 1e6b 1E010000 		.4byte	.LVL633
 15795 1e6f 0200     		.2byte	0x2
 15796 1e71 3D       		.byte	0x3d
 15797 1e72 9F       		.byte	0x9f
 15798 1e73 1E010000 		.4byte	.LVL633
 15799 1e77 22010000 		.4byte	.LVL634
 15800 1e7b 0200     		.2byte	0x2
 15801 1e7d 3E       		.byte	0x3e
 15802 1e7e 9F       		.byte	0x9f
 15803 1e7f 00000000 		.4byte	0
 15804 1e83 00000000 		.4byte	0
 15805              	.LLST77:
 15806 1e87 C6000000 		.4byte	.LVL615
 15807 1e8b D2000000 		.4byte	.LVL616
 15808 1e8f 0100     		.2byte	0x1
 15809 1e91 52       		.byte	0x52
 15810 1e92 00000000 		.4byte	0
 15811 1e96 00000000 		.4byte	0
 15812              	.LLST78:
 15813 1e9a 00000000 		.4byte	.LVL636
 15814 1e9e 1F000000 		.4byte	.LVL637-1
 15815 1ea2 0100     		.2byte	0x1
 15816 1ea4 50       		.byte	0x50
 15817 1ea5 1F000000 		.4byte	.LVL637-1
 15818 1ea9 24000000 		.4byte	.LFE13
 15819 1ead 0400     		.2byte	0x4
 15820 1eaf F3       		.byte	0xf3
 15821 1eb0 01       		.uleb128 0x1
 15822 1eb1 50       		.byte	0x50
 15823 1eb2 9F       		.byte	0x9f
 15824 1eb3 00000000 		.4byte	0
 15825 1eb7 00000000 		.4byte	0
 15826              	.LLST79:
 15827 1ebb 00000000 		.4byte	.LVL638
 15828 1ebf 21000000 		.4byte	.LVL639-1
 15829 1ec3 0100     		.2byte	0x1
 15830 1ec5 50       		.byte	0x50
 15831 1ec6 21000000 		.4byte	.LVL639-1
 15832 1eca 38000000 		.4byte	.LFE14
 15833 1ece 0400     		.2byte	0x4
 15834 1ed0 F3       		.byte	0xf3
 15835 1ed1 01       		.uleb128 0x1
 15836 1ed2 50       		.byte	0x50
ARM GAS  C:\Users\mathi\AppData\Local\Temp\ccF8t5t9.s 			page 279


 15837 1ed3 9F       		.byte	0x9f
 15838 1ed4 00000000 		.4byte	0
 15839 1ed8 00000000 		.4byte	0
 15840              		.section	.debug_aranges,"",%progbits
 15841 0000 94000000 		.4byte	0x94
 15842 0004 0200     		.2byte	0x2
 15843 0006 00000000 		.4byte	.Ldebug_info0
 15844 000a 04       		.byte	0x4
 15845 000b 00       		.byte	0
 15846 000c 0000     		.2byte	0
 15847 000e 0000     		.2byte	0
 15848 0010 00000000 		.4byte	.LFB3
 15849 0014 FC000000 		.4byte	.LFE3-.LFB3
 15850 0018 00000000 		.4byte	.LFB0
 15851 001c 34000000 		.4byte	.LFE0-.LFB0
 15852 0020 00000000 		.4byte	.LFB1
 15853 0024 54000000 		.4byte	.LFE1-.LFB1
 15854 0028 00000000 		.4byte	.LFB2
 15855 002c 9C000000 		.4byte	.LFE2-.LFB2
 15856 0030 00000000 		.4byte	.LFB5
 15857 0034 B0020000 		.4byte	.LFE5-.LFB5
 15858 0038 00000000 		.4byte	.LFB6
 15859 003c 84000000 		.4byte	.LFE6-.LFB6
 15860 0040 00000000 		.4byte	.LFB7
 15861 0044 D4000000 		.4byte	.LFE7-.LFB7
 15862 0048 00000000 		.4byte	.LFB8
 15863 004c E4050000 		.4byte	.LFE8-.LFB8
 15864 0050 00000000 		.4byte	.LFB9
 15865 0054 E8010000 		.4byte	.LFE9-.LFB9
 15866 0058 00000000 		.4byte	.LFB10
 15867 005c D4070000 		.4byte	.LFE10-.LFB10
 15868 0060 00000000 		.4byte	.LFB11
 15869 0064 34000000 		.4byte	.LFE11-.LFB11
 15870 0068 00000000 		.4byte	.LFB12
 15871 006c 2C010000 		.4byte	.LFE12-.LFB12
 15872 0070 00000000 		.4byte	.LFB13
 15873 0074 24000000 		.4byte	.LFE13-.LFB13
 15874 0078 00000000 		.4byte	.LFB14
 15875 007c 38000000 		.4byte	.LFE14-.LFB14
 15876 0080 00000000 		.4byte	.LFB16
 15877 0084 D6030000 		.4byte	.LFE16-.LFB16
 15878 0088 00000000 		.4byte	.LFB17
 15879 008c 80000000 		.4byte	.LFE17-.LFB17
 15880 0090 00000000 		.4byte	0
 15881 0094 00000000 		.4byte	0
 15882              		.section	.debug_ranges,"",%progbits
 15883              	.Ldebug_ranges0:
 15884 0000 02000000 		.4byte	.LBB65
 15885 0004 04000000 		.4byte	.LBE65
 15886 0008 06000000 		.4byte	.LBB72
 15887 000c 08000000 		.4byte	.LBE72
 15888 0010 0C000000 		.4byte	.LBB73
 15889 0014 0E000000 		.4byte	.LBE73
 15890 0018 10000000 		.4byte	.LBB74
 15891 001c 34000000 		.4byte	.LBE74
 15892 0020 46000000 		.4byte	.LBB75
 15893 0024 48000000 		.4byte	.LBE75
ARM GAS  C:\Users\mathi\AppData\Local\Temp\ccF8t5t9.s 			page 280


 15894 0028 90000000 		.4byte	.LBB78
 15895 002c 94000000 		.4byte	.LBE78
 15896 0030 00000000 		.4byte	0
 15897 0034 00000000 		.4byte	0
 15898 0038 3E000000 		.4byte	.LBB94
 15899 003c 66000000 		.4byte	.LBE94
 15900 0040 86020000 		.4byte	.LBB114
 15901 0044 9A020000 		.4byte	.LBE114
 15902 0048 00000000 		.4byte	0
 15903 004c 00000000 		.4byte	0
 15904 0050 44000000 		.4byte	.LBB95
 15905 0054 48000000 		.4byte	.LBE95
 15906 0058 4C000000 		.4byte	.LBB99
 15907 005c 5C000000 		.4byte	.LBE99
 15908 0060 86020000 		.4byte	.LBB100
 15909 0064 9A020000 		.4byte	.LBE100
 15910 0068 00000000 		.4byte	0
 15911 006c 00000000 		.4byte	0
 15912 0070 32010000 		.4byte	.LBB105
 15913 0074 6A010000 		.4byte	.LBE105
 15914 0078 56020000 		.4byte	.LBB113
 15915 007c 86020000 		.4byte	.LBE113
 15916 0080 00000000 		.4byte	0
 15917 0084 00000000 		.4byte	0
 15918 0088 A8010000 		.4byte	.LBB109
 15919 008c EC010000 		.4byte	.LBE109
 15920 0090 38020000 		.4byte	.LBB112
 15921 0094 54020000 		.4byte	.LBE112
 15922 0098 9A020000 		.4byte	.LBB115
 15923 009c A2020000 		.4byte	.LBE115
 15924 00a0 00000000 		.4byte	0
 15925 00a4 00000000 		.4byte	0
 15926 00a8 1A000000 		.4byte	.LBB150
 15927 00ac 60000000 		.4byte	.LBE150
 15928 00b0 0E030000 		.4byte	.LBB224
 15929 00b4 14050000 		.4byte	.LBE224
 15930 00b8 44050000 		.4byte	.LBB226
 15931 00bc 78050000 		.4byte	.LBE226
 15932 00c0 90050000 		.4byte	.LBB228
 15933 00c4 A8050000 		.4byte	.LBE228
 15934 00c8 AC050000 		.4byte	.LBB230
 15935 00cc B0050000 		.4byte	.LBE230
 15936 00d0 C0050000 		.4byte	.LBB232
 15937 00d4 D0050000 		.4byte	.LBE232
 15938 00d8 D8050000 		.4byte	.LBB234
 15939 00dc E0050000 		.4byte	.LBE234
 15940 00e0 00000000 		.4byte	0
 15941 00e4 00000000 		.4byte	0
 15942 00e8 1A000000 		.4byte	.LBB152
 15943 00ec 22000000 		.4byte	.LBE152
 15944 00f0 BA030000 		.4byte	.LBB161
 15945 00f4 FC030000 		.4byte	.LBE161
 15946 00f8 44050000 		.4byte	.LBB176
 15947 00fc 78050000 		.4byte	.LBE176
 15948 0100 00000000 		.4byte	0
 15949 0104 00000000 		.4byte	0
 15950 0108 1A000000 		.4byte	.LBB153
ARM GAS  C:\Users\mathi\AppData\Local\Temp\ccF8t5t9.s 			page 281


 15951 010c 22000000 		.4byte	.LBE153
 15952 0110 44050000 		.4byte	.LBB154
 15953 0114 78050000 		.4byte	.LBE154
 15954 0118 00000000 		.4byte	0
 15955 011c 00000000 		.4byte	0
 15956 0120 22000000 		.4byte	.LBB155
 15957 0124 34000000 		.4byte	.LBE155
 15958 0128 56040000 		.4byte	.LBB173
 15959 012c AA040000 		.4byte	.LBE173
 15960 0130 90050000 		.4byte	.LBB177
 15961 0134 A8050000 		.4byte	.LBE177
 15962 0138 D8050000 		.4byte	.LBB180
 15963 013c E0050000 		.4byte	.LBE180
 15964 0140 00000000 		.4byte	0
 15965 0144 00000000 		.4byte	0
 15966 0148 50030000 		.4byte	.LBB157
 15967 014c 5E030000 		.4byte	.LBE157
 15968 0150 92030000 		.4byte	.LBB160
 15969 0154 BA030000 		.4byte	.LBE160
 15970 0158 00000000 		.4byte	0
 15971 015c 00000000 		.4byte	0
 15972 0160 FC030000 		.4byte	.LBB162
 15973 0164 20040000 		.4byte	.LBE162
 15974 0168 AC050000 		.4byte	.LBB178
 15975 016c B0050000 		.4byte	.LBE178
 15976 0170 C0050000 		.4byte	.LBB179
 15977 0174 D0050000 		.4byte	.LBE179
 15978 0178 00000000 		.4byte	0
 15979 017c 00000000 		.4byte	0
 15980 0180 02040000 		.4byte	.LBB163
 15981 0184 06040000 		.4byte	.LBE163
 15982 0188 0A040000 		.4byte	.LBB168
 15983 018c 1A040000 		.4byte	.LBE168
 15984 0190 AC050000 		.4byte	.LBB169
 15985 0194 B0050000 		.4byte	.LBE169
 15986 0198 C0050000 		.4byte	.LBB170
 15987 019c D0050000 		.4byte	.LBE170
 15988 01a0 00000000 		.4byte	0
 15989 01a4 00000000 		.4byte	0
 15990 01a8 60000000 		.4byte	.LBB187
 15991 01ac B0000000 		.4byte	.LBE187
 15992 01b0 E0000000 		.4byte	.LBB223
 15993 01b4 0E030000 		.4byte	.LBE223
 15994 01b8 14050000 		.4byte	.LBB225
 15995 01bc 44050000 		.4byte	.LBE225
 15996 01c0 78050000 		.4byte	.LBB227
 15997 01c4 90050000 		.4byte	.LBE227
 15998 01c8 A8050000 		.4byte	.LBB229
 15999 01cc AC050000 		.4byte	.LBE229
 16000 01d0 B0050000 		.4byte	.LBB231
 16001 01d4 C0050000 		.4byte	.LBE231
 16002 01d8 D0050000 		.4byte	.LBB233
 16003 01dc D8050000 		.4byte	.LBE233
 16004 01e0 00000000 		.4byte	0
 16005 01e4 00000000 		.4byte	0
 16006 01e8 60000000 		.4byte	.LBB189
 16007 01ec B0000000 		.4byte	.LBE189
ARM GAS  C:\Users\mathi\AppData\Local\Temp\ccF8t5t9.s 			page 282


 16008 01f0 E6000000 		.4byte	.LBB193
 16009 01f4 EE000000 		.4byte	.LBE193
 16010 01f8 78050000 		.4byte	.LBB213
 16011 01fc 90050000 		.4byte	.LBE213
 16012 0200 D0050000 		.4byte	.LBB216
 16013 0204 D8050000 		.4byte	.LBE216
 16014 0208 00000000 		.4byte	0
 16015 020c 00000000 		.4byte	0
 16016 0210 E0000000 		.4byte	.LBB190
 16017 0214 E6000000 		.4byte	.LBE190
 16018 0218 24020000 		.4byte	.LBB207
 16019 021c 5E020000 		.4byte	.LBE207
 16020 0220 14050000 		.4byte	.LBB212
 16021 0224 44050000 		.4byte	.LBE212
 16022 0228 00000000 		.4byte	0
 16023 022c 00000000 		.4byte	0
 16024 0230 E0000000 		.4byte	.LBB191
 16025 0234 E6000000 		.4byte	.LBE191
 16026 0238 14050000 		.4byte	.LBB192
 16027 023c 44050000 		.4byte	.LBE192
 16028 0240 00000000 		.4byte	0
 16029 0244 00000000 		.4byte	0
 16030 0248 F2010000 		.4byte	.LBB198
 16031 024c 24020000 		.4byte	.LBE198
 16032 0250 A8050000 		.4byte	.LBB214
 16033 0254 AC050000 		.4byte	.LBE214
 16034 0258 B0050000 		.4byte	.LBB215
 16035 025c C0050000 		.4byte	.LBE215
 16036 0260 00000000 		.4byte	0
 16037 0264 00000000 		.4byte	0
 16038 0268 F8010000 		.4byte	.LBB199
 16039 026c 00020000 		.4byte	.LBE199
 16040 0270 04020000 		.4byte	.LBB204
 16041 0274 16020000 		.4byte	.LBE204
 16042 0278 A8050000 		.4byte	.LBB205
 16043 027c AC050000 		.4byte	.LBE205
 16044 0280 B0050000 		.4byte	.LBB206
 16045 0284 C0050000 		.4byte	.LBE206
 16046 0288 00000000 		.4byte	0
 16047 028c 00000000 		.4byte	0
 16048 0290 02010000 		.4byte	.LBB245
 16049 0294 7A010000 		.4byte	.LBE245
 16050 0298 8A010000 		.4byte	.LBB248
 16051 029c BC010000 		.4byte	.LBE248
 16052 02a0 00000000 		.4byte	0
 16053 02a4 00000000 		.4byte	0
 16054 02a8 24000000 		.4byte	.LBB297
 16055 02ac 74000000 		.4byte	.LBE297
 16056 02b0 56010000 		.4byte	.LBB403
 16057 02b4 BA010000 		.4byte	.LBE403
 16058 02b8 E0010000 		.4byte	.LBB405
 16059 02bc 58020000 		.4byte	.LBE405
 16060 02c0 40030000 		.4byte	.LBB407
 16061 02c4 D0070000 		.4byte	.LBE407
 16062 02c8 00000000 		.4byte	0
 16063 02cc 00000000 		.4byte	0
 16064 02d0 2C000000 		.4byte	.LBB299
ARM GAS  C:\Users\mathi\AppData\Local\Temp\ccF8t5t9.s 			page 283


 16065 02d4 74000000 		.4byte	.LBE299
 16066 02d8 FE040000 		.4byte	.LBB367
 16067 02dc 04070000 		.4byte	.LBE367
 16068 02e0 34070000 		.4byte	.LBB369
 16069 02e4 68070000 		.4byte	.LBE369
 16070 02e8 80070000 		.4byte	.LBB371
 16071 02ec 98070000 		.4byte	.LBE371
 16072 02f0 AC070000 		.4byte	.LBB373
 16073 02f4 C0070000 		.4byte	.LBE373
 16074 02f8 C8070000 		.4byte	.LBB375
 16075 02fc D0070000 		.4byte	.LBE375
 16076 0300 00000000 		.4byte	0
 16077 0304 00000000 		.4byte	0
 16078 0308 2C000000 		.4byte	.LBB301
 16079 030c 34000000 		.4byte	.LBE301
 16080 0310 56050000 		.4byte	.LBB306
 16081 0314 98050000 		.4byte	.LBE306
 16082 0318 34070000 		.4byte	.LBB322
 16083 031c 68070000 		.4byte	.LBE322
 16084 0320 00000000 		.4byte	0
 16085 0324 00000000 		.4byte	0
 16086 0328 2C000000 		.4byte	.LBB302
 16087 032c 34000000 		.4byte	.LBE302
 16088 0330 34070000 		.4byte	.LBB303
 16089 0334 68070000 		.4byte	.LBE303
 16090 0338 00000000 		.4byte	0
 16091 033c 00000000 		.4byte	0
 16092 0340 34000000 		.4byte	.LBB304
 16093 0344 48000000 		.4byte	.LBE304
 16094 0348 CC050000 		.4byte	.LBB308
 16095 034c 20060000 		.4byte	.LBE308
 16096 0350 80070000 		.4byte	.LBB323
 16097 0354 98070000 		.4byte	.LBE323
 16098 0358 C8070000 		.4byte	.LBB325
 16099 035c D0070000 		.4byte	.LBE325
 16100 0360 00000000 		.4byte	0
 16101 0364 00000000 		.4byte	0
 16102 0368 56060000 		.4byte	.LBB311
 16103 036c 7A060000 		.4byte	.LBE311
 16104 0370 AC070000 		.4byte	.LBB324
 16105 0374 C0070000 		.4byte	.LBE324
 16106 0378 00000000 		.4byte	0
 16107 037c 00000000 		.4byte	0
 16108 0380 5C060000 		.4byte	.LBB312
 16109 0384 60060000 		.4byte	.LBE312
 16110 0388 64060000 		.4byte	.LBB316
 16111 038c 74060000 		.4byte	.LBE316
 16112 0390 AC070000 		.4byte	.LBB317
 16113 0394 C0070000 		.4byte	.LBE317
 16114 0398 00000000 		.4byte	0
 16115 039c 00000000 		.4byte	0
 16116 03a0 56010000 		.4byte	.LBB331
 16117 03a4 A6010000 		.4byte	.LBE331
 16118 03a8 EC010000 		.4byte	.LBB365
 16119 03ac 58020000 		.4byte	.LBE365
 16120 03b0 40030000 		.4byte	.LBB366
 16121 03b4 FE040000 		.4byte	.LBE366
ARM GAS  C:\Users\mathi\AppData\Local\Temp\ccF8t5t9.s 			page 284


 16122 03b8 04070000 		.4byte	.LBB368
 16123 03bc 34070000 		.4byte	.LBE368
 16124 03c0 68070000 		.4byte	.LBB370
 16125 03c4 80070000 		.4byte	.LBE370
 16126 03c8 98070000 		.4byte	.LBB372
 16127 03cc AC070000 		.4byte	.LBE372
 16128 03d0 C0070000 		.4byte	.LBB374
 16129 03d4 C8070000 		.4byte	.LBE374
 16130 03d8 00000000 		.4byte	0
 16131 03dc 00000000 		.4byte	0
 16132 03e0 56010000 		.4byte	.LBB333
 16133 03e4 A6010000 		.4byte	.LBE333
 16134 03e8 F0010000 		.4byte	.LBB337
 16135 03ec F8010000 		.4byte	.LBE337
 16136 03f0 68070000 		.4byte	.LBB356
 16137 03f4 80070000 		.4byte	.LBE356
 16138 03f8 C0070000 		.4byte	.LBB358
 16139 03fc C8070000 		.4byte	.LBE358
 16140 0400 00000000 		.4byte	0
 16141 0404 00000000 		.4byte	0
 16142 0408 EC010000 		.4byte	.LBB334
 16143 040c F0010000 		.4byte	.LBE334
 16144 0410 82030000 		.4byte	.LBB340
 16145 0414 BC030000 		.4byte	.LBE340
 16146 0418 04070000 		.4byte	.LBB355
 16147 041c 34070000 		.4byte	.LBE355
 16148 0420 00000000 		.4byte	0
 16149 0424 00000000 		.4byte	0
 16150 0428 EC010000 		.4byte	.LBB335
 16151 042c F0010000 		.4byte	.LBE335
 16152 0430 04070000 		.4byte	.LBB336
 16153 0434 34070000 		.4byte	.LBE336
 16154 0438 00000000 		.4byte	0
 16155 043c 00000000 		.4byte	0
 16156 0440 58030000 		.4byte	.LBB338
 16157 0444 66030000 		.4byte	.LBE338
 16158 0448 BC030000 		.4byte	.LBB341
 16159 044c DE030000 		.4byte	.LBE341
 16160 0450 00000000 		.4byte	0
 16161 0454 00000000 		.4byte	0
 16162 0458 CC040000 		.4byte	.LBB348
 16163 045c FE040000 		.4byte	.LBE348
 16164 0460 98070000 		.4byte	.LBB357
 16165 0464 AC070000 		.4byte	.LBE357
 16166 0468 00000000 		.4byte	0
 16167 046c 00000000 		.4byte	0
 16168 0470 D2040000 		.4byte	.LBB349
 16169 0474 DA040000 		.4byte	.LBE349
 16170 0478 DE040000 		.4byte	.LBB353
 16171 047c F0040000 		.4byte	.LBE353
 16172 0480 98070000 		.4byte	.LBB354
 16173 0484 AC070000 		.4byte	.LBE354
 16174 0488 00000000 		.4byte	0
 16175 048c 00000000 		.4byte	0
 16176 0490 8E000000 		.4byte	.LBB379
 16177 0494 56010000 		.4byte	.LBE379
 16178 0498 BE010000 		.4byte	.LBB404
ARM GAS  C:\Users\mathi\AppData\Local\Temp\ccF8t5t9.s 			page 285


 16179 049c DC010000 		.4byte	.LBE404
 16180 04a0 58020000 		.4byte	.LBB406
 16181 04a4 3C030000 		.4byte	.LBE406
 16182 04a8 00000000 		.4byte	0
 16183 04ac 00000000 		.4byte	0
 16184 04b0 9C000000 		.4byte	.LBB381
 16185 04b4 42010000 		.4byte	.LBE381
 16186 04b8 BE010000 		.4byte	.LBB385
 16187 04bc C2010000 		.4byte	.LBE385
 16188 04c0 C4010000 		.4byte	.LBB389
 16189 04c4 C6010000 		.4byte	.LBE389
 16190 04c8 00000000 		.4byte	0
 16191 04cc 00000000 		.4byte	0
 16192 04d0 C2010000 		.4byte	.LBB386
 16193 04d4 C4010000 		.4byte	.LBE386
 16194 04d8 C6010000 		.4byte	.LBB390
 16195 04dc DC010000 		.4byte	.LBE390
 16196 04e0 00000000 		.4byte	0
 16197 04e4 00000000 		.4byte	0
 16198 04e8 5C020000 		.4byte	.LBB391
 16199 04ec FE020000 		.4byte	.LBE391
 16200 04f0 1E030000 		.4byte	.LBB395
 16201 04f4 22030000 		.4byte	.LBE395
 16202 04f8 24030000 		.4byte	.LBB399
 16203 04fc 26030000 		.4byte	.LBE399
 16204 0500 00000000 		.4byte	0
 16205 0504 00000000 		.4byte	0
 16206 0508 22030000 		.4byte	.LBB396
 16207 050c 24030000 		.4byte	.LBE396
 16208 0510 26030000 		.4byte	.LBB400
 16209 0514 3C030000 		.4byte	.LBE400
 16210 0518 00000000 		.4byte	0
 16211 051c 00000000 		.4byte	0
 16212 0520 D0000000 		.4byte	.LBB448
 16213 0524 D2000000 		.4byte	.LBE448
 16214 0528 D6000000 		.4byte	.LBB454
 16215 052c F0000000 		.4byte	.LBE454
 16216 0530 2A030000 		.4byte	.LBB492
 16217 0534 42030000 		.4byte	.LBE492
 16218 0538 00000000 		.4byte	0
 16219 053c 00000000 		.4byte	0
 16220 0540 DC000000 		.4byte	.LBB450
 16221 0544 E8000000 		.4byte	.LBE450
 16222 0548 2A030000 		.4byte	.LBB451
 16223 054c 32030000 		.4byte	.LBE451
 16224 0550 00000000 		.4byte	0
 16225 0554 00000000 		.4byte	0
 16226 0558 FA000000 		.4byte	.LBB455
 16227 055c 2A010000 		.4byte	.LBE455
 16228 0560 42030000 		.4byte	.LBB493
 16229 0564 82030000 		.4byte	.LBE493
 16230 0568 86030000 		.4byte	.LBB495
 16231 056c 9A030000 		.4byte	.LBE495
 16232 0570 00000000 		.4byte	0
 16233 0574 00000000 		.4byte	0
 16234 0578 FA000000 		.4byte	.LBB457
 16235 057c 2A010000 		.4byte	.LBE457
ARM GAS  C:\Users\mathi\AppData\Local\Temp\ccF8t5t9.s 			page 286


 16236 0580 42030000 		.4byte	.LBB460
 16237 0584 4C030000 		.4byte	.LBE460
 16238 0588 00000000 		.4byte	0
 16239 058c 00000000 		.4byte	0
 16240 0590 6A010000 		.4byte	.LBB469
 16241 0594 70010000 		.4byte	.LBE469
 16242 0598 76010000 		.4byte	.LBB473
 16243 059c 78010000 		.4byte	.LBE473
 16244 05a0 7A010000 		.4byte	.LBB474
 16245 05a4 8A010000 		.4byte	.LBE474
 16246 05a8 00000000 		.4byte	0
 16247 05ac 00000000 		.4byte	0
 16248 05b0 B0010000 		.4byte	.LBB478
 16249 05b4 B2010000 		.4byte	.LBE478
 16250 05b8 B4010000 		.4byte	.LBB483
 16251 05bc C0020000 		.4byte	.LBE483
 16252 05c0 9E030000 		.4byte	.LBB496
 16253 05c4 D6030000 		.4byte	.LBE496
 16254 05c8 00000000 		.4byte	0
 16255 05cc 00000000 		.4byte	0
 16256 05d0 C0020000 		.4byte	.LBB484
 16257 05d4 EA020000 		.4byte	.LBE484
 16258 05d8 82030000 		.4byte	.LBB494
 16259 05dc 86030000 		.4byte	.LBE494
 16260 05e0 00000000 		.4byte	0
 16261 05e4 00000000 		.4byte	0
 16262 05e8 C0020000 		.4byte	.LBB485
 16263 05ec C2020000 		.4byte	.LBE485
 16264 05f0 C8020000 		.4byte	.LBB489
 16265 05f4 D8020000 		.4byte	.LBE489
 16266 05f8 82030000 		.4byte	.LBB490
 16267 05fc 86030000 		.4byte	.LBE490
 16268 0600 00000000 		.4byte	0
 16269 0604 00000000 		.4byte	0
 16270 0608 10000000 		.4byte	.LBB497
 16271 060c 36000000 		.4byte	.LBE497
 16272 0610 72000000 		.4byte	.LBB501
 16273 0614 76000000 		.4byte	.LBE501
 16274 0618 00000000 		.4byte	0
 16275 061c 00000000 		.4byte	0
 16276 0620 00000000 		.4byte	.LFB3
 16277 0624 FC000000 		.4byte	.LFE3
 16278 0628 00000000 		.4byte	.LFB0
 16279 062c 34000000 		.4byte	.LFE0
 16280 0630 00000000 		.4byte	.LFB1
 16281 0634 54000000 		.4byte	.LFE1
 16282 0638 00000000 		.4byte	.LFB2
 16283 063c 9C000000 		.4byte	.LFE2
 16284 0640 00000000 		.4byte	.LFB5
 16285 0644 B0020000 		.4byte	.LFE5
 16286 0648 00000000 		.4byte	.LFB6
 16287 064c 84000000 		.4byte	.LFE6
 16288 0650 00000000 		.4byte	.LFB7
 16289 0654 D4000000 		.4byte	.LFE7
 16290 0658 00000000 		.4byte	.LFB8
 16291 065c E4050000 		.4byte	.LFE8
 16292 0660 00000000 		.4byte	.LFB9
ARM GAS  C:\Users\mathi\AppData\Local\Temp\ccF8t5t9.s 			page 287


 16293 0664 E8010000 		.4byte	.LFE9
 16294 0668 00000000 		.4byte	.LFB10
 16295 066c D4070000 		.4byte	.LFE10
 16296 0670 00000000 		.4byte	.LFB11
 16297 0674 34000000 		.4byte	.LFE11
 16298 0678 00000000 		.4byte	.LFB12
 16299 067c 2C010000 		.4byte	.LFE12
 16300 0680 00000000 		.4byte	.LFB13
 16301 0684 24000000 		.4byte	.LFE13
 16302 0688 00000000 		.4byte	.LFB14
 16303 068c 38000000 		.4byte	.LFE14
 16304 0690 00000000 		.4byte	.LFB16
 16305 0694 D6030000 		.4byte	.LFE16
 16306 0698 00000000 		.4byte	.LFB17
 16307 069c 80000000 		.4byte	.LFE17
 16308 06a0 00000000 		.4byte	0
 16309 06a4 00000000 		.4byte	0
 16310              		.section	.debug_line,"",%progbits
 16311              	.Ldebug_line0:
 16312 0000 7E0A0000 		.section	.debug_str,"MS",%progbits,1
 16312      02000202 
 16312      00000201 
 16312      FB0E0D00 
 16312      01010101 
 16313              	.LASF120:
 16314 0000 5F64736F 		.ascii	"_dso_handle\000"
 16314      5F68616E 
 16314      646C6500 
 16315              	.LASF208:
 16316 000c 62797465 		.ascii	"bytecodeSize\000"
 16316      636F6465 
 16316      53697A65 
 16316      00
 16317              	.LASF204:
 16318 0019 75696E74 		.ascii	"uint16\000"
 16318      313600
 16319              	.LASF35:
 16320 0020 41534542 		.ascii	"ASEBA_UNARY_OP_BIT_NOT\000"
 16320      415F554E 
 16320      4152595F 
 16320      4F505F42 
 16320      49545F4E 
 16321              	.LASF242:
 16322 0037 76616C75 		.ascii	"value\000"
 16322      6500
 16323              	.LASF28:
 16324 003d 41534542 		.ascii	"ASEBA_OP_BIGGER_EQUAL_THAN\000"
 16324      415F4F50 
 16324      5F424947 
 16324      4745525F 
 16324      45515541 
 16325              	.LASF25:
 16326 0058 41534542 		.ascii	"ASEBA_OP_EQUAL\000"
 16326      415F4F50 
 16326      5F455155 
 16326      414C00
 16327              	.LASF66:
ARM GAS  C:\Users\mathi\AppData\Local\Temp\ccF8t5t9.s 			page 288


 16328 0067 41534542 		.ascii	"ASEBA_MESSAGE_RESET\000"
 16328      415F4D45 
 16328      53534147 
 16328      455F5245 
 16328      53455400 
 16329              	.LASF211:
 16330 007b 76617269 		.ascii	"variables\000"
 16330      61626C65 
 16330      7300
 16331              	.LASF172:
 16332 0085 5F72616E 		.ascii	"_rand48\000"
 16332      64343800 
 16333              	.LASF152:
 16334 008d 5F656D65 		.ascii	"_emergency\000"
 16334      7267656E 
 16334      637900
 16335              	.LASF258:
 16336 0098 41736562 		.ascii	"AsebaSendMessage\000"
 16336      6153656E 
 16336      644D6573 
 16336      73616765 
 16336      00
 16337              	.LASF161:
 16338 00a9 5F637674 		.ascii	"_cvtlen\000"
 16338      6C656E00 
 16339              	.LASF259:
 16340 00b1 41736562 		.ascii	"AsebaSendVariables\000"
 16340      6153656E 
 16340      64566172 
 16340      6961626C 
 16340      657300
 16341              	.LASF164:
 16342 00c4 5F617465 		.ascii	"_atexit0\000"
 16342      78697430 
 16342      00
 16343              	.LASF237:
 16344 00cd 41736562 		.ascii	"AsebaVMDebugMessage\000"
 16344      61564D44 
 16344      65627567 
 16344      4D657373 
 16344      61676500 
 16345              	.LASF142:
 16346 00e1 5F646174 		.ascii	"_data\000"
 16346      6100
 16347              	.LASF38:
 16348 00e7 41534542 		.ascii	"ASEBA_VM_STEP_BY_STEP_MASK\000"
 16348      415F564D 
 16348      5F535445 
 16348      505F4259 
 16348      5F535445 
 16349              	.LASF33:
 16350 0102 41534542 		.ascii	"ASEBA_UNARY_OP_SUB\000"
 16350      415F554E 
 16350      4152595F 
 16350      4F505F53 
 16350      554200
 16351              	.LASF192:
ARM GAS  C:\Users\mathi\AppData\Local\Temp\ccF8t5t9.s 			page 289


 16352 0115 5F776372 		.ascii	"_wcrtomb_state\000"
 16352      746F6D62 
 16352      5F737461 
 16352      746500
 16353              	.LASF236:
 16354 0124 41736562 		.ascii	"AsebaVMCheckBreakpoint\000"
 16354      61564D43 
 16354      6865636B 
 16354      42726561 
 16354      6B706F69 
 16355              	.LASF79:
 16356 013b 41534542 		.ascii	"ASEBA_MESSAGE_SUSPEND_TO_RAM\000"
 16356      415F4D45 
 16356      53534147 
 16356      455F5355 
 16356      5350454E 
 16357              	.LASF267:
 16358 0158 41736562 		.ascii	"AsebaNativeFunction\000"
 16358      614E6174 
 16358      69766546 
 16358      756E6374 
 16358      696F6E00 
 16359              	.LASF210:
 16360 016c 76617269 		.ascii	"variablesSize\000"
 16360      61626C65 
 16360      7353697A 
 16360      6500
 16361              	.LASF90:
 16362 017a 6C6F6E67 		.ascii	"long long unsigned int\000"
 16362      206C6F6E 
 16362      6720756E 
 16362      7369676E 
 16362      65642069 
 16363              	.LASF274:
 16364 0191 5F5F6275 		.ascii	"__builtin_memset\000"
 16364      696C7469 
 16364      6E5F6D65 
 16364      6D736574 
 16364      00
 16365              	.LASF244:
 16366 01a2 61727261 		.ascii	"arrayIndex\000"
 16366      79496E64 
 16366      657800
 16367              	.LASF60:
 16368 01ad 41534542 		.ascii	"ASEBA_MESSAGE_NODE_SPECIFIC_ERROR\000"
 16368      415F4D45 
 16368      53534147 
 16368      455F4E4F 
 16368      44455F53 
 16369              	.LASF219:
 16370 01cf 64617461 		.ascii	"data\000"
 16370      00
 16371              	.LASF265:
 16372 01d4 41736562 		.ascii	"AsebaWriteBytecode\000"
 16372      61577269 
 16372      74654279 
 16372      7465636F 
ARM GAS  C:\Users\mathi\AppData\Local\Temp\ccF8t5t9.s 			page 290


 16372      646500
 16373              	.LASF241:
 16374 01e7 41736562 		.ascii	"AsebaVMStep\000"
 16374      61564D53 
 16374      74657000 
 16375              	.LASF199:
 16376 01f3 5F5F6C6F 		.ascii	"__locale_t\000"
 16376      63616C65 
 16376      5F7400
 16377              	.LASF231:
 16378 01fe 41736562 		.ascii	"AsebaVMShouldDropPacket\000"
 16378      61564D53 
 16378      686F756C 
 16378      6444726F 
 16378      70506163 
 16379              	.LASF246:
 16380 0216 76617269 		.ascii	"variableValue\000"
 16380      61626C65 
 16380      56616C75 
 16380      6500
 16381              	.LASF61:
 16382 0224 41534542 		.ascii	"ASEBA_MESSAGE_EXECUTION_STATE_CHANGED\000"
 16382      415F4D45 
 16382      53534147 
 16382      455F4558 
 16382      45435554 
 16383              	.LASF190:
 16384 024a 5F6D6272 		.ascii	"_mbrtowc_state\000"
 16384      746F7763 
 16384      5F737461 
 16384      746500
 16385              	.LASF223:
 16386 0259 70726F74 		.ascii	"protocolVersion\000"
 16386      6F636F6C 
 16386      56657273 
 16386      696F6E00 
 16387              	.LASF253:
 16388 0269 6576656E 		.ascii	"event\000"
 16388      7400
 16389              	.LASF235:
 16390 026f 41736562 		.ascii	"AsebaDebugBareRun\000"
 16390      61446562 
 16390      75674261 
 16390      72655275 
 16390      6E00
 16391              	.LASF109:
 16392 0281 5F5F746D 		.ascii	"__tm_sec\000"
 16392      5F736563 
 16392      00
 16393              	.LASF48:
 16394 028a 41534542 		.ascii	"ASEBA_MESSAGE_BOOTLOADER_DESCRIPTION\000"
 16394      415F4D45 
 16394      53534147 
 16394      455F424F 
 16394      4F544C4F 
 16395              	.LASF47:
 16396 02af 41534542 		.ascii	"ASEBA_MESSAGE_BOOTLOADER_PAGE_DATA_WRITE\000"
ARM GAS  C:\Users\mathi\AppData\Local\Temp\ccF8t5t9.s 			page 291


 16396      415F4D45 
 16396      53534147 
 16396      455F424F 
 16396      4F544C4F 
 16397              	.LASF86:
 16398 02d8 7369676E 		.ascii	"signed char\000"
 16398      65642063 
 16398      68617200 
 16399              	.LASF1:
 16400 02e4 41534542 		.ascii	"ASEBA_BYTECODE_SMALL_IMMEDIATE\000"
 16400      415F4259 
 16400      5445434F 
 16400      44455F53 
 16400      4D414C4C 
 16401              	.LASF138:
 16402 0303 5F756275 		.ascii	"_ubuf\000"
 16402      6600
 16403              	.LASF127:
 16404 0309 5F626173 		.ascii	"_base\000"
 16404      6500
 16405              	.LASF67:
 16406 030f 41534542 		.ascii	"ASEBA_MESSAGE_RUN\000"
 16406      415F4D45 
 16406      53534147 
 16406      455F5255 
 16406      4E00
 16407              	.LASF95:
 16408 0321 5F5F7763 		.ascii	"__wch\000"
 16408      6800
 16409              	.LASF167:
 16410 0327 5F5F7366 		.ascii	"__sf\000"
 16410      00
 16411              	.LASF118:
 16412 032c 5F6F6E5F 		.ascii	"_on_exit_args\000"
 16412      65786974 
 16412      5F617267 
 16412      7300
 16413              	.LASF64:
 16414 033a 41534542 		.ascii	"ASEBA_MESSAGE_GET_DESCRIPTION\000"
 16414      415F4D45 
 16414      53534147 
 16414      455F4745 
 16414      545F4445 
 16415              	.LASF40:
 16416 0358 41534542 		.ascii	"ASEBA_EVENT_INIT\000"
 16416      415F4556 
 16416      454E545F 
 16416      494E4954 
 16416      00
 16417              	.LASF133:
 16418 0369 5F636F6F 		.ascii	"_cookie\000"
 16418      6B696500 
 16419              	.LASF206:
 16420 0371 41534542 		.ascii	"ASEBA_MAX_BREAKPOINTS\000"
 16420      415F4D41 
 16420      585F4252 
 16420      45414B50 
ARM GAS  C:\Users\mathi\AppData\Local\Temp\ccF8t5t9.s 			page 292


 16420      4F494E54 
 16421              	.LASF166:
 16422 0387 5F5F7367 		.ascii	"__sglue\000"
 16422      6C756500 
 16423              	.LASF88:
 16424 038f 6C6F6E67 		.ascii	"long int\000"
 16424      20696E74 
 16424      00
 16425              	.LASF200:
 16426 0398 5F696D70 		.ascii	"_impure_ptr\000"
 16426      7572655F 
 16426      70747200 
 16427              	.LASF215:
 16428 03a4 62726561 		.ascii	"breakpoints\000"
 16428      6B706F69 
 16428      6E747300 
 16429              	.LASF130:
 16430 03b0 5F666C61 		.ascii	"_flags\000"
 16430      677300
 16431              	.LASF122:
 16432 03b7 5F69735F 		.ascii	"_is_cxa\000"
 16432      63786100 
 16433              	.LASF148:
 16434 03bf 5F737464 		.ascii	"_stdin\000"
 16434      696E00
 16435              	.LASF240:
 16436 03c6 6D73674C 		.ascii	"msgLen\000"
 16436      656E00
 16437              	.LASF140:
 16438 03cd 5F626C6B 		.ascii	"_blksize\000"
 16438      73697A65 
 16438      00
 16439              	.LASF205:
 16440 03d6 75696E74 		.ascii	"uint8\000"
 16440      3800
 16441              	.LASF36:
 16442 03dc 41534542 		.ascii	"ASEBA_UNARY_OP_NOT\000"
 16442      415F554E 
 16442      4152595F 
 16442      4F505F4E 
 16442      4F5400
 16443              	.LASF84:
 16444 03ef 6C6F6E67 		.ascii	"long long int\000"
 16444      206C6F6E 
 16444      6720696E 
 16444      7400
 16445              	.LASF271:
 16446 03fd 5F5F6275 		.ascii	"__builtin_memmove\000"
 16446      696C7469 
 16446      6E5F6D65 
 16446      6D6D6F76 
 16446      6500
 16447              	.LASF155:
 16448 040f 5F5F7364 		.ascii	"__sdidinit\000"
 16448      6964696E 
 16448      697400
 16449              	.LASF14:
ARM GAS  C:\Users\mathi\AppData\Local\Temp\ccF8t5t9.s 			page 293


 16450 041a 41534542 		.ascii	"ASEBA_BYTECODE_SUB_RET\000"
 16450      415F4259 
 16450      5445434F 
 16450      44455F53 
 16450      55425F52 
 16451              	.LASF162:
 16452 0431 5F637674 		.ascii	"_cvtbuf\000"
 16452      62756600 
 16453              	.LASF141:
 16454 0439 5F6F6666 		.ascii	"_offset\000"
 16454      73657400 
 16455              	.LASF51:
 16456 0441 41534542 		.ascii	"ASEBA_MESSAGE_DESCRIPTION\000"
 16456      415F4D45 
 16456      53534147 
 16456      455F4445 
 16456      53435249 
 16457              	.LASF222:
 16458 045b 64617461 		.ascii	"dataLength\000"
 16458      4C656E67 
 16458      746800
 16459              	.LASF75:
 16460 0466 41534542 		.ascii	"ASEBA_MESSAGE_GET_VARIABLES\000"
 16460      415F4D45 
 16460      53534147 
 16460      455F4745 
 16460      545F5641 
 16461              	.LASF177:
 16462 0482 5F737472 		.ascii	"_strtok_last\000"
 16462      746F6B5F 
 16462      6C617374 
 16462      00
 16463              	.LASF189:
 16464 048f 5F6D6272 		.ascii	"_mbrlen_state\000"
 16464      6C656E5F 
 16464      73746174 
 16464      6500
 16465              	.LASF119:
 16466 049d 5F666E61 		.ascii	"_fnargs\000"
 16466      72677300 
 16467              	.LASF191:
 16468 04a5 5F6D6273 		.ascii	"_mbsrtowcs_state\000"
 16468      72746F77 
 16468      63735F73 
 16468      74617465 
 16468      00
 16469              	.LASF37:
 16470 04b6 41534542 		.ascii	"ASEBA_VM_EVENT_ACTIVE_MASK\000"
 16470      415F564D 
 16470      5F455645 
 16470      4E545F41 
 16470      43544956 
 16471              	.LASF9:
 16472 04d1 41534542 		.ascii	"ASEBA_BYTECODE_JUMP\000"
 16472      415F4259 
 16472      5445434F 
 16472      44455F4A 
ARM GAS  C:\Users\mathi\AppData\Local\Temp\ccF8t5t9.s 			page 294


 16472      554D5000 
 16473              	.LASF12:
 16474 04e5 41534542 		.ascii	"ASEBA_BYTECODE_NATIVE_CALL\000"
 16474      415F4259 
 16474      5445434F 
 16474      44455F4E 
 16474      41544956 
 16475              	.LASF2:
 16476 0500 41534542 		.ascii	"ASEBA_BYTECODE_LARGE_IMMEDIATE\000"
 16476      415F4259 
 16476      5445434F 
 16476      44455F4C 
 16476      41524745 
 16477              	.LASF125:
 16478 051f 5F666E73 		.ascii	"_fns\000"
 16478      00
 16479              	.LASF207:
 16480 0524 6E6F6465 		.ascii	"nodeId\000"
 16480      496400
 16481              	.LASF250:
 16482 052b 64697370 		.ascii	"disp\000"
 16482      00
 16483              	.LASF105:
 16484 0530 5F736967 		.ascii	"_sign\000"
 16484      6E00
 16485              	.LASF15:
 16486 0536 41534542 		.ascii	"ASEBA_OP_SHIFT_LEFT\000"
 16486      415F4F50 
 16486      5F534849 
 16486      46545F4C 
 16486      45465400 
 16487              	.LASF100:
 16488 054a 5F666C6F 		.ascii	"_flock_t\000"
 16488      636B5F74 
 16488      00
 16489              	.LASF150:
 16490 0553 5F737464 		.ascii	"_stderr\000"
 16490      65727200 
 16491              	.LASF107:
 16492 055b 5F426967 		.ascii	"_Bigint\000"
 16492      696E7400 
 16493              	.LASF180:
 16494 0563 5F67616D 		.ascii	"_gamma_signgam\000"
 16494      6D615F73 
 16494      69676E67 
 16494      616D00
 16495              	.LASF134:
 16496 0572 5F726561 		.ascii	"_read\000"
 16496      6400
 16497              	.LASF158:
 16498 0578 5F726573 		.ascii	"_result_k\000"
 16498      756C745F 
 16498      6B00
 16499              	.LASF269:
 16500 0582 6D656D6D 		.ascii	"memmove\000"
 16500      6F766500 
 16501              	.LASF62:
ARM GAS  C:\Users\mathi\AppData\Local\Temp\ccF8t5t9.s 			page 295


 16502 058a 41534542 		.ascii	"ASEBA_MESSAGE_BREAKPOINT_SET_RESULT\000"
 16502      415F4D45 
 16502      53534147 
 16502      455F4252 
 16502      45414B50 
 16503              	.LASF108:
 16504 05ae 5F5F746D 		.ascii	"__tm\000"
 16504      00
 16505              	.LASF46:
 16506 05b3 41534542 		.ascii	"ASEBA_MESSAGE_BOOTLOADER_WRITE_PAGE\000"
 16506      415F4D45 
 16506      53534147 
 16506      455F424F 
 16506      4F544C4F 
 16507              	.LASF83:
 16508 05d7 756E7369 		.ascii	"unsigned int\000"
 16508      676E6564 
 16508      20696E74 
 16508      00
 16509              	.LASF96:
 16510 05e4 5F5F7763 		.ascii	"__wchb\000"
 16510      686200
 16511              	.LASF193:
 16512 05eb 5F776373 		.ascii	"_wcsrtombs_state\000"
 16512      72746F6D 
 16512      62735F73 
 16512      74617465 
 16512      00
 16513              	.LASF49:
 16514 05fc 41534542 		.ascii	"ASEBA_MESSAGE_BOOTLOADER_PAGE_DATA_READ\000"
 16514      415F4D45 
 16514      53534147 
 16514      455F424F 
 16514      4F544C4F 
 16515              	.LASF149:
 16516 0624 5F737464 		.ascii	"_stdout\000"
 16516      6F757400 
 16517              	.LASF263:
 16518 062c 41736562 		.ascii	"AsebaResetIntoBootloader\000"
 16518      61526573 
 16518      6574496E 
 16518      746F426F 
 16518      6F746C6F 
 16519              	.LASF277:
 16520 0645 433A5C55 		.ascii	"C:\\Users\\mathi\\Documents\\robotique\\robotics_pr"
 16520      73657273 
 16520      5C6D6174 
 16520      68695C44 
 16520      6F63756D 
 16521 0673 6F6A6563 		.ascii	"oject\\robotics_project\\robotics_project\000"
 16521      745C726F 
 16521      626F7469 
 16521      63735F70 
 16521      726F6A65 
 16522              	.LASF89:
 16523 069b 6C6F6E67 		.ascii	"long unsigned int\000"
 16523      20756E73 
ARM GAS  C:\Users\mathi\AppData\Local\Temp\ccF8t5t9.s 			page 296


 16523      69676E65 
 16523      6420696E 
 16523      7400
 16524              	.LASF63:
 16525 06ad 41534542 		.ascii	"ASEBA_MESSAGE_NODE_PRESENT\000"
 16525      415F4D45 
 16525      53534147 
 16525      455F4E4F 
 16525      44455F50 
 16526              	.LASF131:
 16527 06c8 5F66696C 		.ascii	"_file\000"
 16527      6500
 16528              	.LASF278:
 16529 06ce 41736562 		.ascii	"AsebaVMResetWhenFlags\000"
 16529      61564D52 
 16529      65736574 
 16529      5768656E 
 16529      466C6167 
 16530              	.LASF78:
 16531 06e4 41534542 		.ascii	"ASEBA_MESSAGE_REBOOT\000"
 16531      415F4D45 
 16531      53534147 
 16531      455F5245 
 16531      424F4F54 
 16532              	.LASF10:
 16533 06f9 41534542 		.ascii	"ASEBA_BYTECODE_CONDITIONAL_BRANCH\000"
 16533      415F4259 
 16533      5445434F 
 16533      44455F43 
 16533      4F4E4449 
 16534              	.LASF170:
 16535 071b 5F6E696F 		.ascii	"_niobs\000"
 16535      627300
 16536              	.LASF29:
 16537 0722 41534542 		.ascii	"ASEBA_OP_SMALLER_THAN\000"
 16537      415F4F50 
 16537      5F534D41 
 16537      4C4C4552 
 16537      5F544841 
 16538              	.LASF43:
 16539 0738 73686F72 		.ascii	"short unsigned int\000"
 16539      7420756E 
 16539      7369676E 
 16539      65642069 
 16539      6E7400
 16540              	.LASF13:
 16541 074b 41534542 		.ascii	"ASEBA_BYTECODE_SUB_CALL\000"
 16541      415F4259 
 16541      5445434F 
 16541      44455F53 
 16541      55425F43 
 16542              	.LASF187:
 16543 0763 5F736967 		.ascii	"_signal_buf\000"
 16543      6E616C5F 
 16543      62756600 
 16544              	.LASF178:
 16545 076f 5F617363 		.ascii	"_asctime_buf\000"
ARM GAS  C:\Users\mathi\AppData\Local\Temp\ccF8t5t9.s 			page 297


 16545      74696D65 
 16545      5F627566 
 16545      00
 16546              	.LASF268:
 16547 077c 7374726C 		.ascii	"strlen\000"
 16547      656E00
 16548              	.LASF220:
 16549 0783 74797065 		.ascii	"type\000"
 16549      00
 16550              	.LASF44:
 16551 0788 41534542 		.ascii	"ASEBA_MESSAGE_BOOTLOADER_RESET\000"
 16551      415F4D45 
 16551      53534147 
 16551      455F424F 
 16551      4F544C4F 
 16552              	.LASF157:
 16553 07a7 5F726573 		.ascii	"_result\000"
 16553      756C7400 
 16554              	.LASF55:
 16555 07af 41534542 		.ascii	"ASEBA_MESSAGE_DISCONNECTED\000"
 16555      415F4D45 
 16555      53534147 
 16555      455F4449 
 16555      53434F4E 
 16556              	.LASF270:
 16557 07ca 6D656D63 		.ascii	"memcpy\000"
 16557      707900
 16558              	.LASF91:
 16559 07d1 5F4C4F43 		.ascii	"_LOCK_T\000"
 16559      4B5F5400 
 16560              	.LASF94:
 16561 07d9 77696E74 		.ascii	"wint_t\000"
 16561      5F7400
 16562              	.LASF76:
 16563 07e0 41534542 		.ascii	"ASEBA_MESSAGE_SET_VARIABLES\000"
 16563      415F4D45 
 16563      53534147 
 16563      455F5345 
 16563      545F5641 
 16564              	.LASF143:
 16565 07fc 5F6C6F63 		.ascii	"_lock\000"
 16565      6B00
 16566              	.LASF261:
 16567 0802 41736562 		.ascii	"AsebaVMResetCB\000"
 16567      61564D52 
 16567      65736574 
 16567      434200
 16568              	.LASF145:
 16569 0811 5F666C61 		.ascii	"_flags2\000"
 16569      67733200 
 16570              	.LASF56:
 16571 0819 41534542 		.ascii	"ASEBA_MESSAGE_VARIABLES\000"
 16571      415F4D45 
 16571      53534147 
 16571      455F5641 
 16571      52494142 
 16572              	.LASF209:
ARM GAS  C:\Users\mathi\AppData\Local\Temp\ccF8t5t9.s 			page 298


 16573 0831 62797465 		.ascii	"bytecode\000"
 16573      636F6465 
 16573      00
 16574              	.LASF139:
 16575 083a 5F6E6275 		.ascii	"_nbuf\000"
 16575      6600
 16576              	.LASF82:
 16577 0840 41534542 		.ascii	"ASEBA_MESSAGE_INVALID\000"
 16577      415F4D45 
 16577      53534147 
 16577      455F494E 
 16577      56414C49 
 16578              	.LASF203:
 16579 0856 73696E74 		.ascii	"sint16\000"
 16579      313600
 16580              	.LASF135:
 16581 085d 5F777269 		.ascii	"_write\000"
 16581      746500
 16582              	.LASF114:
 16583 0864 5F5F746D 		.ascii	"__tm_year\000"
 16583      5F796561 
 16583      7200
 16584              	.LASF229:
 16585 086e 41736562 		.ascii	"AsebaVMClearBreakpoint\000"
 16585      61564D43 
 16585      6C656172 
 16585      42726561 
 16585      6B706F69 
 16586              	.LASF4:
 16587 0885 41534542 		.ascii	"ASEBA_BYTECODE_STORE\000"
 16587      415F4259 
 16587      5445434F 
 16587      44455F53 
 16587      544F5245 
 16588              	.LASF65:
 16589 089a 41534542 		.ascii	"ASEBA_MESSAGE_SET_BYTECODE\000"
 16589      415F4D45 
 16589      53534147 
 16589      455F5345 
 16589      545F4259 
 16590              	.LASF39:
 16591 08b5 41534542 		.ascii	"ASEBA_VM_EVENT_RUNNING_MASK\000"
 16591      415F564D 
 16591      5F455645 
 16591      4E545F52 
 16591      554E4E49 
 16592              	.LASF196:
 16593 08d1 5F6E6D61 		.ascii	"_nmalloc\000"
 16593      6C6C6F63 
 16593      00
 16594              	.LASF69:
 16595 08da 41534542 		.ascii	"ASEBA_MESSAGE_STEP\000"
 16595      415F4D45 
 16595      53534147 
 16595      455F5354 
 16595      455000
 16596              	.LASF218:
ARM GAS  C:\Users\mathi\AppData\Local\Temp\ccF8t5t9.s 			page 299


 16597 08ed 736F7572 		.ascii	"source\000"
 16597      636500
 16598              	.LASF217:
 16599 08f4 41736562 		.ascii	"AsebaVMState\000"
 16599      61564D53 
 16599      74617465 
 16599      00
 16600              	.LASF249:
 16601 0901 76616C75 		.ascii	"valueTwo\000"
 16601      6554776F 
 16601      00
 16602              	.LASF233:
 16603 090a 73746570 		.ascii	"stepsLimit\000"
 16603      734C696D 
 16603      697400
 16604              	.LASF80:
 16605 0915 41534542 		.ascii	"ASEBA_MESSAGE_GET_NODE_DESCRIPTION\000"
 16605      415F4D45 
 16605      53534147 
 16605      455F4745 
 16605      545F4E4F 
 16606              	.LASF85:
 16607 0938 6C6F6E67 		.ascii	"long double\000"
 16607      20646F75 
 16607      626C6500 
 16608              	.LASF254:
 16609 0944 61646472 		.ascii	"address\000"
 16609      65737300 
 16610              	.LASF128:
 16611 094c 5F73697A 		.ascii	"_size\000"
 16611      6500
 16612              	.LASF3:
 16613 0952 41534542 		.ascii	"ASEBA_BYTECODE_LOAD\000"
 16613      415F4259 
 16613      5445434F 
 16613      44455F4C 
 16613      4F414400 
 16614              	.LASF57:
 16615 0966 41534542 		.ascii	"ASEBA_MESSAGE_ARRAY_ACCESS_OUT_OF_BOUNDS\000"
 16615      415F4D45 
 16615      53534147 
 16615      455F4152 
 16615      5241595F 
 16616              	.LASF195:
 16617 098f 5F6E6578 		.ascii	"_nextf\000"
 16617      746600
 16618              	.LASF53:
 16619 0996 41534542 		.ascii	"ASEBA_MESSAGE_LOCAL_EVENT_DESCRIPTION\000"
 16619      415F4D45 
 16619      53534147 
 16619      455F4C4F 
 16619      43414C5F 
 16620              	.LASF239:
 16621 09bc 6D657373 		.ascii	"message\000"
 16621      61676500 
 16622              	.LASF113:
 16623 09c4 5F5F746D 		.ascii	"__tm_mon\000"
ARM GAS  C:\Users\mathi\AppData\Local\Temp\ccF8t5t9.s 			page 300


 16623      5F6D6F6E 
 16623      00
 16624              	.LASF132:
 16625 09cd 5F6C6266 		.ascii	"_lbfsize\000"
 16625      73697A65 
 16625      00
 16626              	.LASF123:
 16627 09d6 5F617465 		.ascii	"_atexit\000"
 16627      78697400 
 16628              	.LASF202:
 16629 09de 7375626F 		.ascii	"suboptarg\000"
 16629      70746172 
 16629      6700
 16630              	.LASF221:
 16631 09e8 64657374 		.ascii	"dest\000"
 16631      00
 16632              	.LASF74:
 16633 09ed 41534542 		.ascii	"ASEBA_MESSAGE_BREAKPOINT_CLEAR_ALL\000"
 16633      415F4D45 
 16633      53534147 
 16633      455F4252 
 16633      45414B50 
 16634              	.LASF92:
 16635 0a10 5F6F6666 		.ascii	"_off_t\000"
 16635      5F7400
 16636              	.LASF8:
 16637 0a17 41534542 		.ascii	"ASEBA_BYTECODE_BINARY_ARITHMETIC\000"
 16637      415F4259 
 16637      5445434F 
 16637      44455F42 
 16637      494E4152 
 16638              	.LASF243:
 16639 0a38 76617269 		.ascii	"variableIndex\000"
 16639      61626C65 
 16639      496E6465 
 16639      7800
 16640              	.LASF227:
 16641 0a46 41736562 		.ascii	"AsebaVMSendExecutionStateChanged\000"
 16641      61564D53 
 16641      656E6445 
 16641      78656375 
 16641      74696F6E 
 16642              	.LASF18:
 16643 0a67 41534542 		.ascii	"ASEBA_OP_SUB\000"
 16643      415F4F50 
 16643      5F535542 
 16643      00
 16644              	.LASF275:
 16645 0a74 474E5520 		.ascii	"GNU C11 7.2.1 20170904 (release) [ARM/embedded-7-br"
 16645      43313120 
 16645      372E322E 
 16645      31203230 
 16645      31373039 
 16646 0aa7 616E6368 		.ascii	"anch revision 255204] -mcpu=cortex-m4 -mfloat-abi=h"
 16646      20726576 
 16646      6973696F 
 16646      6E203235 
ARM GAS  C:\Users\mathi\AppData\Local\Temp\ccF8t5t9.s 			page 301


 16646      35323034 
 16647 0ada 61726420 		.ascii	"ard -mfpu=fpv4-sp-d16 -mno-thumb-interwork -mthumb "
 16647      2D6D6670 
 16647      753D6670 
 16647      76342D73 
 16647      702D6431 
 16648 0b0d 2D676764 		.ascii	"-ggdb -O3 -fomit-frame-pointer -falign-functions=16"
 16648      62202D4F 
 16648      33202D66 
 16648      6F6D6974 
 16648      2D667261 
 16649 0b40 202D666E 		.ascii	" -fno-strict-aliasing -fstack-protector-all -ffunct"
 16649      6F2D7374 
 16649      72696374 
 16649      2D616C69 
 16649      6173696E 
 16650 0b73 696F6E2D 		.ascii	"ion-sections -fdata-sections -fno-common -fsingle-p"
 16650      73656374 
 16650      696F6E73 
 16650      202D6664 
 16650      6174612D 
 16651 0ba6 72656369 		.ascii	"recision-constant\000"
 16651      73696F6E 
 16651      2D636F6E 
 16651      7374616E 
 16651      7400
 16652              	.LASF266:
 16653 0bb8 41736562 		.ascii	"AsebaVMErrorCB\000"
 16653      61564D45 
 16653      72726F72 
 16653      434200
 16654              	.LASF160:
 16655 0bc7 5F667265 		.ascii	"_freelist\000"
 16655      656C6973 
 16655      7400
 16656              	.LASF262:
 16657 0bd1 41736562 		.ascii	"AsebaPutVmToSleep\000"
 16657      61507574 
 16657      566D546F 
 16657      536C6565 
 16657      7000
 16658              	.LASF59:
 16659 0be3 41534542 		.ascii	"ASEBA_MESSAGE_EVENT_EXECUTION_KILLED\000"
 16659      415F4D45 
 16659      53534147 
 16659      455F4556 
 16659      454E545F 
 16660              	.LASF17:
 16661 0c08 41534542 		.ascii	"ASEBA_OP_ADD\000"
 16661      415F4F50 
 16661      5F414444 
 16661      00
 16662              	.LASF185:
 16663 0c15 5F776374 		.ascii	"_wctomb_state\000"
 16663      6F6D625F 
 16663      73746174 
 16663      6500
ARM GAS  C:\Users\mathi\AppData\Local\Temp\ccF8t5t9.s 			page 302


 16664              	.LASF216:
 16665 0c23 62726561 		.ascii	"breakpointsCount\000"
 16665      6B706F69 
 16665      6E747343 
 16665      6F756E74 
 16665      00
 16666              	.LASF16:
 16667 0c34 41534542 		.ascii	"ASEBA_OP_SHIFT_RIGHT\000"
 16667      415F4F50 
 16667      5F534849 
 16667      46545F52 
 16667      49474854 
 16668              	.LASF27:
 16669 0c49 41534542 		.ascii	"ASEBA_OP_BIGGER_THAN\000"
 16669      415F4F50 
 16669      5F424947 
 16669      4745525F 
 16669      5448414E 
 16670              	.LASF54:
 16671 0c5e 41534542 		.ascii	"ASEBA_MESSAGE_NATIVE_FUNCTION_DESCRIPTION\000"
 16671      415F4D45 
 16671      53534147 
 16671      455F4E41 
 16671      54495645 
 16672              	.LASF42:
 16673 0c88 756E7369 		.ascii	"unsigned char\000"
 16673      676E6564 
 16673      20636861 
 16673      7200
 16674              	.LASF272:
 16675 0c96 5F5F6275 		.ascii	"__builtin_memcpy\000"
 16675      696C7469 
 16675      6E5F6D65 
 16675      6D637079 
 16675      00
 16676              	.LASF163:
 16677 0ca7 5F6E6577 		.ascii	"_new\000"
 16677      00
 16678              	.LASF238:
 16679 0cac 41736562 		.ascii	"AsebaVMEmitNodeSpecificError\000"
 16679      61564D45 
 16679      6D69744E 
 16679      6F646553 
 16679      70656369 
 16680              	.LASF71:
 16681 0cc9 41534542 		.ascii	"ASEBA_MESSAGE_GET_EXECUTION_STATE\000"
 16681      415F4D45 
 16681      53534147 
 16681      455F4745 
 16681      545F4558 
 16682              	.LASF68:
 16683 0ceb 41534542 		.ascii	"ASEBA_MESSAGE_PAUSE\000"
 16683      415F4D45 
 16683      53534147 
 16683      455F5041 
 16683      55534500 
 16684              	.LASF45:
ARM GAS  C:\Users\mathi\AppData\Local\Temp\ccF8t5t9.s 			page 303


 16685 0cff 41534542 		.ascii	"ASEBA_MESSAGE_BOOTLOADER_READ_PAGE\000"
 16685      415F4D45 
 16685      53534147 
 16685      455F424F 
 16685      4F544C4F 
 16686              	.LASF7:
 16687 0d22 41534542 		.ascii	"ASEBA_BYTECODE_UNARY_ARITHMETIC\000"
 16687      415F4259 
 16687      5445434F 
 16687      44455F55 
 16687      4E415259 
 16688              	.LASF194:
 16689 0d42 5F685F65 		.ascii	"_h_errno\000"
 16689      72726E6F 
 16689      00
 16690              	.LASF87:
 16691 0d4b 73686F72 		.ascii	"short int\000"
 16691      7420696E 
 16691      7400
 16692              	.LASF116:
 16693 0d55 5F5F746D 		.ascii	"__tm_yday\000"
 16693      5F796461 
 16693      7900
 16694              	.LASF126:
 16695 0d5f 5F5F7362 		.ascii	"__sbuf\000"
 16695      756600
 16696              	.LASF171:
 16697 0d66 5F696F62 		.ascii	"_iobs\000"
 16697      7300
 16698              	.LASF168:
 16699 0d6c 5F5F4649 		.ascii	"__FILE\000"
 16699      4C4500
 16700              	.LASF99:
 16701 0d73 5F6D6273 		.ascii	"_mbstate_t\000"
 16701      74617465 
 16701      5F7400
 16702              	.LASF129:
 16703 0d7e 5F5F7346 		.ascii	"__sFILE\000"
 16703      494C4500 
 16704              	.LASF144:
 16705 0d86 5F6D6273 		.ascii	"_mbstate\000"
 16705      74617465 
 16705      00
 16706              	.LASF181:
 16707 0d8f 5F72616E 		.ascii	"_rand_next\000"
 16707      645F6E65 
 16707      787400
 16708              	.LASF41:
 16709 0d9a 41534542 		.ascii	"ASEBA_EVENT_LOCAL_EVENTS_START\000"
 16709      415F4556 
 16709      454E545F 
 16709      4C4F4341 
 16709      4C5F4556 
 16710              	.LASF183:
 16711 0db9 5F6D626C 		.ascii	"_mblen_state\000"
 16711      656E5F73 
 16711      74617465 
ARM GAS  C:\Users\mathi\AppData\Local\Temp\ccF8t5t9.s 			page 304


 16711      00
 16712              	.LASF151:
 16713 0dc6 5F696E63 		.ascii	"_inc\000"
 16713      00
 16714              	.LASF124:
 16715 0dcb 5F696E64 		.ascii	"_ind\000"
 16715      00
 16716              	.LASF154:
 16717 0dd0 5F6C6F63 		.ascii	"_locale\000"
 16717      616C6500 
 16718              	.LASF156:
 16719 0dd8 5F5F636C 		.ascii	"__cleanup\000"
 16719      65616E75 
 16719      7000
 16720              	.LASF153:
 16721 0de2 5F756E73 		.ascii	"_unspecified_locale_info\000"
 16721      70656369 
 16721      66696564 
 16721      5F6C6F63 
 16721      616C655F 
 16722              	.LASF281:
 16723 0dfb 5F5F7374 		.ascii	"__stack_chk_fail\000"
 16723      61636B5F 
 16723      63686B5F 
 16723      6661696C 
 16723      00
 16724              	.LASF104:
 16725 0e0c 5F6D6178 		.ascii	"_maxwds\000"
 16725      77647300 
 16726              	.LASF146:
 16727 0e14 5F726565 		.ascii	"_reent\000"
 16727      6E7400
 16728              	.LASF0:
 16729 0e1b 41534542 		.ascii	"ASEBA_BYTECODE_STOP\000"
 16729      415F4259 
 16729      5445434F 
 16729      44455F53 
 16729      544F5000 
 16730              	.LASF173:
 16731 0e2f 5F736565 		.ascii	"_seed\000"
 16731      6400
 16732              	.LASF52:
 16733 0e35 41534542 		.ascii	"ASEBA_MESSAGE_NAMED_VARIABLE_DESCRIPTION\000"
 16733      415F4D45 
 16733      53534147 
 16733      455F4E41 
 16733      4D45445F 
 16734              	.LASF97:
 16735 0e5e 5F5F636F 		.ascii	"__count\000"
 16735      756E7400 
 16736              	.LASF198:
 16737 0e66 5F5F6C6F 		.ascii	"__lock\000"
 16737      636B00
 16738              	.LASF98:
 16739 0e6d 5F5F7661 		.ascii	"__value\000"
 16739      6C756500 
 16740              	.LASF111:
ARM GAS  C:\Users\mathi\AppData\Local\Temp\ccF8t5t9.s 			page 305


 16741 0e75 5F5F746D 		.ascii	"__tm_hour\000"
 16741      5F686F75 
 16741      7200
 16742              	.LASF136:
 16743 0e7f 5F736565 		.ascii	"_seek\000"
 16743      6B00
 16744              	.LASF22:
 16745 0e85 41534542 		.ascii	"ASEBA_OP_BIT_OR\000"
 16745      415F4F50 
 16745      5F424954 
 16745      5F4F5200 
 16746              	.LASF115:
 16747 0e95 5F5F746D 		.ascii	"__tm_wday\000"
 16747      5F776461 
 16747      7900
 16748              	.LASF11:
 16749 0e9f 41534542 		.ascii	"ASEBA_BYTECODE_EMIT\000"
 16749      415F4259 
 16749      5445434F 
 16749      44455F45 
 16749      4D495400 
 16750              	.LASF93:
 16751 0eb3 5F66706F 		.ascii	"_fpos_t\000"
 16751      735F7400 
 16752              	.LASF101:
 16753 0ebb 63686172 		.ascii	"char\000"
 16753      00
 16754              	.LASF147:
 16755 0ec0 5F657272 		.ascii	"_errno\000"
 16755      6E6F00
 16756              	.LASF20:
 16757 0ec7 41534542 		.ascii	"ASEBA_OP_DIV\000"
 16757      415F4F50 
 16757      5F444956 
 16757      00
 16758              	.LASF110:
 16759 0ed4 5F5F746D 		.ascii	"__tm_min\000"
 16759      5F6D696E 
 16759      00
 16760              	.LASF212:
 16761 0edd 73746163 		.ascii	"stackSize\000"
 16761      6B53697A 
 16761      6500
 16762              	.LASF252:
 16763 0ee7 41736562 		.ascii	"AsebaVMSetupEvent\000"
 16763      61564D53 
 16763      65747570 
 16763      4576656E 
 16763      7400
 16764              	.LASF255:
 16765 0ef9 41736562 		.ascii	"AsebaVMGetEventAddress\000"
 16765      61564D47 
 16765      65744576 
 16765      656E7441 
 16765      64647265 
 16766              	.LASF81:
 16767 0f10 41534542 		.ascii	"ASEBA_MESSAGE_LIST_NODES\000"
ARM GAS  C:\Users\mathi\AppData\Local\Temp\ccF8t5t9.s 			page 306


 16767      415F4D45 
 16767      53534147 
 16767      455F4C49 
 16767      53545F4E 
 16768              	.LASF5:
 16769 0f29 41534542 		.ascii	"ASEBA_BYTECODE_LOAD_INDIRECT\000"
 16769      415F4259 
 16769      5445434F 
 16769      44455F4C 
 16769      4F41445F 
 16770              	.LASF226:
 16771 0f46 62756666 		.ascii	"buffer\000"
 16771      657200
 16772              	.LASF174:
 16773 0f4d 5F6D756C 		.ascii	"_mult\000"
 16773      7400
 16774              	.LASF103:
 16775 0f53 5F6E6578 		.ascii	"_next\000"
 16775      7400
 16776              	.LASF6:
 16777 0f59 41534542 		.ascii	"ASEBA_BYTECODE_STORE_INDIRECT\000"
 16777      415F4259 
 16777      5445434F 
 16777      44455F53 
 16777      544F5245 
 16778              	.LASF70:
 16779 0f77 41534542 		.ascii	"ASEBA_MESSAGE_STOP\000"
 16779      415F4D45 
 16779      53534147 
 16779      455F5354 
 16779      4F5000
 16780              	.LASF73:
 16781 0f8a 41534542 		.ascii	"ASEBA_MESSAGE_BREAKPOINT_CLEAR\000"
 16781      415F4D45 
 16781      53534147 
 16781      455F4252 
 16781      45414B50 
 16782              	.LASF121:
 16783 0fa9 5F666E74 		.ascii	"_fntypes\000"
 16783      79706573 
 16783      00
 16784              	.LASF257:
 16785 0fb2 41736562 		.ascii	"AsebaVMInit\000"
 16785      61564D49 
 16785      6E697400 
 16786              	.LASF175:
 16787 0fbe 5F616464 		.ascii	"_add\000"
 16787      00
 16788              	.LASF102:
 16789 0fc3 5F5F554C 		.ascii	"__ULong\000"
 16789      6F6E6700 
 16790              	.LASF188:
 16791 0fcb 5F676574 		.ascii	"_getdate_err\000"
 16791      64617465 
 16791      5F657272 
 16791      00
 16792              	.LASF276:
ARM GAS  C:\Users\mathi\AppData\Local\Temp\ccF8t5t9.s 			page 307


 16793 0fd8 2E2E2F2E 		.ascii	"../../lib/e-puck2_main-processor/aseba/vm/vm.c\000"
 16793      2E2F6C69 
 16793      622F652D 
 16793      7075636B 
 16793      325F6D61 
 16794              	.LASF247:
 16795 1007 6F705265 		.ascii	"opResult\000"
 16795      73756C74 
 16795      00
 16796              	.LASF228:
 16797 1010 41736562 		.ascii	"AsebaVMClearBreakpoints\000"
 16797      61564D43 
 16797      6C656172 
 16797      42726561 
 16797      6B706F69 
 16798              	.LASF201:
 16799 1028 5F676C6F 		.ascii	"_global_impure_ptr\000"
 16799      62616C5F 
 16799      696D7075 
 16799      72655F70 
 16799      747200
 16800              	.LASF34:
 16801 103b 41534542 		.ascii	"ASEBA_UNARY_OP_ABS\000"
 16801      415F554E 
 16801      4152595F 
 16801      4F505F41 
 16801      425300
 16802              	.LASF264:
 16803 104e 41736562 		.ascii	"AsebaVMRunCB\000"
 16803      61564D52 
 16803      756E4342 
 16803      00
 16804              	.LASF26:
 16805 105b 41534542 		.ascii	"ASEBA_OP_NOT_EQUAL\000"
 16805      415F4F50 
 16805      5F4E4F54 
 16805      5F455155 
 16805      414C00
 16806              	.LASF273:
 16807 106e 6D656D73 		.ascii	"memset\000"
 16807      657400
 16808              	.LASF176:
 16809 1075 5F756E75 		.ascii	"_unused_rand\000"
 16809      7365645F 
 16809      72616E64 
 16809      00
 16810              	.LASF280:
 16811 1082 41736562 		.ascii	"AsebaVMDoBinaryOperation\000"
 16811      61564D44 
 16811      6F42696E 
 16811      6172794F 
 16811      70657261 
 16812              	.LASF230:
 16813 109b 41736562 		.ascii	"AsebaVMSetBreakpoint\000"
 16813      61564D53 
 16813      65744272 
 16813      65616B70 
ARM GAS  C:\Users\mathi\AppData\Local\Temp\ccF8t5t9.s 			page 308


 16813      6F696E74 
 16814              	.LASF30:
 16815 10b0 41534542 		.ascii	"ASEBA_OP_SMALLER_EQUAL_THAN\000"
 16815      415F4F50 
 16815      5F534D41 
 16815      4C4C4552 
 16815      5F455155 
 16816              	.LASF106:
 16817 10cc 5F776473 		.ascii	"_wds\000"
 16817      00
 16818              	.LASF21:
 16819 10d1 41534542 		.ascii	"ASEBA_OP_MOD\000"
 16819      415F4F50 
 16819      5F4D4F44 
 16819      00
 16820              	.LASF169:
 16821 10de 5F676C75 		.ascii	"_glue\000"
 16821      6500
 16822              	.LASF234:
 16823 10e4 41736562 		.ascii	"AsebaDebugBreakpointRun\000"
 16823      61446562 
 16823      75674272 
 16823      65616B70 
 16823      6F696E74 
 16824              	.LASF251:
 16825 10fc 636F6E64 		.ascii	"conditionResult\000"
 16825      6974696F 
 16825      6E526573 
 16825      756C7400 
 16826              	.LASF50:
 16827 110c 41534542 		.ascii	"ASEBA_MESSAGE_BOOTLOADER_ACK\000"
 16827      415F4D45 
 16827      53534147 
 16827      455F424F 
 16827      4F544C4F 
 16828              	.LASF186:
 16829 1129 5F6C3634 		.ascii	"_l64a_buf\000"
 16829      615F6275 
 16829      6600
 16830              	.LASF214:
 16831 1133 666C6167 		.ascii	"flags\000"
 16831      7300
 16832              	.LASF19:
 16833 1139 41534542 		.ascii	"ASEBA_OP_MULT\000"
 16833      415F4F50 
 16833      5F4D554C 
 16833      5400
 16834              	.LASF165:
 16835 1147 5F736967 		.ascii	"_sig_func\000"
 16835      5F66756E 
 16835      6300
 16836              	.LASF213:
 16837 1151 73746163 		.ascii	"stack\000"
 16837      6B00
 16838              	.LASF225:
 16839 1157 6C656E67 		.ascii	"length\000"
 16839      746800
ARM GAS  C:\Users\mathi\AppData\Local\Temp\ccF8t5t9.s 			page 309


 16840              	.LASF248:
 16841 115e 76616C75 		.ascii	"valueOne\000"
 16841      654F6E65 
 16841      00
 16842              	.LASF32:
 16843 1167 41534542 		.ascii	"ASEBA_OP_AND\000"
 16843      415F4F50 
 16843      5F414E44 
 16843      00
 16844              	.LASF58:
 16845 1174 41534542 		.ascii	"ASEBA_MESSAGE_DIVISION_BY_ZERO\000"
 16845      415F4D45 
 16845      53534147 
 16845      455F4449 
 16845      56495349 
 16846              	.LASF197:
 16847 1193 5F756E75 		.ascii	"_unused\000"
 16847      73656400 
 16848              	.LASF31:
 16849 119b 41534542 		.ascii	"ASEBA_OP_OR\000"
 16849      415F4F50 
 16849      5F4F5200 
 16850              	.LASF77:
 16851 11a7 41534542 		.ascii	"ASEBA_MESSAGE_WRITE_BYTECODE\000"
 16851      415F4D45 
 16851      53534147 
 16851      455F5752 
 16851      4954455F 
 16852              	.LASF117:
 16853 11c4 5F5F746D 		.ascii	"__tm_isdst\000"
 16853      5F697364 
 16853      737400
 16854              	.LASF179:
 16855 11cf 5F6C6F63 		.ascii	"_localtime_buf\000"
 16855      616C7469 
 16855      6D655F62 
 16855      756600
 16856              	.LASF137:
 16857 11de 5F636C6F 		.ascii	"_close\000"
 16857      736500
 16858              	.LASF72:
 16859 11e5 41534542 		.ascii	"ASEBA_MESSAGE_BREAKPOINT_SET\000"
 16859      415F4D45 
 16859      53534147 
 16859      455F4252 
 16859      45414B50 
 16860              	.LASF182:
 16861 1202 5F723438 		.ascii	"_r48\000"
 16861      00
 16862              	.LASF224:
 16863 1207 73746172 		.ascii	"start\000"
 16863      7400
 16864              	.LASF184:
 16865 120d 5F6D6274 		.ascii	"_mbtowc_state\000"
 16865      6F77635F 
 16865      73746174 
 16865      6500
ARM GAS  C:\Users\mathi\AppData\Local\Temp\ccF8t5t9.s 			page 310


 16866              	.LASF159:
 16867 121b 5F703573 		.ascii	"_p5s\000"
 16867      00
 16868              	.LASF232:
 16869 1220 41736562 		.ascii	"AsebaVMRun\000"
 16869      61564D52 
 16869      756E00
 16870              	.LASF24:
 16871 122b 41534542 		.ascii	"ASEBA_OP_BIT_AND\000"
 16871      415F4F50 
 16871      5F424954 
 16871      5F414E44 
 16871      00
 16872              	.LASF23:
 16873 123c 41534542 		.ascii	"ASEBA_OP_BIT_XOR\000"
 16873      415F4F50 
 16873      5F424954 
 16873      5F584F52 
 16873      00
 16874              	.LASF112:
 16875 124d 5F5F746D 		.ascii	"__tm_mday\000"
 16875      5F6D6461 
 16875      7900
 16876              	.LASF245:
 16877 1257 61727261 		.ascii	"arraySize\000"
 16877      7953697A 
 16877      6500
 16878              	.LASF279:
 16879 1261 41736562 		.ascii	"AsebaVMDoUnaryOperation\000"
 16879      61564D44 
 16879      6F556E61 
 16879      72794F70 
 16879      65726174 
 16880              	.LASF260:
 16881 1279 41736562 		.ascii	"AsebaSendDescription\000"
 16881      6153656E 
 16881      64446573 
 16881      63726970 
 16881      74696F6E 
 16882              	.LASF256:
 16883 128e 6576656E 		.ascii	"eventVectorSize\000"
 16883      74566563 
 16883      746F7253 
 16883      697A6500 
 16884              		.ident	"GCC: (GNU Tools for Arm Embedded Processors 7-2017-q4-major) 7.2.1 20170904 (release) [ARM
ARM GAS  C:\Users\mathi\AppData\Local\Temp\ccF8t5t9.s 			page 311


DEFINED SYMBOLS
                            *ABS*:00000000 vm.c
C:\Users\mathi\AppData\Local\Temp\ccF8t5t9.s:18     .text.AsebaVMDoBinaryOperation:00000000 $t
C:\Users\mathi\AppData\Local\Temp\ccF8t5t9.s:25     .text.AsebaVMDoBinaryOperation:00000000 AsebaVMDoBinaryOperation
C:\Users\mathi\AppData\Local\Temp\ccF8t5t9.s:51     .text.AsebaVMDoBinaryOperation:00000014 $d
C:\Users\mathi\AppData\Local\Temp\ccF8t5t9.s:69     .text.AsebaVMDoBinaryOperation:00000026 $t
C:\Users\mathi\AppData\Local\Temp\ccF8t5t9.s:235    .text.AsebaVMDoBinaryOperation:000000f4 $d
C:\Users\mathi\AppData\Local\Temp\ccF8t5t9.s:241    .text.AsebaVMInit:00000000 $t
C:\Users\mathi\AppData\Local\Temp\ccF8t5t9.s:249    .text.AsebaVMInit:00000000 AsebaVMInit
C:\Users\mathi\AppData\Local\Temp\ccF8t5t9.s:304    .text.AsebaVMInit:00000030 $d
C:\Users\mathi\AppData\Local\Temp\ccF8t5t9.s:309    .text.AsebaVMGetEventAddress:00000000 $t
C:\Users\mathi\AppData\Local\Temp\ccF8t5t9.s:317    .text.AsebaVMGetEventAddress:00000000 AsebaVMGetEventAddress
C:\Users\mathi\AppData\Local\Temp\ccF8t5t9.s:404    .text.AsebaVMGetEventAddress:00000050 $d
C:\Users\mathi\AppData\Local\Temp\ccF8t5t9.s:409    .text.AsebaVMSetupEvent:00000000 $t
C:\Users\mathi\AppData\Local\Temp\ccF8t5t9.s:417    .text.AsebaVMSetupEvent:00000000 AsebaVMSetupEvent
C:\Users\mathi\AppData\Local\Temp\ccF8t5t9.s:585    .text.AsebaVMSetupEvent:00000098 $d
C:\Users\mathi\AppData\Local\Temp\ccF8t5t9.s:590    .text.AsebaVMStep:00000000 $t
C:\Users\mathi\AppData\Local\Temp\ccF8t5t9.s:598    .text.AsebaVMStep:00000000 AsebaVMStep
C:\Users\mathi\AppData\Local\Temp\ccF8t5t9.s:637    .text.AsebaVMStep:00000020 $d
C:\Users\mathi\AppData\Local\Temp\ccF8t5t9.s:652    .text.AsebaVMStep:0000003e $t
C:\Users\mathi\AppData\Local\Temp\ccF8t5t9.s:1142   .text.AsebaVMStep:000002a8 $d
C:\Users\mathi\AppData\Local\Temp\ccF8t5t9.s:1148   .text.AsebaVMEmitNodeSpecificError:00000000 $t
C:\Users\mathi\AppData\Local\Temp\ccF8t5t9.s:1156   .text.AsebaVMEmitNodeSpecificError:00000000 AsebaVMEmitNodeSpecificError
C:\Users\mathi\AppData\Local\Temp\ccF8t5t9.s:1259   .text.AsebaVMEmitNodeSpecificError:0000007c $d
C:\Users\mathi\AppData\Local\Temp\ccF8t5t9.s:1265   .text.AsebaVMCheckBreakpoint:00000000 $t
C:\Users\mathi\AppData\Local\Temp\ccF8t5t9.s:1273   .text.AsebaVMCheckBreakpoint:00000000 AsebaVMCheckBreakpoint
C:\Users\mathi\AppData\Local\Temp\ccF8t5t9.s:1458   .text.AsebaVMCheckBreakpoint:000000d0 $d
C:\Users\mathi\AppData\Local\Temp\ccF8t5t9.s:1463   .text.AsebaDebugBareRun:00000000 $t
C:\Users\mathi\AppData\Local\Temp\ccF8t5t9.s:1471   .text.AsebaDebugBareRun:00000000 AsebaDebugBareRun
C:\Users\mathi\AppData\Local\Temp\ccF8t5t9.s:1535   .text.AsebaDebugBareRun:00000042 $d
C:\Users\mathi\AppData\Local\Temp\ccF8t5t9.s:1551   .text.AsebaDebugBareRun:00000060 $t
C:\Users\mathi\AppData\Local\Temp\ccF8t5t9.s:1678   .text.AsebaDebugBareRun:0000010c $d
C:\Users\mathi\AppData\Local\Temp\ccF8t5t9.s:1693   .text.AsebaDebugBareRun:00000148 $t
C:\Users\mathi\AppData\Local\Temp\ccF8t5t9.s:1993   .text.AsebaDebugBareRun:000002e0 $d
C:\Users\mathi\AppData\Local\Temp\ccF8t5t9.s:1999   .text.AsebaDebugBareRun:000002e8 $t
C:\Users\mathi\AppData\Local\Temp\ccF8t5t9.s:2646   .text.AsebaDebugBreakpointRun:00000000 $t
C:\Users\mathi\AppData\Local\Temp\ccF8t5t9.s:2654   .text.AsebaDebugBreakpointRun:00000000 AsebaDebugBreakpointRun
C:\Users\mathi\AppData\Local\Temp\ccF8t5t9.s:3047   .text.AsebaDebugBreakpointRun:000001e4 $d
C:\Users\mathi\AppData\Local\Temp\ccF8t5t9.s:3052   .text.AsebaVMRun:00000000 $t
C:\Users\mathi\AppData\Local\Temp\ccF8t5t9.s:3060   .text.AsebaVMRun:00000000 AsebaVMRun
C:\Users\mathi\AppData\Local\Temp\ccF8t5t9.s:3141   .text.AsebaVMRun:00000056 $d
C:\Users\mathi\AppData\Local\Temp\ccF8t5t9.s:3157   .text.AsebaVMRun:00000074 $t
C:\Users\mathi\AppData\Local\Temp\ccF8t5t9.s:3504   .text.AsebaVMRun:00000214 $d
C:\Users\mathi\AppData\Local\Temp\ccF8t5t9.s:3523   .text.AsebaVMRun:00000250 $d
C:\Users\mathi\AppData\Local\Temp\ccF8t5t9.s:3534   .text.AsebaVMRun:00000258 $t
C:\Users\mathi\AppData\Local\Temp\ccF8t5t9.s:4670   .text.AsebaVMSetBreakpoint:00000000 $t
C:\Users\mathi\AppData\Local\Temp\ccF8t5t9.s:4678   .text.AsebaVMSetBreakpoint:00000000 AsebaVMSetBreakpoint
C:\Users\mathi\AppData\Local\Temp\ccF8t5t9.s:4738   .text.AsebaVMSetBreakpoint:00000030 $d
C:\Users\mathi\AppData\Local\Temp\ccF8t5t9.s:4743   .text.AsebaVMClearBreakpoint:00000000 $t
C:\Users\mathi\AppData\Local\Temp\ccF8t5t9.s:4751   .text.AsebaVMClearBreakpoint:00000000 AsebaVMClearBreakpoint
C:\Users\mathi\AppData\Local\Temp\ccF8t5t9.s:5024   .text.AsebaVMClearBreakpoint:00000128 $d
C:\Users\mathi\AppData\Local\Temp\ccF8t5t9.s:5029   .text.AsebaVMClearBreakpoints:00000000 $t
C:\Users\mathi\AppData\Local\Temp\ccF8t5t9.s:5037   .text.AsebaVMClearBreakpoints:00000000 AsebaVMClearBreakpoints
C:\Users\mathi\AppData\Local\Temp\ccF8t5t9.s:5076   .text.AsebaVMClearBreakpoints:00000020 $d
C:\Users\mathi\AppData\Local\Temp\ccF8t5t9.s:5081   .text.AsebaVMSendExecutionStateChanged:00000000 $t
C:\Users\mathi\AppData\Local\Temp\ccF8t5t9.s:5089   .text.AsebaVMSendExecutionStateChanged:00000000 AsebaVMSendExecutionStateChanged
C:\Users\mathi\AppData\Local\Temp\ccF8t5t9.s:5141   .text.AsebaVMSendExecutionStateChanged:00000034 $d
ARM GAS  C:\Users\mathi\AppData\Local\Temp\ccF8t5t9.s 			page 312


C:\Users\mathi\AppData\Local\Temp\ccF8t5t9.s:5146   .text.AsebaVMDebugMessage:00000000 $t
C:\Users\mathi\AppData\Local\Temp\ccF8t5t9.s:5154   .text.AsebaVMDebugMessage:00000000 AsebaVMDebugMessage
C:\Users\mathi\AppData\Local\Temp\ccF8t5t9.s:5237   .text.AsebaVMDebugMessage:00000050 $d
C:\Users\mathi\AppData\Local\Temp\ccF8t5t9.s:5254   .text.AsebaVMDebugMessage:00000070 $t
C:\Users\mathi\AppData\Local\Temp\ccF8t5t9.s:5791   .text.AsebaVMDebugMessage:000002f4 $d
C:\Users\mathi\AppData\Local\Temp\ccF8t5t9.s:5798   .text.AsebaVMDebugMessage:00000300 $t
C:\Users\mathi\AppData\Local\Temp\ccF8t5t9.s:6003   .text.AsebaVMShouldDropPacket:00000000 $t
C:\Users\mathi\AppData\Local\Temp\ccF8t5t9.s:6011   .text.AsebaVMShouldDropPacket:00000000 AsebaVMShouldDropPacket
C:\Users\mathi\AppData\Local\Temp\ccF8t5t9.s:6140   .text.AsebaVMShouldDropPacket:0000007c $d

UNDEFINED SYMBOLS
AsebaVMErrorCB
AsebaSendMessage
__stack_chk_fail
__stack_chk_guard
memset
AsebaNativeFunction
strlen
memcpy
memmove
AsebaSendDescription
AsebaVMResetCB
AsebaPutVmToSleep
AsebaResetIntoBootloader
AsebaVMRunCB
AsebaSendVariables
AsebaWriteBytecode
